?_AfxDeleteRegKey@@YAHPB_W@Z => Microsoft (R) C++ Name Undecorator Copyright (C) Microsoft Corporation. All rights reserved.  Undecoration of :- "?_AfxDeleteRegKey@@YAHPB_W@Z" is :- "int __cdecl _AfxDeleteRegKey(wchar_t const *)" 
?_AfxDeleteRegKey@@YAHPBG@Z => Microsoft (R) C++ Name Undecorator Copyright (C) Microsoft Corporation. All rights reserved.  Undecoration of :- "?_AfxDeleteRegKey@@YAHPBG@Z" is :- "int __cdecl _AfxDeleteRegKey(unsigned short const *)" 
??$HashKey@PB_W@@YAIPB_W@Z => Microsoft (R) C++ Name Undecorator Copyright (C) Microsoft Corporation. All rights reserved.  Undecoration of :- "??$HashKey@PB_W@@YAIPB_W@Z" is :- "unsigned int __cdecl HashKey<wchar_t const *>(wchar_t const *)" 
??$HashKey@PBG@@YAIPBG@Z => Microsoft (R) C++ Name Undecorator Copyright (C) Microsoft Corporation. All rights reserved.  Undecoration of :- "??$HashKey@PBG@@YAIPBG@Z" is :- "unsigned int __cdecl HashKey<unsigned short const *>(unsigned short const *)" 
??$SerializeElements@V?$CStringT@_WV?$StrTraitMFC_DLL@_WV?$ChTraitsCRT@_W@ATL@@@@@ATL@@@@YAXAAVCArchive@@PAV?$CStringT@_WV?$StrTraitMFC_DLL@_WV?$ChTraitsCRT@_W@ATL@@@@@ATL@@H@Z => Microsoft (R) C++ Name Undecorator Copyright (C) Microsoft Corporation. All rights reserved.  Undecoration of :- "??$SerializeElements@V?$CStringT@_WV?$StrTraitMFC_DLL@_WV?$ChTraitsCRT@_W@ATL@@@@@ATL@@@@YAXAAVCArchive@@PAV?$CStringT@_WV?$StrTraitMFC_DLL@_WV?$ChTraitsCRT@_W@ATL@@@@@ATL@@H@Z" is :- "void __cdecl SerializeElements<class ATL::CStringT<wchar_t,class StrTraitMFC_DLL<wchar_t,class ATL::ChTraitsCRT<wchar_t> > > >(class CArchive &,class ATL::CStringT<wchar_t,class StrTraitMFC_DLL<wchar_t,class ATL::ChTraitsCRT<wchar_t> > > *,int)" 
??$SerializeElements@V?$CStringT@GV?$StrTraitMFC_DLL@GV?$ChTraitsCRT@G@ATL@@@@@ATL@@@@YAXAAVCArchive@@PAV?$CStringT@GV?$StrTraitMFC_DLL@GV?$ChTraitsCRT@G@ATL@@@@@ATL@@H@Z => Microsoft (R) C++ Name Undecorator Copyright (C) Microsoft Corporation. All rights reserved.  Undecoration of :- "??$SerializeElements@V?$CStringT@GV?$StrTraitMFC_DLL@GV?$ChTraitsCRT@G@ATL@@@@@ATL@@@@YAXAAVCArchive@@PAV?$CStringT@GV?$StrTraitMFC_DLL@GV?$ChTraitsCRT@G@ATL@@@@@ATL@@H@Z" is :- "void __cdecl SerializeElements<class ATL::CStringT<unsigned short,class StrTraitMFC_DLL<unsigned short,class ATL::ChTraitsCRT<unsigned short> > > >(class CArchive &,class ATL::CStringT<unsigned short,class StrTraitMFC_DLL<unsigned short,class ATL::ChTraitsCRT<unsigned short> > > *,int)" 
??0?$CSimpleStringT@_W$00@ATL@@QAA@ABV?$CSimpleStringT@_W$0A@@1@@Z => Microsoft (R) C++ Name Undecorator Copyright (C) Microsoft Corporation. All rights reserved.  Undecoration of :- "??0?$CSimpleStringT@_W$00@ATL@@QAA@ABV?$CSimpleStringT@_W$0A@@1@@Z" is :- "public: __cdecl ATL::CSimpleStringT<wchar_t,1>::CSimpleStringT<wchar_t,1>(class ATL::CSimpleStringT<wchar_t,0> const &)" 
??0?$CSimpleStringT@_W$00@ATL@@QAA@ABV01@@Z => Microsoft (R) C++ Name Undecorator Copyright (C) Microsoft Corporation. All rights reserved.  Undecoration of :- "??0?$CSimpleStringT@_W$00@ATL@@QAA@ABV01@@Z" is :- "public: __cdecl ATL::CSimpleStringT<wchar_t,1>::CSimpleStringT<wchar_t,1>(class ATL::CSimpleStringT<wchar_t,1> const &)" 
??0?$CSimpleStringT@_W$00@ATL@@QAA@PAUIAtlStringMgr@1@@Z => Microsoft (R) C++ Name Undecorator Copyright (C) Microsoft Corporation. All rights reserved.  Undecoration of :- "??0?$CSimpleStringT@_W$00@ATL@@QAA@PAUIAtlStringMgr@1@@Z" is :- "public: __cdecl ATL::CSimpleStringT<wchar_t,1>::CSimpleStringT<wchar_t,1>(struct ATL::IAtlStringMgr *)" 
??0?$CSimpleStringT@_W$00@ATL@@QAA@PB_WHPAUIAtlStringMgr@1@@Z => Microsoft (R) C++ Name Undecorator Copyright (C) Microsoft Corporation. All rights reserved.  Undecoration of :- "??0?$CSimpleStringT@_W$00@ATL@@QAA@PB_WHPAUIAtlStringMgr@1@@Z" is :- "public: __cdecl ATL::CSimpleStringT<wchar_t,1>::CSimpleStringT<wchar_t,1>(wchar_t const *,int,struct ATL::IAtlStringMgr *)" 
??0?$CSimpleStringT@_W$00@ATL@@QAA@PB_WPAUIAtlStringMgr@1@@Z => Microsoft (R) C++ Name Undecorator Copyright (C) Microsoft Corporation. All rights reserved.  Undecoration of :- "??0?$CSimpleStringT@_W$00@ATL@@QAA@PB_WPAUIAtlStringMgr@1@@Z" is :- "public: __cdecl ATL::CSimpleStringT<wchar_t,1>::CSimpleStringT<wchar_t,1>(wchar_t const *,struct ATL::IAtlStringMgr *)" 
??0?$CSimpleStringT@G$00@ATL@@QAA@ABV?$CSimpleStringT@G$0A@@1@@Z => Microsoft (R) C++ Name Undecorator Copyright (C) Microsoft Corporation. All rights reserved.  Undecoration of :- "??0?$CSimpleStringT@G$00@ATL@@QAA@ABV?$CSimpleStringT@G$0A@@1@@Z" is :- "public: __cdecl ATL::CSimpleStringT<unsigned short,1>::CSimpleStringT<unsigned short,1>(class ATL::CSimpleStringT<unsigned short,0> const &)" 
??0?$CSimpleStringT@G$00@ATL@@QAA@ABV01@@Z => Microsoft (R) C++ Name Undecorator Copyright (C) Microsoft Corporation. All rights reserved.  Undecoration of :- "??0?$CSimpleStringT@G$00@ATL@@QAA@ABV01@@Z" is :- "public: __cdecl ATL::CSimpleStringT<unsigned short,1>::CSimpleStringT<unsigned short,1>(class ATL::CSimpleStringT<unsigned short,1> const &)" 
??0?$CSimpleStringT@G$00@ATL@@QAA@PAUIAtlStringMgr@1@@Z => Microsoft (R) C++ Name Undecorator Copyright (C) Microsoft Corporation. All rights reserved.  Undecoration of :- "??0?$CSimpleStringT@G$00@ATL@@QAA@PAUIAtlStringMgr@1@@Z" is :- "public: __cdecl ATL::CSimpleStringT<unsigned short,1>::CSimpleStringT<unsigned short,1>(struct ATL::IAtlStringMgr *)" 
??0?$CSimpleStringT@G$00@ATL@@QAA@PBGHPAUIAtlStringMgr@1@@Z => Microsoft (R) C++ Name Undecorator Copyright (C) Microsoft Corporation. All rights reserved.  Undecoration of :- "??0?$CSimpleStringT@G$00@ATL@@QAA@PBGHPAUIAtlStringMgr@1@@Z" is :- "public: __cdecl ATL::CSimpleStringT<unsigned short,1>::CSimpleStringT<unsigned short,1>(unsigned short const *,int,struct ATL::IAtlStringMgr *)" 
??0?$CSimpleStringT@G$00@ATL@@QAA@PBGPAUIAtlStringMgr@1@@Z => Microsoft (R) C++ Name Undecorator Copyright (C) Microsoft Corporation. All rights reserved.  Undecoration of :- "??0?$CSimpleStringT@G$00@ATL@@QAA@PBGPAUIAtlStringMgr@1@@Z" is :- "public: __cdecl ATL::CSimpleStringT<unsigned short,1>::CSimpleStringT<unsigned short,1>(unsigned short const *,struct ATL::IAtlStringMgr *)" 
??0?$CStringT@_WV?$StrTraitMFC_DLL@_WV?$ChTraitsCRT@_W@ATL@@@@@ATL@@QAA@_WH@Z => Microsoft (R) C++ Name Undecorator Copyright (C) Microsoft Corporation. All rights reserved.  Undecoration of :- "??0?$CStringT@_WV?$StrTraitMFC_DLL@_WV?$ChTraitsCRT@_W@ATL@@@@@ATL@@QAA@_WH@Z" is :- "public: __cdecl ATL::CStringT<wchar_t,class StrTraitMFC_DLL<wchar_t,class ATL::ChTraitsCRT<wchar_t> > >::CStringT<wchar_t,class StrTraitMFC_DLL<wchar_t,class ATL::ChTraitsCRT<wchar_t> > >(wchar_t,int)" 
??0?$CStringT@_WV?$StrTraitMFC_DLL@_WV?$ChTraitsCRT@_W@ATL@@@@@ATL@@QAA@ABUtagVARIANT@@@Z => Microsoft (R) C++ Name Undecorator Copyright (C) Microsoft Corporation. All rights reserved.  Undecoration of :- "??0?$CStringT@_WV?$StrTraitMFC_DLL@_WV?$ChTraitsCRT@_W@ATL@@@@@ATL@@QAA@ABUtagVARIANT@@@Z" is :- "public: __cdecl ATL::CStringT<wchar_t,class StrTraitMFC_DLL<wchar_t,class ATL::ChTraitsCRT<wchar_t> > >::CStringT<wchar_t,class StrTraitMFC_DLL<wchar_t,class ATL::ChTraitsCRT<wchar_t> > >(struct tagVARIANT const &)" 
??0?$CStringT@_WV?$StrTraitMFC_DLL@_WV?$ChTraitsCRT@_W@ATL@@@@@ATL@@QAA@ABUtagVARIANT@@PAUIAtlStringMgr@1@@Z => Microsoft (R) C++ Name Undecorator Copyright (C) Microsoft Corporation. All rights reserved.  Undecoration of :- "??0?$CStringT@_WV?$StrTraitMFC_DLL@_WV?$ChTraitsCRT@_W@ATL@@@@@ATL@@QAA@ABUtagVARIANT@@PAUIAtlStringMgr@1@@Z" is :- "public: __cdecl ATL::CStringT<wchar_t,class StrTraitMFC_DLL<wchar_t,class ATL::ChTraitsCRT<wchar_t> > >::CStringT<wchar_t,class StrTraitMFC_DLL<wchar_t,class ATL::ChTraitsCRT<wchar_t> > >(struct tagVARIANT const &,struct ATL::IAtlStringMgr *)" 
??0?$CStringT@_WV?$StrTraitMFC_DLL@_WV?$ChTraitsCRT@_W@ATL@@@@@ATL@@QAA@ABV01@@Z => Microsoft (R) C++ Name Undecorator Copyright (C) Microsoft Corporation. All rights reserved.  Undecoration of :- "??0?$CStringT@_WV?$StrTraitMFC_DLL@_WV?$ChTraitsCRT@_W@ATL@@@@@ATL@@QAA@ABV01@@Z" is :- "public: __cdecl ATL::CStringT<wchar_t,class StrTraitMFC_DLL<wchar_t,class ATL::ChTraitsCRT<wchar_t> > >::CStringT<wchar_t,class StrTraitMFC_DLL<wchar_t,class ATL::ChTraitsCRT<wchar_t> > >(class ATL::CStringT<wchar_t,class StrTraitMFC_DLL<wchar_t,class ATL::ChTraitsCRT<wchar_t> > > const &)" 
??0?$CStringT@_WV?$StrTraitMFC_DLL@_WV?$ChTraitsCRT@_W@ATL@@@@@ATL@@QAA@DH@Z => Microsoft (R) C++ Name Undecorator Copyright (C) Microsoft Corporation. All rights reserved.  Undecoration of :- "??0?$CStringT@_WV?$StrTraitMFC_DLL@_WV?$ChTraitsCRT@_W@ATL@@@@@ATL@@QAA@DH@Z" is :- "public: __cdecl ATL::CStringT<wchar_t,class StrTraitMFC_DLL<wchar_t,class ATL::ChTraitsCRT<wchar_t> > >::CStringT<wchar_t,class StrTraitMFC_DLL<wchar_t,class ATL::ChTraitsCRT<wchar_t> > >(char,int)" 
??0?$CStringT@_WV?$StrTraitMFC_DLL@_WV?$ChTraitsCRT@_W@ATL@@@@@ATL@@QAA@PA_W@Z => Microsoft (R) C++ Name Undecorator Copyright (C) Microsoft Corporation. All rights reserved.  Undecoration of :- "??0?$CStringT@_WV?$StrTraitMFC_DLL@_WV?$ChTraitsCRT@_W@ATL@@@@@ATL@@QAA@PA_W@Z" is :- "public: __cdecl ATL::CStringT<wchar_t,class StrTraitMFC_DLL<wchar_t,class ATL::ChTraitsCRT<wchar_t> > >::CStringT<wchar_t,class StrTraitMFC_DLL<wchar_t,class ATL::ChTraitsCRT<wchar_t> > >(wchar_t *)" 
??0?$CStringT@_WV?$StrTraitMFC_DLL@_WV?$ChTraitsCRT@_W@ATL@@@@@ATL@@QAA@PAD@Z => Microsoft (R) C++ Name Undecorator Copyright (C) Microsoft Corporation. All rights reserved.  Undecoration of :- "??0?$CStringT@_WV?$StrTraitMFC_DLL@_WV?$ChTraitsCRT@_W@ATL@@@@@ATL@@QAA@PAD@Z" is :- "public: __cdecl ATL::CStringT<wchar_t,class StrTraitMFC_DLL<wchar_t,class ATL::ChTraitsCRT<wchar_t> > >::CStringT<wchar_t,class StrTraitMFC_DLL<wchar_t,class ATL::ChTraitsCRT<wchar_t> > >(char *)" 
??0?$CStringT@_WV?$StrTraitMFC_DLL@_WV?$ChTraitsCRT@_W@ATL@@@@@ATL@@QAA@PAE@Z => Microsoft (R) C++ Name Undecorator Copyright (C) Microsoft Corporation. All rights reserved.  Undecoration of :- "??0?$CStringT@_WV?$StrTraitMFC_DLL@_WV?$ChTraitsCRT@_W@ATL@@@@@ATL@@QAA@PAE@Z" is :- "public: __cdecl ATL::CStringT<wchar_t,class StrTraitMFC_DLL<wchar_t,class ATL::ChTraitsCRT<wchar_t> > >::CStringT<wchar_t,class StrTraitMFC_DLL<wchar_t,class ATL::ChTraitsCRT<wchar_t> > >(unsigned char *)" 
??0?$CStringT@_WV?$StrTraitMFC_DLL@_WV?$ChTraitsCRT@_W@ATL@@@@@ATL@@QAA@PAUIAtlStringMgr@1@@Z => Microsoft (R) C++ Name Undecorator Copyright (C) Microsoft Corporation. All rights reserved.  Undecoration of :- "??0?$CStringT@_WV?$StrTraitMFC_DLL@_WV?$ChTraitsCRT@_W@ATL@@@@@ATL@@QAA@PAUIAtlStringMgr@1@@Z" is :- "public: __cdecl ATL::CStringT<wchar_t,class StrTraitMFC_DLL<wchar_t,class ATL::ChTraitsCRT<wchar_t> > >::CStringT<wchar_t,class StrTraitMFC_DLL<wchar_t,class ATL::ChTraitsCRT<wchar_t> > >(struct ATL::IAtlStringMgr *)" 
??0?$CStringT@_WV?$StrTraitMFC_DLL@_WV?$ChTraitsCRT@_W@ATL@@@@@ATL@@QAA@PB_W@Z => Microsoft (R) C++ Name Undecorator Copyright (C) Microsoft Corporation. All rights reserved.  Undecoration of :- "??0?$CStringT@_WV?$StrTraitMFC_DLL@_WV?$ChTraitsCRT@_W@ATL@@@@@ATL@@QAA@PB_W@Z" is :- "public: __cdecl ATL::CStringT<wchar_t,class StrTraitMFC_DLL<wchar_t,class ATL::ChTraitsCRT<wchar_t> > >::CStringT<wchar_t,class StrTraitMFC_DLL<wchar_t,class ATL::ChTraitsCRT<wchar_t> > >(wchar_t const *)" 
??0?$CStringT@_WV?$StrTraitMFC_DLL@_WV?$ChTraitsCRT@_W@ATL@@@@@ATL@@QAA@PB_WH@Z => Microsoft (R) C++ Name Undecorator Copyright (C) Microsoft Corporation. All rights reserved.  Undecoration of :- "??0?$CStringT@_WV?$StrTraitMFC_DLL@_WV?$ChTraitsCRT@_W@ATL@@@@@ATL@@QAA@PB_WH@Z" is :- "public: __cdecl ATL::CStringT<wchar_t,class StrTraitMFC_DLL<wchar_t,class ATL::ChTraitsCRT<wchar_t> > >::CStringT<wchar_t,class StrTraitMFC_DLL<wchar_t,class ATL::ChTraitsCRT<wchar_t> > >(wchar_t const *,int)" 
??0?$CStringT@_WV?$StrTraitMFC_DLL@_WV?$ChTraitsCRT@_W@ATL@@@@@ATL@@QAA@PB_WHPAUIAtlStringMgr@1@@Z => Microsoft (R) C++ Name Undecorator Copyright (C) Microsoft Corporation. All rights reserved.  Undecoration of :- "??0?$CStringT@_WV?$StrTraitMFC_DLL@_WV?$ChTraitsCRT@_W@ATL@@@@@ATL@@QAA@PB_WHPAUIAtlStringMgr@1@@Z" is :- "public: __cdecl ATL::CStringT<wchar_t,class StrTraitMFC_DLL<wchar_t,class ATL::ChTraitsCRT<wchar_t> > >::CStringT<wchar_t,class StrTraitMFC_DLL<wchar_t,class ATL::ChTraitsCRT<wchar_t> > >(wchar_t const *,int,struct ATL::IAtlStringMgr *)" 
??0?$CStringT@_WV?$StrTraitMFC_DLL@_WV?$ChTraitsCRT@_W@ATL@@@@@ATL@@QAA@PB_WPAUIAtlStringMgr@1@@Z => Microsoft (R) C++ Name Undecorator Copyright (C) Microsoft Corporation. All rights reserved.  Undecoration of :- "??0?$CStringT@_WV?$StrTraitMFC_DLL@_WV?$ChTraitsCRT@_W@ATL@@@@@ATL@@QAA@PB_WPAUIAtlStringMgr@1@@Z" is :- "public: __cdecl ATL::CStringT<wchar_t,class StrTraitMFC_DLL<wchar_t,class ATL::ChTraitsCRT<wchar_t> > >::CStringT<wchar_t,class StrTraitMFC_DLL<wchar_t,class ATL::ChTraitsCRT<wchar_t> > >(wchar_t const *,struct ATL::IAtlStringMgr *)" 
??0?$CStringT@_WV?$StrTraitMFC_DLL@_WV?$ChTraitsCRT@_W@ATL@@@@@ATL@@QAA@PBD@Z => Microsoft (R) C++ Name Undecorator Copyright (C) Microsoft Corporation. All rights reserved.  Undecoration of :- "??0?$CStringT@_WV?$StrTraitMFC_DLL@_WV?$ChTraitsCRT@_W@ATL@@@@@ATL@@QAA@PBD@Z" is :- "public: __cdecl ATL::CStringT<wchar_t,class StrTraitMFC_DLL<wchar_t,class ATL::ChTraitsCRT<wchar_t> > >::CStringT<wchar_t,class StrTraitMFC_DLL<wchar_t,class ATL::ChTraitsCRT<wchar_t> > >(char const *)" 
??0?$CStringT@_WV?$StrTraitMFC_DLL@_WV?$ChTraitsCRT@_W@ATL@@@@@ATL@@QAA@PBDH@Z => Microsoft (R) C++ Name Undecorator Copyright (C) Microsoft Corporation. All rights reserved.  Undecoration of :- "??0?$CStringT@_WV?$StrTraitMFC_DLL@_WV?$ChTraitsCRT@_W@ATL@@@@@ATL@@QAA@PBDH@Z" is :- "public: __cdecl ATL::CStringT<wchar_t,class StrTraitMFC_DLL<wchar_t,class ATL::ChTraitsCRT<wchar_t> > >::CStringT<wchar_t,class StrTraitMFC_DLL<wchar_t,class ATL::ChTraitsCRT<wchar_t> > >(char const *,int)" 
??0?$CStringT@_WV?$StrTraitMFC_DLL@_WV?$ChTraitsCRT@_W@ATL@@@@@ATL@@QAA@PBDHPAUIAtlStringMgr@1@@Z => Microsoft (R) C++ Name Undecorator Copyright (C) Microsoft Corporation. All rights reserved.  Undecoration of :- "??0?$CStringT@_WV?$StrTraitMFC_DLL@_WV?$ChTraitsCRT@_W@ATL@@@@@ATL@@QAA@PBDHPAUIAtlStringMgr@1@@Z" is :- "public: __cdecl ATL::CStringT<wchar_t,class StrTraitMFC_DLL<wchar_t,class ATL::ChTraitsCRT<wchar_t> > >::CStringT<wchar_t,class StrTraitMFC_DLL<wchar_t,class ATL::ChTraitsCRT<wchar_t> > >(char const *,int,struct ATL::IAtlStringMgr *)" 
??0?$CStringT@_WV?$StrTraitMFC_DLL@_WV?$ChTraitsCRT@_W@ATL@@@@@ATL@@QAA@PBDPAUIAtlStringMgr@1@@Z => Microsoft (R) C++ Name Undecorator Copyright (C) Microsoft Corporation. All rights reserved.  Undecoration of :- "??0?$CStringT@_WV?$StrTraitMFC_DLL@_WV?$ChTraitsCRT@_W@ATL@@@@@ATL@@QAA@PBDPAUIAtlStringMgr@1@@Z" is :- "public: __cdecl ATL::CStringT<wchar_t,class StrTraitMFC_DLL<wchar_t,class ATL::ChTraitsCRT<wchar_t> > >::CStringT<wchar_t,class StrTraitMFC_DLL<wchar_t,class ATL::ChTraitsCRT<wchar_t> > >(char const *,struct ATL::IAtlStringMgr *)" 
??0?$CStringT@_WV?$StrTraitMFC_DLL@_WV?$ChTraitsCRT@_W@ATL@@@@@ATL@@QAA@PBE@Z => Microsoft (R) C++ Name Undecorator Copyright (C) Microsoft Corporation. All rights reserved.  Undecoration of :- "??0?$CStringT@_WV?$StrTraitMFC_DLL@_WV?$ChTraitsCRT@_W@ATL@@@@@ATL@@QAA@PBE@Z" is :- "public: __cdecl ATL::CStringT<wchar_t,class StrTraitMFC_DLL<wchar_t,class ATL::ChTraitsCRT<wchar_t> > >::CStringT<wchar_t,class StrTraitMFC_DLL<wchar_t,class ATL::ChTraitsCRT<wchar_t> > >(unsigned char const *)" 
??0?$CStringT@_WV?$StrTraitMFC_DLL@_WV?$ChTraitsCRT@_W@ATL@@@@@ATL@@QAA@PBEPAUIAtlStringMgr@1@@Z => Microsoft (R) C++ Name Undecorator Copyright (C) Microsoft Corporation. All rights reserved.  Undecoration of :- "??0?$CStringT@_WV?$StrTraitMFC_DLL@_WV?$ChTraitsCRT@_W@ATL@@@@@ATL@@QAA@PBEPAUIAtlStringMgr@1@@Z" is :- "public: __cdecl ATL::CStringT<wchar_t,class StrTraitMFC_DLL<wchar_t,class ATL::ChTraitsCRT<wchar_t> > >::CStringT<wchar_t,class StrTraitMFC_DLL<wchar_t,class ATL::ChTraitsCRT<wchar_t> > >(unsigned char const *,struct ATL::IAtlStringMgr *)" 
??0?$CStringT@_WV?$StrTraitMFC_DLL@_WV?$ChTraitsCRT@_W@ATL@@@@@ATL@@QAA@XZ => Microsoft (R) C++ Name Undecorator Copyright (C) Microsoft Corporation. All rights reserved.  Undecoration of :- "??0?$CStringT@_WV?$StrTraitMFC_DLL@_WV?$ChTraitsCRT@_W@ATL@@@@@ATL@@QAA@XZ" is :- "public: __cdecl ATL::CStringT<wchar_t,class StrTraitMFC_DLL<wchar_t,class ATL::ChTraitsCRT<wchar_t> > >::CStringT<wchar_t,class StrTraitMFC_DLL<wchar_t,class ATL::ChTraitsCRT<wchar_t> > >(void)" 
??0?$CStringT@DV?$StrTraitMFC_DLL@DV?$ChTraitsCRT@D@ATL@@@@@ATL@@QAA@_WH@Z => Microsoft (R) C++ Name Undecorator Copyright (C) Microsoft Corporation. All rights reserved.  Undecoration of :- "??0?$CStringT@DV?$StrTraitMFC_DLL@DV?$ChTraitsCRT@D@ATL@@@@@ATL@@QAA@_WH@Z" is :- "public: __cdecl ATL::CStringT<char,class StrTraitMFC_DLL<char,class ATL::ChTraitsCRT<char> > >::CStringT<char,class StrTraitMFC_DLL<char,class ATL::ChTraitsCRT<char> > >(wchar_t,int)" 
??0?$CStringT@DV?$StrTraitMFC_DLL@DV?$ChTraitsCRT@D@ATL@@@@@ATL@@QAA@GH@Z => Microsoft (R) C++ Name Undecorator Copyright (C) Microsoft Corporation. All rights reserved.  Undecoration of :- "??0?$CStringT@DV?$StrTraitMFC_DLL@DV?$ChTraitsCRT@D@ATL@@@@@ATL@@QAA@GH@Z" is :- "public: __cdecl ATL::CStringT<char,class StrTraitMFC_DLL<char,class ATL::ChTraitsCRT<char> > >::CStringT<char,class StrTraitMFC_DLL<char,class ATL::ChTraitsCRT<char> > >(unsigned short,int)" 
??0?$CStringT@DV?$StrTraitMFC_DLL@DV?$ChTraitsCRT@D@ATL@@@@@ATL@@QAA@PA_W@Z => Microsoft (R) C++ Name Undecorator Copyright (C) Microsoft Corporation. All rights reserved.  Undecoration of :- "??0?$CStringT@DV?$StrTraitMFC_DLL@DV?$ChTraitsCRT@D@ATL@@@@@ATL@@QAA@PA_W@Z" is :- "public: __cdecl ATL::CStringT<char,class StrTraitMFC_DLL<char,class ATL::ChTraitsCRT<char> > >::CStringT<char,class StrTraitMFC_DLL<char,class ATL::ChTraitsCRT<char> > >(wchar_t *)" 
??0?$CStringT@DV?$StrTraitMFC_DLL@DV?$ChTraitsCRT@D@ATL@@@@@ATL@@QAA@PAG@Z => Microsoft (R) C++ Name Undecorator Copyright (C) Microsoft Corporation. All rights reserved.  Undecoration of :- "??0?$CStringT@DV?$StrTraitMFC_DLL@DV?$ChTraitsCRT@D@ATL@@@@@ATL@@QAA@PAG@Z" is :- "public: __cdecl ATL::CStringT<char,class StrTraitMFC_DLL<char,class ATL::ChTraitsCRT<char> > >::CStringT<char,class StrTraitMFC_DLL<char,class ATL::ChTraitsCRT<char> > >(unsigned short *)" 
??0?$CStringT@DV?$StrTraitMFC_DLL@DV?$ChTraitsCRT@D@ATL@@@@@ATL@@QAA@PB_W@Z => Microsoft (R) C++ Name Undecorator Copyright (C) Microsoft Corporation. All rights reserved.  Undecoration of :- "??0?$CStringT@DV?$StrTraitMFC_DLL@DV?$ChTraitsCRT@D@ATL@@@@@ATL@@QAA@PB_W@Z" is :- "public: __cdecl ATL::CStringT<char,class StrTraitMFC_DLL<char,class ATL::ChTraitsCRT<char> > >::CStringT<char,class StrTraitMFC_DLL<char,class ATL::ChTraitsCRT<char> > >(wchar_t const *)" 
??0?$CStringT@DV?$StrTraitMFC_DLL@DV?$ChTraitsCRT@D@ATL@@@@@ATL@@QAA@PB_WH@Z => Microsoft (R) C++ Name Undecorator Copyright (C) Microsoft Corporation. All rights reserved.  Undecoration of :- "??0?$CStringT@DV?$StrTraitMFC_DLL@DV?$ChTraitsCRT@D@ATL@@@@@ATL@@QAA@PB_WH@Z" is :- "public: __cdecl ATL::CStringT<char,class StrTraitMFC_DLL<char,class ATL::ChTraitsCRT<char> > >::CStringT<char,class StrTraitMFC_DLL<char,class ATL::ChTraitsCRT<char> > >(wchar_t const *,int)" 
??0?$CStringT@DV?$StrTraitMFC_DLL@DV?$ChTraitsCRT@D@ATL@@@@@ATL@@QAA@PB_WHPAUIAtlStringMgr@1@@Z => Microsoft (R) C++ Name Undecorator Copyright (C) Microsoft Corporation. All rights reserved.  Undecoration of :- "??0?$CStringT@DV?$StrTraitMFC_DLL@DV?$ChTraitsCRT@D@ATL@@@@@ATL@@QAA@PB_WHPAUIAtlStringMgr@1@@Z" is :- "public: __cdecl ATL::CStringT<char,class StrTraitMFC_DLL<char,class ATL::ChTraitsCRT<char> > >::CStringT<char,class StrTraitMFC_DLL<char,class ATL::ChTraitsCRT<char> > >(wchar_t const *,int,struct ATL::IAtlStringMgr *)" 
??0?$CStringT@DV?$StrTraitMFC_DLL@DV?$ChTraitsCRT@D@ATL@@@@@ATL@@QAA@PB_WPAUIAtlStringMgr@1@@Z => Microsoft (R) C++ Name Undecorator Copyright (C) Microsoft Corporation. All rights reserved.  Undecoration of :- "??0?$CStringT@DV?$StrTraitMFC_DLL@DV?$ChTraitsCRT@D@ATL@@@@@ATL@@QAA@PB_WPAUIAtlStringMgr@1@@Z" is :- "public: __cdecl ATL::CStringT<char,class StrTraitMFC_DLL<char,class ATL::ChTraitsCRT<char> > >::CStringT<char,class StrTraitMFC_DLL<char,class ATL::ChTraitsCRT<char> > >(wchar_t const *,struct ATL::IAtlStringMgr *)" 
??0?$CStringT@DV?$StrTraitMFC_DLL@DV?$ChTraitsCRT@D@ATL@@@@@ATL@@QAA@PBG@Z => Microsoft (R) C++ Name Undecorator Copyright (C) Microsoft Corporation. All rights reserved.  Undecoration of :- "??0?$CStringT@DV?$StrTraitMFC_DLL@DV?$ChTraitsCRT@D@ATL@@@@@ATL@@QAA@PBG@Z" is :- "public: __cdecl ATL::CStringT<char,class StrTraitMFC_DLL<char,class ATL::ChTraitsCRT<char> > >::CStringT<char,class StrTraitMFC_DLL<char,class ATL::ChTraitsCRT<char> > >(unsigned short const *)" 
??0?$CStringT@DV?$StrTraitMFC_DLL@DV?$ChTraitsCRT@D@ATL@@@@@ATL@@QAA@PBGH@Z => Microsoft (R) C++ Name Undecorator Copyright (C) Microsoft Corporation. All rights reserved.  Undecoration of :- "??0?$CStringT@DV?$StrTraitMFC_DLL@DV?$ChTraitsCRT@D@ATL@@@@@ATL@@QAA@PBGH@Z" is :- "public: __cdecl ATL::CStringT<char,class StrTraitMFC_DLL<char,class ATL::ChTraitsCRT<char> > >::CStringT<char,class StrTraitMFC_DLL<char,class ATL::ChTraitsCRT<char> > >(unsigned short const *,int)" 
??0?$CStringT@DV?$StrTraitMFC_DLL@DV?$ChTraitsCRT@D@ATL@@@@@ATL@@QAA@PBGHPAUIAtlStringMgr@1@@Z => Microsoft (R) C++ Name Undecorator Copyright (C) Microsoft Corporation. All rights reserved.  Undecoration of :- "??0?$CStringT@DV?$StrTraitMFC_DLL@DV?$ChTraitsCRT@D@ATL@@@@@ATL@@QAA@PBGHPAUIAtlStringMgr@1@@Z" is :- "public: __cdecl ATL::CStringT<char,class StrTraitMFC_DLL<char,class ATL::ChTraitsCRT<char> > >::CStringT<char,class StrTraitMFC_DLL<char,class ATL::ChTraitsCRT<char> > >(unsigned short const *,int,struct ATL::IAtlStringMgr *)" 
??0?$CStringT@DV?$StrTraitMFC_DLL@DV?$ChTraitsCRT@D@ATL@@@@@ATL@@QAA@PBGPAUIAtlStringMgr@1@@Z => Microsoft (R) C++ Name Undecorator Copyright (C) Microsoft Corporation. All rights reserved.  Undecoration of :- "??0?$CStringT@DV?$StrTraitMFC_DLL@DV?$ChTraitsCRT@D@ATL@@@@@ATL@@QAA@PBGPAUIAtlStringMgr@1@@Z" is :- "public: __cdecl ATL::CStringT<char,class StrTraitMFC_DLL<char,class ATL::ChTraitsCRT<char> > >::CStringT<char,class StrTraitMFC_DLL<char,class ATL::ChTraitsCRT<char> > >(unsigned short const *,struct ATL::IAtlStringMgr *)" 
??0?$CStringT@GV?$StrTraitMFC_DLL@GV?$ChTraitsCRT@G@ATL@@@@@ATL@@QAA@ABUtagVARIANT@@@Z => Microsoft (R) C++ Name Undecorator Copyright (C) Microsoft Corporation. All rights reserved.  Undecoration of :- "??0?$CStringT@GV?$StrTraitMFC_DLL@GV?$ChTraitsCRT@G@ATL@@@@@ATL@@QAA@ABUtagVARIANT@@@Z" is :- "public: __cdecl ATL::CStringT<unsigned short,class StrTraitMFC_DLL<unsigned short,class ATL::ChTraitsCRT<unsigned short> > >::CStringT<unsigned short,class StrTraitMFC_DLL<unsigned short,class ATL::ChTraitsCRT<unsigned short> > >(struct tagVARIANT const &)" 
??0?$CStringT@GV?$StrTraitMFC_DLL@GV?$ChTraitsCRT@G@ATL@@@@@ATL@@QAA@ABUtagVARIANT@@PAUIAtlStringMgr@1@@Z => Microsoft (R) C++ Name Undecorator Copyright (C) Microsoft Corporation. All rights reserved.  Undecoration of :- "??0?$CStringT@GV?$StrTraitMFC_DLL@GV?$ChTraitsCRT@G@ATL@@@@@ATL@@QAA@ABUtagVARIANT@@PAUIAtlStringMgr@1@@Z" is :- "public: __cdecl ATL::CStringT<unsigned short,class StrTraitMFC_DLL<unsigned short,class ATL::ChTraitsCRT<unsigned short> > >::CStringT<unsigned short,class StrTraitMFC_DLL<unsigned short,class ATL::ChTraitsCRT<unsigned short> > >(struct tagVARIANT const &,struct ATL::IAtlStringMgr *)" 
??0?$CStringT@GV?$StrTraitMFC_DLL@GV?$ChTraitsCRT@G@ATL@@@@@ATL@@QAA@ABV01@@Z => Microsoft (R) C++ Name Undecorator Copyright (C) Microsoft Corporation. All rights reserved.  Undecoration of :- "??0?$CStringT@GV?$StrTraitMFC_DLL@GV?$ChTraitsCRT@G@ATL@@@@@ATL@@QAA@ABV01@@Z" is :- "public: __cdecl ATL::CStringT<unsigned short,class StrTraitMFC_DLL<unsigned short,class ATL::ChTraitsCRT<unsigned short> > >::CStringT<unsigned short,class StrTraitMFC_DLL<unsigned short,class ATL::ChTraitsCRT<unsigned short> > >(class ATL::CStringT<unsigned short,class StrTraitMFC_DLL<unsigned short,class ATL::ChTraitsCRT<unsigned short> > > const &)" 
??0?$CStringT@GV?$StrTraitMFC_DLL@GV?$ChTraitsCRT@G@ATL@@@@@ATL@@QAA@DH@Z => Microsoft (R) C++ Name Undecorator Copyright (C) Microsoft Corporation. All rights reserved.  Undecoration of :- "??0?$CStringT@GV?$StrTraitMFC_DLL@GV?$ChTraitsCRT@G@ATL@@@@@ATL@@QAA@DH@Z" is :- "public: __cdecl ATL::CStringT<unsigned short,class StrTraitMFC_DLL<unsigned short,class ATL::ChTraitsCRT<unsigned short> > >::CStringT<unsigned short,class StrTraitMFC_DLL<unsigned short,class ATL::ChTraitsCRT<unsigned short> > >(char,int)" 
??0?$CStringT@GV?$StrTraitMFC_DLL@GV?$ChTraitsCRT@G@ATL@@@@@ATL@@QAA@GH@Z => Microsoft (R) C++ Name Undecorator Copyright (C) Microsoft Corporation. All rights reserved.  Undecoration of :- "??0?$CStringT@GV?$StrTraitMFC_DLL@GV?$ChTraitsCRT@G@ATL@@@@@ATL@@QAA@GH@Z" is :- "public: __cdecl ATL::CStringT<unsigned short,class StrTraitMFC_DLL<unsigned short,class ATL::ChTraitsCRT<unsigned short> > >::CStringT<unsigned short,class StrTraitMFC_DLL<unsigned short,class ATL::ChTraitsCRT<unsigned short> > >(unsigned short,int)" 
??0?$CStringT@GV?$StrTraitMFC_DLL@GV?$ChTraitsCRT@G@ATL@@@@@ATL@@QAA@PAD@Z => Microsoft (R) C++ Name Undecorator Copyright (C) Microsoft Corporation. All rights reserved.  Undecoration of :- "??0?$CStringT@GV?$StrTraitMFC_DLL@GV?$ChTraitsCRT@G@ATL@@@@@ATL@@QAA@PAD@Z" is :- "public: __cdecl ATL::CStringT<unsigned short,class StrTraitMFC_DLL<unsigned short,class ATL::ChTraitsCRT<unsigned short> > >::CStringT<unsigned short,class StrTraitMFC_DLL<unsigned short,class ATL::ChTraitsCRT<unsigned short> > >(char *)" 
??0?$CStringT@GV?$StrTraitMFC_DLL@GV?$ChTraitsCRT@G@ATL@@@@@ATL@@QAA@PAE@Z => Microsoft (R) C++ Name Undecorator Copyright (C) Microsoft Corporation. All rights reserved.  Undecoration of :- "??0?$CStringT@GV?$StrTraitMFC_DLL@GV?$ChTraitsCRT@G@ATL@@@@@ATL@@QAA@PAE@Z" is :- "public: __cdecl ATL::CStringT<unsigned short,class StrTraitMFC_DLL<unsigned short,class ATL::ChTraitsCRT<unsigned short> > >::CStringT<unsigned short,class StrTraitMFC_DLL<unsigned short,class ATL::ChTraitsCRT<unsigned short> > >(unsigned char *)" 
??0?$CStringT@GV?$StrTraitMFC_DLL@GV?$ChTraitsCRT@G@ATL@@@@@ATL@@QAA@PAG@Z => Microsoft (R) C++ Name Undecorator Copyright (C) Microsoft Corporation. All rights reserved.  Undecoration of :- "??0?$CStringT@GV?$StrTraitMFC_DLL@GV?$ChTraitsCRT@G@ATL@@@@@ATL@@QAA@PAG@Z" is :- "public: __cdecl ATL::CStringT<unsigned short,class StrTraitMFC_DLL<unsigned short,class ATL::ChTraitsCRT<unsigned short> > >::CStringT<unsigned short,class StrTraitMFC_DLL<unsigned short,class ATL::ChTraitsCRT<unsigned short> > >(unsigned short *)" 
??0?$CStringT@GV?$StrTraitMFC_DLL@GV?$ChTraitsCRT@G@ATL@@@@@ATL@@QAA@PAUIAtlStringMgr@1@@Z => Microsoft (R) C++ Name Undecorator Copyright (C) Microsoft Corporation. All rights reserved.  Undecoration of :- "??0?$CStringT@GV?$StrTraitMFC_DLL@GV?$ChTraitsCRT@G@ATL@@@@@ATL@@QAA@PAUIAtlStringMgr@1@@Z" is :- "public: __cdecl ATL::CStringT<unsigned short,class StrTraitMFC_DLL<unsigned short,class ATL::ChTraitsCRT<unsigned short> > >::CStringT<unsigned short,class StrTraitMFC_DLL<unsigned short,class ATL::ChTraitsCRT<unsigned short> > >(struct ATL::IAtlStringMgr *)" 
??0?$CStringT@GV?$StrTraitMFC_DLL@GV?$ChTraitsCRT@G@ATL@@@@@ATL@@QAA@PBD@Z => Microsoft (R) C++ Name Undecorator Copyright (C) Microsoft Corporation. All rights reserved.  Undecoration of :- "??0?$CStringT@GV?$StrTraitMFC_DLL@GV?$ChTraitsCRT@G@ATL@@@@@ATL@@QAA@PBD@Z" is :- "public: __cdecl ATL::CStringT<unsigned short,class StrTraitMFC_DLL<unsigned short,class ATL::ChTraitsCRT<unsigned short> > >::CStringT<unsigned short,class StrTraitMFC_DLL<unsigned short,class ATL::ChTraitsCRT<unsigned short> > >(char const *)" 
??0?$CStringT@GV?$StrTraitMFC_DLL@GV?$ChTraitsCRT@G@ATL@@@@@ATL@@QAA@PBDH@Z => Microsoft (R) C++ Name Undecorator Copyright (C) Microsoft Corporation. All rights reserved.  Undecoration of :- "??0?$CStringT@GV?$StrTraitMFC_DLL@GV?$ChTraitsCRT@G@ATL@@@@@ATL@@QAA@PBDH@Z" is :- "public: __cdecl ATL::CStringT<unsigned short,class StrTraitMFC_DLL<unsigned short,class ATL::ChTraitsCRT<unsigned short> > >::CStringT<unsigned short,class StrTraitMFC_DLL<unsigned short,class ATL::ChTraitsCRT<unsigned short> > >(char const *,int)" 
??0?$CStringT@GV?$StrTraitMFC_DLL@GV?$ChTraitsCRT@G@ATL@@@@@ATL@@QAA@PBDHPAUIAtlStringMgr@1@@Z => Microsoft (R) C++ Name Undecorator Copyright (C) Microsoft Corporation. All rights reserved.  Undecoration of :- "??0?$CStringT@GV?$StrTraitMFC_DLL@GV?$ChTraitsCRT@G@ATL@@@@@ATL@@QAA@PBDHPAUIAtlStringMgr@1@@Z" is :- "public: __cdecl ATL::CStringT<unsigned short,class StrTraitMFC_DLL<unsigned short,class ATL::ChTraitsCRT<unsigned short> > >::CStringT<unsigned short,class StrTraitMFC_DLL<unsigned short,class ATL::ChTraitsCRT<unsigned short> > >(char const *,int,struct ATL::IAtlStringMgr *)" 
??0?$CStringT@GV?$StrTraitMFC_DLL@GV?$ChTraitsCRT@G@ATL@@@@@ATL@@QAA@PBDPAUIAtlStringMgr@1@@Z => Microsoft (R) C++ Name Undecorator Copyright (C) Microsoft Corporation. All rights reserved.  Undecoration of :- "??0?$CStringT@GV?$StrTraitMFC_DLL@GV?$ChTraitsCRT@G@ATL@@@@@ATL@@QAA@PBDPAUIAtlStringMgr@1@@Z" is :- "public: __cdecl ATL::CStringT<unsigned short,class StrTraitMFC_DLL<unsigned short,class ATL::ChTraitsCRT<unsigned short> > >::CStringT<unsigned short,class StrTraitMFC_DLL<unsigned short,class ATL::ChTraitsCRT<unsigned short> > >(char const *,struct ATL::IAtlStringMgr *)" 
??0?$CStringT@GV?$StrTraitMFC_DLL@GV?$ChTraitsCRT@G@ATL@@@@@ATL@@QAA@PBE@Z => Microsoft (R) C++ Name Undecorator Copyright (C) Microsoft Corporation. All rights reserved.  Undecoration of :- "??0?$CStringT@GV?$StrTraitMFC_DLL@GV?$ChTraitsCRT@G@ATL@@@@@ATL@@QAA@PBE@Z" is :- "public: __cdecl ATL::CStringT<unsigned short,class StrTraitMFC_DLL<unsigned short,class ATL::ChTraitsCRT<unsigned short> > >::CStringT<unsigned short,class StrTraitMFC_DLL<unsigned short,class ATL::ChTraitsCRT<unsigned short> > >(unsigned char const *)" 
??0?$CStringT@GV?$StrTraitMFC_DLL@GV?$ChTraitsCRT@G@ATL@@@@@ATL@@QAA@PBEPAUIAtlStringMgr@1@@Z => Microsoft (R) C++ Name Undecorator Copyright (C) Microsoft Corporation. All rights reserved.  Undecoration of :- "??0?$CStringT@GV?$StrTraitMFC_DLL@GV?$ChTraitsCRT@G@ATL@@@@@ATL@@QAA@PBEPAUIAtlStringMgr@1@@Z" is :- "public: __cdecl ATL::CStringT<unsigned short,class StrTraitMFC_DLL<unsigned short,class ATL::ChTraitsCRT<unsigned short> > >::CStringT<unsigned short,class StrTraitMFC_DLL<unsigned short,class ATL::ChTraitsCRT<unsigned short> > >(unsigned char const *,struct ATL::IAtlStringMgr *)" 
??0?$CStringT@GV?$StrTraitMFC_DLL@GV?$ChTraitsCRT@G@ATL@@@@@ATL@@QAA@PBG@Z => Microsoft (R) C++ Name Undecorator Copyright (C) Microsoft Corporation. All rights reserved.  Undecoration of :- "??0?$CStringT@GV?$StrTraitMFC_DLL@GV?$ChTraitsCRT@G@ATL@@@@@ATL@@QAA@PBG@Z" is :- "public: __cdecl ATL::CStringT<unsigned short,class StrTraitMFC_DLL<unsigned short,class ATL::ChTraitsCRT<unsigned short> > >::CStringT<unsigned short,class StrTraitMFC_DLL<unsigned short,class ATL::ChTraitsCRT<unsigned short> > >(unsigned short const *)" 
??0?$CStringT@GV?$StrTraitMFC_DLL@GV?$ChTraitsCRT@G@ATL@@@@@ATL@@QAA@PBGH@Z => Microsoft (R) C++ Name Undecorator Copyright (C) Microsoft Corporation. All rights reserved.  Undecoration of :- "??0?$CStringT@GV?$StrTraitMFC_DLL@GV?$ChTraitsCRT@G@ATL@@@@@ATL@@QAA@PBGH@Z" is :- "public: __cdecl ATL::CStringT<unsigned short,class StrTraitMFC_DLL<unsigned short,class ATL::ChTraitsCRT<unsigned short> > >::CStringT<unsigned short,class StrTraitMFC_DLL<unsigned short,class ATL::ChTraitsCRT<unsigned short> > >(unsigned short const *,int)" 
??0?$CStringT@GV?$StrTraitMFC_DLL@GV?$ChTraitsCRT@G@ATL@@@@@ATL@@QAA@PBGHPAUIAtlStringMgr@1@@Z => Microsoft (R) C++ Name Undecorator Copyright (C) Microsoft Corporation. All rights reserved.  Undecoration of :- "??0?$CStringT@GV?$StrTraitMFC_DLL@GV?$ChTraitsCRT@G@ATL@@@@@ATL@@QAA@PBGHPAUIAtlStringMgr@1@@Z" is :- "public: __cdecl ATL::CStringT<unsigned short,class StrTraitMFC_DLL<unsigned short,class ATL::ChTraitsCRT<unsigned short> > >::CStringT<unsigned short,class StrTraitMFC_DLL<unsigned short,class ATL::ChTraitsCRT<unsigned short> > >(unsigned short const *,int,struct ATL::IAtlStringMgr *)" 
??0?$CStringT@GV?$StrTraitMFC_DLL@GV?$ChTraitsCRT@G@ATL@@@@@ATL@@QAA@PBGPAUIAtlStringMgr@1@@Z => Microsoft (R) C++ Name Undecorator Copyright (C) Microsoft Corporation. All rights reserved.  Undecoration of :- "??0?$CStringT@GV?$StrTraitMFC_DLL@GV?$ChTraitsCRT@G@ATL@@@@@ATL@@QAA@PBGPAUIAtlStringMgr@1@@Z" is :- "public: __cdecl ATL::CStringT<unsigned short,class StrTraitMFC_DLL<unsigned short,class ATL::ChTraitsCRT<unsigned short> > >::CStringT<unsigned short,class StrTraitMFC_DLL<unsigned short,class ATL::ChTraitsCRT<unsigned short> > >(unsigned short const *,struct ATL::IAtlStringMgr *)" 
??0?$CStringT@GV?$StrTraitMFC_DLL@GV?$ChTraitsCRT@G@ATL@@@@@ATL@@QAA@XZ => Microsoft (R) C++ Name Undecorator Copyright (C) Microsoft Corporation. All rights reserved.  Undecoration of :- "??0?$CStringT@GV?$StrTraitMFC_DLL@GV?$ChTraitsCRT@G@ATL@@@@@ATL@@QAA@XZ" is :- "public: __cdecl ATL::CStringT<unsigned short,class StrTraitMFC_DLL<unsigned short,class ATL::ChTraitsCRT<unsigned short> > >::CStringT<unsigned short,class StrTraitMFC_DLL<unsigned short,class ATL::ChTraitsCRT<unsigned short> > >(void)" 
??0AFX_DDPDATA@@QAA@PAXHH0IPB_W@Z => Microsoft (R) C++ Name Undecorator Copyright (C) Microsoft Corporation. All rights reserved.  Undecoration of :- "??0AFX_DDPDATA@@QAA@PAXHH0IPB_W@Z" is :- "public: __cdecl AFX_DDPDATA::AFX_DDPDATA(void *,int,int,void *,unsigned int,wchar_t const *)" 
??0AFX_DDPDATA@@QAA@PAXHH0IPBG@Z => Microsoft (R) C++ Name Undecorator Copyright (C) Microsoft Corporation. All rights reserved.  Undecoration of :- "??0AFX_DDPDATA@@QAA@PAXHH0IPBG@Z" is :- "public: __cdecl AFX_DDPDATA::AFX_DDPDATA(void *,int,int,void *,unsigned int,unsigned short const *)" 
??0CAppDestinations@@QAA@PB_W@Z => Microsoft (R) C++ Name Undecorator Copyright (C) Microsoft Corporation. All rights reserved.  Undecoration of :- "??0CAppDestinations@@QAA@PB_W@Z" is :- "public: __cdecl CAppDestinations::CAppDestinations(wchar_t const *)" 
??0CAppDestinations@@QAA@PBG@Z => Microsoft (R) C++ Name Undecorator Copyright (C) Microsoft Corporation. All rights reserved.  Undecoration of :- "??0CAppDestinations@@QAA@PBG@Z" is :- "public: __cdecl CAppDestinations::CAppDestinations(unsigned short const *)" 
??0CCtrlView@@QAA@PB_WK@Z => Microsoft (R) C++ Name Undecorator Copyright (C) Microsoft Corporation. All rights reserved.  Undecoration of :- "??0CCtrlView@@QAA@PB_WK@Z" is :- "public: __cdecl CCtrlView::CCtrlView(wchar_t const *,unsigned long)" 
??0CCtrlView@@QAA@PBGK@Z => Microsoft (R) C++ Name Undecorator Copyright (C) Microsoft Corporation. All rights reserved.  Undecoration of :- "??0CCtrlView@@QAA@PBGK@Z" is :- "public: __cdecl CCtrlView::CCtrlView(unsigned short const *,unsigned long)" 
??0CD2DBitmap@@QAA@PAVCRenderTarget@@IPB_WVCD2DSizeU@@H@Z => Microsoft (R) C++ Name Undecorator Copyright (C) Microsoft Corporation. All rights reserved.  Undecoration of :- "??0CD2DBitmap@@QAA@PAVCRenderTarget@@IPB_WVCD2DSizeU@@H@Z" is :- "public: __cdecl CD2DBitmap::CD2DBitmap(class CRenderTarget *,unsigned int,wchar_t const *,class CD2DSizeU,int)" 
??0CD2DBitmap@@QAA@PAVCRenderTarget@@IPBGVCD2DSizeU@@H@Z => Microsoft (R) C++ Name Undecorator Copyright (C) Microsoft Corporation. All rights reserved.  Undecoration of :- "??0CD2DBitmap@@QAA@PAVCRenderTarget@@IPBGVCD2DSizeU@@H@Z" is :- "public: __cdecl CD2DBitmap::CD2DBitmap(class CRenderTarget *,unsigned int,unsigned short const *,class CD2DSizeU,int)" 
??0CD2DBitmap@@QAA@PAVCRenderTarget@@PB_WVCD2DSizeU@@H@Z => Microsoft (R) C++ Name Undecorator Copyright (C) Microsoft Corporation. All rights reserved.  Undecoration of :- "??0CD2DBitmap@@QAA@PAVCRenderTarget@@PB_WVCD2DSizeU@@H@Z" is :- "public: __cdecl CD2DBitmap::CD2DBitmap(class CRenderTarget *,wchar_t const *,class CD2DSizeU,int)" 
??0CD2DBitmap@@QAA@PAVCRenderTarget@@PBGVCD2DSizeU@@H@Z => Microsoft (R) C++ Name Undecorator Copyright (C) Microsoft Corporation. All rights reserved.  Undecoration of :- "??0CD2DBitmap@@QAA@PAVCRenderTarget@@PBGVCD2DSizeU@@H@Z" is :- "public: __cdecl CD2DBitmap::CD2DBitmap(class CRenderTarget *,unsigned short const *,class CD2DSizeU,int)" 
??0CD2DBitmapBrush@@QAA@PAVCRenderTarget@@IPB_WVCD2DSizeU@@PAUD2D1_BITMAP_BRUSH_PROPERTIES@@PAVCD2DBrushProperties@@H@Z => Microsoft (R) C++ Name Undecorator Copyright (C) Microsoft Corporation. All rights reserved.  Undecoration of :- "??0CD2DBitmapBrush@@QAA@PAVCRenderTarget@@IPB_WVCD2DSizeU@@PAUD2D1_BITMAP_BRUSH_PROPERTIES@@PAVCD2DBrushProperties@@H@Z" is :- "public: __cdecl CD2DBitmapBrush::CD2DBitmapBrush(class CRenderTarget *,unsigned int,wchar_t const *,class CD2DSizeU,struct D2D1_BITMAP_BRUSH_PROPERTIES *,class CD2DBrushProperties *,int)" 
??0CD2DBitmapBrush@@QAA@PAVCRenderTarget@@IPBGVCD2DSizeU@@PAUD2D1_BITMAP_BRUSH_PROPERTIES@@PAVCD2DBrushProperties@@H@Z => Microsoft (R) C++ Name Undecorator Copyright (C) Microsoft Corporation. All rights reserved.  Undecoration of :- "??0CD2DBitmapBrush@@QAA@PAVCRenderTarget@@IPBGVCD2DSizeU@@PAUD2D1_BITMAP_BRUSH_PROPERTIES@@PAVCD2DBrushProperties@@H@Z" is :- "public: __cdecl CD2DBitmapBrush::CD2DBitmapBrush(class CRenderTarget *,unsigned int,unsigned short const *,class CD2DSizeU,struct D2D1_BITMAP_BRUSH_PROPERTIES *,class CD2DBrushProperties *,int)" 
??0CD2DBitmapBrush@@QAA@PAVCRenderTarget@@PB_WVCD2DSizeU@@PAUD2D1_BITMAP_BRUSH_PROPERTIES@@PAVCD2DBrushProperties@@H@Z => Microsoft (R) C++ Name Undecorator Copyright (C) Microsoft Corporation. All rights reserved.  Undecoration of :- "??0CD2DBitmapBrush@@QAA@PAVCRenderTarget@@PB_WVCD2DSizeU@@PAUD2D1_BITMAP_BRUSH_PROPERTIES@@PAVCD2DBrushProperties@@H@Z" is :- "public: __cdecl CD2DBitmapBrush::CD2DBitmapBrush(class CRenderTarget *,wchar_t const *,class CD2DSizeU,struct D2D1_BITMAP_BRUSH_PROPERTIES *,class CD2DBrushProperties *,int)" 
??0CD2DBitmapBrush@@QAA@PAVCRenderTarget@@PBGVCD2DSizeU@@PAUD2D1_BITMAP_BRUSH_PROPERTIES@@PAVCD2DBrushProperties@@H@Z => Microsoft (R) C++ Name Undecorator Copyright (C) Microsoft Corporation. All rights reserved.  Undecoration of :- "??0CD2DBitmapBrush@@QAA@PAVCRenderTarget@@PBGVCD2DSizeU@@PAUD2D1_BITMAP_BRUSH_PROPERTIES@@PAVCD2DBrushProperties@@H@Z" is :- "public: __cdecl CD2DBitmapBrush::CD2DBitmapBrush(class CRenderTarget *,unsigned short const *,class CD2DSizeU,struct D2D1_BITMAP_BRUSH_PROPERTIES *,class CD2DBrushProperties *,int)" 
??0CD2DTextFormat@@QAA@PAVCRenderTarget@@ABV?$CStringT@_WV?$StrTraitMFC_DLL@_WV?$ChTraitsCRT@_W@ATL@@@@@ATL@@MW4DWRITE_FONT_WEIGHT@@W4DWRITE_FONT_STYLE@@W4DWRITE_FONT_STRETCH@@1PAUIDWriteFontCollection@@H@Z => Microsoft (R) C++ Name Undecorator Copyright (C) Microsoft Corporation. All rights reserved.  Undecoration of :- "??0CD2DTextFormat@@QAA@PAVCRenderTarget@@ABV?$CStringT@_WV?$StrTraitMFC_DLL@_WV?$ChTraitsCRT@_W@ATL@@@@@ATL@@MW4DWRITE_FONT_WEIGHT@@W4DWRITE_FONT_STYLE@@W4DWRITE_FONT_STRETCH@@1PAUIDWriteFontCollection@@H@Z" is :- "public: __cdecl CD2DTextFormat::CD2DTextFormat(class CRenderTarget *,class ATL::CStringT<wchar_t,class StrTraitMFC_DLL<wchar_t,class ATL::ChTraitsCRT<wchar_t> > > const &,float,enum DWRITE_FONT_WEIGHT,enum DWRITE_FONT_STYLE,enum DWRITE_FONT_STRETCH,class ATL::CStringT<wchar_t,class StrTraitMFC_DLL<wchar_t,class ATL::ChTraitsCRT<wchar_t> > > const &,struct IDWriteFontCollection *,int)" 
??0CD2DTextFormat@@QAA@PAVCRenderTarget@@ABV?$CStringT@GV?$StrTraitMFC_DLL@GV?$ChTraitsCRT@G@ATL@@@@@ATL@@MW4DWRITE_FONT_WEIGHT@@W4DWRITE_FONT_STYLE@@W4DWRITE_FONT_STRETCH@@1PAUIDWriteFontCollection@@H@Z => Microsoft (R) C++ Name Undecorator Copyright (C) Microsoft Corporation. All rights reserved.  Undecoration of :- "??0CD2DTextFormat@@QAA@PAVCRenderTarget@@ABV?$CStringT@GV?$StrTraitMFC_DLL@GV?$ChTraitsCRT@G@ATL@@@@@ATL@@MW4DWRITE_FONT_WEIGHT@@W4DWRITE_FONT_STYLE@@W4DWRITE_FONT_STRETCH@@1PAUIDWriteFontCollection@@H@Z" is :- "public: __cdecl CD2DTextFormat::CD2DTextFormat(class CRenderTarget *,class ATL::CStringT<unsigned short,class StrTraitMFC_DLL<unsigned short,class ATL::ChTraitsCRT<unsigned short> > > const &,float,enum DWRITE_FONT_WEIGHT,enum DWRITE_FONT_STYLE,enum DWRITE_FONT_STRETCH,class ATL::CStringT<unsigned short,class StrTraitMFC_DLL<unsigned short,class ATL::ChTraitsCRT<unsigned short> > > const &,struct IDWriteFontCollection *,int)" 
??0CD2DTextLayout@@QAA@PAVCRenderTarget@@ABV?$CStringT@_WV?$StrTraitMFC_DLL@_WV?$ChTraitsCRT@_W@ATL@@@@@ATL@@AAVCD2DTextFormat@@ABVCD2DSizeF@@H@Z => Microsoft (R) C++ Name Undecorator Copyright (C) Microsoft Corporation. All rights reserved.  Undecoration of :- "??0CD2DTextLayout@@QAA@PAVCRenderTarget@@ABV?$CStringT@_WV?$StrTraitMFC_DLL@_WV?$ChTraitsCRT@_W@ATL@@@@@ATL@@AAVCD2DTextFormat@@ABVCD2DSizeF@@H@Z" is :- "public: __cdecl CD2DTextLayout::CD2DTextLayout(class CRenderTarget *,class ATL::CStringT<wchar_t,class StrTraitMFC_DLL<wchar_t,class ATL::ChTraitsCRT<wchar_t> > > const &,class CD2DTextFormat &,class CD2DSizeF const &,int)" 
??0CD2DTextLayout@@QAA@PAVCRenderTarget@@ABV?$CStringT@GV?$StrTraitMFC_DLL@GV?$ChTraitsCRT@G@ATL@@@@@ATL@@AAVCD2DTextFormat@@ABVCD2DSizeF@@H@Z => Microsoft (R) C++ Name Undecorator Copyright (C) Microsoft Corporation. All rights reserved.  Undecoration of :- "??0CD2DTextLayout@@QAA@PAVCRenderTarget@@ABV?$CStringT@GV?$StrTraitMFC_DLL@GV?$ChTraitsCRT@G@ATL@@@@@ATL@@AAVCD2DTextFormat@@ABVCD2DSizeF@@H@Z" is :- "public: __cdecl CD2DTextLayout::CD2DTextLayout(class CRenderTarget *,class ATL::CStringT<unsigned short,class StrTraitMFC_DLL<unsigned short,class ATL::ChTraitsCRT<unsigned short> > > const &,class CD2DTextFormat &,class CD2DSizeF const &,int)" 
??0CDHtmlControlSink@@QAA@PAUIUnknown@@PAVCDHtmlSinkHandler@@PB_WK@Z => Microsoft (R) C++ Name Undecorator Copyright (C) Microsoft Corporation. All rights reserved.  Undecoration of :- "??0CDHtmlControlSink@@QAA@PAUIUnknown@@PAVCDHtmlSinkHandler@@PB_WK@Z" is :- "public: __cdecl CDHtmlControlSink::CDHtmlControlSink(struct IUnknown *,class CDHtmlSinkHandler *,wchar_t const *,unsigned long)" 
??0CDHtmlControlSink@@QAA@PAUIUnknown@@PAVCDHtmlSinkHandler@@PBGK@Z => Microsoft (R) C++ Name Undecorator Copyright (C) Microsoft Corporation. All rights reserved.  Undecoration of :- "??0CDHtmlControlSink@@QAA@PAUIUnknown@@PAVCDHtmlSinkHandler@@PBGK@Z" is :- "public: __cdecl CDHtmlControlSink::CDHtmlControlSink(struct IUnknown *,class CDHtmlSinkHandler *,unsigned short const *,unsigned long)" 
??0CDHtmlDialog@@QAA@PB_W0PAVCWnd@@@Z => Microsoft (R) C++ Name Undecorator Copyright (C) Microsoft Corporation. All rights reserved.  Undecoration of :- "??0CDHtmlDialog@@QAA@PB_W0PAVCWnd@@@Z" is :- "public: __cdecl CDHtmlDialog::CDHtmlDialog(wchar_t const *,wchar_t const *,class CWnd *)" 
??0CDHtmlDialog@@QAA@PBG0PAVCWnd@@@Z => Microsoft (R) C++ Name Undecorator Copyright (C) Microsoft Corporation. All rights reserved.  Undecoration of :- "??0CDHtmlDialog@@QAA@PBG0PAVCWnd@@@Z" is :- "public: __cdecl CDHtmlDialog::CDHtmlDialog(unsigned short const *,unsigned short const *,class CWnd *)" 
??0CDialog@@QAA@PB_WPAVCWnd@@@Z => Microsoft (R) C++ Name Undecorator Copyright (C) Microsoft Corporation. All rights reserved.  Undecoration of :- "??0CDialog@@QAA@PB_WPAVCWnd@@@Z" is :- "public: __cdecl CDialog::CDialog(wchar_t const *,class CWnd *)" 
??0CDialog@@QAA@PBGPAVCWnd@@@Z => Microsoft (R) C++ Name Undecorator Copyright (C) Microsoft Corporation. All rights reserved.  Undecoration of :- "??0CDialog@@QAA@PBGPAVCWnd@@@Z" is :- "public: __cdecl CDialog::CDialog(unsigned short const *,class CWnd *)" 
??0CDialogEx@@QAA@PB_WPAVCWnd@@@Z => Microsoft (R) C++ Name Undecorator Copyright (C) Microsoft Corporation. All rights reserved.  Undecoration of :- "??0CDialogEx@@QAA@PB_WPAVCWnd@@@Z" is :- "public: __cdecl CDialogEx::CDialogEx(wchar_t const *,class CWnd *)" 
??0CDialogEx@@QAA@PBGPAVCWnd@@@Z => Microsoft (R) C++ Name Undecorator Copyright (C) Microsoft Corporation. All rights reserved.  Undecoration of :- "??0CDialogEx@@QAA@PBGPAVCWnd@@@Z" is :- "public: __cdecl CDialogEx::CDialogEx(unsigned short const *,class CWnd *)" 
??0CEvent@@QAA@HHPB_WPAU_SECURITY_ATTRIBUTES@@@Z => Microsoft (R) C++ Name Undecorator Copyright (C) Microsoft Corporation. All rights reserved.  Undecoration of :- "??0CEvent@@QAA@HHPB_WPAU_SECURITY_ATTRIBUTES@@@Z" is :- "public: __cdecl CEvent::CEvent(int,int,wchar_t const *,struct _SECURITY_ATTRIBUTES *)" 
??0CEvent@@QAA@HHPBGPAU_SECURITY_ATTRIBUTES@@@Z => Microsoft (R) C++ Name Undecorator Copyright (C) Microsoft Corporation. All rights reserved.  Undecoration of :- "??0CEvent@@QAA@HHPBGPAU_SECURITY_ATTRIBUTES@@@Z" is :- "public: __cdecl CEvent::CEvent(int,int,unsigned short const *,struct _SECURITY_ATTRIBUTES *)" 
??0CFile@@QAA@PB_WI@Z => Microsoft (R) C++ Name Undecorator Copyright (C) Microsoft Corporation. All rights reserved.  Undecoration of :- "??0CFile@@QAA@PB_WI@Z" is :- "public: __cdecl CFile::CFile(wchar_t const *,unsigned int)" 
??0CFile@@QAA@PB_WIPAVCAtlTransactionManager@ATL@@@Z => Microsoft (R) C++ Name Undecorator Copyright (C) Microsoft Corporation. All rights reserved.  Undecoration of :- "??0CFile@@QAA@PB_WIPAVCAtlTransactionManager@ATL@@@Z" is :- "public: __cdecl CFile::CFile(wchar_t const *,unsigned int,class ATL::CAtlTransactionManager *)" 
??0CFile@@QAA@PBGI@Z => Microsoft (R) C++ Name Undecorator Copyright (C) Microsoft Corporation. All rights reserved.  Undecoration of :- "??0CFile@@QAA@PBGI@Z" is :- "public: __cdecl CFile::CFile(unsigned short const *,unsigned int)" 
??0CFile@@QAA@PBGIPAVCAtlTransactionManager@ATL@@@Z => Microsoft (R) C++ Name Undecorator Copyright (C) Microsoft Corporation. All rights reserved.  Undecoration of :- "??0CFile@@QAA@PBGIPAVCAtlTransactionManager@ATL@@@Z" is :- "public: __cdecl CFile::CFile(unsigned short const *,unsigned int,class ATL::CAtlTransactionManager *)" 
??0CFileDialog@@QAA@HPB_W0K0PAVCWnd@@KH@Z => Microsoft (R) C++ Name Undecorator Copyright (C) Microsoft Corporation. All rights reserved.  Undecoration of :- "??0CFileDialog@@QAA@HPB_W0K0PAVCWnd@@KH@Z" is :- "public: __cdecl CFileDialog::CFileDialog(int,wchar_t const *,wchar_t const *,unsigned long,wchar_t const *,class CWnd *,unsigned long,int)" 
??0CFileDialog@@QAA@HPBG0K0PAVCWnd@@KH@Z => Microsoft (R) C++ Name Undecorator Copyright (C) Microsoft Corporation. All rights reserved.  Undecoration of :- "??0CFileDialog@@QAA@HPBG0K0PAVCWnd@@KH@Z" is :- "public: __cdecl CFileDialog::CFileDialog(int,unsigned short const *,unsigned short const *,unsigned long,unsigned short const *,class CWnd *,unsigned long,int)" 
??0CFolderPickerDialog@@QAA@PB_WKPAVCWnd@@KH@Z => Microsoft (R) C++ Name Undecorator Copyright (C) Microsoft Corporation. All rights reserved.  Undecoration of :- "??0CFolderPickerDialog@@QAA@PB_WKPAVCWnd@@KH@Z" is :- "public: __cdecl CFolderPickerDialog::CFolderPickerDialog(wchar_t const *,unsigned long,class CWnd *,unsigned long,int)" 
??0CFolderPickerDialog@@QAA@PBGKPAVCWnd@@KH@Z => Microsoft (R) C++ Name Undecorator Copyright (C) Microsoft Corporation. All rights reserved.  Undecoration of :- "??0CFolderPickerDialog@@QAA@PBGKPAVCWnd@@KH@Z" is :- "public: __cdecl CFolderPickerDialog::CFolderPickerDialog(unsigned short const *,unsigned long,class CWnd *,unsigned long,int)" 
??0CFormView@@IAA@PB_W@Z => Microsoft (R) C++ Name Undecorator Copyright (C) Microsoft Corporation. All rights reserved.  Undecoration of :- "??0CFormView@@IAA@PB_W@Z" is :- "protected: __cdecl CFormView::CFormView(wchar_t const *)" 
??0CFormView@@IAA@PBG@Z => Microsoft (R) C++ Name Undecorator Copyright (C) Microsoft Corporation. All rights reserved.  Undecoration of :- "??0CFormView@@IAA@PBG@Z" is :- "protected: __cdecl CFormView::CFormView(unsigned short const *)" 
??0CFtpConnection@@QAA@PAVCInternetSession@@PAXPB_WK@Z => Microsoft (R) C++ Name Undecorator Copyright (C) Microsoft Corporation. All rights reserved.  Undecoration of :- "??0CFtpConnection@@QAA@PAVCInternetSession@@PAXPB_WK@Z" is :- "public: __cdecl CFtpConnection::CFtpConnection(class CInternetSession *,void *,wchar_t const *,unsigned long)" 
??0CFtpConnection@@QAA@PAVCInternetSession@@PAXPBGK@Z => Microsoft (R) C++ Name Undecorator Copyright (C) Microsoft Corporation. All rights reserved.  Undecoration of :- "??0CFtpConnection@@QAA@PAVCInternetSession@@PAXPBGK@Z" is :- "public: __cdecl CFtpConnection::CFtpConnection(class CInternetSession *,void *,unsigned short const *,unsigned long)" 
??0CFtpConnection@@QAA@PAVCInternetSession@@PB_W11KGH@Z => Microsoft (R) C++ Name Undecorator Copyright (C) Microsoft Corporation. All rights reserved.  Undecoration of :- "??0CFtpConnection@@QAA@PAVCInternetSession@@PB_W11KGH@Z" is :- "public: __cdecl CFtpConnection::CFtpConnection(class CInternetSession *,wchar_t const *,wchar_t const *,wchar_t const *,unsigned long,unsigned short,int)" 
??0CFtpConnection@@QAA@PAVCInternetSession@@PBG11KGH@Z => Microsoft (R) C++ Name Undecorator Copyright (C) Microsoft Corporation. All rights reserved.  Undecoration of :- "??0CFtpConnection@@QAA@PAVCInternetSession@@PBG11KGH@Z" is :- "public: __cdecl CFtpConnection::CFtpConnection(class CInternetSession *,unsigned short const *,unsigned short const *,unsigned short const *,unsigned long,unsigned short,int)" 
??0CGopherConnection@@QAA@PAVCInternetSession@@PAXPB_WK@Z => Microsoft (R) C++ Name Undecorator Copyright (C) Microsoft Corporation. All rights reserved.  Undecoration of :- "??0CGopherConnection@@QAA@PAVCInternetSession@@PAXPB_WK@Z" is :- "public: __cdecl CGopherConnection::CGopherConnection(class CInternetSession *,void *,wchar_t const *,unsigned long)" 
??0CGopherConnection@@QAA@PAVCInternetSession@@PAXPBGK@Z => Microsoft (R) C++ Name Undecorator Copyright (C) Microsoft Corporation. All rights reserved.  Undecoration of :- "??0CGopherConnection@@QAA@PAVCInternetSession@@PAXPBGK@Z" is :- "public: __cdecl CGopherConnection::CGopherConnection(class CInternetSession *,void *,unsigned short const *,unsigned long)" 
??0CGopherConnection@@QAA@PAVCInternetSession@@PB_W11KG@Z => Microsoft (R) C++ Name Undecorator Copyright (C) Microsoft Corporation. All rights reserved.  Undecoration of :- "??0CGopherConnection@@QAA@PAVCInternetSession@@PB_W11KG@Z" is :- "public: __cdecl CGopherConnection::CGopherConnection(class CInternetSession *,wchar_t const *,wchar_t const *,wchar_t const *,unsigned long,unsigned short)" 
??0CGopherConnection@@QAA@PAVCInternetSession@@PBG11KG@Z => Microsoft (R) C++ Name Undecorator Copyright (C) Microsoft Corporation. All rights reserved.  Undecoration of :- "??0CGopherConnection@@QAA@PAVCInternetSession@@PBG11KG@Z" is :- "public: __cdecl CGopherConnection::CGopherConnection(class CInternetSession *,unsigned short const *,unsigned short const *,unsigned short const *,unsigned long,unsigned short)" 
??0CGopherFile@@IAA@PAX0PB_WKK@Z => Microsoft (R) C++ Name Undecorator Copyright (C) Microsoft Corporation. All rights reserved.  Undecoration of :- "??0CGopherFile@@IAA@PAX0PB_WKK@Z" is :- "protected: __cdecl CGopherFile::CGopherFile(void *,void *,wchar_t const *,unsigned long,unsigned long)" 
??0CGopherFile@@IAA@PAX0PBGKK@Z => Microsoft (R) C++ Name Undecorator Copyright (C) Microsoft Corporation. All rights reserved.  Undecoration of :- "??0CGopherFile@@IAA@PAX0PBGKK@Z" is :- "protected: __cdecl CGopherFile::CGopherFile(void *,void *,unsigned short const *,unsigned long,unsigned long)" 
??0CGopherLocator@@AAA@PB_WK@Z => Microsoft (R) C++ Name Undecorator Copyright (C) Microsoft Corporation. All rights reserved.  Undecoration of :- "??0CGopherLocator@@AAA@PB_WK@Z" is :- "private: __cdecl CGopherLocator::CGopherLocator(wchar_t const *,unsigned long)" 
??0CGopherLocator@@AAA@PBGK@Z => Microsoft (R) C++ Name Undecorator Copyright (C) Microsoft Corporation. All rights reserved.  Undecoration of :- "??0CGopherLocator@@AAA@PBGK@Z" is :- "private: __cdecl CGopherLocator::CGopherLocator(unsigned short const *,unsigned long)" 
??0CHttpConnection@@QAA@PAVCInternetSession@@PAXPB_WK@Z => Microsoft (R) C++ Name Undecorator Copyright (C) Microsoft Corporation. All rights reserved.  Undecoration of :- "??0CHttpConnection@@QAA@PAVCInternetSession@@PAXPB_WK@Z" is :- "public: __cdecl CHttpConnection::CHttpConnection(class CInternetSession *,void *,wchar_t const *,unsigned long)" 
??0CHttpConnection@@QAA@PAVCInternetSession@@PAXPBGK@Z => Microsoft (R) C++ Name Undecorator Copyright (C) Microsoft Corporation. All rights reserved.  Undecoration of :- "??0CHttpConnection@@QAA@PAVCInternetSession@@PAXPBGK@Z" is :- "public: __cdecl CHttpConnection::CHttpConnection(class CInternetSession *,void *,unsigned short const *,unsigned long)" 
??0CHttpConnection@@QAA@PAVCInternetSession@@PB_WG11K@Z => Microsoft (R) C++ Name Undecorator Copyright (C) Microsoft Corporation. All rights reserved.  Undecoration of :- "??0CHttpConnection@@QAA@PAVCInternetSession@@PB_WG11K@Z" is :- "public: __cdecl CHttpConnection::CHttpConnection(class CInternetSession *,wchar_t const *,unsigned short,wchar_t const *,wchar_t const *,unsigned long)" 
??0CHttpConnection@@QAA@PAVCInternetSession@@PB_WKG11K@Z => Microsoft (R) C++ Name Undecorator Copyright (C) Microsoft Corporation. All rights reserved.  Undecoration of :- "??0CHttpConnection@@QAA@PAVCInternetSession@@PB_WKG11K@Z" is :- "public: __cdecl CHttpConnection::CHttpConnection(class CInternetSession *,wchar_t const *,unsigned long,unsigned short,wchar_t const *,wchar_t const *,unsigned long)" 
??0CHttpConnection@@QAA@PAVCInternetSession@@PBGG11K@Z => Microsoft (R) C++ Name Undecorator Copyright (C) Microsoft Corporation. All rights reserved.  Undecoration of :- "??0CHttpConnection@@QAA@PAVCInternetSession@@PBGG11K@Z" is :- "public: __cdecl CHttpConnection::CHttpConnection(class CInternetSession *,unsigned short const *,unsigned short,unsigned short const *,unsigned short const *,unsigned long)" 
??0CHttpConnection@@QAA@PAVCInternetSession@@PBGKG11K@Z => Microsoft (R) C++ Name Undecorator Copyright (C) Microsoft Corporation. All rights reserved.  Undecoration of :- "??0CHttpConnection@@QAA@PAVCInternetSession@@PBGKG11K@Z" is :- "public: __cdecl CHttpConnection::CHttpConnection(class CInternetSession *,unsigned short const *,unsigned long,unsigned short,unsigned short const *,unsigned short const *,unsigned long)" 
??0CHttpFile@@IAA@PAX0PB_W11K@Z => Microsoft (R) C++ Name Undecorator Copyright (C) Microsoft Corporation. All rights reserved.  Undecoration of :- "??0CHttpFile@@IAA@PAX0PB_W11K@Z" is :- "protected: __cdecl CHttpFile::CHttpFile(void *,void *,wchar_t const *,wchar_t const *,wchar_t const *,unsigned long)" 
??0CHttpFile@@IAA@PAX0PBG11K@Z => Microsoft (R) C++ Name Undecorator Copyright (C) Microsoft Corporation. All rights reserved.  Undecoration of :- "??0CHttpFile@@IAA@PAX0PBG11K@Z" is :- "protected: __cdecl CHttpFile::CHttpFile(void *,void *,unsigned short const *,unsigned short const *,unsigned short const *,unsigned long)" 
??0CHttpFile@@IAA@PAXPB_W1PAVCHttpConnection@@@Z => Microsoft (R) C++ Name Undecorator Copyright (C) Microsoft Corporation. All rights reserved.  Undecoration of :- "??0CHttpFile@@IAA@PAXPB_W1PAVCHttpConnection@@@Z" is :- "protected: __cdecl CHttpFile::CHttpFile(void *,wchar_t const *,wchar_t const *,class CHttpConnection *)" 
??0CHttpFile@@IAA@PAXPBG1PAVCHttpConnection@@@Z => Microsoft (R) C++ Name Undecorator Copyright (C) Microsoft Corporation. All rights reserved.  Undecoration of :- "??0CHttpFile@@IAA@PAXPBG1PAVCHttpConnection@@@Z" is :- "protected: __cdecl CHttpFile::CHttpFile(void *,unsigned short const *,unsigned short const *,class CHttpConnection *)" 
??0CInternetConnection@@QAA@PAVCInternetSession@@PB_WGK@Z => Microsoft (R) C++ Name Undecorator Copyright (C) Microsoft Corporation. All rights reserved.  Undecoration of :- "??0CInternetConnection@@QAA@PAVCInternetSession@@PB_WGK@Z" is :- "public: __cdecl CInternetConnection::CInternetConnection(class CInternetSession *,wchar_t const *,unsigned short,unsigned long)" 
??0CInternetConnection@@QAA@PAVCInternetSession@@PBGGK@Z => Microsoft (R) C++ Name Undecorator Copyright (C) Microsoft Corporation. All rights reserved.  Undecoration of :- "??0CInternetConnection@@QAA@PAVCInternetSession@@PBGGK@Z" is :- "public: __cdecl CInternetConnection::CInternetConnection(class CInternetSession *,unsigned short const *,unsigned short,unsigned long)" 
??0CInternetFile@@IAA@PAX0PB_W1KH@Z => Microsoft (R) C++ Name Undecorator Copyright (C) Microsoft Corporation. All rights reserved.  Undecoration of :- "??0CInternetFile@@IAA@PAX0PB_W1KH@Z" is :- "protected: __cdecl CInternetFile::CInternetFile(void *,void *,wchar_t const *,wchar_t const *,unsigned long,int)" 
??0CInternetFile@@IAA@PAX0PBG1KH@Z => Microsoft (R) C++ Name Undecorator Copyright (C) Microsoft Corporation. All rights reserved.  Undecoration of :- "??0CInternetFile@@IAA@PAX0PBG1KH@Z" is :- "protected: __cdecl CInternetFile::CInternetFile(void *,void *,unsigned short const *,unsigned short const *,unsigned long,int)" 
??0CInternetFile@@IAA@PAXPB_WPAVCInternetConnection@@H@Z => Microsoft (R) C++ Name Undecorator Copyright (C) Microsoft Corporation. All rights reserved.  Undecoration of :- "??0CInternetFile@@IAA@PAXPB_WPAVCInternetConnection@@H@Z" is :- "protected: __cdecl CInternetFile::CInternetFile(void *,wchar_t const *,class CInternetConnection *,int)" 
??0CInternetFile@@IAA@PAXPBGPAVCInternetConnection@@H@Z => Microsoft (R) C++ Name Undecorator Copyright (C) Microsoft Corporation. All rights reserved.  Undecoration of :- "??0CInternetFile@@IAA@PAXPBGPAVCInternetConnection@@H@Z" is :- "protected: __cdecl CInternetFile::CInternetFile(void *,unsigned short const *,class CInternetConnection *,int)" 
??0CInternetSession@@QAA@PB_WKK00K@Z => Microsoft (R) C++ Name Undecorator Copyright (C) Microsoft Corporation. All rights reserved.  Undecoration of :- "??0CInternetSession@@QAA@PB_WKK00K@Z" is :- "public: __cdecl CInternetSession::CInternetSession(wchar_t const *,unsigned long,unsigned long,wchar_t const *,wchar_t const *,unsigned long)" 
??0CInternetSession@@QAA@PBGKK00K@Z => Microsoft (R) C++ Name Undecorator Copyright (C) Microsoft Corporation. All rights reserved.  Undecoration of :- "??0CInternetSession@@QAA@PBGKK00K@Z" is :- "public: __cdecl CInternetSession::CInternetSession(unsigned short const *,unsigned long,unsigned long,unsigned short const *,unsigned short const *,unsigned long)" 
??0CMFCColorBar@@IAA@ABV?$CArray@KK@@KPB_W11AAV?$CList@KK@@HHHKIPAVCMFCColorButton@@@Z => Microsoft (R) C++ Name Undecorator Copyright (C) Microsoft Corporation. All rights reserved.  Undecoration of :- "??0CMFCColorBar@@IAA@ABV?$CArray@KK@@KPB_W11AAV?$CList@KK@@HHHKIPAVCMFCColorButton@@@Z" is :- "protected: __cdecl CMFCColorBar::CMFCColorBar(class CArray<unsigned long,unsigned long> const &,unsigned long,wchar_t const *,wchar_t const *,wchar_t const *,class CList<unsigned long,unsigned long> &,int,int,int,unsigned long,unsigned int,class CMFCColorButton *)" 
??0CMFCColorBar@@IAA@ABV?$CArray@KK@@KPB_W11AAV?$CList@KK@@HKIPAVCMFCRibbonColorButton@@@Z => Microsoft (R) C++ Name Undecorator Copyright (C) Microsoft Corporation. All rights reserved.  Undecoration of :- "??0CMFCColorBar@@IAA@ABV?$CArray@KK@@KPB_W11AAV?$CList@KK@@HKIPAVCMFCRibbonColorButton@@@Z" is :- "protected: __cdecl CMFCColorBar::CMFCColorBar(class CArray<unsigned long,unsigned long> const &,unsigned long,wchar_t const *,wchar_t const *,wchar_t const *,class CList<unsigned long,unsigned long> &,int,unsigned long,unsigned int,class CMFCRibbonColorButton *)" 
??0CMFCColorBar@@IAA@ABV?$CArray@KK@@KPBG11AAV?$CList@KK@@HHHKIPAVCMFCColorButton@@@Z => Microsoft (R) C++ Name Undecorator Copyright (C) Microsoft Corporation. All rights reserved.  Undecoration of :- "??0CMFCColorBar@@IAA@ABV?$CArray@KK@@KPBG11AAV?$CList@KK@@HHHKIPAVCMFCColorButton@@@Z" is :- "protected: __cdecl CMFCColorBar::CMFCColorBar(class CArray<unsigned long,unsigned long> const &,unsigned long,unsigned short const *,unsigned short const *,unsigned short const *,class CList<unsigned long,unsigned long> &,int,int,int,unsigned long,unsigned int,class CMFCColorButton *)" 
??0CMFCColorBar@@IAA@ABV?$CArray@KK@@KPBG11AAV?$CList@KK@@HKIPAVCMFCRibbonColorButton@@@Z => Microsoft (R) C++ Name Undecorator Copyright (C) Microsoft Corporation. All rights reserved.  Undecoration of :- "??0CMFCColorBar@@IAA@ABV?$CArray@KK@@KPBG11AAV?$CList@KK@@HKIPAVCMFCRibbonColorButton@@@Z" is :- "protected: __cdecl CMFCColorBar::CMFCColorBar(class CArray<unsigned long,unsigned long> const &,unsigned long,unsigned short const *,unsigned short const *,unsigned short const *,class CList<unsigned long,unsigned long> &,int,unsigned long,unsigned int,class CMFCRibbonColorButton *)" 
??0CMFCColorMenuButton@@QAA@IPB_WPAVCPalette@@@Z => Microsoft (R) C++ Name Undecorator Copyright (C) Microsoft Corporation. All rights reserved.  Undecoration of :- "??0CMFCColorMenuButton@@QAA@IPB_WPAVCPalette@@@Z" is :- "public: __cdecl CMFCColorMenuButton::CMFCColorMenuButton(unsigned int,wchar_t const *,class CPalette *)" 
??0CMFCColorMenuButton@@QAA@IPBGPAVCPalette@@@Z => Microsoft (R) C++ Name Undecorator Copyright (C) Microsoft Corporation. All rights reserved.  Undecoration of :- "??0CMFCColorMenuButton@@QAA@IPBGPAVCPalette@@@Z" is :- "public: __cdecl CMFCColorMenuButton::CMFCColorMenuButton(unsigned int,unsigned short const *,class CPalette *)" 
??0CMFCColorPropertySheet@@QAA@PB_WPAVCWnd@@I@Z => Microsoft (R) C++ Name Undecorator Copyright (C) Microsoft Corporation. All rights reserved.  Undecoration of :- "??0CMFCColorPropertySheet@@QAA@PB_WPAVCWnd@@I@Z" is :- "public: __cdecl CMFCColorPropertySheet::CMFCColorPropertySheet(wchar_t const *,class CWnd *,unsigned int)" 
??0CMFCColorPropertySheet@@QAA@PBGPAVCWnd@@I@Z => Microsoft (R) C++ Name Undecorator Copyright (C) Microsoft Corporation. All rights reserved.  Undecoration of :- "??0CMFCColorPropertySheet@@QAA@PBGPAVCWnd@@I@Z" is :- "public: __cdecl CMFCColorPropertySheet::CMFCColorPropertySheet(unsigned short const *,class CWnd *,unsigned int)" 
??0CMFCControlRendererInfo@@QAA@PB_WABVCRect@@111@Z => Microsoft (R) C++ Name Undecorator Copyright (C) Microsoft Corporation. All rights reserved.  Undecoration of :- "??0CMFCControlRendererInfo@@QAA@PB_WABVCRect@@111@Z" is :- "public: __cdecl CMFCControlRendererInfo::CMFCControlRendererInfo(wchar_t const *,class CRect const &,class CRect const &,class CRect const &,class CRect const &)" 
??0CMFCControlRendererInfo@@QAA@PB_WKABVCRect@@111H@Z => Microsoft (R) C++ Name Undecorator Copyright (C) Microsoft Corporation. All rights reserved.  Undecoration of :- "??0CMFCControlRendererInfo@@QAA@PB_WKABVCRect@@111H@Z" is :- "public: __cdecl CMFCControlRendererInfo::CMFCControlRendererInfo(wchar_t const *,unsigned long,class CRect const &,class CRect const &,class CRect const &,class CRect const &,int)" 
??0CMFCControlRendererInfo@@QAA@PBGABVCRect@@111@Z => Microsoft (R) C++ Name Undecorator Copyright (C) Microsoft Corporation. All rights reserved.  Undecoration of :- "??0CMFCControlRendererInfo@@QAA@PBGABVCRect@@111@Z" is :- "public: __cdecl CMFCControlRendererInfo::CMFCControlRendererInfo(unsigned short const *,class CRect const &,class CRect const &,class CRect const &,class CRect const &)" 
??0CMFCControlRendererInfo@@QAA@PBGKABVCRect@@111H@Z => Microsoft (R) C++ Name Undecorator Copyright (C) Microsoft Corporation. All rights reserved.  Undecoration of :- "??0CMFCControlRendererInfo@@QAA@PBGKABVCRect@@111H@Z" is :- "public: __cdecl CMFCControlRendererInfo::CMFCControlRendererInfo(unsigned short const *,unsigned long,class CRect const &,class CRect const &,class CRect const &,class CRect const &,int)" 
??0CMFCCustomizeButton@@QAA@HABV?$CStringT@_WV?$StrTraitMFC_DLL@_WV?$ChTraitsCRT@_W@ATL@@@@@ATL@@@Z => Microsoft (R) C++ Name Undecorator Copyright (C) Microsoft Corporation. All rights reserved.  Undecoration of :- "??0CMFCCustomizeButton@@QAA@HABV?$CStringT@_WV?$StrTraitMFC_DLL@_WV?$ChTraitsCRT@_W@ATL@@@@@ATL@@@Z" is :- "public: __cdecl CMFCCustomizeButton::CMFCCustomizeButton(int,class ATL::CStringT<wchar_t,class StrTraitMFC_DLL<wchar_t,class ATL::ChTraitsCRT<wchar_t> > > const &)" 
??0CMFCCustomizeButton@@QAA@HABV?$CStringT@GV?$StrTraitMFC_DLL@GV?$ChTraitsCRT@G@ATL@@@@@ATL@@@Z => Microsoft (R) C++ Name Undecorator Copyright (C) Microsoft Corporation. All rights reserved.  Undecoration of :- "??0CMFCCustomizeButton@@QAA@HABV?$CStringT@GV?$StrTraitMFC_DLL@GV?$ChTraitsCRT@G@ATL@@@@@ATL@@@Z" is :- "public: __cdecl CMFCCustomizeButton::CMFCCustomizeButton(int,class ATL::CStringT<unsigned short,class StrTraitMFC_DLL<unsigned short,class ATL::ChTraitsCRT<unsigned short> > > const &)" 
??0CMFCCustomizeMenuButton@@QAA@IPAUHMENU__@@HPB_WH@Z => Microsoft (R) C++ Name Undecorator Copyright (C) Microsoft Corporation. All rights reserved.  Undecoration of :- "??0CMFCCustomizeMenuButton@@QAA@IPAUHMENU__@@HPB_WH@Z" is :- "public: __cdecl CMFCCustomizeMenuButton::CMFCCustomizeMenuButton(unsigned int,struct HMENU__ *,int,wchar_t const *,int)" 
??0CMFCCustomizeMenuButton@@QAA@IPAUHMENU__@@HPBGH@Z => Microsoft (R) C++ Name Undecorator Copyright (C) Microsoft Corporation. All rights reserved.  Undecoration of :- "??0CMFCCustomizeMenuButton@@QAA@IPAUHMENU__@@HPBGH@Z" is :- "public: __cdecl CMFCCustomizeMenuButton::CMFCCustomizeMenuButton(unsigned int,struct HMENU__ *,int,unsigned short const *,int)" 
??0CMFCDropDownToolbarButton@@QAA@PB_WPAVCMFCDropDownToolBar@@@Z => Microsoft (R) C++ Name Undecorator Copyright (C) Microsoft Corporation. All rights reserved.  Undecoration of :- "??0CMFCDropDownToolbarButton@@QAA@PB_WPAVCMFCDropDownToolBar@@@Z" is :- "public: __cdecl CMFCDropDownToolbarButton::CMFCDropDownToolbarButton(wchar_t const *,class CMFCDropDownToolBar *)" 
??0CMFCDropDownToolbarButton@@QAA@PBGPAVCMFCDropDownToolBar@@@Z => Microsoft (R) C++ Name Undecorator Copyright (C) Microsoft Corporation. All rights reserved.  Undecoration of :- "??0CMFCDropDownToolbarButton@@QAA@PBGPAVCMFCDropDownToolBar@@@Z" is :- "public: __cdecl CMFCDropDownToolbarButton::CMFCDropDownToolbarButton(unsigned short const *,class CMFCDropDownToolBar *)" 
??0CMFCPopupMenu@@IAA@PAVCMFCToolBarsMenuPropertyPage@@PB_W@Z => Microsoft (R) C++ Name Undecorator Copyright (C) Microsoft Corporation. All rights reserved.  Undecoration of :- "??0CMFCPopupMenu@@IAA@PAVCMFCToolBarsMenuPropertyPage@@PB_W@Z" is :- "protected: __cdecl CMFCPopupMenu::CMFCPopupMenu(class CMFCToolBarsMenuPropertyPage *,wchar_t const *)" 
??0CMFCPopupMenu@@IAA@PAVCMFCToolBarsMenuPropertyPage@@PBG@Z => Microsoft (R) C++ Name Undecorator Copyright (C) Microsoft Corporation. All rights reserved.  Undecoration of :- "??0CMFCPopupMenu@@IAA@PAVCMFCToolBarsMenuPropertyPage@@PBG@Z" is :- "protected: __cdecl CMFCPopupMenu::CMFCPopupMenu(class CMFCToolBarsMenuPropertyPage *,unsigned short const *)" 
??0CMFCPropertyGridColorProperty@@QAA@ABV?$CStringT@_WV?$StrTraitMFC_DLL@_WV?$ChTraitsCRT@_W@ATL@@@@@ATL@@ABKPAVCPalette@@PB_WK@Z => Microsoft (R) C++ Name Undecorator Copyright (C) Microsoft Corporation. All rights reserved.  Undecoration of :- "??0CMFCPropertyGridColorProperty@@QAA@ABV?$CStringT@_WV?$StrTraitMFC_DLL@_WV?$ChTraitsCRT@_W@ATL@@@@@ATL@@ABKPAVCPalette@@PB_WK@Z" is :- "public: __cdecl CMFCPropertyGridColorProperty::CMFCPropertyGridColorProperty(class ATL::CStringT<wchar_t,class StrTraitMFC_DLL<wchar_t,class ATL::ChTraitsCRT<wchar_t> > > const &,unsigned long const &,class CPalette *,wchar_t const *,unsigned long)" 
??0CMFCPropertyGridColorProperty@@QAA@ABV?$CStringT@GV?$StrTraitMFC_DLL@GV?$ChTraitsCRT@G@ATL@@@@@ATL@@ABKPAVCPalette@@PBGK@Z => Microsoft (R) C++ Name Undecorator Copyright (C) Microsoft Corporation. All rights reserved.  Undecoration of :- "??0CMFCPropertyGridColorProperty@@QAA@ABV?$CStringT@GV?$StrTraitMFC_DLL@GV?$ChTraitsCRT@G@ATL@@@@@ATL@@ABKPAVCPalette@@PBGK@Z" is :- "public: __cdecl CMFCPropertyGridColorProperty::CMFCPropertyGridColorProperty(class ATL::CStringT<unsigned short,class StrTraitMFC_DLL<unsigned short,class ATL::ChTraitsCRT<unsigned short> > > const &,unsigned long const &,class CPalette *,unsigned short const *,unsigned long)" 
??0CMFCPropertyGridFileProperty@@QAA@ABV?$CStringT@_WV?$StrTraitMFC_DLL@_WV?$ChTraitsCRT@_W@ATL@@@@@ATL@@0KPB_W@Z => Microsoft (R) C++ Name Undecorator Copyright (C) Microsoft Corporation. All rights reserved.  Undecoration of :- "??0CMFCPropertyGridFileProperty@@QAA@ABV?$CStringT@_WV?$StrTraitMFC_DLL@_WV?$ChTraitsCRT@_W@ATL@@@@@ATL@@0KPB_W@Z" is :- "public: __cdecl CMFCPropertyGridFileProperty::CMFCPropertyGridFileProperty(class ATL::CStringT<wchar_t,class StrTraitMFC_DLL<wchar_t,class ATL::ChTraitsCRT<wchar_t> > > const &,class ATL::CStringT<wchar_t,class StrTraitMFC_DLL<wchar_t,class ATL::ChTraitsCRT<wchar_t> > > const &,unsigned long,wchar_t const *)" 
??0CMFCPropertyGridFileProperty@@QAA@ABV?$CStringT@_WV?$StrTraitMFC_DLL@_WV?$ChTraitsCRT@_W@ATL@@@@@ATL@@H0PB_WK11K@Z => Microsoft (R) C++ Name Undecorator Copyright (C) Microsoft Corporation. All rights reserved.  Undecoration of :- "??0CMFCPropertyGridFileProperty@@QAA@ABV?$CStringT@_WV?$StrTraitMFC_DLL@_WV?$ChTraitsCRT@_W@ATL@@@@@ATL@@H0PB_WK11K@Z" is :- "public: __cdecl CMFCPropertyGridFileProperty::CMFCPropertyGridFileProperty(class ATL::CStringT<wchar_t,class StrTraitMFC_DLL<wchar_t,class ATL::ChTraitsCRT<wchar_t> > > const &,int,class ATL::CStringT<wchar_t,class StrTraitMFC_DLL<wchar_t,class ATL::ChTraitsCRT<wchar_t> > > const &,wchar_t const *,unsigned long,wchar_t const *,wchar_t const *,unsigned long)" 
??0CMFCPropertyGridFileProperty@@QAA@ABV?$CStringT@GV?$StrTraitMFC_DLL@GV?$ChTraitsCRT@G@ATL@@@@@ATL@@0KPBG@Z => Microsoft (R) C++ Name Undecorator Copyright (C) Microsoft Corporation. All rights reserved.  Undecoration of :- "??0CMFCPropertyGridFileProperty@@QAA@ABV?$CStringT@GV?$StrTraitMFC_DLL@GV?$ChTraitsCRT@G@ATL@@@@@ATL@@0KPBG@Z" is :- "public: __cdecl CMFCPropertyGridFileProperty::CMFCPropertyGridFileProperty(class ATL::CStringT<unsigned short,class StrTraitMFC_DLL<unsigned short,class ATL::ChTraitsCRT<unsigned short> > > const &,class ATL::CStringT<unsigned short,class StrTraitMFC_DLL<unsigned short,class ATL::ChTraitsCRT<unsigned short> > > const &,unsigned long,unsigned short const *)" 
??0CMFCPropertyGridFileProperty@@QAA@ABV?$CStringT@GV?$StrTraitMFC_DLL@GV?$ChTraitsCRT@G@ATL@@@@@ATL@@H0PBGK11K@Z => Microsoft (R) C++ Name Undecorator Copyright (C) Microsoft Corporation. All rights reserved.  Undecoration of :- "??0CMFCPropertyGridFileProperty@@QAA@ABV?$CStringT@GV?$StrTraitMFC_DLL@GV?$ChTraitsCRT@G@ATL@@@@@ATL@@H0PBGK11K@Z" is :- "public: __cdecl CMFCPropertyGridFileProperty::CMFCPropertyGridFileProperty(class ATL::CStringT<unsigned short,class StrTraitMFC_DLL<unsigned short,class ATL::ChTraitsCRT<unsigned short> > > const &,int,class ATL::CStringT<unsigned short,class StrTraitMFC_DLL<unsigned short,class ATL::ChTraitsCRT<unsigned short> > > const &,unsigned short const *,unsigned long,unsigned short const *,unsigned short const *,unsigned long)" 
??0CMFCPropertyGridFontProperty@@QAA@ABV?$CStringT@_WV?$StrTraitMFC_DLL@_WV?$ChTraitsCRT@_W@ATL@@@@@ATL@@AAUtagLOGFONTW@@KPB_WKK@Z => Microsoft (R) C++ Name Undecorator Copyright (C) Microsoft Corporation. All rights reserved.  Undecoration of :- "??0CMFCPropertyGridFontProperty@@QAA@ABV?$CStringT@_WV?$StrTraitMFC_DLL@_WV?$ChTraitsCRT@_W@ATL@@@@@ATL@@AAUtagLOGFONTW@@KPB_WKK@Z" is :- "public: __cdecl CMFCPropertyGridFontProperty::CMFCPropertyGridFontProperty(class ATL::CStringT<wchar_t,class StrTraitMFC_DLL<wchar_t,class ATL::ChTraitsCRT<wchar_t> > > const &,struct tagLOGFONTW &,unsigned long,wchar_t const *,unsigned long,unsigned long)" 
??0CMFCPropertyGridFontProperty@@QAA@ABV?$CStringT@GV?$StrTraitMFC_DLL@GV?$ChTraitsCRT@G@ATL@@@@@ATL@@AAUtagLOGFONTW@@KPBGKK@Z => Microsoft (R) C++ Name Undecorator Copyright (C) Microsoft Corporation. All rights reserved.  Undecoration of :- "??0CMFCPropertyGridFontProperty@@QAA@ABV?$CStringT@GV?$StrTraitMFC_DLL@GV?$ChTraitsCRT@G@ATL@@@@@ATL@@AAUtagLOGFONTW@@KPBGKK@Z" is :- "public: __cdecl CMFCPropertyGridFontProperty::CMFCPropertyGridFontProperty(class ATL::CStringT<unsigned short,class StrTraitMFC_DLL<unsigned short,class ATL::ChTraitsCRT<unsigned short> > > const &,struct tagLOGFONTW &,unsigned long,unsigned short const *,unsigned long,unsigned long)" 
??0CMFCPropertyGridProperty@@QAA@ABV?$CStringT@_WV?$StrTraitMFC_DLL@_WV?$ChTraitsCRT@_W@ATL@@@@@ATL@@ABVCOleVariant@@PB_WK222@Z => Microsoft (R) C++ Name Undecorator Copyright (C) Microsoft Corporation. All rights reserved.  Undecoration of :- "??0CMFCPropertyGridProperty@@QAA@ABV?$CStringT@_WV?$StrTraitMFC_DLL@_WV?$ChTraitsCRT@_W@ATL@@@@@ATL@@ABVCOleVariant@@PB_WK222@Z" is :- "public: __cdecl CMFCPropertyGridProperty::CMFCPropertyGridProperty(class ATL::CStringT<wchar_t,class StrTraitMFC_DLL<wchar_t,class ATL::ChTraitsCRT<wchar_t> > > const &,class COleVariant const &,wchar_t const *,unsigned long,wchar_t const *,wchar_t const *,wchar_t const *)" 
??0CMFCPropertyGridProperty@@QAA@ABV?$CStringT@_WV?$StrTraitMFC_DLL@_WV?$ChTraitsCRT@_W@ATL@@@@@ATL@@KH@Z => Microsoft (R) C++ Name Undecorator Copyright (C) Microsoft Corporation. All rights reserved.  Undecoration of :- "??0CMFCPropertyGridProperty@@QAA@ABV?$CStringT@_WV?$StrTraitMFC_DLL@_WV?$ChTraitsCRT@_W@ATL@@@@@ATL@@KH@Z" is :- "public: __cdecl CMFCPropertyGridProperty::CMFCPropertyGridProperty(class ATL::CStringT<wchar_t,class StrTraitMFC_DLL<wchar_t,class ATL::ChTraitsCRT<wchar_t> > > const &,unsigned long,int)" 
??0CMFCPropertyGridProperty@@QAA@ABV?$CStringT@GV?$StrTraitMFC_DLL@GV?$ChTraitsCRT@G@ATL@@@@@ATL@@ABVCOleVariant@@PBGK222@Z => Microsoft (R) C++ Name Undecorator Copyright (C) Microsoft Corporation. All rights reserved.  Undecoration of :- "??0CMFCPropertyGridProperty@@QAA@ABV?$CStringT@GV?$StrTraitMFC_DLL@GV?$ChTraitsCRT@G@ATL@@@@@ATL@@ABVCOleVariant@@PBGK222@Z" is :- "public: __cdecl CMFCPropertyGridProperty::CMFCPropertyGridProperty(class ATL::CStringT<unsigned short,class StrTraitMFC_DLL<unsigned short,class ATL::ChTraitsCRT<unsigned short> > > const &,class COleVariant const &,unsigned short const *,unsigned long,unsigned short const *,unsigned short const *,unsigned short const *)" 
??0CMFCPropertyGridProperty@@QAA@ABV?$CStringT@GV?$StrTraitMFC_DLL@GV?$ChTraitsCRT@G@ATL@@@@@ATL@@KH@Z => Microsoft (R) C++ Name Undecorator Copyright (C) Microsoft Corporation. All rights reserved.  Undecoration of :- "??0CMFCPropertyGridProperty@@QAA@ABV?$CStringT@GV?$StrTraitMFC_DLL@GV?$ChTraitsCRT@G@ATL@@@@@ATL@@KH@Z" is :- "public: __cdecl CMFCPropertyGridProperty::CMFCPropertyGridProperty(class ATL::CStringT<unsigned short,class StrTraitMFC_DLL<unsigned short,class ATL::ChTraitsCRT<unsigned short> > > const &,unsigned long,int)" 
??0CMFCPropertyPage@@QAA@PB_WI@Z => Microsoft (R) C++ Name Undecorator Copyright (C) Microsoft Corporation. All rights reserved.  Undecoration of :- "??0CMFCPropertyPage@@QAA@PB_WI@Z" is :- "public: __cdecl CMFCPropertyPage::CMFCPropertyPage(wchar_t const *,unsigned int)" 
??0CMFCPropertyPage@@QAA@PBGI@Z => Microsoft (R) C++ Name Undecorator Copyright (C) Microsoft Corporation. All rights reserved.  Undecoration of :- "??0CMFCPropertyPage@@QAA@PBGI@Z" is :- "public: __cdecl CMFCPropertyPage::CMFCPropertyPage(unsigned short const *,unsigned int)" 
??0CMFCPropertySheet@@QAA@PB_WPAVCWnd@@I@Z => Microsoft (R) C++ Name Undecorator Copyright (C) Microsoft Corporation. All rights reserved.  Undecoration of :- "??0CMFCPropertySheet@@QAA@PB_WPAVCWnd@@I@Z" is :- "public: __cdecl CMFCPropertySheet::CMFCPropertySheet(wchar_t const *,class CWnd *,unsigned int)" 
??0CMFCPropertySheet@@QAA@PBGPAVCWnd@@I@Z => Microsoft (R) C++ Name Undecorator Copyright (C) Microsoft Corporation. All rights reserved.  Undecoration of :- "??0CMFCPropertySheet@@QAA@PBGPAVCWnd@@I@Z" is :- "public: __cdecl CMFCPropertySheet::CMFCPropertySheet(unsigned short const *,class CWnd *,unsigned int)" 
??0CMFCPropertySheetCategoryInfo@@QAA@PB_WHHPBV0@AAVCMFCPropertySheet@@@Z => Microsoft (R) C++ Name Undecorator Copyright (C) Microsoft Corporation. All rights reserved.  Undecoration of :- "??0CMFCPropertySheetCategoryInfo@@QAA@PB_WHHPBV0@AAVCMFCPropertySheet@@@Z" is :- "public: __cdecl CMFCPropertySheetCategoryInfo::CMFCPropertySheetCategoryInfo(wchar_t const *,int,int,class CMFCPropertySheetCategoryInfo const *,class CMFCPropertySheet &)" 
??0CMFCPropertySheetCategoryInfo@@QAA@PBGHHPBV0@AAVCMFCPropertySheet@@@Z => Microsoft (R) C++ Name Undecorator Copyright (C) Microsoft Corporation. All rights reserved.  Undecoration of :- "??0CMFCPropertySheetCategoryInfo@@QAA@PBGHHPBV0@AAVCMFCPropertySheet@@@Z" is :- "public: __cdecl CMFCPropertySheetCategoryInfo::CMFCPropertySheetCategoryInfo(unsigned short const *,int,int,class CMFCPropertySheetCategoryInfo const *,class CMFCPropertySheet &)" 
??0CMFCRibbonButton@@QAA@IPB_WHHH@Z => Microsoft (R) C++ Name Undecorator Copyright (C) Microsoft Corporation. All rights reserved.  Undecoration of :- "??0CMFCRibbonButton@@QAA@IPB_WHHH@Z" is :- "public: __cdecl CMFCRibbonButton::CMFCRibbonButton(unsigned int,wchar_t const *,int,int,int)" 
??0CMFCRibbonButton@@QAA@IPB_WPAUHICON__@@H1HH@Z => Microsoft (R) C++ Name Undecorator Copyright (C) Microsoft Corporation. All rights reserved.  Undecoration of :- "??0CMFCRibbonButton@@QAA@IPB_WPAUHICON__@@H1HH@Z" is :- "public: __cdecl CMFCRibbonButton::CMFCRibbonButton(unsigned int,wchar_t const *,struct HICON__ *,int,struct HICON__ *,int,int)" 
??0CMFCRibbonButton@@QAA@IPBGHHH@Z => Microsoft (R) C++ Name Undecorator Copyright (C) Microsoft Corporation. All rights reserved.  Undecoration of :- "??0CMFCRibbonButton@@QAA@IPBGHHH@Z" is :- "public: __cdecl CMFCRibbonButton::CMFCRibbonButton(unsigned int,unsigned short const *,int,int,int)" 
??0CMFCRibbonButton@@QAA@IPBGPAUHICON__@@H1HH@Z => Microsoft (R) C++ Name Undecorator Copyright (C) Microsoft Corporation. All rights reserved.  Undecoration of :- "??0CMFCRibbonButton@@QAA@IPBGPAUHICON__@@H1HH@Z" is :- "public: __cdecl CMFCRibbonButton::CMFCRibbonButton(unsigned int,unsigned short const *,struct HICON__ *,int,struct HICON__ *,int,int)" 
??0CMFCRibbonCategory@@IAA@PAVCMFCRibbonBar@@PB_WIIVCSize@@2@Z => Microsoft (R) C++ Name Undecorator Copyright (C) Microsoft Corporation. All rights reserved.  Undecoration of :- "??0CMFCRibbonCategory@@IAA@PAVCMFCRibbonBar@@PB_WIIVCSize@@2@Z" is :- "protected: __cdecl CMFCRibbonCategory::CMFCRibbonCategory(class CMFCRibbonBar *,wchar_t const *,unsigned int,unsigned int,class CSize,class CSize)" 
??0CMFCRibbonCategory@@IAA@PAVCMFCRibbonBar@@PBGIIVCSize@@2@Z => Microsoft (R) C++ Name Undecorator Copyright (C) Microsoft Corporation. All rights reserved.  Undecoration of :- "??0CMFCRibbonCategory@@IAA@PAVCMFCRibbonBar@@PBGIIVCSize@@2@Z" is :- "protected: __cdecl CMFCRibbonCategory::CMFCRibbonCategory(class CMFCRibbonBar *,unsigned short const *,unsigned int,unsigned int,class CSize,class CSize)" 
??0CMFCRibbonCheckBox@@QAA@IPB_W@Z => Microsoft (R) C++ Name Undecorator Copyright (C) Microsoft Corporation. All rights reserved.  Undecoration of :- "??0CMFCRibbonCheckBox@@QAA@IPB_W@Z" is :- "public: __cdecl CMFCRibbonCheckBox::CMFCRibbonCheckBox(unsigned int,wchar_t const *)" 
??0CMFCRibbonCheckBox@@QAA@IPBG@Z => Microsoft (R) C++ Name Undecorator Copyright (C) Microsoft Corporation. All rights reserved.  Undecoration of :- "??0CMFCRibbonCheckBox@@QAA@IPBG@Z" is :- "public: __cdecl CMFCRibbonCheckBox::CMFCRibbonCheckBox(unsigned int,unsigned short const *)" 
??0CMFCRibbonColorButton@@QAA@IPB_WHHHK@Z => Microsoft (R) C++ Name Undecorator Copyright (C) Microsoft Corporation. All rights reserved.  Undecoration of :- "??0CMFCRibbonColorButton@@QAA@IPB_WHHHK@Z" is :- "public: __cdecl CMFCRibbonColorButton::CMFCRibbonColorButton(unsigned int,wchar_t const *,int,int,int,unsigned long)" 
??0CMFCRibbonColorButton@@QAA@IPB_WHK@Z => Microsoft (R) C++ Name Undecorator Copyright (C) Microsoft Corporation. All rights reserved.  Undecoration of :- "??0CMFCRibbonColorButton@@QAA@IPB_WHK@Z" is :- "public: __cdecl CMFCRibbonColorButton::CMFCRibbonColorButton(unsigned int,wchar_t const *,int,unsigned long)" 
??0CMFCRibbonColorButton@@QAA@IPBGHHHK@Z => Microsoft (R) C++ Name Undecorator Copyright (C) Microsoft Corporation. All rights reserved.  Undecoration of :- "??0CMFCRibbonColorButton@@QAA@IPBGHHHK@Z" is :- "public: __cdecl CMFCRibbonColorButton::CMFCRibbonColorButton(unsigned int,unsigned short const *,int,int,int,unsigned long)" 
??0CMFCRibbonColorButton@@QAA@IPBGHK@Z => Microsoft (R) C++ Name Undecorator Copyright (C) Microsoft Corporation. All rights reserved.  Undecoration of :- "??0CMFCRibbonColorButton@@QAA@IPBGHK@Z" is :- "public: __cdecl CMFCRibbonColorButton::CMFCRibbonColorButton(unsigned int,unsigned short const *,int,unsigned long)" 
??0CMFCRibbonComboBox@@QAA@IHHPB_WH@Z => Microsoft (R) C++ Name Undecorator Copyright (C) Microsoft Corporation. All rights reserved.  Undecoration of :- "??0CMFCRibbonComboBox@@QAA@IHHPB_WH@Z" is :- "public: __cdecl CMFCRibbonComboBox::CMFCRibbonComboBox(unsigned int,int,int,wchar_t const *,int)" 
??0CMFCRibbonComboBox@@QAA@IHHPBGH@Z => Microsoft (R) C++ Name Undecorator Copyright (C) Microsoft Corporation. All rights reserved.  Undecoration of :- "??0CMFCRibbonComboBox@@QAA@IHHPBGH@Z" is :- "public: __cdecl CMFCRibbonComboBox::CMFCRibbonComboBox(unsigned int,int,int,unsigned short const *,int)" 
??0CMFCRibbonContextCaption@@IAA@PB_WIW4AFX_RibbonCategoryColor@@@Z => Microsoft (R) C++ Name Undecorator Copyright (C) Microsoft Corporation. All rights reserved.  Undecoration of :- "??0CMFCRibbonContextCaption@@IAA@PB_WIW4AFX_RibbonCategoryColor@@@Z" is :- "protected: __cdecl CMFCRibbonContextCaption::CMFCRibbonContextCaption(wchar_t const *,unsigned int,enum AFX_RibbonCategoryColor)" 
??0CMFCRibbonContextCaption@@IAA@PBGIW4AFX_RibbonCategoryColor@@@Z => Microsoft (R) C++ Name Undecorator Copyright (C) Microsoft Corporation. All rights reserved.  Undecoration of :- "??0CMFCRibbonContextCaption@@IAA@PBGIW4AFX_RibbonCategoryColor@@@Z" is :- "protected: __cdecl CMFCRibbonContextCaption::CMFCRibbonContextCaption(unsigned short const *,unsigned int,enum AFX_RibbonCategoryColor)" 
??0CMFCRibbonEdit@@QAA@IHPB_WH@Z => Microsoft (R) C++ Name Undecorator Copyright (C) Microsoft Corporation. All rights reserved.  Undecoration of :- "??0CMFCRibbonEdit@@QAA@IHPB_WH@Z" is :- "public: __cdecl CMFCRibbonEdit::CMFCRibbonEdit(unsigned int,int,wchar_t const *,int)" 
??0CMFCRibbonEdit@@QAA@IHPBGH@Z => Microsoft (R) C++ Name Undecorator Copyright (C) Microsoft Corporation. All rights reserved.  Undecoration of :- "??0CMFCRibbonEdit@@QAA@IHPBGH@Z" is :- "public: __cdecl CMFCRibbonEdit::CMFCRibbonEdit(unsigned int,int,unsigned short const *,int)" 
??0CMFCRibbonGallery@@QAA@IPB_WHHAAVCMFCToolBarImages@@@Z => Microsoft (R) C++ Name Undecorator Copyright (C) Microsoft Corporation. All rights reserved.  Undecoration of :- "??0CMFCRibbonGallery@@QAA@IPB_WHHAAVCMFCToolBarImages@@@Z" is :- "public: __cdecl CMFCRibbonGallery::CMFCRibbonGallery(unsigned int,wchar_t const *,int,int,class CMFCToolBarImages &)" 
??0CMFCRibbonGallery@@QAA@IPB_WHHIH@Z => Microsoft (R) C++ Name Undecorator Copyright (C) Microsoft Corporation. All rights reserved.  Undecoration of :- "??0CMFCRibbonGallery@@QAA@IPB_WHHIH@Z" is :- "public: __cdecl CMFCRibbonGallery::CMFCRibbonGallery(unsigned int,wchar_t const *,int,int,unsigned int,int)" 
??0CMFCRibbonGallery@@QAA@IPB_WHHVCSize@@HH@Z => Microsoft (R) C++ Name Undecorator Copyright (C) Microsoft Corporation. All rights reserved.  Undecoration of :- "??0CMFCRibbonGallery@@QAA@IPB_WHHVCSize@@HH@Z" is :- "public: __cdecl CMFCRibbonGallery::CMFCRibbonGallery(unsigned int,wchar_t const *,int,int,class CSize,int,int)" 
??0CMFCRibbonGallery@@QAA@IPBGHHAAVCMFCToolBarImages@@@Z => Microsoft (R) C++ Name Undecorator Copyright (C) Microsoft Corporation. All rights reserved.  Undecoration of :- "??0CMFCRibbonGallery@@QAA@IPBGHHAAVCMFCToolBarImages@@@Z" is :- "public: __cdecl CMFCRibbonGallery::CMFCRibbonGallery(unsigned int,unsigned short const *,int,int,class CMFCToolBarImages &)" 
??0CMFCRibbonGallery@@QAA@IPBGHHIH@Z => Microsoft (R) C++ Name Undecorator Copyright (C) Microsoft Corporation. All rights reserved.  Undecoration of :- "??0CMFCRibbonGallery@@QAA@IPBGHHIH@Z" is :- "public: __cdecl CMFCRibbonGallery::CMFCRibbonGallery(unsigned int,unsigned short const *,int,int,unsigned int,int)" 
??0CMFCRibbonGallery@@QAA@IPBGHHVCSize@@HH@Z => Microsoft (R) C++ Name Undecorator Copyright (C) Microsoft Corporation. All rights reserved.  Undecoration of :- "??0CMFCRibbonGallery@@QAA@IPBGHHVCSize@@HH@Z" is :- "public: __cdecl CMFCRibbonGallery::CMFCRibbonGallery(unsigned int,unsigned short const *,int,int,class CSize,int,int)" 
??0CMFCRibbonGalleryMenuButton@@QAA@IHPB_WAAVCMFCToolBarImages@@@Z => Microsoft (R) C++ Name Undecorator Copyright (C) Microsoft Corporation. All rights reserved.  Undecoration of :- "??0CMFCRibbonGalleryMenuButton@@QAA@IHPB_WAAVCMFCToolBarImages@@@Z" is :- "public: __cdecl CMFCRibbonGalleryMenuButton::CMFCRibbonGalleryMenuButton(unsigned int,int,wchar_t const *,class CMFCToolBarImages &)" 
??0CMFCRibbonGalleryMenuButton@@QAA@IHPB_WIH@Z => Microsoft (R) C++ Name Undecorator Copyright (C) Microsoft Corporation. All rights reserved.  Undecoration of :- "??0CMFCRibbonGalleryMenuButton@@QAA@IHPB_WIH@Z" is :- "public: __cdecl CMFCRibbonGalleryMenuButton::CMFCRibbonGalleryMenuButton(unsigned int,int,wchar_t const *,unsigned int,int)" 
??0CMFCRibbonGalleryMenuButton@@QAA@IHPBGAAVCMFCToolBarImages@@@Z => Microsoft (R) C++ Name Undecorator Copyright (C) Microsoft Corporation. All rights reserved.  Undecoration of :- "??0CMFCRibbonGalleryMenuButton@@QAA@IHPBGAAVCMFCToolBarImages@@@Z" is :- "public: __cdecl CMFCRibbonGalleryMenuButton::CMFCRibbonGalleryMenuButton(unsigned int,int,unsigned short const *,class CMFCToolBarImages &)" 
??0CMFCRibbonGalleryMenuButton@@QAA@IHPBGIH@Z => Microsoft (R) C++ Name Undecorator Copyright (C) Microsoft Corporation. All rights reserved.  Undecoration of :- "??0CMFCRibbonGalleryMenuButton@@QAA@IHPBGIH@Z" is :- "public: __cdecl CMFCRibbonGalleryMenuButton::CMFCRibbonGalleryMenuButton(unsigned int,int,unsigned short const *,unsigned int,int)" 
??0CMFCRibbonLabel@@QAA@PB_WH@Z => Microsoft (R) C++ Name Undecorator Copyright (C) Microsoft Corporation. All rights reserved.  Undecoration of :- "??0CMFCRibbonLabel@@QAA@PB_WH@Z" is :- "public: __cdecl CMFCRibbonLabel::CMFCRibbonLabel(wchar_t const *,int)" 
??0CMFCRibbonLabel@@QAA@PBGH@Z => Microsoft (R) C++ Name Undecorator Copyright (C) Microsoft Corporation. All rights reserved.  Undecoration of :- "??0CMFCRibbonLabel@@QAA@PBGH@Z" is :- "public: __cdecl CMFCRibbonLabel::CMFCRibbonLabel(unsigned short const *,int)" 
??0CMFCRibbonLinkCtrl@@QAA@IPB_W0@Z => Microsoft (R) C++ Name Undecorator Copyright (C) Microsoft Corporation. All rights reserved.  Undecoration of :- "??0CMFCRibbonLinkCtrl@@QAA@IPB_W0@Z" is :- "public: __cdecl CMFCRibbonLinkCtrl::CMFCRibbonLinkCtrl(unsigned int,wchar_t const *,wchar_t const *)" 
??0CMFCRibbonLinkCtrl@@QAA@IPBG0@Z => Microsoft (R) C++ Name Undecorator Copyright (C) Microsoft Corporation. All rights reserved.  Undecoration of :- "??0CMFCRibbonLinkCtrl@@QAA@IPBG0@Z" is :- "public: __cdecl CMFCRibbonLinkCtrl::CMFCRibbonLinkCtrl(unsigned int,unsigned short const *,unsigned short const *)" 
??0CMFCRibbonMainPanelButton@@QAA@IPB_WH@Z => Microsoft (R) C++ Name Undecorator Copyright (C) Microsoft Corporation. All rights reserved.  Undecoration of :- "??0CMFCRibbonMainPanelButton@@QAA@IPB_WH@Z" is :- "public: __cdecl CMFCRibbonMainPanelButton::CMFCRibbonMainPanelButton(unsigned int,wchar_t const *,int)" 
??0CMFCRibbonMainPanelButton@@QAA@IPB_WPAUHICON__@@@Z => Microsoft (R) C++ Name Undecorator Copyright (C) Microsoft Corporation. All rights reserved.  Undecoration of :- "??0CMFCRibbonMainPanelButton@@QAA@IPB_WPAUHICON__@@@Z" is :- "public: __cdecl CMFCRibbonMainPanelButton::CMFCRibbonMainPanelButton(unsigned int,wchar_t const *,struct HICON__ *)" 
??0CMFCRibbonMainPanelButton@@QAA@IPBGH@Z => Microsoft (R) C++ Name Undecorator Copyright (C) Microsoft Corporation. All rights reserved.  Undecoration of :- "??0CMFCRibbonMainPanelButton@@QAA@IPBGH@Z" is :- "public: __cdecl CMFCRibbonMainPanelButton::CMFCRibbonMainPanelButton(unsigned int,unsigned short const *,int)" 
??0CMFCRibbonMainPanelButton@@QAA@IPBGPAUHICON__@@@Z => Microsoft (R) C++ Name Undecorator Copyright (C) Microsoft Corporation. All rights reserved.  Undecoration of :- "??0CMFCRibbonMainPanelButton@@QAA@IPBGPAUHICON__@@@Z" is :- "public: __cdecl CMFCRibbonMainPanelButton::CMFCRibbonMainPanelButton(unsigned int,unsigned short const *,struct HICON__ *)" 
??0CMFCRibbonPanel@@IAA@PB_WPAUHICON__@@@Z => Microsoft (R) C++ Name Undecorator Copyright (C) Microsoft Corporation. All rights reserved.  Undecoration of :- "??0CMFCRibbonPanel@@IAA@PB_WPAUHICON__@@@Z" is :- "protected: __cdecl CMFCRibbonPanel::CMFCRibbonPanel(wchar_t const *,struct HICON__ *)" 
??0CMFCRibbonPanel@@IAA@PBGPAUHICON__@@@Z => Microsoft (R) C++ Name Undecorator Copyright (C) Microsoft Corporation. All rights reserved.  Undecoration of :- "??0CMFCRibbonPanel@@IAA@PBGPAUHICON__@@@Z" is :- "protected: __cdecl CMFCRibbonPanel::CMFCRibbonPanel(unsigned short const *,struct HICON__ *)" 
??0CMFCRibbonStatusBarPane@@QAA@IPB_WHPAUHICON__@@0H@Z => Microsoft (R) C++ Name Undecorator Copyright (C) Microsoft Corporation. All rights reserved.  Undecoration of :- "??0CMFCRibbonStatusBarPane@@QAA@IPB_WHPAUHICON__@@0H@Z" is :- "public: __cdecl CMFCRibbonStatusBarPane::CMFCRibbonStatusBarPane(unsigned int,wchar_t const *,int,struct HICON__ *,wchar_t const *,int)" 
??0CMFCRibbonStatusBarPane@@QAA@IPB_WIHKPAUHICON__@@HH@Z => Microsoft (R) C++ Name Undecorator Copyright (C) Microsoft Corporation. All rights reserved.  Undecoration of :- "??0CMFCRibbonStatusBarPane@@QAA@IPB_WIHKPAUHICON__@@HH@Z" is :- "public: __cdecl CMFCRibbonStatusBarPane::CMFCRibbonStatusBarPane(unsigned int,wchar_t const *,unsigned int,int,unsigned long,struct HICON__ *,int,int)" 
??0CMFCRibbonStatusBarPane@@QAA@IPB_WPAUHBITMAP__@@HKPAUHICON__@@HH@Z => Microsoft (R) C++ Name Undecorator Copyright (C) Microsoft Corporation. All rights reserved.  Undecoration of :- "??0CMFCRibbonStatusBarPane@@QAA@IPB_WPAUHBITMAP__@@HKPAUHICON__@@HH@Z" is :- "public: __cdecl CMFCRibbonStatusBarPane::CMFCRibbonStatusBarPane(unsigned int,wchar_t const *,struct HBITMAP__ *,int,unsigned long,struct HICON__ *,int,int)" 
??0CMFCRibbonStatusBarPane@@QAA@IPBGHPAUHICON__@@0H@Z => Microsoft (R) C++ Name Undecorator Copyright (C) Microsoft Corporation. All rights reserved.  Undecoration of :- "??0CMFCRibbonStatusBarPane@@QAA@IPBGHPAUHICON__@@0H@Z" is :- "public: __cdecl CMFCRibbonStatusBarPane::CMFCRibbonStatusBarPane(unsigned int,unsigned short const *,int,struct HICON__ *,unsigned short const *,int)" 
??0CMFCRibbonStatusBarPane@@QAA@IPBGIHKPAUHICON__@@HH@Z => Microsoft (R) C++ Name Undecorator Copyright (C) Microsoft Corporation. All rights reserved.  Undecoration of :- "??0CMFCRibbonStatusBarPane@@QAA@IPBGIHKPAUHICON__@@HH@Z" is :- "public: __cdecl CMFCRibbonStatusBarPane::CMFCRibbonStatusBarPane(unsigned int,unsigned short const *,unsigned int,int,unsigned long,struct HICON__ *,int,int)" 
??0CMFCRibbonStatusBarPane@@QAA@IPBGPAUHBITMAP__@@HKPAUHICON__@@HH@Z => Microsoft (R) C++ Name Undecorator Copyright (C) Microsoft Corporation. All rights reserved.  Undecoration of :- "??0CMFCRibbonStatusBarPane@@QAA@IPBGPAUHBITMAP__@@HKPAUHICON__@@HH@Z" is :- "public: __cdecl CMFCRibbonStatusBarPane::CMFCRibbonStatusBarPane(unsigned int,unsigned short const *,struct HBITMAP__ *,int,unsigned long,struct HICON__ *,int,int)" 
??0CMFCRibbonUndoButton@@QAA@IPB_WHH@Z => Microsoft (R) C++ Name Undecorator Copyright (C) Microsoft Corporation. All rights reserved.  Undecoration of :- "??0CMFCRibbonUndoButton@@QAA@IPB_WHH@Z" is :- "public: __cdecl CMFCRibbonUndoButton::CMFCRibbonUndoButton(unsigned int,wchar_t const *,int,int)" 
??0CMFCRibbonUndoButton@@QAA@IPB_WPAUHICON__@@@Z => Microsoft (R) C++ Name Undecorator Copyright (C) Microsoft Corporation. All rights reserved.  Undecoration of :- "??0CMFCRibbonUndoButton@@QAA@IPB_WPAUHICON__@@@Z" is :- "public: __cdecl CMFCRibbonUndoButton::CMFCRibbonUndoButton(unsigned int,wchar_t const *,struct HICON__ *)" 
??0CMFCRibbonUndoButton@@QAA@IPBGHH@Z => Microsoft (R) C++ Name Undecorator Copyright (C) Microsoft Corporation. All rights reserved.  Undecoration of :- "??0CMFCRibbonUndoButton@@QAA@IPBGHH@Z" is :- "public: __cdecl CMFCRibbonUndoButton::CMFCRibbonUndoButton(unsigned int,unsigned short const *,int,int)" 
??0CMFCRibbonUndoButton@@QAA@IPBGPAUHICON__@@@Z => Microsoft (R) C++ Name Undecorator Copyright (C) Microsoft Corporation. All rights reserved.  Undecoration of :- "??0CMFCRibbonUndoButton@@QAA@IPBGPAUHICON__@@@Z" is :- "public: __cdecl CMFCRibbonUndoButton::CMFCRibbonUndoButton(unsigned int,unsigned short const *,struct HICON__ *)" 
??0CMFCToolBarButton@@QAA@IHPB_WHH@Z => Microsoft (R) C++ Name Undecorator Copyright (C) Microsoft Corporation. All rights reserved.  Undecoration of :- "??0CMFCToolBarButton@@QAA@IHPB_WHH@Z" is :- "public: __cdecl CMFCToolBarButton::CMFCToolBarButton(unsigned int,int,wchar_t const *,int,int)" 
??0CMFCToolBarButton@@QAA@IHPBGHH@Z => Microsoft (R) C++ Name Undecorator Copyright (C) Microsoft Corporation. All rights reserved.  Undecoration of :- "??0CMFCToolBarButton@@QAA@IHPBGHH@Z" is :- "public: __cdecl CMFCToolBarButton::CMFCToolBarButton(unsigned int,int,unsigned short const *,int,int)" 
??0CMFCToolBarMenuButton@@QAA@IPAUHMENU__@@HPB_WH@Z => Microsoft (R) C++ Name Undecorator Copyright (C) Microsoft Corporation. All rights reserved.  Undecoration of :- "??0CMFCToolBarMenuButton@@QAA@IPAUHMENU__@@HPB_WH@Z" is :- "public: __cdecl CMFCToolBarMenuButton::CMFCToolBarMenuButton(unsigned int,struct HMENU__ *,int,wchar_t const *,int)" 
??0CMFCToolBarMenuButton@@QAA@IPAUHMENU__@@HPBGH@Z => Microsoft (R) C++ Name Undecorator Copyright (C) Microsoft Corporation. All rights reserved.  Undecoration of :- "??0CMFCToolBarMenuButton@@QAA@IPAUHMENU__@@HPBGH@Z" is :- "public: __cdecl CMFCToolBarMenuButton::CMFCToolBarMenuButton(unsigned int,struct HMENU__ *,int,unsigned short const *,int)" 
??0CMultiPageDHtmlDialog@@QAA@PB_W0PAVCWnd@@@Z => Microsoft (R) C++ Name Undecorator Copyright (C) Microsoft Corporation. All rights reserved.  Undecoration of :- "??0CMultiPageDHtmlDialog@@QAA@PB_W0PAVCWnd@@@Z" is :- "public: __cdecl CMultiPageDHtmlDialog::CMultiPageDHtmlDialog(wchar_t const *,wchar_t const *,class CWnd *)" 
??0CMultiPageDHtmlDialog@@QAA@PBG0PAVCWnd@@@Z => Microsoft (R) C++ Name Undecorator Copyright (C) Microsoft Corporation. All rights reserved.  Undecoration of :- "??0CMultiPageDHtmlDialog@@QAA@PBG0PAVCWnd@@@Z" is :- "public: __cdecl CMultiPageDHtmlDialog::CMultiPageDHtmlDialog(unsigned short const *,unsigned short const *,class CWnd *)" 
??0CMutex@@QAA@HPB_WPAU_SECURITY_ATTRIBUTES@@@Z => Microsoft (R) C++ Name Undecorator Copyright (C) Microsoft Corporation. All rights reserved.  Undecoration of :- "??0CMutex@@QAA@HPB_WPAU_SECURITY_ATTRIBUTES@@@Z" is :- "public: __cdecl CMutex::CMutex(int,wchar_t const *,struct _SECURITY_ATTRIBUTES *)" 
??0CMutex@@QAA@HPBGPAU_SECURITY_ATTRIBUTES@@@Z => Microsoft (R) C++ Name Undecorator Copyright (C) Microsoft Corporation. All rights reserved.  Undecoration of :- "??0CMutex@@QAA@HPBGPAU_SECURITY_ATTRIBUTES@@@Z" is :- "public: __cdecl CMutex::CMutex(int,unsigned short const *,struct _SECURITY_ATTRIBUTES *)" 
??0COleDispatchException@@QAA@PB_WIG@Z => Microsoft (R) C++ Name Undecorator Copyright (C) Microsoft Corporation. All rights reserved.  Undecoration of :- "??0COleDispatchException@@QAA@PB_WIG@Z" is :- "public: __cdecl COleDispatchException::COleDispatchException(wchar_t const *,unsigned int,unsigned short)" 
??0COleDispatchException@@QAA@PBGIG@Z => Microsoft (R) C++ Name Undecorator Copyright (C) Microsoft Corporation. All rights reserved.  Undecoration of :- "??0COleDispatchException@@QAA@PBGIG@Z" is :- "public: __cdecl COleDispatchException::COleDispatchException(unsigned short const *,unsigned int,unsigned short)" 
??0COleObjectFactory@@QAA@ABU_GUID@@PAUCRuntimeClass@@HHPB_W@Z => Microsoft (R) C++ Name Undecorator Copyright (C) Microsoft Corporation. All rights reserved.  Undecoration of :- "??0COleObjectFactory@@QAA@ABU_GUID@@PAUCRuntimeClass@@HHPB_W@Z" is :- "public: __cdecl COleObjectFactory::COleObjectFactory(struct _GUID const &,struct CRuntimeClass *,int,int,wchar_t const *)" 
??0COleObjectFactory@@QAA@ABU_GUID@@PAUCRuntimeClass@@HHPBG@Z => Microsoft (R) C++ Name Undecorator Copyright (C) Microsoft Corporation. All rights reserved.  Undecoration of :- "??0COleObjectFactory@@QAA@ABU_GUID@@PAUCRuntimeClass@@HHPBG@Z" is :- "public: __cdecl COleObjectFactory::COleObjectFactory(struct _GUID const &,struct CRuntimeClass *,int,int,unsigned short const *)" 
??0COleObjectFactory@@QAA@ABU_GUID@@PAUCRuntimeClass@@HPB_W@Z => Microsoft (R) C++ Name Undecorator Copyright (C) Microsoft Corporation. All rights reserved.  Undecoration of :- "??0COleObjectFactory@@QAA@ABU_GUID@@PAUCRuntimeClass@@HPB_W@Z" is :- "public: __cdecl COleObjectFactory::COleObjectFactory(struct _GUID const &,struct CRuntimeClass *,int,wchar_t const *)" 
??0COleObjectFactory@@QAA@ABU_GUID@@PAUCRuntimeClass@@HPBG@Z => Microsoft (R) C++ Name Undecorator Copyright (C) Microsoft Corporation. All rights reserved.  Undecoration of :- "??0COleObjectFactory@@QAA@ABU_GUID@@PAUCRuntimeClass@@HPBG@Z" is :- "public: __cdecl COleObjectFactory::COleObjectFactory(struct _GUID const &,struct CRuntimeClass *,int,unsigned short const *)" 
??0COleVariant@@QAA@PB_WG@Z => Microsoft (R) C++ Name Undecorator Copyright (C) Microsoft Corporation. All rights reserved.  Undecoration of :- "??0COleVariant@@QAA@PB_WG@Z" is :- "public: __cdecl COleVariant::COleVariant(wchar_t const *,unsigned short)" 
??0COleVariant@@QAA@PBGG@Z => Microsoft (R) C++ Name Undecorator Copyright (C) Microsoft Corporation. All rights reserved.  Undecoration of :- "??0COleVariant@@QAA@PBGG@Z" is :- "public: __cdecl COleVariant::COleVariant(unsigned short const *,unsigned short)" 
??0CPropertyPage@@QAA@PB_WIIIK@Z => Microsoft (R) C++ Name Undecorator Copyright (C) Microsoft Corporation. All rights reserved.  Undecoration of :- "??0CPropertyPage@@QAA@PB_WIIIK@Z" is :- "public: __cdecl CPropertyPage::CPropertyPage(wchar_t const *,unsigned int,unsigned int,unsigned int,unsigned long)" 
??0CPropertyPage@@QAA@PB_WIK@Z => Microsoft (R) C++ Name Undecorator Copyright (C) Microsoft Corporation. All rights reserved.  Undecoration of :- "??0CPropertyPage@@QAA@PB_WIK@Z" is :- "public: __cdecl CPropertyPage::CPropertyPage(wchar_t const *,unsigned int,unsigned long)" 
??0CPropertyPage@@QAA@PBGIIIK@Z => Microsoft (R) C++ Name Undecorator Copyright (C) Microsoft Corporation. All rights reserved.  Undecoration of :- "??0CPropertyPage@@QAA@PBGIIIK@Z" is :- "public: __cdecl CPropertyPage::CPropertyPage(unsigned short const *,unsigned int,unsigned int,unsigned int,unsigned long)" 
??0CPropertyPage@@QAA@PBGIK@Z => Microsoft (R) C++ Name Undecorator Copyright (C) Microsoft Corporation. All rights reserved.  Undecoration of :- "??0CPropertyPage@@QAA@PBGIK@Z" is :- "public: __cdecl CPropertyPage::CPropertyPage(unsigned short const *,unsigned int,unsigned long)" 
??0CPropertySheet@@QAA@PB_WPAVCWnd@@I@Z => Microsoft (R) C++ Name Undecorator Copyright (C) Microsoft Corporation. All rights reserved.  Undecoration of :- "??0CPropertySheet@@QAA@PB_WPAVCWnd@@I@Z" is :- "public: __cdecl CPropertySheet::CPropertySheet(wchar_t const *,class CWnd *,unsigned int)" 
??0CPropertySheet@@QAA@PB_WPAVCWnd@@IPAUHBITMAP__@@PAUHPALETTE__@@2@Z => Microsoft (R) C++ Name Undecorator Copyright (C) Microsoft Corporation. All rights reserved.  Undecoration of :- "??0CPropertySheet@@QAA@PB_WPAVCWnd@@IPAUHBITMAP__@@PAUHPALETTE__@@2@Z" is :- "public: __cdecl CPropertySheet::CPropertySheet(wchar_t const *,class CWnd *,unsigned int,struct HBITMAP__ *,struct HPALETTE__ *,struct HBITMAP__ *)" 
??0CPropertySheet@@QAA@PBGPAVCWnd@@I@Z => Microsoft (R) C++ Name Undecorator Copyright (C) Microsoft Corporation. All rights reserved.  Undecoration of :- "??0CPropertySheet@@QAA@PBGPAVCWnd@@I@Z" is :- "public: __cdecl CPropertySheet::CPropertySheet(unsigned short const *,class CWnd *,unsigned int)" 
??0CPropertySheet@@QAA@PBGPAVCWnd@@IPAUHBITMAP__@@PAUHPALETTE__@@2@Z => Microsoft (R) C++ Name Undecorator Copyright (C) Microsoft Corporation. All rights reserved.  Undecoration of :- "??0CPropertySheet@@QAA@PBGPAVCWnd@@IPAUHBITMAP__@@PAUHPALETTE__@@2@Z" is :- "public: __cdecl CPropertySheet::CPropertySheet(unsigned short const *,class CWnd *,unsigned int,struct HBITMAP__ *,struct HPALETTE__ *,struct HBITMAP__ *)" 
??0CRecentFileList@@QAA@IPB_W0HH@Z => Microsoft (R) C++ Name Undecorator Copyright (C) Microsoft Corporation. All rights reserved.  Undecoration of :- "??0CRecentFileList@@QAA@IPB_W0HH@Z" is :- "public: __cdecl CRecentFileList::CRecentFileList(unsigned int,wchar_t const *,wchar_t const *,int,int)" 
??0CRecentFileList@@QAA@IPBG0HH@Z => Microsoft (R) C++ Name Undecorator Copyright (C) Microsoft Corporation. All rights reserved.  Undecoration of :- "??0CRecentFileList@@QAA@IPBG0HH@Z" is :- "public: __cdecl CRecentFileList::CRecentFileList(unsigned int,unsigned short const *,unsigned short const *,int,int)" 
??0CRecordView@@IAA@PB_W@Z => Microsoft (R) C++ Name Undecorator Copyright (C) Microsoft Corporation. All rights reserved.  Undecoration of :- "??0CRecordView@@IAA@PB_W@Z" is :- "protected: __cdecl CRecordView::CRecordView(wchar_t const *)" 
??0CRecordView@@IAA@PBG@Z => Microsoft (R) C++ Name Undecorator Copyright (C) Microsoft Corporation. All rights reserved.  Undecoration of :- "??0CRecordView@@IAA@PBG@Z" is :- "protected: __cdecl CRecordView::CRecordView(unsigned short const *)" 
??0CSemaphore@@QAA@JJPB_WPAU_SECURITY_ATTRIBUTES@@@Z => Microsoft (R) C++ Name Undecorator Copyright (C) Microsoft Corporation. All rights reserved.  Undecoration of :- "??0CSemaphore@@QAA@JJPB_WPAU_SECURITY_ATTRIBUTES@@@Z" is :- "public: __cdecl CSemaphore::CSemaphore(long,long,wchar_t const *,struct _SECURITY_ATTRIBUTES *)" 
??0CSemaphore@@QAA@JJPBGPAU_SECURITY_ATTRIBUTES@@@Z => Microsoft (R) C++ Name Undecorator Copyright (C) Microsoft Corporation. All rights reserved.  Undecoration of :- "??0CSemaphore@@QAA@JJPBGPAU_SECURITY_ATTRIBUTES@@@Z" is :- "public: __cdecl CSemaphore::CSemaphore(long,long,unsigned short const *,struct _SECURITY_ATTRIBUTES *)" 
??0CStdioFile@@QAA@PB_WI@Z => Microsoft (R) C++ Name Undecorator Copyright (C) Microsoft Corporation. All rights reserved.  Undecoration of :- "??0CStdioFile@@QAA@PB_WI@Z" is :- "public: __cdecl CStdioFile::CStdioFile(wchar_t const *,unsigned int)" 
??0CStdioFile@@QAA@PB_WIPAVCAtlTransactionManager@ATL@@@Z => Microsoft (R) C++ Name Undecorator Copyright (C) Microsoft Corporation. All rights reserved.  Undecoration of :- "??0CStdioFile@@QAA@PB_WIPAVCAtlTransactionManager@ATL@@@Z" is :- "public: __cdecl CStdioFile::CStdioFile(wchar_t const *,unsigned int,class ATL::CAtlTransactionManager *)" 
??0CStdioFile@@QAA@PBGI@Z => Microsoft (R) C++ Name Undecorator Copyright (C) Microsoft Corporation. All rights reserved.  Undecoration of :- "??0CStdioFile@@QAA@PBGI@Z" is :- "public: __cdecl CStdioFile::CStdioFile(unsigned short const *,unsigned int)" 
??0CStdioFile@@QAA@PBGIPAVCAtlTransactionManager@ATL@@@Z => Microsoft (R) C++ Name Undecorator Copyright (C) Microsoft Corporation. All rights reserved.  Undecoration of :- "??0CStdioFile@@QAA@PBGIPAVCAtlTransactionManager@ATL@@@Z" is :- "public: __cdecl CStdioFile::CStdioFile(unsigned short const *,unsigned int,class ATL::CAtlTransactionManager *)" 
??0CSyncObject@@QAA@PB_W@Z => Microsoft (R) C++ Name Undecorator Copyright (C) Microsoft Corporation. All rights reserved.  Undecoration of :- "??0CSyncObject@@QAA@PB_W@Z" is :- "public: __cdecl CSyncObject::CSyncObject(wchar_t const *)" 
??0CSyncObject@@QAA@PBG@Z => Microsoft (R) C++ Name Undecorator Copyright (C) Microsoft Corporation. All rights reserved.  Undecoration of :- "??0CSyncObject@@QAA@PBG@Z" is :- "public: __cdecl CSyncObject::CSyncObject(unsigned short const *)" 
??0CTagManager@@QAA@PB_W@Z => Microsoft (R) C++ Name Undecorator Copyright (C) Microsoft Corporation. All rights reserved.  Undecoration of :- "??0CTagManager@@QAA@PB_W@Z" is :- "public: __cdecl CTagManager::CTagManager(wchar_t const *)" 
??0CTagManager@@QAA@PBG@Z => Microsoft (R) C++ Name Undecorator Copyright (C) Microsoft Corporation. All rights reserved.  Undecoration of :- "??0CTagManager@@QAA@PBG@Z" is :- "public: __cdecl CTagManager::CTagManager(unsigned short const *)" 
??0CTaskDialog@@QAA@ABV?$CStringT@_WV?$StrTraitMFC_DLL@_WV?$ChTraitsCRT@_W@ATL@@@@@ATL@@00HH0@Z => Microsoft (R) C++ Name Undecorator Copyright (C) Microsoft Corporation. All rights reserved.  Undecoration of :- "??0CTaskDialog@@QAA@ABV?$CStringT@_WV?$StrTraitMFC_DLL@_WV?$ChTraitsCRT@_W@ATL@@@@@ATL@@00HH0@Z" is :- "public: __cdecl CTaskDialog::CTaskDialog(class ATL::CStringT<wchar_t,class StrTraitMFC_DLL<wchar_t,class ATL::ChTraitsCRT<wchar_t> > > const &,class ATL::CStringT<wchar_t,class StrTraitMFC_DLL<wchar_t,class ATL::ChTraitsCRT<wchar_t> > > const &,class ATL::CStringT<wchar_t,class StrTraitMFC_DLL<wchar_t,class ATL::ChTraitsCRT<wchar_t> > > const &,int,int,class ATL::CStringT<wchar_t,class StrTraitMFC_DLL<wchar_t,class ATL::ChTraitsCRT<wchar_t> > > const &)" 
??0CTaskDialog@@QAA@ABV?$CStringT@_WV?$StrTraitMFC_DLL@_WV?$ChTraitsCRT@_W@ATL@@@@@ATL@@00HHHH0@Z => Microsoft (R) C++ Name Undecorator Copyright (C) Microsoft Corporation. All rights reserved.  Undecoration of :- "??0CTaskDialog@@QAA@ABV?$CStringT@_WV?$StrTraitMFC_DLL@_WV?$ChTraitsCRT@_W@ATL@@@@@ATL@@00HHHH0@Z" is :- "public: __cdecl CTaskDialog::CTaskDialog(class ATL::CStringT<wchar_t,class StrTraitMFC_DLL<wchar_t,class ATL::ChTraitsCRT<wchar_t> > > const &,class ATL::CStringT<wchar_t,class StrTraitMFC_DLL<wchar_t,class ATL::ChTraitsCRT<wchar_t> > > const &,class ATL::CStringT<wchar_t,class StrTraitMFC_DLL<wchar_t,class ATL::ChTraitsCRT<wchar_t> > > const &,int,int,int,int,class ATL::CStringT<wchar_t,class StrTraitMFC_DLL<wchar_t,class ATL::ChTraitsCRT<wchar_t> > > const &)" 
??0CTaskDialog@@QAA@ABV?$CStringT@GV?$StrTraitMFC_DLL@GV?$ChTraitsCRT@G@ATL@@@@@ATL@@00HH0@Z => Microsoft (R) C++ Name Undecorator Copyright (C) Microsoft Corporation. All rights reserved.  Undecoration of :- "??0CTaskDialog@@QAA@ABV?$CStringT@GV?$StrTraitMFC_DLL@GV?$ChTraitsCRT@G@ATL@@@@@ATL@@00HH0@Z" is :- "public: __cdecl CTaskDialog::CTaskDialog(class ATL::CStringT<unsigned short,class StrTraitMFC_DLL<unsigned short,class ATL::ChTraitsCRT<unsigned short> > > const &,class ATL::CStringT<unsigned short,class StrTraitMFC_DLL<unsigned short,class ATL::ChTraitsCRT<unsigned short> > > const &,class ATL::CStringT<unsigned short,class StrTraitMFC_DLL<unsigned short,class ATL::ChTraitsCRT<unsigned short> > > const &,int,int,class ATL::CStringT<unsigned short,class StrTraitMFC_DLL<unsigned short,class ATL::ChTraitsCRT<unsigned short> > > const &)" 
??0CTaskDialog@@QAA@ABV?$CStringT@GV?$StrTraitMFC_DLL@GV?$ChTraitsCRT@G@ATL@@@@@ATL@@00HHHH0@Z => Microsoft (R) C++ Name Undecorator Copyright (C) Microsoft Corporation. All rights reserved.  Undecoration of :- "??0CTaskDialog@@QAA@ABV?$CStringT@GV?$StrTraitMFC_DLL@GV?$ChTraitsCRT@G@ATL@@@@@ATL@@00HHHH0@Z" is :- "public: __cdecl CTaskDialog::CTaskDialog(class ATL::CStringT<unsigned short,class StrTraitMFC_DLL<unsigned short,class ATL::ChTraitsCRT<unsigned short> > > const &,class ATL::CStringT<unsigned short,class StrTraitMFC_DLL<unsigned short,class ATL::ChTraitsCRT<unsigned short> > > const &,class ATL::CStringT<unsigned short,class StrTraitMFC_DLL<unsigned short,class ATL::ChTraitsCRT<unsigned short> > > const &,int,int,int,int,class ATL::CStringT<unsigned short,class StrTraitMFC_DLL<unsigned short,class ATL::ChTraitsCRT<unsigned short> > > const &)" 
??0CWinApp@@QAA@PB_W@Z => Microsoft (R) C++ Name Undecorator Copyright (C) Microsoft Corporation. All rights reserved.  Undecoration of :- "??0CWinApp@@QAA@PB_W@Z" is :- "public: __cdecl CWinApp::CWinApp(wchar_t const *)" 
??0CWinApp@@QAA@PBG@Z => Microsoft (R) C++ Name Undecorator Copyright (C) Microsoft Corporation. All rights reserved.  Undecoration of :- "??0CWinApp@@QAA@PBG@Z" is :- "public: __cdecl CWinApp::CWinApp(unsigned short const *)" 
??1?$CSimpleStringT@_W$00@ATL@@QAA@XZ => Microsoft (R) C++ Name Undecorator Copyright (C) Microsoft Corporation. All rights reserved.  Undecoration of :- "??1?$CSimpleStringT@_W$00@ATL@@QAA@XZ" is :- "public: __cdecl ATL::CSimpleStringT<wchar_t,1>::~CSimpleStringT<wchar_t,1>(void)" 
??1?$CSimpleStringT@G$00@ATL@@QAA@XZ => Microsoft (R) C++ Name Undecorator Copyright (C) Microsoft Corporation. All rights reserved.  Undecoration of :- "??1?$CSimpleStringT@G$00@ATL@@QAA@XZ" is :- "public: __cdecl ATL::CSimpleStringT<unsigned short,1>::~CSimpleStringT<unsigned short,1>(void)" 
??1?$CStringT@_WV?$StrTraitMFC_DLL@_WV?$ChTraitsCRT@_W@ATL@@@@@ATL@@QAA@XZ => Microsoft (R) C++ Name Undecorator Copyright (C) Microsoft Corporation. All rights reserved.  Undecoration of :- "??1?$CStringT@_WV?$StrTraitMFC_DLL@_WV?$ChTraitsCRT@_W@ATL@@@@@ATL@@QAA@XZ" is :- "public: __cdecl ATL::CStringT<wchar_t,class StrTraitMFC_DLL<wchar_t,class ATL::ChTraitsCRT<wchar_t> > >::~CStringT<wchar_t,class StrTraitMFC_DLL<wchar_t,class ATL::ChTraitsCRT<wchar_t> > >(void)" 
??1?$CStringT@GV?$StrTraitMFC_DLL@GV?$ChTraitsCRT@G@ATL@@@@@ATL@@QAA@XZ => Microsoft (R) C++ Name Undecorator Copyright (C) Microsoft Corporation. All rights reserved.  Undecoration of :- "??1?$CStringT@GV?$StrTraitMFC_DLL@GV?$ChTraitsCRT@G@ATL@@@@@ATL@@QAA@XZ" is :- "public: __cdecl ATL::CStringT<unsigned short,class StrTraitMFC_DLL<unsigned short,class ATL::ChTraitsCRT<unsigned short> > >::~CStringT<unsigned short,class StrTraitMFC_DLL<unsigned short,class ATL::ChTraitsCRT<unsigned short> > >(void)" 
??4?$CSimpleStringT@_W$00@ATL@@QAAAAV01@ABV?$CSimpleStringT@_W$0A@@1@@Z => Microsoft (R) C++ Name Undecorator Copyright (C) Microsoft Corporation. All rights reserved.  Undecoration of :- "??4?$CSimpleStringT@_W$00@ATL@@QAAAAV01@ABV?$CSimpleStringT@_W$0A@@1@@Z" is :- "public: class ATL::CSimpleStringT<wchar_t,1> & __cdecl ATL::CSimpleStringT<wchar_t,1>::operator=(class ATL::CSimpleStringT<wchar_t,0> const &)" 
??4?$CSimpleStringT@_W$00@ATL@@QAAAAV01@ABV01@@Z => Microsoft (R) C++ Name Undecorator Copyright (C) Microsoft Corporation. All rights reserved.  Undecoration of :- "??4?$CSimpleStringT@_W$00@ATL@@QAAAAV01@ABV01@@Z" is :- "public: class ATL::CSimpleStringT<wchar_t,1> & __cdecl ATL::CSimpleStringT<wchar_t,1>::operator=(class ATL::CSimpleStringT<wchar_t,1> const &)" 
??4?$CSimpleStringT@_W$00@ATL@@QAAAAV01@PB_W@Z => Microsoft (R) C++ Name Undecorator Copyright (C) Microsoft Corporation. All rights reserved.  Undecoration of :- "??4?$CSimpleStringT@_W$00@ATL@@QAAAAV01@PB_W@Z" is :- "public: class ATL::CSimpleStringT<wchar_t,1> & __cdecl ATL::CSimpleStringT<wchar_t,1>::operator=(wchar_t const *)" 
??4?$CSimpleStringT@G$00@ATL@@QAAAAV01@ABV?$CSimpleStringT@G$0A@@1@@Z => Microsoft (R) C++ Name Undecorator Copyright (C) Microsoft Corporation. All rights reserved.  Undecoration of :- "??4?$CSimpleStringT@G$00@ATL@@QAAAAV01@ABV?$CSimpleStringT@G$0A@@1@@Z" is :- "public: class ATL::CSimpleStringT<unsigned short,1> & __cdecl ATL::CSimpleStringT<unsigned short,1>::operator=(class ATL::CSimpleStringT<unsigned short,0> const &)" 
??4?$CSimpleStringT@G$00@ATL@@QAAAAV01@ABV01@@Z => Microsoft (R) C++ Name Undecorator Copyright (C) Microsoft Corporation. All rights reserved.  Undecoration of :- "??4?$CSimpleStringT@G$00@ATL@@QAAAAV01@ABV01@@Z" is :- "public: class ATL::CSimpleStringT<unsigned short,1> & __cdecl ATL::CSimpleStringT<unsigned short,1>::operator=(class ATL::CSimpleStringT<unsigned short,1> const &)" 
??4?$CSimpleStringT@G$00@ATL@@QAAAAV01@PBG@Z => Microsoft (R) C++ Name Undecorator Copyright (C) Microsoft Corporation. All rights reserved.  Undecoration of :- "??4?$CSimpleStringT@G$00@ATL@@QAAAAV01@PBG@Z" is :- "public: class ATL::CSimpleStringT<unsigned short,1> & __cdecl ATL::CSimpleStringT<unsigned short,1>::operator=(unsigned short const *)" 
??4?$CStringT@_WV?$StrTraitMFC_DLL@_WV?$ChTraitsCRT@_W@ATL@@@@@ATL@@QAAAAV01@_W@Z => Microsoft (R) C++ Name Undecorator Copyright (C) Microsoft Corporation. All rights reserved.  Undecoration of :- "??4?$CStringT@_WV?$StrTraitMFC_DLL@_WV?$ChTraitsCRT@_W@ATL@@@@@ATL@@QAAAAV01@_W@Z" is :- "public: class ATL::CStringT<wchar_t,class StrTraitMFC_DLL<wchar_t,class ATL::ChTraitsCRT<wchar_t> > > & __cdecl ATL::CStringT<wchar_t,class StrTraitMFC_DLL<wchar_t,class ATL::ChTraitsCRT<wchar_t> > >::operator=(wchar_t)" 
??4?$CStringT@_WV?$StrTraitMFC_DLL@_WV?$ChTraitsCRT@_W@ATL@@@@@ATL@@QAAAAV01@ABUtagVARIANT@@@Z => Microsoft (R) C++ Name Undecorator Copyright (C) Microsoft Corporation. All rights reserved.  Undecoration of :- "??4?$CStringT@_WV?$StrTraitMFC_DLL@_WV?$ChTraitsCRT@_W@ATL@@@@@ATL@@QAAAAV01@ABUtagVARIANT@@@Z" is :- "public: class ATL::CStringT<wchar_t,class StrTraitMFC_DLL<wchar_t,class ATL::ChTraitsCRT<wchar_t> > > & __cdecl ATL::CStringT<wchar_t,class StrTraitMFC_DLL<wchar_t,class ATL::ChTraitsCRT<wchar_t> > >::operator=(struct tagVARIANT const &)" 
??4?$CStringT@_WV?$StrTraitMFC_DLL@_WV?$ChTraitsCRT@_W@ATL@@@@@ATL@@QAAAAV01@ABV01@@Z => Microsoft (R) C++ Name Undecorator Copyright (C) Microsoft Corporation. All rights reserved.  Undecoration of :- "??4?$CStringT@_WV?$StrTraitMFC_DLL@_WV?$ChTraitsCRT@_W@ATL@@@@@ATL@@QAAAAV01@ABV01@@Z" is :- "public: class ATL::CStringT<wchar_t,class StrTraitMFC_DLL<wchar_t,class ATL::ChTraitsCRT<wchar_t> > > & __cdecl ATL::CStringT<wchar_t,class StrTraitMFC_DLL<wchar_t,class ATL::ChTraitsCRT<wchar_t> > >::operator=(class ATL::CStringT<wchar_t,class StrTraitMFC_DLL<wchar_t,class ATL::ChTraitsCRT<wchar_t> > > const &)" 
??4?$CStringT@_WV?$StrTraitMFC_DLL@_WV?$ChTraitsCRT@_W@ATL@@@@@ATL@@QAAAAV01@D@Z => Microsoft (R) C++ Name Undecorator Copyright (C) Microsoft Corporation. All rights reserved.  Undecoration of :- "??4?$CStringT@_WV?$StrTraitMFC_DLL@_WV?$ChTraitsCRT@_W@ATL@@@@@ATL@@QAAAAV01@D@Z" is :- "public: class ATL::CStringT<wchar_t,class StrTraitMFC_DLL<wchar_t,class ATL::ChTraitsCRT<wchar_t> > > & __cdecl ATL::CStringT<wchar_t,class StrTraitMFC_DLL<wchar_t,class ATL::ChTraitsCRT<wchar_t> > >::operator=(char)" 
??4?$CStringT@_WV?$StrTraitMFC_DLL@_WV?$ChTraitsCRT@_W@ATL@@@@@ATL@@QAAAAV01@PB_W@Z => Microsoft (R) C++ Name Undecorator Copyright (C) Microsoft Corporation. All rights reserved.  Undecoration of :- "??4?$CStringT@_WV?$StrTraitMFC_DLL@_WV?$ChTraitsCRT@_W@ATL@@@@@ATL@@QAAAAV01@PB_W@Z" is :- "public: class ATL::CStringT<wchar_t,class StrTraitMFC_DLL<wchar_t,class ATL::ChTraitsCRT<wchar_t> > > & __cdecl ATL::CStringT<wchar_t,class StrTraitMFC_DLL<wchar_t,class ATL::ChTraitsCRT<wchar_t> > >::operator=(wchar_t const *)" 
??4?$CStringT@_WV?$StrTraitMFC_DLL@_WV?$ChTraitsCRT@_W@ATL@@@@@ATL@@QAAAAV01@PBD@Z => Microsoft (R) C++ Name Undecorator Copyright (C) Microsoft Corporation. All rights reserved.  Undecoration of :- "??4?$CStringT@_WV?$StrTraitMFC_DLL@_WV?$ChTraitsCRT@_W@ATL@@@@@ATL@@QAAAAV01@PBD@Z" is :- "public: class ATL::CStringT<wchar_t,class StrTraitMFC_DLL<wchar_t,class ATL::ChTraitsCRT<wchar_t> > > & __cdecl ATL::CStringT<wchar_t,class StrTraitMFC_DLL<wchar_t,class ATL::ChTraitsCRT<wchar_t> > >::operator=(char const *)" 
??4?$CStringT@_WV?$StrTraitMFC_DLL@_WV?$ChTraitsCRT@_W@ATL@@@@@ATL@@QAAAAV01@PBE@Z => Microsoft (R) C++ Name Undecorator Copyright (C) Microsoft Corporation. All rights reserved.  Undecoration of :- "??4?$CStringT@_WV?$StrTraitMFC_DLL@_WV?$ChTraitsCRT@_W@ATL@@@@@ATL@@QAAAAV01@PBE@Z" is :- "public: class ATL::CStringT<wchar_t,class StrTraitMFC_DLL<wchar_t,class ATL::ChTraitsCRT<wchar_t> > > & __cdecl ATL::CStringT<wchar_t,class StrTraitMFC_DLL<wchar_t,class ATL::ChTraitsCRT<wchar_t> > >::operator=(unsigned char const *)" 
??4?$CStringT@DV?$StrTraitMFC_DLL@DV?$ChTraitsCRT@D@ATL@@@@@ATL@@QAAAAV01@_W@Z => Microsoft (R) C++ Name Undecorator Copyright (C) Microsoft Corporation. All rights reserved.  Undecoration of :- "??4?$CStringT@DV?$StrTraitMFC_DLL@DV?$ChTraitsCRT@D@ATL@@@@@ATL@@QAAAAV01@_W@Z" is :- "public: class ATL::CStringT<char,class StrTraitMFC_DLL<char,class ATL::ChTraitsCRT<char> > > & __cdecl ATL::CStringT<char,class StrTraitMFC_DLL<char,class ATL::ChTraitsCRT<char> > >::operator=(wchar_t)" 
??4?$CStringT@DV?$StrTraitMFC_DLL@DV?$ChTraitsCRT@D@ATL@@@@@ATL@@QAAAAV01@G@Z => Microsoft (R) C++ Name Undecorator Copyright (C) Microsoft Corporation. All rights reserved.  Undecoration of :- "??4?$CStringT@DV?$StrTraitMFC_DLL@DV?$ChTraitsCRT@D@ATL@@@@@ATL@@QAAAAV01@G@Z" is :- "public: class ATL::CStringT<char,class StrTraitMFC_DLL<char,class ATL::ChTraitsCRT<char> > > & __cdecl ATL::CStringT<char,class StrTraitMFC_DLL<char,class ATL::ChTraitsCRT<char> > >::operator=(unsigned short)" 
??4?$CStringT@DV?$StrTraitMFC_DLL@DV?$ChTraitsCRT@D@ATL@@@@@ATL@@QAAAAV01@PB_W@Z => Microsoft (R) C++ Name Undecorator Copyright (C) Microsoft Corporation. All rights reserved.  Undecoration of :- "??4?$CStringT@DV?$StrTraitMFC_DLL@DV?$ChTraitsCRT@D@ATL@@@@@ATL@@QAAAAV01@PB_W@Z" is :- "public: class ATL::CStringT<char,class StrTraitMFC_DLL<char,class ATL::ChTraitsCRT<char> > > & __cdecl ATL::CStringT<char,class StrTraitMFC_DLL<char,class ATL::ChTraitsCRT<char> > >::operator=(wchar_t const *)" 
??4?$CStringT@DV?$StrTraitMFC_DLL@DV?$ChTraitsCRT@D@ATL@@@@@ATL@@QAAAAV01@PBG@Z => Microsoft (R) C++ Name Undecorator Copyright (C) Microsoft Corporation. All rights reserved.  Undecoration of :- "??4?$CStringT@DV?$StrTraitMFC_DLL@DV?$ChTraitsCRT@D@ATL@@@@@ATL@@QAAAAV01@PBG@Z" is :- "public: class ATL::CStringT<char,class StrTraitMFC_DLL<char,class ATL::ChTraitsCRT<char> > > & __cdecl ATL::CStringT<char,class StrTraitMFC_DLL<char,class ATL::ChTraitsCRT<char> > >::operator=(unsigned short const *)" 
??4?$CStringT@GV?$StrTraitMFC_DLL@GV?$ChTraitsCRT@G@ATL@@@@@ATL@@QAAAAV01@ABUtagVARIANT@@@Z => Microsoft (R) C++ Name Undecorator Copyright (C) Microsoft Corporation. All rights reserved.  Undecoration of :- "??4?$CStringT@GV?$StrTraitMFC_DLL@GV?$ChTraitsCRT@G@ATL@@@@@ATL@@QAAAAV01@ABUtagVARIANT@@@Z" is :- "public: class ATL::CStringT<unsigned short,class StrTraitMFC_DLL<unsigned short,class ATL::ChTraitsCRT<unsigned short> > > & __cdecl ATL::CStringT<unsigned short,class StrTraitMFC_DLL<unsigned short,class ATL::ChTraitsCRT<unsigned short> > >::operator=(struct tagVARIANT const &)" 
??4?$CStringT@GV?$StrTraitMFC_DLL@GV?$ChTraitsCRT@G@ATL@@@@@ATL@@QAAAAV01@ABV01@@Z => Microsoft (R) C++ Name Undecorator Copyright (C) Microsoft Corporation. All rights reserved.  Undecoration of :- "??4?$CStringT@GV?$StrTraitMFC_DLL@GV?$ChTraitsCRT@G@ATL@@@@@ATL@@QAAAAV01@ABV01@@Z" is :- "public: class ATL::CStringT<unsigned short,class StrTraitMFC_DLL<unsigned short,class ATL::ChTraitsCRT<unsigned short> > > & __cdecl ATL::CStringT<unsigned short,class StrTraitMFC_DLL<unsigned short,class ATL::ChTraitsCRT<unsigned short> > >::operator=(class ATL::CStringT<unsigned short,class StrTraitMFC_DLL<unsigned short,class ATL::ChTraitsCRT<unsigned short> > > const &)" 
??4?$CStringT@GV?$StrTraitMFC_DLL@GV?$ChTraitsCRT@G@ATL@@@@@ATL@@QAAAAV01@D@Z => Microsoft (R) C++ Name Undecorator Copyright (C) Microsoft Corporation. All rights reserved.  Undecoration of :- "??4?$CStringT@GV?$StrTraitMFC_DLL@GV?$ChTraitsCRT@G@ATL@@@@@ATL@@QAAAAV01@D@Z" is :- "public: class ATL::CStringT<unsigned short,class StrTraitMFC_DLL<unsigned short,class ATL::ChTraitsCRT<unsigned short> > > & __cdecl ATL::CStringT<unsigned short,class StrTraitMFC_DLL<unsigned short,class ATL::ChTraitsCRT<unsigned short> > >::operator=(char)" 
??4?$CStringT@GV?$StrTraitMFC_DLL@GV?$ChTraitsCRT@G@ATL@@@@@ATL@@QAAAAV01@G@Z => Microsoft (R) C++ Name Undecorator Copyright (C) Microsoft Corporation. All rights reserved.  Undecoration of :- "??4?$CStringT@GV?$StrTraitMFC_DLL@GV?$ChTraitsCRT@G@ATL@@@@@ATL@@QAAAAV01@G@Z" is :- "public: class ATL::CStringT<unsigned short,class StrTraitMFC_DLL<unsigned short,class ATL::ChTraitsCRT<unsigned short> > > & __cdecl ATL::CStringT<unsigned short,class StrTraitMFC_DLL<unsigned short,class ATL::ChTraitsCRT<unsigned short> > >::operator=(unsigned short)" 
??4?$CStringT@GV?$StrTraitMFC_DLL@GV?$ChTraitsCRT@G@ATL@@@@@ATL@@QAAAAV01@PBD@Z => Microsoft (R) C++ Name Undecorator Copyright (C) Microsoft Corporation. All rights reserved.  Undecoration of :- "??4?$CStringT@GV?$StrTraitMFC_DLL@GV?$ChTraitsCRT@G@ATL@@@@@ATL@@QAAAAV01@PBD@Z" is :- "public: class ATL::CStringT<unsigned short,class StrTraitMFC_DLL<unsigned short,class ATL::ChTraitsCRT<unsigned short> > > & __cdecl ATL::CStringT<unsigned short,class StrTraitMFC_DLL<unsigned short,class ATL::ChTraitsCRT<unsigned short> > >::operator=(char const *)" 
??4?$CStringT@GV?$StrTraitMFC_DLL@GV?$ChTraitsCRT@G@ATL@@@@@ATL@@QAAAAV01@PBE@Z => Microsoft (R) C++ Name Undecorator Copyright (C) Microsoft Corporation. All rights reserved.  Undecoration of :- "??4?$CStringT@GV?$StrTraitMFC_DLL@GV?$ChTraitsCRT@G@ATL@@@@@ATL@@QAAAAV01@PBE@Z" is :- "public: class ATL::CStringT<unsigned short,class StrTraitMFC_DLL<unsigned short,class ATL::ChTraitsCRT<unsigned short> > > & __cdecl ATL::CStringT<unsigned short,class StrTraitMFC_DLL<unsigned short,class ATL::ChTraitsCRT<unsigned short> > >::operator=(unsigned char const *)" 
??4?$CStringT@GV?$StrTraitMFC_DLL@GV?$ChTraitsCRT@G@ATL@@@@@ATL@@QAAAAV01@PBG@Z => Microsoft (R) C++ Name Undecorator Copyright (C) Microsoft Corporation. All rights reserved.  Undecoration of :- "??4?$CStringT@GV?$StrTraitMFC_DLL@GV?$ChTraitsCRT@G@ATL@@@@@ATL@@QAAAAV01@PBG@Z" is :- "public: class ATL::CStringT<unsigned short,class StrTraitMFC_DLL<unsigned short,class ATL::ChTraitsCRT<unsigned short> > > & __cdecl ATL::CStringT<unsigned short,class StrTraitMFC_DLL<unsigned short,class ATL::ChTraitsCRT<unsigned short> > >::operator=(unsigned short const *)" 
??4COleVariant@@QAAABV0@ABV?$CStringT@_WV?$StrTraitMFC_DLL@_WV?$ChTraitsCRT@_W@ATL@@@@@ATL@@@Z => Microsoft (R) C++ Name Undecorator Copyright (C) Microsoft Corporation. All rights reserved.  Undecoration of :- "??4COleVariant@@QAAABV0@ABV?$CStringT@_WV?$StrTraitMFC_DLL@_WV?$ChTraitsCRT@_W@ATL@@@@@ATL@@@Z" is :- "public: class COleVariant const & __cdecl COleVariant::operator=(class ATL::CStringT<wchar_t,class StrTraitMFC_DLL<wchar_t,class ATL::ChTraitsCRT<wchar_t> > > const &)" 
??4COleVariant@@QAAABV0@ABV?$CStringT@GV?$StrTraitMFC_DLL@GV?$ChTraitsCRT@G@ATL@@@@@ATL@@@Z => Microsoft (R) C++ Name Undecorator Copyright (C) Microsoft Corporation. All rights reserved.  Undecoration of :- "??4COleVariant@@QAAABV0@ABV?$CStringT@GV?$StrTraitMFC_DLL@GV?$ChTraitsCRT@G@ATL@@@@@ATL@@@Z" is :- "public: class COleVariant const & __cdecl COleVariant::operator=(class ATL::CStringT<unsigned short,class StrTraitMFC_DLL<unsigned short,class ATL::ChTraitsCRT<unsigned short> > > const &)" 
??4COleVariant@@QAAABV0@QB_W@Z => Microsoft (R) C++ Name Undecorator Copyright (C) Microsoft Corporation. All rights reserved.  Undecoration of :- "??4COleVariant@@QAAABV0@QB_W@Z" is :- "public: class COleVariant const & __cdecl COleVariant::operator=(wchar_t const * const)" 
??4COleVariant@@QAAABV0@QBG@Z => Microsoft (R) C++ Name Undecorator Copyright (C) Microsoft Corporation. All rights reserved.  Undecoration of :- "??4COleVariant@@QAAABV0@QBG@Z" is :- "public: class COleVariant const & __cdecl COleVariant::operator=(unsigned short const * const)" 
??6CDumpContext@@QAAAAV0@PB_W@Z => Microsoft (R) C++ Name Undecorator Copyright (C) Microsoft Corporation. All rights reserved.  Undecoration of :- "??6CDumpContext@@QAAAAV0@PB_W@Z" is :- "public: class CDumpContext & __cdecl CDumpContext::operator<<(wchar_t const *)" 
??6CDumpContext@@QAAAAV0@PBG@Z => Microsoft (R) C++ Name Undecorator Copyright (C) Microsoft Corporation. All rights reserved.  Undecoration of :- "??6CDumpContext@@QAAAAV0@PBG@Z" is :- "public: class CDumpContext & __cdecl CDumpContext::operator<<(unsigned short const *)" 
??A?$CSimpleStringT@_W$00@ATL@@QBA_WH@Z => Microsoft (R) C++ Name Undecorator Copyright (C) Microsoft Corporation. All rights reserved.  Undecoration of :- "??A?$CSimpleStringT@_W$00@ATL@@QBA_WH@Z" is :- "public: wchar_t __cdecl ATL::CSimpleStringT<wchar_t,1>::operator[](int)const " 
??A?$CSimpleStringT@G$00@ATL@@QBAGH@Z => Microsoft (R) C++ Name Undecorator Copyright (C) Microsoft Corporation. All rights reserved.  Undecoration of :- "??A?$CSimpleStringT@G$00@ATL@@QBAGH@Z" is :- "public: unsigned short __cdecl ATL::CSimpleStringT<unsigned short,1>::operator[](int)const " 
??ACMapStringToOb@@QAAAAPAVCObject@@PB_W@Z => Microsoft (R) C++ Name Undecorator Copyright (C) Microsoft Corporation. All rights reserved.  Undecoration of :- "??ACMapStringToOb@@QAAAAPAVCObject@@PB_W@Z" is :- "public: class CObject * & __cdecl CMapStringToOb::operator[](wchar_t const *)" 
??ACMapStringToOb@@QAAAAPAVCObject@@PBG@Z => Microsoft (R) C++ Name Undecorator Copyright (C) Microsoft Corporation. All rights reserved.  Undecoration of :- "??ACMapStringToOb@@QAAAAPAVCObject@@PBG@Z" is :- "public: class CObject * & __cdecl CMapStringToOb::operator[](unsigned short const *)" 
??ACMapStringToPtr@@QAAAAPAXPB_W@Z => Microsoft (R) C++ Name Undecorator Copyright (C) Microsoft Corporation. All rights reserved.  Undecoration of :- "??ACMapStringToPtr@@QAAAAPAXPB_W@Z" is :- "public: void * & __cdecl CMapStringToPtr::operator[](wchar_t const *)" 
??ACMapStringToPtr@@QAAAAPAXPBG@Z => Microsoft (R) C++ Name Undecorator Copyright (C) Microsoft Corporation. All rights reserved.  Undecoration of :- "??ACMapStringToPtr@@QAAAAPAXPBG@Z" is :- "public: void * & __cdecl CMapStringToPtr::operator[](unsigned short const *)" 
??ACMapStringToString@@QAAAAV?$CStringT@_WV?$StrTraitMFC_DLL@_WV?$ChTraitsCRT@_W@ATL@@@@@ATL@@PB_W@Z => Microsoft (R) C++ Name Undecorator Copyright (C) Microsoft Corporation. All rights reserved.  Undecoration of :- "??ACMapStringToString@@QAAAAV?$CStringT@_WV?$StrTraitMFC_DLL@_WV?$ChTraitsCRT@_W@ATL@@@@@ATL@@PB_W@Z" is :- "public: class ATL::CStringT<wchar_t,class StrTraitMFC_DLL<wchar_t,class ATL::ChTraitsCRT<wchar_t> > > & __cdecl CMapStringToString::operator[](wchar_t const *)" 
??ACMapStringToString@@QAAAAV?$CStringT@GV?$StrTraitMFC_DLL@GV?$ChTraitsCRT@G@ATL@@@@@ATL@@PBG@Z => Microsoft (R) C++ Name Undecorator Copyright (C) Microsoft Corporation. All rights reserved.  Undecoration of :- "??ACMapStringToString@@QAAAAV?$CStringT@GV?$StrTraitMFC_DLL@GV?$ChTraitsCRT@G@ATL@@@@@ATL@@PBG@Z" is :- "public: class ATL::CStringT<unsigned short,class StrTraitMFC_DLL<unsigned short,class ATL::ChTraitsCRT<unsigned short> > > & __cdecl CMapStringToString::operator[](unsigned short const *)" 
??B?$CSimpleStringT@_W$00@ATL@@QAAAAV?$CSimpleStringT@_W$0A@@1@XZ => Microsoft (R) C++ Name Undecorator Copyright (C) Microsoft Corporation. All rights reserved.  Undecoration of :- "??B?$CSimpleStringT@_W$00@ATL@@QAAAAV?$CSimpleStringT@_W$0A@@1@XZ" is :- "public: __cdecl ATL::CSimpleStringT<wchar_t,1>::operator class ATL::CSimpleStringT<wchar_t,0> &(void)" 
??B?$CSimpleStringT@_W$00@ATL@@QBAPB_WXZ => Microsoft (R) C++ Name Undecorator Copyright (C) Microsoft Corporation. All rights reserved.  Undecoration of :- "??B?$CSimpleStringT@_W$00@ATL@@QBAPB_WXZ" is :- "public: __cdecl ATL::CSimpleStringT<wchar_t,1>::operator wchar_t const *(void)const " 
??B?$CSimpleStringT@G$00@ATL@@QAAAAV?$CSimpleStringT@G$0A@@1@XZ => Microsoft (R) C++ Name Undecorator Copyright (C) Microsoft Corporation. All rights reserved.  Undecoration of :- "??B?$CSimpleStringT@G$00@ATL@@QAAAAV?$CSimpleStringT@G$0A@@1@XZ" is :- "public: __cdecl ATL::CSimpleStringT<unsigned short,1>::operator class ATL::CSimpleStringT<unsigned short,0> &(void)" 
??B?$CSimpleStringT@G$00@ATL@@QBAPBGXZ => Microsoft (R) C++ Name Undecorator Copyright (C) Microsoft Corporation. All rights reserved.  Undecoration of :- "??B?$CSimpleStringT@G$00@ATL@@QBAPBGXZ" is :- "public: __cdecl ATL::CSimpleStringT<unsigned short,1>::operator unsigned short const *(void)const " 
??B?$CStringT@_WV?$StrTraitMFC_DLL@_WV?$ChTraitsCRT@_W@ATL@@@@@ATL@@QAAAAV?$CSimpleStringT@_W$0A@@1@XZ => Microsoft (R) C++ Name Undecorator Copyright (C) Microsoft Corporation. All rights reserved.  Undecoration of :- "??B?$CStringT@_WV?$StrTraitMFC_DLL@_WV?$ChTraitsCRT@_W@ATL@@@@@ATL@@QAAAAV?$CSimpleStringT@_W$0A@@1@XZ" is :- "public: __cdecl ATL::CStringT<wchar_t,class StrTraitMFC_DLL<wchar_t,class ATL::ChTraitsCRT<wchar_t> > >::operator class ATL::CSimpleStringT<wchar_t,0> &(void)" 
??B?$CStringT@GV?$StrTraitMFC_DLL@GV?$ChTraitsCRT@G@ATL@@@@@ATL@@QAAAAV?$CSimpleStringT@G$0A@@1@XZ => Microsoft (R) C++ Name Undecorator Copyright (C) Microsoft Corporation. All rights reserved.  Undecoration of :- "??B?$CStringT@GV?$StrTraitMFC_DLL@GV?$ChTraitsCRT@G@ATL@@@@@ATL@@QAAAAV?$CSimpleStringT@G$0A@@1@XZ" is :- "public: __cdecl ATL::CStringT<unsigned short,class StrTraitMFC_DLL<unsigned short,class ATL::ChTraitsCRT<unsigned short> > >::operator class ATL::CSimpleStringT<unsigned short,0> &(void)" 
??Y?$CSimpleStringT@_W$00@ATL@@QAAAAV01@_W@Z => Microsoft (R) C++ Name Undecorator Copyright (C) Microsoft Corporation. All rights reserved.  Undecoration of :- "??Y?$CSimpleStringT@_W$00@ATL@@QAAAAV01@_W@Z" is :- "public: class ATL::CSimpleStringT<wchar_t,1> & __cdecl ATL::CSimpleStringT<wchar_t,1>::operator+=(wchar_t)" 
??Y?$CSimpleStringT@_W$00@ATL@@QAAAAV01@ABV01@@Z => Microsoft (R) C++ Name Undecorator Copyright (C) Microsoft Corporation. All rights reserved.  Undecoration of :- "??Y?$CSimpleStringT@_W$00@ATL@@QAAAAV01@ABV01@@Z" is :- "public: class ATL::CSimpleStringT<wchar_t,1> & __cdecl ATL::CSimpleStringT<wchar_t,1>::operator+=(class ATL::CSimpleStringT<wchar_t,1> const &)" 
??Y?$CSimpleStringT@_W$00@ATL@@QAAAAV01@D@Z => Microsoft (R) C++ Name Undecorator Copyright (C) Microsoft Corporation. All rights reserved.  Undecoration of :- "??Y?$CSimpleStringT@_W$00@ATL@@QAAAAV01@D@Z" is :- "public: class ATL::CSimpleStringT<wchar_t,1> & __cdecl ATL::CSimpleStringT<wchar_t,1>::operator+=(char)" 
??Y?$CSimpleStringT@_W$00@ATL@@QAAAAV01@E@Z => Microsoft (R) C++ Name Undecorator Copyright (C) Microsoft Corporation. All rights reserved.  Undecoration of :- "??Y?$CSimpleStringT@_W$00@ATL@@QAAAAV01@E@Z" is :- "public: class ATL::CSimpleStringT<wchar_t,1> & __cdecl ATL::CSimpleStringT<wchar_t,1>::operator+=(unsigned char)" 
??Y?$CSimpleStringT@_W$00@ATL@@QAAAAV01@PB_W@Z => Microsoft (R) C++ Name Undecorator Copyright (C) Microsoft Corporation. All rights reserved.  Undecoration of :- "??Y?$CSimpleStringT@_W$00@ATL@@QAAAAV01@PB_W@Z" is :- "public: class ATL::CSimpleStringT<wchar_t,1> & __cdecl ATL::CSimpleStringT<wchar_t,1>::operator+=(wchar_t const *)" 
??Y?$CSimpleStringT@D$00@ATL@@QAAAAV01@_W@Z => Microsoft (R) C++ Name Undecorator Copyright (C) Microsoft Corporation. All rights reserved.  Undecoration of :- "??Y?$CSimpleStringT@D$00@ATL@@QAAAAV01@_W@Z" is :- "public: class ATL::CSimpleStringT<char,1> & __cdecl ATL::CSimpleStringT<char,1>::operator+=(wchar_t)" 
??Y?$CSimpleStringT@D$00@ATL@@QAAAAV01@G@Z => Microsoft (R) C++ Name Undecorator Copyright (C) Microsoft Corporation. All rights reserved.  Undecoration of :- "??Y?$CSimpleStringT@D$00@ATL@@QAAAAV01@G@Z" is :- "public: class ATL::CSimpleStringT<char,1> & __cdecl ATL::CSimpleStringT<char,1>::operator+=(unsigned short)" 
??Y?$CSimpleStringT@G$00@ATL@@QAAAAV01@ABV01@@Z => Microsoft (R) C++ Name Undecorator Copyright (C) Microsoft Corporation. All rights reserved.  Undecoration of :- "??Y?$CSimpleStringT@G$00@ATL@@QAAAAV01@ABV01@@Z" is :- "public: class ATL::CSimpleStringT<unsigned short,1> & __cdecl ATL::CSimpleStringT<unsigned short,1>::operator+=(class ATL::CSimpleStringT<unsigned short,1> const &)" 
??Y?$CSimpleStringT@G$00@ATL@@QAAAAV01@D@Z => Microsoft (R) C++ Name Undecorator Copyright (C) Microsoft Corporation. All rights reserved.  Undecoration of :- "??Y?$CSimpleStringT@G$00@ATL@@QAAAAV01@D@Z" is :- "public: class ATL::CSimpleStringT<unsigned short,1> & __cdecl ATL::CSimpleStringT<unsigned short,1>::operator+=(char)" 
??Y?$CSimpleStringT@G$00@ATL@@QAAAAV01@E@Z => Microsoft (R) C++ Name Undecorator Copyright (C) Microsoft Corporation. All rights reserved.  Undecoration of :- "??Y?$CSimpleStringT@G$00@ATL@@QAAAAV01@E@Z" is :- "public: class ATL::CSimpleStringT<unsigned short,1> & __cdecl ATL::CSimpleStringT<unsigned short,1>::operator+=(unsigned char)" 
??Y?$CSimpleStringT@G$00@ATL@@QAAAAV01@G@Z => Microsoft (R) C++ Name Undecorator Copyright (C) Microsoft Corporation. All rights reserved.  Undecoration of :- "??Y?$CSimpleStringT@G$00@ATL@@QAAAAV01@G@Z" is :- "public: class ATL::CSimpleStringT<unsigned short,1> & __cdecl ATL::CSimpleStringT<unsigned short,1>::operator+=(unsigned short)" 
??Y?$CSimpleStringT@G$00@ATL@@QAAAAV01@PBG@Z => Microsoft (R) C++ Name Undecorator Copyright (C) Microsoft Corporation. All rights reserved.  Undecoration of :- "??Y?$CSimpleStringT@G$00@ATL@@QAAAAV01@PBG@Z" is :- "public: class ATL::CSimpleStringT<unsigned short,1> & __cdecl ATL::CSimpleStringT<unsigned short,1>::operator+=(unsigned short const *)" 
??Y?$CStringT@_WV?$StrTraitMFC_DLL@_WV?$ChTraitsCRT@_W@ATL@@@@@ATL@@QAAAAV01@_W@Z => Microsoft (R) C++ Name Undecorator Copyright (C) Microsoft Corporation. All rights reserved.  Undecoration of :- "??Y?$CStringT@_WV?$StrTraitMFC_DLL@_WV?$ChTraitsCRT@_W@ATL@@@@@ATL@@QAAAAV01@_W@Z" is :- "public: class ATL::CStringT<wchar_t,class StrTraitMFC_DLL<wchar_t,class ATL::ChTraitsCRT<wchar_t> > > & __cdecl ATL::CStringT<wchar_t,class StrTraitMFC_DLL<wchar_t,class ATL::ChTraitsCRT<wchar_t> > >::operator+=(wchar_t)" 
??Y?$CStringT@_WV?$StrTraitMFC_DLL@_WV?$ChTraitsCRT@_W@ATL@@@@@ATL@@QAAAAV01@ABUtagVARIANT@@@Z => Microsoft (R) C++ Name Undecorator Copyright (C) Microsoft Corporation. All rights reserved.  Undecoration of :- "??Y?$CStringT@_WV?$StrTraitMFC_DLL@_WV?$ChTraitsCRT@_W@ATL@@@@@ATL@@QAAAAV01@ABUtagVARIANT@@@Z" is :- "public: class ATL::CStringT<wchar_t,class StrTraitMFC_DLL<wchar_t,class ATL::ChTraitsCRT<wchar_t> > > & __cdecl ATL::CStringT<wchar_t,class StrTraitMFC_DLL<wchar_t,class ATL::ChTraitsCRT<wchar_t> > >::operator+=(struct tagVARIANT const &)" 
??Y?$CStringT@_WV?$StrTraitMFC_DLL@_WV?$ChTraitsCRT@_W@ATL@@@@@ATL@@QAAAAV01@ABV?$CSimpleStringT@_W$00@1@@Z => Microsoft (R) C++ Name Undecorator Copyright (C) Microsoft Corporation. All rights reserved.  Undecoration of :- "??Y?$CStringT@_WV?$StrTraitMFC_DLL@_WV?$ChTraitsCRT@_W@ATL@@@@@ATL@@QAAAAV01@ABV?$CSimpleStringT@_W$00@1@@Z" is :- "public: class ATL::CStringT<wchar_t,class StrTraitMFC_DLL<wchar_t,class ATL::ChTraitsCRT<wchar_t> > > & __cdecl ATL::CStringT<wchar_t,class StrTraitMFC_DLL<wchar_t,class ATL::ChTraitsCRT<wchar_t> > >::operator+=(class ATL::CSimpleStringT<wchar_t,1> const &)" 
??Y?$CStringT@_WV?$StrTraitMFC_DLL@_WV?$ChTraitsCRT@_W@ATL@@@@@ATL@@QAAAAV01@D@Z => Microsoft (R) C++ Name Undecorator Copyright (C) Microsoft Corporation. All rights reserved.  Undecoration of :- "??Y?$CStringT@_WV?$StrTraitMFC_DLL@_WV?$ChTraitsCRT@_W@ATL@@@@@ATL@@QAAAAV01@D@Z" is :- "public: class ATL::CStringT<wchar_t,class StrTraitMFC_DLL<wchar_t,class ATL::ChTraitsCRT<wchar_t> > > & __cdecl ATL::CStringT<wchar_t,class StrTraitMFC_DLL<wchar_t,class ATL::ChTraitsCRT<wchar_t> > >::operator+=(char)" 
??Y?$CStringT@_WV?$StrTraitMFC_DLL@_WV?$ChTraitsCRT@_W@ATL@@@@@ATL@@QAAAAV01@E@Z => Microsoft (R) C++ Name Undecorator Copyright (C) Microsoft Corporation. All rights reserved.  Undecoration of :- "??Y?$CStringT@_WV?$StrTraitMFC_DLL@_WV?$ChTraitsCRT@_W@ATL@@@@@ATL@@QAAAAV01@E@Z" is :- "public: class ATL::CStringT<wchar_t,class StrTraitMFC_DLL<wchar_t,class ATL::ChTraitsCRT<wchar_t> > > & __cdecl ATL::CStringT<wchar_t,class StrTraitMFC_DLL<wchar_t,class ATL::ChTraitsCRT<wchar_t> > >::operator+=(unsigned char)" 
??Y?$CStringT@_WV?$StrTraitMFC_DLL@_WV?$ChTraitsCRT@_W@ATL@@@@@ATL@@QAAAAV01@PB_W@Z => Microsoft (R) C++ Name Undecorator Copyright (C) Microsoft Corporation. All rights reserved.  Undecoration of :- "??Y?$CStringT@_WV?$StrTraitMFC_DLL@_WV?$ChTraitsCRT@_W@ATL@@@@@ATL@@QAAAAV01@PB_W@Z" is :- "public: class ATL::CStringT<wchar_t,class StrTraitMFC_DLL<wchar_t,class ATL::ChTraitsCRT<wchar_t> > > & __cdecl ATL::CStringT<wchar_t,class StrTraitMFC_DLL<wchar_t,class ATL::ChTraitsCRT<wchar_t> > >::operator+=(wchar_t const *)" 
??Y?$CStringT@_WV?$StrTraitMFC_DLL@_WV?$ChTraitsCRT@_W@ATL@@@@@ATL@@QAAAAV01@PBD@Z => Microsoft (R) C++ Name Undecorator Copyright (C) Microsoft Corporation. All rights reserved.  Undecoration of :- "??Y?$CStringT@_WV?$StrTraitMFC_DLL@_WV?$ChTraitsCRT@_W@ATL@@@@@ATL@@QAAAAV01@PBD@Z" is :- "public: class ATL::CStringT<wchar_t,class StrTraitMFC_DLL<wchar_t,class ATL::ChTraitsCRT<wchar_t> > > & __cdecl ATL::CStringT<wchar_t,class StrTraitMFC_DLL<wchar_t,class ATL::ChTraitsCRT<wchar_t> > >::operator+=(char const *)" 
??Y?$CStringT@DV?$StrTraitMFC_DLL@DV?$ChTraitsCRT@D@ATL@@@@@ATL@@QAAAAV01@_W@Z => Microsoft (R) C++ Name Undecorator Copyright (C) Microsoft Corporation. All rights reserved.  Undecoration of :- "??Y?$CStringT@DV?$StrTraitMFC_DLL@DV?$ChTraitsCRT@D@ATL@@@@@ATL@@QAAAAV01@_W@Z" is :- "public: class ATL::CStringT<char,class StrTraitMFC_DLL<char,class ATL::ChTraitsCRT<char> > > & __cdecl ATL::CStringT<char,class StrTraitMFC_DLL<char,class ATL::ChTraitsCRT<char> > >::operator+=(wchar_t)" 
??Y?$CStringT@DV?$StrTraitMFC_DLL@DV?$ChTraitsCRT@D@ATL@@@@@ATL@@QAAAAV01@G@Z => Microsoft (R) C++ Name Undecorator Copyright (C) Microsoft Corporation. All rights reserved.  Undecoration of :- "??Y?$CStringT@DV?$StrTraitMFC_DLL@DV?$ChTraitsCRT@D@ATL@@@@@ATL@@QAAAAV01@G@Z" is :- "public: class ATL::CStringT<char,class StrTraitMFC_DLL<char,class ATL::ChTraitsCRT<char> > > & __cdecl ATL::CStringT<char,class StrTraitMFC_DLL<char,class ATL::ChTraitsCRT<char> > >::operator+=(unsigned short)" 
??Y?$CStringT@DV?$StrTraitMFC_DLL@DV?$ChTraitsCRT@D@ATL@@@@@ATL@@QAAAAV01@PB_W@Z => Microsoft (R) C++ Name Undecorator Copyright (C) Microsoft Corporation. All rights reserved.  Undecoration of :- "??Y?$CStringT@DV?$StrTraitMFC_DLL@DV?$ChTraitsCRT@D@ATL@@@@@ATL@@QAAAAV01@PB_W@Z" is :- "public: class ATL::CStringT<char,class StrTraitMFC_DLL<char,class ATL::ChTraitsCRT<char> > > & __cdecl ATL::CStringT<char,class StrTraitMFC_DLL<char,class ATL::ChTraitsCRT<char> > >::operator+=(wchar_t const *)" 
??Y?$CStringT@DV?$StrTraitMFC_DLL@DV?$ChTraitsCRT@D@ATL@@@@@ATL@@QAAAAV01@PBG@Z => Microsoft (R) C++ Name Undecorator Copyright (C) Microsoft Corporation. All rights reserved.  Undecoration of :- "??Y?$CStringT@DV?$StrTraitMFC_DLL@DV?$ChTraitsCRT@D@ATL@@@@@ATL@@QAAAAV01@PBG@Z" is :- "public: class ATL::CStringT<char,class StrTraitMFC_DLL<char,class ATL::ChTraitsCRT<char> > > & __cdecl ATL::CStringT<char,class StrTraitMFC_DLL<char,class ATL::ChTraitsCRT<char> > >::operator+=(unsigned short const *)" 
??Y?$CStringT@GV?$StrTraitMFC_DLL@GV?$ChTraitsCRT@G@ATL@@@@@ATL@@QAAAAV01@ABUtagVARIANT@@@Z => Microsoft (R) C++ Name Undecorator Copyright (C) Microsoft Corporation. All rights reserved.  Undecoration of :- "??Y?$CStringT@GV?$StrTraitMFC_DLL@GV?$ChTraitsCRT@G@ATL@@@@@ATL@@QAAAAV01@ABUtagVARIANT@@@Z" is :- "public: class ATL::CStringT<unsigned short,class StrTraitMFC_DLL<unsigned short,class ATL::ChTraitsCRT<unsigned short> > > & __cdecl ATL::CStringT<unsigned short,class StrTraitMFC_DLL<unsigned short,class ATL::ChTraitsCRT<unsigned short> > >::operator+=(struct tagVARIANT const &)" 
??Y?$CStringT@GV?$StrTraitMFC_DLL@GV?$ChTraitsCRT@G@ATL@@@@@ATL@@QAAAAV01@ABV?$CSimpleStringT@G$00@1@@Z => Microsoft (R) C++ Name Undecorator Copyright (C) Microsoft Corporation. All rights reserved.  Undecoration of :- "??Y?$CStringT@GV?$StrTraitMFC_DLL@GV?$ChTraitsCRT@G@ATL@@@@@ATL@@QAAAAV01@ABV?$CSimpleStringT@G$00@1@@Z" is :- "public: class ATL::CStringT<unsigned short,class StrTraitMFC_DLL<unsigned short,class ATL::ChTraitsCRT<unsigned short> > > & __cdecl ATL::CStringT<unsigned short,class StrTraitMFC_DLL<unsigned short,class ATL::ChTraitsCRT<unsigned short> > >::operator+=(class ATL::CSimpleStringT<unsigned short,1> const &)" 
??Y?$CStringT@GV?$StrTraitMFC_DLL@GV?$ChTraitsCRT@G@ATL@@@@@ATL@@QAAAAV01@D@Z => Microsoft (R) C++ Name Undecorator Copyright (C) Microsoft Corporation. All rights reserved.  Undecoration of :- "??Y?$CStringT@GV?$StrTraitMFC_DLL@GV?$ChTraitsCRT@G@ATL@@@@@ATL@@QAAAAV01@D@Z" is :- "public: class ATL::CStringT<unsigned short,class StrTraitMFC_DLL<unsigned short,class ATL::ChTraitsCRT<unsigned short> > > & __cdecl ATL::CStringT<unsigned short,class StrTraitMFC_DLL<unsigned short,class ATL::ChTraitsCRT<unsigned short> > >::operator+=(char)" 
??Y?$CStringT@GV?$StrTraitMFC_DLL@GV?$ChTraitsCRT@G@ATL@@@@@ATL@@QAAAAV01@E@Z => Microsoft (R) C++ Name Undecorator Copyright (C) Microsoft Corporation. All rights reserved.  Undecoration of :- "??Y?$CStringT@GV?$StrTraitMFC_DLL@GV?$ChTraitsCRT@G@ATL@@@@@ATL@@QAAAAV01@E@Z" is :- "public: class ATL::CStringT<unsigned short,class StrTraitMFC_DLL<unsigned short,class ATL::ChTraitsCRT<unsigned short> > > & __cdecl ATL::CStringT<unsigned short,class StrTraitMFC_DLL<unsigned short,class ATL::ChTraitsCRT<unsigned short> > >::operator+=(unsigned char)" 
??Y?$CStringT@GV?$StrTraitMFC_DLL@GV?$ChTraitsCRT@G@ATL@@@@@ATL@@QAAAAV01@G@Z => Microsoft (R) C++ Name Undecorator Copyright (C) Microsoft Corporation. All rights reserved.  Undecoration of :- "??Y?$CStringT@GV?$StrTraitMFC_DLL@GV?$ChTraitsCRT@G@ATL@@@@@ATL@@QAAAAV01@G@Z" is :- "public: class ATL::CStringT<unsigned short,class StrTraitMFC_DLL<unsigned short,class ATL::ChTraitsCRT<unsigned short> > > & __cdecl ATL::CStringT<unsigned short,class StrTraitMFC_DLL<unsigned short,class ATL::ChTraitsCRT<unsigned short> > >::operator+=(unsigned short)" 
??Y?$CStringT@GV?$StrTraitMFC_DLL@GV?$ChTraitsCRT@G@ATL@@@@@ATL@@QAAAAV01@PBD@Z => Microsoft (R) C++ Name Undecorator Copyright (C) Microsoft Corporation. All rights reserved.  Undecoration of :- "??Y?$CStringT@GV?$StrTraitMFC_DLL@GV?$ChTraitsCRT@G@ATL@@@@@ATL@@QAAAAV01@PBD@Z" is :- "public: class ATL::CStringT<unsigned short,class StrTraitMFC_DLL<unsigned short,class ATL::ChTraitsCRT<unsigned short> > > & __cdecl ATL::CStringT<unsigned short,class StrTraitMFC_DLL<unsigned short,class ATL::ChTraitsCRT<unsigned short> > >::operator+=(char const *)" 
??Y?$CStringT@GV?$StrTraitMFC_DLL@GV?$ChTraitsCRT@G@ATL@@@@@ATL@@QAAAAV01@PBG@Z => Microsoft (R) C++ Name Undecorator Copyright (C) Microsoft Corporation. All rights reserved.  Undecoration of :- "??Y?$CStringT@GV?$StrTraitMFC_DLL@GV?$ChTraitsCRT@G@ATL@@@@@ATL@@QAAAAV01@PBG@Z" is :- "public: class ATL::CStringT<unsigned short,class StrTraitMFC_DLL<unsigned short,class ATL::ChTraitsCRT<unsigned short> > > & __cdecl ATL::CStringT<unsigned short,class StrTraitMFC_DLL<unsigned short,class ATL::ChTraitsCRT<unsigned short> > >::operator+=(unsigned short const *)" 
?ActivateAs@COleClientItem@@UAAHPB_WABU_GUID@@1@Z => Microsoft (R) C++ Name Undecorator Copyright (C) Microsoft Corporation. All rights reserved.  Undecoration of :- "?ActivateAs@COleClientItem@@UAAHPB_WABU_GUID@@1@Z" is :- "public: virtual int __cdecl COleClientItem::ActivateAs(wchar_t const *,struct _GUID const &,struct _GUID const &)" 
?ActivateAs@COleClientItem@@UAAHPBGABU_GUID@@1@Z => Microsoft (R) C++ Name Undecorator Copyright (C) Microsoft Corporation. All rights reserved.  Undecoration of :- "?ActivateAs@COleClientItem@@UAAHPBGABU_GUID@@1@Z" is :- "public: virtual int __cdecl COleClientItem::ActivateAs(unsigned short const *,struct _GUID const &,struct _GUID const &)" 
?ActivateAs@CRichEditCntrItem@@UAAHPB_WABU_GUID@@1@Z => Microsoft (R) C++ Name Undecorator Copyright (C) Microsoft Corporation. All rights reserved.  Undecoration of :- "?ActivateAs@CRichEditCntrItem@@UAAHPB_WABU_GUID@@1@Z" is :- "public: virtual int __cdecl CRichEditCntrItem::ActivateAs(wchar_t const *,struct _GUID const &,struct _GUID const &)" 
?ActivateAs@CRichEditCntrItem@@UAAHPBGABU_GUID@@1@Z => Microsoft (R) C++ Name Undecorator Copyright (C) Microsoft Corporation. All rights reserved.  Undecoration of :- "?ActivateAs@CRichEditCntrItem@@UAAHPBGABU_GUID@@1@Z" is :- "public: virtual int __cdecl CRichEditCntrItem::ActivateAs(unsigned short const *,struct _GUID const &,struct _GUID const &)" 
?Add@CRecentFileList@@QAAXPAUIShellItem@@PB_W@Z => Microsoft (R) C++ Name Undecorator Copyright (C) Microsoft Corporation. All rights reserved.  Undecoration of :- "?Add@CRecentFileList@@QAAXPAUIShellItem@@PB_W@Z" is :- "public: void __cdecl CRecentFileList::Add(struct IShellItem *,wchar_t const *)" 
?Add@CRecentFileList@@QAAXPAUIShellItem@@PBG@Z => Microsoft (R) C++ Name Undecorator Copyright (C) Microsoft Corporation. All rights reserved.  Undecoration of :- "?Add@CRecentFileList@@QAAXPAUIShellItem@@PBG@Z" is :- "public: void __cdecl CRecentFileList::Add(struct IShellItem *,unsigned short const *)" 
?Add@CRecentFileList@@QAAXPAUIShellLinkW@@PB_W@Z => Microsoft (R) C++ Name Undecorator Copyright (C) Microsoft Corporation. All rights reserved.  Undecoration of :- "?Add@CRecentFileList@@QAAXPAUIShellLinkW@@PB_W@Z" is :- "public: void __cdecl CRecentFileList::Add(struct IShellLinkW *,wchar_t const *)" 
?Add@CRecentFileList@@QAAXPAUIShellLinkW@@PBG@Z => Microsoft (R) C++ Name Undecorator Copyright (C) Microsoft Corporation. All rights reserved.  Undecoration of :- "?Add@CRecentFileList@@QAAXPAUIShellLinkW@@PBG@Z" is :- "public: void __cdecl CRecentFileList::Add(struct IShellLinkW *,unsigned short const *)" 
?Add@CRecentFileList@@QAAXPFAU_ITEMIDLIST@@PB_W@Z => Microsoft (R) C++ Name Undecorator Copyright (C) Microsoft Corporation. All rights reserved.  Undecoration of :- "?Add@CRecentFileList@@QAAXPFAU_ITEMIDLIST@@PB_W@Z" is :- "public: void __cdecl CRecentFileList::Add(struct _ITEMIDLIST __unaligned *,wchar_t const *)" 
?Add@CRecentFileList@@QAAXPFAU_ITEMIDLIST@@PBG@Z => Microsoft (R) C++ Name Undecorator Copyright (C) Microsoft Corporation. All rights reserved.  Undecoration of :- "?Add@CRecentFileList@@QAAXPFAU_ITEMIDLIST@@PBG@Z" is :- "public: void __cdecl CRecentFileList::Add(struct _ITEMIDLIST __unaligned *,unsigned short const *)" 
?Add@CRecentFileList@@UAAXPB_W@Z => Microsoft (R) C++ Name Undecorator Copyright (C) Microsoft Corporation. All rights reserved.  Undecoration of :- "?Add@CRecentFileList@@UAAXPB_W@Z" is :- "public: virtual void __cdecl CRecentFileList::Add(wchar_t const *)" 
?Add@CRecentFileList@@UAAXPB_W0@Z => Microsoft (R) C++ Name Undecorator Copyright (C) Microsoft Corporation. All rights reserved.  Undecoration of :- "?Add@CRecentFileList@@UAAXPB_W0@Z" is :- "public: virtual void __cdecl CRecentFileList::Add(wchar_t const *,wchar_t const *)" 
?Add@CRecentFileList@@UAAXPBG@Z => Microsoft (R) C++ Name Undecorator Copyright (C) Microsoft Corporation. All rights reserved.  Undecoration of :- "?Add@CRecentFileList@@UAAXPBG@Z" is :- "public: virtual void __cdecl CRecentFileList::Add(unsigned short const *)" 
?Add@CRecentFileList@@UAAXPBG0@Z => Microsoft (R) C++ Name Undecorator Copyright (C) Microsoft Corporation. All rights reserved.  Undecoration of :- "?Add@CRecentFileList@@UAAXPBG0@Z" is :- "public: virtual void __cdecl CRecentFileList::Add(unsigned short const *,unsigned short const *)" 
?AddBar@CMFCReBar@@QAAHPAVCWnd@@KKPB_WK@Z => Microsoft (R) C++ Name Undecorator Copyright (C) Microsoft Corporation. All rights reserved.  Undecoration of :- "?AddBar@CMFCReBar@@QAAHPAVCWnd@@KKPB_WK@Z" is :- "public: int __cdecl CMFCReBar::AddBar(class CWnd *,unsigned long,unsigned long,wchar_t const *,unsigned long)" 
?AddBar@CMFCReBar@@QAAHPAVCWnd@@KKPBGK@Z => Microsoft (R) C++ Name Undecorator Copyright (C) Microsoft Corporation. All rights reserved.  Undecoration of :- "?AddBar@CMFCReBar@@QAAHPAVCWnd@@KKPBGK@Z" is :- "public: int __cdecl CMFCReBar::AddBar(class CWnd *,unsigned long,unsigned long,unsigned short const *,unsigned long)" 
?AddBar@CMFCReBar@@QAAHPAVCWnd@@PB_WPAVCBitmap@@K@Z => Microsoft (R) C++ Name Undecorator Copyright (C) Microsoft Corporation. All rights reserved.  Undecoration of :- "?AddBar@CMFCReBar@@QAAHPAVCWnd@@PB_WPAVCBitmap@@K@Z" is :- "public: int __cdecl CMFCReBar::AddBar(class CWnd *,wchar_t const *,class CBitmap *,unsigned long)" 
?AddBar@CMFCReBar@@QAAHPAVCWnd@@PBGPAVCBitmap@@K@Z => Microsoft (R) C++ Name Undecorator Copyright (C) Microsoft Corporation. All rights reserved.  Undecoration of :- "?AddBar@CMFCReBar@@QAAHPAVCWnd@@PBGPAVCBitmap@@K@Z" is :- "public: int __cdecl CMFCReBar::AddBar(class CWnd *,unsigned short const *,class CBitmap *,unsigned long)" 
?AddBar@CReBar@@QAAHPAVCWnd@@KKPB_WK@Z => Microsoft (R) C++ Name Undecorator Copyright (C) Microsoft Corporation. All rights reserved.  Undecoration of :- "?AddBar@CReBar@@QAAHPAVCWnd@@KKPB_WK@Z" is :- "public: int __cdecl CReBar::AddBar(class CWnd *,unsigned long,unsigned long,wchar_t const *,unsigned long)" 
?AddBar@CReBar@@QAAHPAVCWnd@@KKPBGK@Z => Microsoft (R) C++ Name Undecorator Copyright (C) Microsoft Corporation. All rights reserved.  Undecoration of :- "?AddBar@CReBar@@QAAHPAVCWnd@@KKPBGK@Z" is :- "public: int __cdecl CReBar::AddBar(class CWnd *,unsigned long,unsigned long,unsigned short const *,unsigned long)" 
?AddBar@CReBar@@QAAHPAVCWnd@@PB_WPAVCBitmap@@K@Z => Microsoft (R) C++ Name Undecorator Copyright (C) Microsoft Corporation. All rights reserved.  Undecoration of :- "?AddBar@CReBar@@QAAHPAVCWnd@@PB_WPAVCBitmap@@K@Z" is :- "public: int __cdecl CReBar::AddBar(class CWnd *,wchar_t const *,class CBitmap *,unsigned long)" 
?AddBar@CReBar@@QAAHPAVCWnd@@PBGPAVCBitmap@@K@Z => Microsoft (R) C++ Name Undecorator Copyright (C) Microsoft Corporation. All rights reserved.  Undecoration of :- "?AddBar@CReBar@@QAAHPAVCWnd@@PBGPAVCBitmap@@K@Z" is :- "public: int __cdecl CReBar::AddBar(class CWnd *,unsigned short const *,class CBitmap *,unsigned long)" 
?AddButton@CMFCOutlookBarPane@@QAAHIPB_WIH@Z => Microsoft (R) C++ Name Undecorator Copyright (C) Microsoft Corporation. All rights reserved.  Undecoration of :- "?AddButton@CMFCOutlookBarPane@@QAAHIPB_WIH@Z" is :- "public: int __cdecl CMFCOutlookBarPane::AddButton(unsigned int,wchar_t const *,unsigned int,int)" 
?AddButton@CMFCOutlookBarPane@@QAAHIPBGIH@Z => Microsoft (R) C++ Name Undecorator Copyright (C) Microsoft Corporation. All rights reserved.  Undecoration of :- "?AddButton@CMFCOutlookBarPane@@QAAHIPBGIH@Z" is :- "public: int __cdecl CMFCOutlookBarPane::AddButton(unsigned int,unsigned short const *,unsigned int,int)" 
?AddButton@CMFCOutlookBarPane@@QAAHPAUHBITMAP__@@PB_WIH@Z => Microsoft (R) C++ Name Undecorator Copyright (C) Microsoft Corporation. All rights reserved.  Undecoration of :- "?AddButton@CMFCOutlookBarPane@@QAAHPAUHBITMAP__@@PB_WIH@Z" is :- "public: int __cdecl CMFCOutlookBarPane::AddButton(struct HBITMAP__ *,wchar_t const *,unsigned int,int)" 
?AddButton@CMFCOutlookBarPane@@QAAHPAUHBITMAP__@@PBGIH@Z => Microsoft (R) C++ Name Undecorator Copyright (C) Microsoft Corporation. All rights reserved.  Undecoration of :- "?AddButton@CMFCOutlookBarPane@@QAAHPAUHBITMAP__@@PBGIH@Z" is :- "public: int __cdecl CMFCOutlookBarPane::AddButton(struct HBITMAP__ *,unsigned short const *,unsigned int,int)" 
?AddButton@CMFCOutlookBarPane@@QAAHPAUHICON__@@PB_WIHH@Z => Microsoft (R) C++ Name Undecorator Copyright (C) Microsoft Corporation. All rights reserved.  Undecoration of :- "?AddButton@CMFCOutlookBarPane@@QAAHPAUHICON__@@PB_WIHH@Z" is :- "public: int __cdecl CMFCOutlookBarPane::AddButton(struct HICON__ *,wchar_t const *,unsigned int,int,int)" 
?AddButton@CMFCOutlookBarPane@@QAAHPAUHICON__@@PBGIHH@Z => Microsoft (R) C++ Name Undecorator Copyright (C) Microsoft Corporation. All rights reserved.  Undecoration of :- "?AddButton@CMFCOutlookBarPane@@QAAHPAUHICON__@@PBGIHH@Z" is :- "public: int __cdecl CMFCOutlookBarPane::AddButton(struct HICON__ *,unsigned short const *,unsigned int,int,int)" 
?AddButton@CMFCOutlookBarPane@@QAAHPB_W0IH@Z => Microsoft (R) C++ Name Undecorator Copyright (C) Microsoft Corporation. All rights reserved.  Undecoration of :- "?AddButton@CMFCOutlookBarPane@@QAAHPB_W0IH@Z" is :- "public: int __cdecl CMFCOutlookBarPane::AddButton(wchar_t const *,wchar_t const *,unsigned int,int)" 
?AddButton@CMFCOutlookBarPane@@QAAHPBG0IH@Z => Microsoft (R) C++ Name Undecorator Copyright (C) Microsoft Corporation. All rights reserved.  Undecoration of :- "?AddButton@CMFCOutlookBarPane@@QAAHPBG0IH@Z" is :- "public: int __cdecl CMFCOutlookBarPane::AddButton(unsigned short const *,unsigned short const *,unsigned int,int)" 
?AddButton@CMFCToolBarsCustomizeDialog@@QAAXPB_WABVCMFCToolBarButton@@H@Z => Microsoft (R) C++ Name Undecorator Copyright (C) Microsoft Corporation. All rights reserved.  Undecoration of :- "?AddButton@CMFCToolBarsCustomizeDialog@@QAAXPB_WABVCMFCToolBarButton@@H@Z" is :- "public: void __cdecl CMFCToolBarsCustomizeDialog::AddButton(wchar_t const *,class CMFCToolBarButton const &,int)" 
?AddButton@CMFCToolBarsCustomizeDialog@@QAAXPBGABVCMFCToolBarButton@@H@Z => Microsoft (R) C++ Name Undecorator Copyright (C) Microsoft Corporation. All rights reserved.  Undecoration of :- "?AddButton@CMFCToolBarsCustomizeDialog@@QAAXPBGABVCMFCToolBarButton@@H@Z" is :- "public: void __cdecl CMFCToolBarsCustomizeDialog::AddButton(unsigned short const *,class CMFCToolBarButton const &,int)" 
?AddButton@CVSListBoxBase@@QAAHIPB_WGEI@Z => Microsoft (R) C++ Name Undecorator Copyright (C) Microsoft Corporation. All rights reserved.  Undecoration of :- "?AddButton@CVSListBoxBase@@QAAHIPB_WGEI@Z" is :- "public: int __cdecl CVSListBoxBase::AddButton(unsigned int,wchar_t const *,unsigned short,unsigned char,unsigned int)" 
?AddButton@CVSListBoxBase@@QAAHIPBGGEI@Z => Microsoft (R) C++ Name Undecorator Copyright (C) Microsoft Corporation. All rights reserved.  Undecoration of :- "?AddButton@CVSListBoxBase@@QAAHIPBGGEI@Z" is :- "public: int __cdecl CVSListBoxBase::AddButton(unsigned int,unsigned short const *,unsigned short,unsigned char,unsigned int)" 
?AddCategory@CMFCRibbonBar@@QAAPAVCMFCRibbonCategory@@PB_WIIVCSize@@1HPAUCRuntimeClass@@@Z => Microsoft (R) C++ Name Undecorator Copyright (C) Microsoft Corporation. All rights reserved.  Undecoration of :- "?AddCategory@CMFCRibbonBar@@QAAPAVCMFCRibbonCategory@@PB_WIIVCSize@@1HPAUCRuntimeClass@@@Z" is :- "public: class CMFCRibbonCategory * __cdecl CMFCRibbonBar::AddCategory(wchar_t const *,unsigned int,unsigned int,class CSize,class CSize,int,struct CRuntimeClass *)" 
?AddCategory@CMFCRibbonBar@@QAAPAVCMFCRibbonCategory@@PBGIIVCSize@@1HPAUCRuntimeClass@@@Z => Microsoft (R) C++ Name Undecorator Copyright (C) Microsoft Corporation. All rights reserved.  Undecoration of :- "?AddCategory@CMFCRibbonBar@@QAAPAVCMFCRibbonCategory@@PBGIIVCSize@@1HPAUCRuntimeClass@@@Z" is :- "public: class CMFCRibbonCategory * __cdecl CMFCRibbonBar::AddCategory(unsigned short const *,unsigned int,unsigned int,class CSize,class CSize,int,struct CRuntimeClass *)" 
?AddCheckButton@CFileDialog@@QAAJKABV?$CStringT@_WV?$StrTraitMFC_DLL@_WV?$ChTraitsCRT@_W@ATL@@@@@ATL@@H@Z => Microsoft (R) C++ Name Undecorator Copyright (C) Microsoft Corporation. All rights reserved.  Undecoration of :- "?AddCheckButton@CFileDialog@@QAAJKABV?$CStringT@_WV?$StrTraitMFC_DLL@_WV?$ChTraitsCRT@_W@ATL@@@@@ATL@@H@Z" is :- "public: long __cdecl CFileDialog::AddCheckButton(unsigned long,class ATL::CStringT<wchar_t,class StrTraitMFC_DLL<wchar_t,class ATL::ChTraitsCRT<wchar_t> > > const &,int)" 
?AddCheckButton@CFileDialog@@QAAJKABV?$CStringT@GV?$StrTraitMFC_DLL@GV?$ChTraitsCRT@G@ATL@@@@@ATL@@H@Z => Microsoft (R) C++ Name Undecorator Copyright (C) Microsoft Corporation. All rights reserved.  Undecoration of :- "?AddCheckButton@CFileDialog@@QAAJKABV?$CStringT@GV?$StrTraitMFC_DLL@GV?$ChTraitsCRT@G@ATL@@@@@ATL@@H@Z" is :- "public: long __cdecl CFileDialog::AddCheckButton(unsigned long,class ATL::CStringT<unsigned short,class StrTraitMFC_DLL<unsigned short,class ATL::ChTraitsCRT<unsigned short> > > const &,int)" 
?AddColorsGroup@CMFCRibbonColorButton@@QAAXPB_WABV?$CList@KK@@H@Z => Microsoft (R) C++ Name Undecorator Copyright (C) Microsoft Corporation. All rights reserved.  Undecoration of :- "?AddColorsGroup@CMFCRibbonColorButton@@QAAXPB_WABV?$CList@KK@@H@Z" is :- "public: void __cdecl CMFCRibbonColorButton::AddColorsGroup(wchar_t const *,class CList<unsigned long,unsigned long> const &,int)" 
?AddColorsGroup@CMFCRibbonColorButton@@QAAXPBGABV?$CList@KK@@H@Z => Microsoft (R) C++ Name Undecorator Copyright (C) Microsoft Corporation. All rights reserved.  Undecoration of :- "?AddColorsGroup@CMFCRibbonColorButton@@QAAXPBGABV?$CList@KK@@H@Z" is :- "public: void __cdecl CMFCRibbonColorButton::AddColorsGroup(unsigned short const *,class CList<unsigned long,unsigned long> const &,int)" 
?AddCommandControl@CTaskDialog@@QAAXHABV?$CStringT@_WV?$StrTraitMFC_DLL@_WV?$ChTraitsCRT@_W@ATL@@@@@ATL@@HH@Z => Microsoft (R) C++ Name Undecorator Copyright (C) Microsoft Corporation. All rights reserved.  Undecoration of :- "?AddCommandControl@CTaskDialog@@QAAXHABV?$CStringT@_WV?$StrTraitMFC_DLL@_WV?$ChTraitsCRT@_W@ATL@@@@@ATL@@HH@Z" is :- "public: void __cdecl CTaskDialog::AddCommandControl(int,class ATL::CStringT<wchar_t,class StrTraitMFC_DLL<wchar_t,class ATL::ChTraitsCRT<wchar_t> > > const &,int,int)" 
?AddCommandControl@CTaskDialog@@QAAXHABV?$CStringT@GV?$StrTraitMFC_DLL@GV?$ChTraitsCRT@G@ATL@@@@@ATL@@HH@Z => Microsoft (R) C++ Name Undecorator Copyright (C) Microsoft Corporation. All rights reserved.  Undecoration of :- "?AddCommandControl@CTaskDialog@@QAAXHABV?$CStringT@GV?$StrTraitMFC_DLL@GV?$ChTraitsCRT@G@ATL@@@@@ATL@@HH@Z" is :- "public: void __cdecl CTaskDialog::AddCommandControl(int,class ATL::CStringT<unsigned short,class StrTraitMFC_DLL<unsigned short,class ATL::ChTraitsCRT<unsigned short> > > const &,int,int)" 
?AddContextCategory@CMFCRibbonBar@@QAAPAVCMFCRibbonCategory@@PB_W0IW4AFX_RibbonCategoryColor@@IIVCSize@@2PAUCRuntimeClass@@@Z => Microsoft (R) C++ Name Undecorator Copyright (C) Microsoft Corporation. All rights reserved.  Undecoration of :- "?AddContextCategory@CMFCRibbonBar@@QAAPAVCMFCRibbonCategory@@PB_W0IW4AFX_RibbonCategoryColor@@IIVCSize@@2PAUCRuntimeClass@@@Z" is :- "public: class CMFCRibbonCategory * __cdecl CMFCRibbonBar::AddContextCategory(wchar_t const *,wchar_t const *,unsigned int,enum AFX_RibbonCategoryColor,unsigned int,unsigned int,class CSize,class CSize,struct CRuntimeClass *)" 
?AddContextCategory@CMFCRibbonBar@@QAAPAVCMFCRibbonCategory@@PBG0IW4AFX_RibbonCategoryColor@@IIVCSize@@2PAUCRuntimeClass@@@Z => Microsoft (R) C++ Name Undecorator Copyright (C) Microsoft Corporation. All rights reserved.  Undecoration of :- "?AddContextCategory@CMFCRibbonBar@@QAAPAVCMFCRibbonCategory@@PBG0IW4AFX_RibbonCategoryColor@@IIVCSize@@2PAUCRuntimeClass@@@Z" is :- "public: class CMFCRibbonCategory * __cdecl CMFCRibbonBar::AddContextCategory(unsigned short const *,unsigned short const *,unsigned int,enum AFX_RibbonCategoryColor,unsigned int,unsigned int,class CSize,class CSize,struct CRuntimeClass *)" 
?AddControl@CMFCOutlookBarTabCtrl@@QAAXPAVCWnd@@PB_WHHK@Z => Microsoft (R) C++ Name Undecorator Copyright (C) Microsoft Corporation. All rights reserved.  Undecoration of :- "?AddControl@CMFCOutlookBarTabCtrl@@QAAXPAVCWnd@@PB_WHHK@Z" is :- "public: void __cdecl CMFCOutlookBarTabCtrl::AddControl(class CWnd *,wchar_t const *,int,int,unsigned long)" 
?AddControl@CMFCOutlookBarTabCtrl@@QAAXPAVCWnd@@PBGHHK@Z => Microsoft (R) C++ Name Undecorator Copyright (C) Microsoft Corporation. All rights reserved.  Undecoration of :- "?AddControl@CMFCOutlookBarTabCtrl@@QAAXPAVCWnd@@PBGHHK@Z" is :- "public: void __cdecl CMFCOutlookBarTabCtrl::AddControl(class CWnd *,unsigned short const *,int,int,unsigned long)" 
?AddControlItem@CFileDialog@@QAAJKKABV?$CStringT@_WV?$StrTraitMFC_DLL@_WV?$ChTraitsCRT@_W@ATL@@@@@ATL@@@Z => Microsoft (R) C++ Name Undecorator Copyright (C) Microsoft Corporation. All rights reserved.  Undecoration of :- "?AddControlItem@CFileDialog@@QAAJKKABV?$CStringT@_WV?$StrTraitMFC_DLL@_WV?$ChTraitsCRT@_W@ATL@@@@@ATL@@@Z" is :- "public: long __cdecl CFileDialog::AddControlItem(unsigned long,unsigned long,class ATL::CStringT<wchar_t,class StrTraitMFC_DLL<wchar_t,class ATL::ChTraitsCRT<wchar_t> > > const &)" 
?AddControlItem@CFileDialog@@QAAJKKABV?$CStringT@GV?$StrTraitMFC_DLL@GV?$ChTraitsCRT@G@ATL@@@@@ATL@@@Z => Microsoft (R) C++ Name Undecorator Copyright (C) Microsoft Corporation. All rights reserved.  Undecoration of :- "?AddControlItem@CFileDialog@@QAAJKKABV?$CStringT@GV?$StrTraitMFC_DLL@GV?$ChTraitsCRT@G@ATL@@@@@ATL@@@Z" is :- "public: long __cdecl CFileDialog::AddControlItem(unsigned long,unsigned long,class ATL::CStringT<unsigned short,class StrTraitMFC_DLL<unsigned short,class ATL::ChTraitsCRT<unsigned short> > > const &)" 
?AddCustomCategory@CMFCRibbonCustomizePropertyPage@@QAAXPB_WABV?$CList@II@@@Z => Microsoft (R) C++ Name Undecorator Copyright (C) Microsoft Corporation. All rights reserved.  Undecoration of :- "?AddCustomCategory@CMFCRibbonCustomizePropertyPage@@QAAXPB_WABV?$CList@II@@@Z" is :- "public: void __cdecl CMFCRibbonCustomizePropertyPage::AddCustomCategory(wchar_t const *,class CList<unsigned int,unsigned int> const &)" 
?AddCustomCategory@CMFCRibbonCustomizePropertyPage@@QAAXPBGABV?$CList@II@@@Z => Microsoft (R) C++ Name Undecorator Copyright (C) Microsoft Corporation. All rights reserved.  Undecoration of :- "?AddCustomCategory@CMFCRibbonCustomizePropertyPage@@QAAXPBGABV?$CList@II@@@Z" is :- "public: void __cdecl CMFCRibbonCustomizePropertyPage::AddCustomCategory(unsigned short const *,class CList<unsigned int,unsigned int> const &)" 
?AddDestination@CJumpList@@QAAHPB_W0@Z => Microsoft (R) C++ Name Undecorator Copyright (C) Microsoft Corporation. All rights reserved.  Undecoration of :- "?AddDestination@CJumpList@@QAAHPB_W0@Z" is :- "public: int __cdecl CJumpList::AddDestination(wchar_t const *,wchar_t const *)" 
?AddDestination@CJumpList@@QAAHPB_WPAUIShellItem@@@Z => Microsoft (R) C++ Name Undecorator Copyright (C) Microsoft Corporation. All rights reserved.  Undecoration of :- "?AddDestination@CJumpList@@QAAHPB_WPAUIShellItem@@@Z" is :- "public: int __cdecl CJumpList::AddDestination(wchar_t const *,struct IShellItem *)" 
?AddDestination@CJumpList@@QAAHPB_WPAUIShellLinkW@@@Z => Microsoft (R) C++ Name Undecorator Copyright (C) Microsoft Corporation. All rights reserved.  Undecoration of :- "?AddDestination@CJumpList@@QAAHPB_WPAUIShellLinkW@@@Z" is :- "public: int __cdecl CJumpList::AddDestination(wchar_t const *,struct IShellLinkW *)" 
?AddDestination@CJumpList@@QAAHPBG0@Z => Microsoft (R) C++ Name Undecorator Copyright (C) Microsoft Corporation. All rights reserved.  Undecoration of :- "?AddDestination@CJumpList@@QAAHPBG0@Z" is :- "public: int __cdecl CJumpList::AddDestination(unsigned short const *,unsigned short const *)" 
?AddDestination@CJumpList@@QAAHPBGPAUIShellItem@@@Z => Microsoft (R) C++ Name Undecorator Copyright (C) Microsoft Corporation. All rights reserved.  Undecoration of :- "?AddDestination@CJumpList@@QAAHPBGPAUIShellItem@@@Z" is :- "public: int __cdecl CJumpList::AddDestination(unsigned short const *,struct IShellItem *)" 
?AddDestination@CJumpList@@QAAHPBGPAUIShellLinkW@@@Z => Microsoft (R) C++ Name Undecorator Copyright (C) Microsoft Corporation. All rights reserved.  Undecoration of :- "?AddDestination@CJumpList@@QAAHPBGPAUIShellLinkW@@@Z" is :- "public: int __cdecl CJumpList::AddDestination(unsigned short const *,struct IShellLinkW *)" 
?AddEditBox@CFileDialog@@QAAJKABV?$CStringT@_WV?$StrTraitMFC_DLL@_WV?$ChTraitsCRT@_W@ATL@@@@@ATL@@@Z => Microsoft (R) C++ Name Undecorator Copyright (C) Microsoft Corporation. All rights reserved.  Undecoration of :- "?AddEditBox@CFileDialog@@QAAJKABV?$CStringT@_WV?$StrTraitMFC_DLL@_WV?$ChTraitsCRT@_W@ATL@@@@@ATL@@@Z" is :- "public: long __cdecl CFileDialog::AddEditBox(unsigned long,class ATL::CStringT<wchar_t,class StrTraitMFC_DLL<wchar_t,class ATL::ChTraitsCRT<wchar_t> > > const &)" 
?AddEditBox@CFileDialog@@QAAJKABV?$CStringT@GV?$StrTraitMFC_DLL@GV?$ChTraitsCRT@G@ATL@@@@@ATL@@@Z => Microsoft (R) C++ Name Undecorator Copyright (C) Microsoft Corporation. All rights reserved.  Undecoration of :- "?AddEditBox@CFileDialog@@QAAJKABV?$CStringT@GV?$StrTraitMFC_DLL@GV?$ChTraitsCRT@G@ATL@@@@@ATL@@@Z" is :- "public: long __cdecl CFileDialog::AddEditBox(unsigned long,class ATL::CStringT<unsigned short,class StrTraitMFC_DLL<unsigned short,class ATL::ChTraitsCRT<unsigned short> > > const &)" 
?AddElement@CMFCRibbonStatusBar@@QAAXPAVCMFCRibbonBaseElement@@PB_WH@Z => Microsoft (R) C++ Name Undecorator Copyright (C) Microsoft Corporation. All rights reserved.  Undecoration of :- "?AddElement@CMFCRibbonStatusBar@@QAAXPAVCMFCRibbonBaseElement@@PB_WH@Z" is :- "public: void __cdecl CMFCRibbonStatusBar::AddElement(class CMFCRibbonBaseElement *,wchar_t const *,int)" 
?AddElement@CMFCRibbonStatusBar@@QAAXPAVCMFCRibbonBaseElement@@PBGH@Z => Microsoft (R) C++ Name Undecorator Copyright (C) Microsoft Corporation. All rights reserved.  Undecoration of :- "?AddElement@CMFCRibbonStatusBar@@QAAXPAVCMFCRibbonBaseElement@@PBGH@Z" is :- "public: void __cdecl CMFCRibbonStatusBar::AddElement(class CMFCRibbonBaseElement *,unsigned short const *,int)" 
?AddExtendedElement@CMFCRibbonStatusBar@@QAAXPAVCMFCRibbonBaseElement@@PB_WH@Z => Microsoft (R) C++ Name Undecorator Copyright (C) Microsoft Corporation. All rights reserved.  Undecoration of :- "?AddExtendedElement@CMFCRibbonStatusBar@@QAAXPAVCMFCRibbonBaseElement@@PB_WH@Z" is :- "public: void __cdecl CMFCRibbonStatusBar::AddExtendedElement(class CMFCRibbonBaseElement *,wchar_t const *,int)" 
?AddExtendedElement@CMFCRibbonStatusBar@@QAAXPAVCMFCRibbonBaseElement@@PBGH@Z => Microsoft (R) C++ Name Undecorator Copyright (C) Microsoft Corporation. All rights reserved.  Undecoration of :- "?AddExtendedElement@CMFCRibbonStatusBar@@QAAXPAVCMFCRibbonBaseElement@@PBGH@Z" is :- "public: void __cdecl CMFCRibbonStatusBar::AddExtendedElement(class CMFCRibbonBaseElement *,unsigned short const *,int)" 
?AddFont@CMFCToolBarFontComboBox@@MAAHPAUtagENUMLOGFONTW@@HPB_W@Z => Microsoft (R) C++ Name Undecorator Copyright (C) Microsoft Corporation. All rights reserved.  Undecoration of :- "?AddFont@CMFCToolBarFontComboBox@@MAAHPAUtagENUMLOGFONTW@@HPB_W@Z" is :- "protected: virtual int __cdecl CMFCToolBarFontComboBox::AddFont(struct tagENUMLOGFONTW *,int,wchar_t const *)" 
?AddFont@CMFCToolBarFontComboBox@@MAAHPAUtagENUMLOGFONTW@@HPBG@Z => Microsoft (R) C++ Name Undecorator Copyright (C) Microsoft Corporation. All rights reserved.  Undecoration of :- "?AddFont@CMFCToolBarFontComboBox@@MAAHPAUtagENUMLOGFONTW@@HPBG@Z" is :- "protected: virtual int __cdecl CMFCToolBarFontComboBox::AddFont(struct tagENUMLOGFONTW *,int,unsigned short const *)" 
?AddFormat@COlePasteSpecialDialog@@QAAXABUtagFORMATETC@@PA_W1K@Z => Microsoft (R) C++ Name Undecorator Copyright (C) Microsoft Corporation. All rights reserved.  Undecoration of :- "?AddFormat@COlePasteSpecialDialog@@QAAXABUtagFORMATETC@@PA_W1K@Z" is :- "public: void __cdecl COlePasteSpecialDialog::AddFormat(struct tagFORMATETC const &,wchar_t *,wchar_t *,unsigned long)" 
?AddFormat@COlePasteSpecialDialog@@QAAXABUtagFORMATETC@@PAG1K@Z => Microsoft (R) C++ Name Undecorator Copyright (C) Microsoft Corporation. All rights reserved.  Undecoration of :- "?AddFormat@COlePasteSpecialDialog@@QAAXABUtagFORMATETC@@PAG1K@Z" is :- "public: void __cdecl COlePasteSpecialDialog::AddFormat(struct tagFORMATETC const &,unsigned short *,unsigned short *,unsigned long)" 
?AddGroup@CMFCRibbonGallery@@QAAXPB_WAAVCMFCToolBarImages@@@Z => Microsoft (R) C++ Name Undecorator Copyright (C) Microsoft Corporation. All rights reserved.  Undecoration of :- "?AddGroup@CMFCRibbonGallery@@QAAXPB_WAAVCMFCToolBarImages@@@Z" is :- "public: void __cdecl CMFCRibbonGallery::AddGroup(wchar_t const *,class CMFCToolBarImages &)" 
?AddGroup@CMFCRibbonGallery@@QAAXPB_WH@Z => Microsoft (R) C++ Name Undecorator Copyright (C) Microsoft Corporation. All rights reserved.  Undecoration of :- "?AddGroup@CMFCRibbonGallery@@QAAXPB_WH@Z" is :- "public: void __cdecl CMFCRibbonGallery::AddGroup(wchar_t const *,int)" 
?AddGroup@CMFCRibbonGallery@@QAAXPB_WIH@Z => Microsoft (R) C++ Name Undecorator Copyright (C) Microsoft Corporation. All rights reserved.  Undecoration of :- "?AddGroup@CMFCRibbonGallery@@QAAXPB_WIH@Z" is :- "public: void __cdecl CMFCRibbonGallery::AddGroup(wchar_t const *,unsigned int,int)" 
?AddGroup@CMFCRibbonGallery@@QAAXPBGAAVCMFCToolBarImages@@@Z => Microsoft (R) C++ Name Undecorator Copyright (C) Microsoft Corporation. All rights reserved.  Undecoration of :- "?AddGroup@CMFCRibbonGallery@@QAAXPBGAAVCMFCToolBarImages@@@Z" is :- "public: void __cdecl CMFCRibbonGallery::AddGroup(unsigned short const *,class CMFCToolBarImages &)" 
?AddGroup@CMFCRibbonGallery@@QAAXPBGH@Z => Microsoft (R) C++ Name Undecorator Copyright (C) Microsoft Corporation. All rights reserved.  Undecoration of :- "?AddGroup@CMFCRibbonGallery@@QAAXPBGH@Z" is :- "public: void __cdecl CMFCRibbonGallery::AddGroup(unsigned short const *,int)" 
?AddGroup@CMFCRibbonGallery@@QAAXPBGIH@Z => Microsoft (R) C++ Name Undecorator Copyright (C) Microsoft Corporation. All rights reserved.  Undecoration of :- "?AddGroup@CMFCRibbonGallery@@QAAXPBGIH@Z" is :- "public: void __cdecl CMFCRibbonGallery::AddGroup(unsigned short const *,unsigned int,int)" 
?AddGroup@CMFCTasksPane@@QAAHHPB_WHHPAUHICON__@@@Z => Microsoft (R) C++ Name Undecorator Copyright (C) Microsoft Corporation. All rights reserved.  Undecoration of :- "?AddGroup@CMFCTasksPane@@QAAHHPB_WHHPAUHICON__@@@Z" is :- "public: int __cdecl CMFCTasksPane::AddGroup(int,wchar_t const *,int,int,struct HICON__ *)" 
?AddGroup@CMFCTasksPane@@QAAHHPBGHHPAUHICON__@@@Z => Microsoft (R) C++ Name Undecorator Copyright (C) Microsoft Corporation. All rights reserved.  Undecoration of :- "?AddGroup@CMFCTasksPane@@QAAHHPBGHHPAUHICON__@@@Z" is :- "public: int __cdecl CMFCTasksPane::AddGroup(int,unsigned short const *,int,int,struct HICON__ *)" 
?AddHead@CStringList@@QAAPAU__POSITION@@ABV?$CStringT@_WV?$StrTraitMFC_DLL@_WV?$ChTraitsCRT@_W@ATL@@@@@ATL@@@Z => Microsoft (R) C++ Name Undecorator Copyright (C) Microsoft Corporation. All rights reserved.  Undecoration of :- "?AddHead@CStringList@@QAAPAU__POSITION@@ABV?$CStringT@_WV?$StrTraitMFC_DLL@_WV?$ChTraitsCRT@_W@ATL@@@@@ATL@@@Z" is :- "public: struct __POSITION * __cdecl CStringList::AddHead(class ATL::CStringT<wchar_t,class StrTraitMFC_DLL<wchar_t,class ATL::ChTraitsCRT<wchar_t> > > const &)" 
?AddHead@CStringList@@QAAPAU__POSITION@@ABV?$CStringT@GV?$StrTraitMFC_DLL@GV?$ChTraitsCRT@G@ATL@@@@@ATL@@@Z => Microsoft (R) C++ Name Undecorator Copyright (C) Microsoft Corporation. All rights reserved.  Undecoration of :- "?AddHead@CStringList@@QAAPAU__POSITION@@ABV?$CStringT@GV?$StrTraitMFC_DLL@GV?$ChTraitsCRT@G@ATL@@@@@ATL@@@Z" is :- "public: struct __POSITION * __cdecl CStringList::AddHead(class ATL::CStringT<unsigned short,class StrTraitMFC_DLL<unsigned short,class ATL::ChTraitsCRT<unsigned short> > > const &)" 
?AddHead@CStringList@@QAAPAU__POSITION@@PB_W@Z => Microsoft (R) C++ Name Undecorator Copyright (C) Microsoft Corporation. All rights reserved.  Undecoration of :- "?AddHead@CStringList@@QAAPAU__POSITION@@PB_W@Z" is :- "public: struct __POSITION * __cdecl CStringList::AddHead(wchar_t const *)" 
?AddHead@CStringList@@QAAPAU__POSITION@@PBG@Z => Microsoft (R) C++ Name Undecorator Copyright (C) Microsoft Corporation. All rights reserved.  Undecoration of :- "?AddHead@CStringList@@QAAPAU__POSITION@@PBG@Z" is :- "public: struct __POSITION * __cdecl CStringList::AddHead(unsigned short const *)" 
?AddItem@CMFCRibbonComboBox@@UAAHPB_WK@Z => Microsoft (R) C++ Name Undecorator Copyright (C) Microsoft Corporation. All rights reserved.  Undecoration of :- "?AddItem@CMFCRibbonComboBox@@UAAHPB_WK@Z" is :- "public: virtual int __cdecl CMFCRibbonComboBox::AddItem(wchar_t const *,unsigned long)" 
?AddItem@CMFCRibbonComboBox@@UAAHPBGK@Z => Microsoft (R) C++ Name Undecorator Copyright (C) Microsoft Corporation. All rights reserved.  Undecoration of :- "?AddItem@CMFCRibbonComboBox@@UAAHPBGK@Z" is :- "public: virtual int __cdecl CMFCRibbonComboBox::AddItem(unsigned short const *,unsigned long)" 
?AddItem@CMFCToolBarComboBoxButton@@UAAHPB_WK@Z => Microsoft (R) C++ Name Undecorator Copyright (C) Microsoft Corporation. All rights reserved.  Undecoration of :- "?AddItem@CMFCToolBarComboBoxButton@@UAAHPB_WK@Z" is :- "public: virtual int __cdecl CMFCToolBarComboBoxButton::AddItem(wchar_t const *,unsigned long)" 
?AddItem@CMFCToolBarComboBoxButton@@UAAHPBGK@Z => Microsoft (R) C++ Name Undecorator Copyright (C) Microsoft Corporation. All rights reserved.  Undecoration of :- "?AddItem@CMFCToolBarComboBoxButton@@UAAHPBGK@Z" is :- "public: virtual int __cdecl CMFCToolBarComboBoxButton::AddItem(unsigned short const *,unsigned long)" 
?AddItem@CVSListBox@@UAAHABV?$CStringT@_WV?$StrTraitMFC_DLL@_WV?$ChTraitsCRT@_W@ATL@@@@@ATL@@KH@Z => Microsoft (R) C++ Name Undecorator Copyright (C) Microsoft Corporation. All rights reserved.  Undecoration of :- "?AddItem@CVSListBox@@UAAHABV?$CStringT@_WV?$StrTraitMFC_DLL@_WV?$ChTraitsCRT@_W@ATL@@@@@ATL@@KH@Z" is :- "public: virtual int __cdecl CVSListBox::AddItem(class ATL::CStringT<wchar_t,class StrTraitMFC_DLL<wchar_t,class ATL::ChTraitsCRT<wchar_t> > > const &,unsigned long,int)" 
?AddItem@CVSListBox@@UAAHABV?$CStringT@GV?$StrTraitMFC_DLL@GV?$ChTraitsCRT@G@ATL@@@@@ATL@@KH@Z => Microsoft (R) C++ Name Undecorator Copyright (C) Microsoft Corporation. All rights reserved.  Undecoration of :- "?AddItem@CVSListBox@@UAAHABV?$CStringT@GV?$StrTraitMFC_DLL@GV?$ChTraitsCRT@G@ATL@@@@@ATL@@KH@Z" is :- "public: virtual int __cdecl CVSListBox::AddItem(class ATL::CStringT<unsigned short,class StrTraitMFC_DLL<unsigned short,class ATL::ChTraitsCRT<unsigned short> > > const &,unsigned long,int)" 
?AddMainCategory@CMFCRibbonBar@@QAAPAVCMFCRibbonMainPanel@@PB_WIIVCSize@@1PAUCRuntimeClass@@@Z => Microsoft (R) C++ Name Undecorator Copyright (C) Microsoft Corporation. All rights reserved.  Undecoration of :- "?AddMainCategory@CMFCRibbonBar@@QAAPAVCMFCRibbonMainPanel@@PB_WIIVCSize@@1PAUCRuntimeClass@@@Z" is :- "public: class CMFCRibbonMainPanel * __cdecl CMFCRibbonBar::AddMainCategory(wchar_t const *,unsigned int,unsigned int,class CSize,class CSize,struct CRuntimeClass *)" 
?AddMainCategory@CMFCRibbonBar@@QAAPAVCMFCRibbonMainPanel@@PBGIIVCSize@@1PAUCRuntimeClass@@@Z => Microsoft (R) C++ Name Undecorator Copyright (C) Microsoft Corporation. All rights reserved.  Undecoration of :- "?AddMainCategory@CMFCRibbonBar@@QAAPAVCMFCRibbonMainPanel@@PBGIIVCSize@@1PAUCRuntimeClass@@@Z" is :- "public: class CMFCRibbonMainPanel * __cdecl CMFCRibbonBar::AddMainCategory(unsigned short const *,unsigned int,unsigned int,class CSize,class CSize,struct CRuntimeClass *)" 
?AddMenu@CContextMenuManager@@QAAHPB_WI@Z => Microsoft (R) C++ Name Undecorator Copyright (C) Microsoft Corporation. All rights reserved.  Undecoration of :- "?AddMenu@CContextMenuManager@@QAAHPB_WI@Z" is :- "public: int __cdecl CContextMenuManager::AddMenu(wchar_t const *,unsigned int)" 
?AddMenu@CContextMenuManager@@QAAHPBGI@Z => Microsoft (R) C++ Name Undecorator Copyright (C) Microsoft Corporation. All rights reserved.  Undecoration of :- "?AddMenu@CContextMenuManager@@QAAHPBGI@Z" is :- "public: int __cdecl CContextMenuManager::AddMenu(unsigned short const *,unsigned int)" 
?AddMenu@CFileDialog@@QAAJKABV?$CStringT@_WV?$StrTraitMFC_DLL@_WV?$ChTraitsCRT@_W@ATL@@@@@ATL@@@Z => Microsoft (R) C++ Name Undecorator Copyright (C) Microsoft Corporation. All rights reserved.  Undecoration of :- "?AddMenu@CFileDialog@@QAAJKABV?$CStringT@_WV?$StrTraitMFC_DLL@_WV?$ChTraitsCRT@_W@ATL@@@@@ATL@@@Z" is :- "public: long __cdecl CFileDialog::AddMenu(unsigned long,class ATL::CStringT<wchar_t,class StrTraitMFC_DLL<wchar_t,class ATL::ChTraitsCRT<wchar_t> > > const &)" 
?AddMenu@CFileDialog@@QAAJKABV?$CStringT@GV?$StrTraitMFC_DLL@GV?$ChTraitsCRT@G@ATL@@@@@ATL@@@Z => Microsoft (R) C++ Name Undecorator Copyright (C) Microsoft Corporation. All rights reserved.  Undecoration of :- "?AddMenu@CFileDialog@@QAAJKABV?$CStringT@GV?$StrTraitMFC_DLL@GV?$ChTraitsCRT@G@ATL@@@@@ATL@@@Z" is :- "public: long __cdecl CFileDialog::AddMenu(unsigned long,class ATL::CStringT<unsigned short,class StrTraitMFC_DLL<unsigned short,class ATL::ChTraitsCRT<unsigned short> > > const &)" 
?AddMenuCommands@CMFCToolBarsCustomizeDialog@@QAAXPBVCMenu@@HPB_W1@Z => Microsoft (R) C++ Name Undecorator Copyright (C) Microsoft Corporation. All rights reserved.  Undecoration of :- "?AddMenuCommands@CMFCToolBarsCustomizeDialog@@QAAXPBVCMenu@@HPB_W1@Z" is :- "public: void __cdecl CMFCToolBarsCustomizeDialog::AddMenuCommands(class CMenu const *,int,wchar_t const *,wchar_t const *)" 
?AddMenuCommands@CMFCToolBarsCustomizeDialog@@QAAXPBVCMenu@@HPBG1@Z => Microsoft (R) C++ Name Undecorator Copyright (C) Microsoft Corporation. All rights reserved.  Undecoration of :- "?AddMenuCommands@CMFCToolBarsCustomizeDialog@@QAAXPBVCMenu@@HPBG1@Z" is :- "public: void __cdecl CMFCToolBarsCustomizeDialog::AddMenuCommands(class CMenu const *,int,unsigned short const *,unsigned short const *)" 
?AddOption@CMFCPropertyGridProperty@@QAAHPB_WH@Z => Microsoft (R) C++ Name Undecorator Copyright (C) Microsoft Corporation. All rights reserved.  Undecoration of :- "?AddOption@CMFCPropertyGridProperty@@QAAHPB_WH@Z" is :- "public: int __cdecl CMFCPropertyGridProperty::AddOption(wchar_t const *,int)" 
?AddOption@CMFCPropertyGridProperty@@QAAHPBGH@Z => Microsoft (R) C++ Name Undecorator Copyright (C) Microsoft Corporation. All rights reserved.  Undecoration of :- "?AddOption@CMFCPropertyGridProperty@@QAAHPBGH@Z" is :- "public: int __cdecl CMFCPropertyGridProperty::AddOption(unsigned short const *,int)" 
?AddPage@CMFCTasksPane@@QAAHPB_W@Z => Microsoft (R) C++ Name Undecorator Copyright (C) Microsoft Corporation. All rights reserved.  Undecoration of :- "?AddPage@CMFCTasksPane@@QAAHPB_W@Z" is :- "public: int __cdecl CMFCTasksPane::AddPage(wchar_t const *)" 
?AddPage@CMFCTasksPane@@QAAHPBG@Z => Microsoft (R) C++ Name Undecorator Copyright (C) Microsoft Corporation. All rights reserved.  Undecoration of :- "?AddPage@CMFCTasksPane@@QAAHPBG@Z" is :- "public: int __cdecl CMFCTasksPane::AddPage(unsigned short const *)" 
?AddPanel@CMFCRibbonCategory@@QAAPAVCMFCRibbonPanel@@PB_WPAUHICON__@@PAUCRuntimeClass@@@Z => Microsoft (R) C++ Name Undecorator Copyright (C) Microsoft Corporation. All rights reserved.  Undecoration of :- "?AddPanel@CMFCRibbonCategory@@QAAPAVCMFCRibbonPanel@@PB_WPAUHICON__@@PAUCRuntimeClass@@@Z" is :- "public: class CMFCRibbonPanel * __cdecl CMFCRibbonCategory::AddPanel(wchar_t const *,struct HICON__ *,struct CRuntimeClass *)" 
?AddPanel@CMFCRibbonCategory@@QAAPAVCMFCRibbonPanel@@PBGPAUHICON__@@PAUCRuntimeClass@@@Z => Microsoft (R) C++ Name Undecorator Copyright (C) Microsoft Corporation. All rights reserved.  Undecoration of :- "?AddPanel@CMFCRibbonCategory@@QAAPAVCMFCRibbonPanel@@PBGPAUHICON__@@PAUCRuntimeClass@@@Z" is :- "public: class CMFCRibbonPanel * __cdecl CMFCRibbonCategory::AddPanel(unsigned short const *,struct HICON__ *,struct CRuntimeClass *)" 
?AddPlace@CFileDialog@@QAAXPB_WW4FDAP@@@Z => Microsoft (R) C++ Name Undecorator Copyright (C) Microsoft Corporation. All rights reserved.  Undecoration of :- "?AddPlace@CFileDialog@@QAAXPB_WW4FDAP@@@Z" is :- "public: void __cdecl CFileDialog::AddPlace(wchar_t const *,enum FDAP)" 
?AddPlace@CFileDialog@@QAAXPBGW4FDAP@@@Z => Microsoft (R) C++ Name Undecorator Copyright (C) Microsoft Corporation. All rights reserved.  Undecoration of :- "?AddPlace@CFileDialog@@QAAXPBGW4FDAP@@@Z" is :- "public: void __cdecl CFileDialog::AddPlace(unsigned short const *,enum FDAP)" 
?AddPushButton@CFileDialog@@QAAJKABV?$CStringT@_WV?$StrTraitMFC_DLL@_WV?$ChTraitsCRT@_W@ATL@@@@@ATL@@@Z => Microsoft (R) C++ Name Undecorator Copyright (C) Microsoft Corporation. All rights reserved.  Undecoration of :- "?AddPushButton@CFileDialog@@QAAJKABV?$CStringT@_WV?$StrTraitMFC_DLL@_WV?$ChTraitsCRT@_W@ATL@@@@@ATL@@@Z" is :- "public: long __cdecl CFileDialog::AddPushButton(unsigned long,class ATL::CStringT<wchar_t,class StrTraitMFC_DLL<wchar_t,class ATL::ChTraitsCRT<wchar_t> > > const &)" 
?AddPushButton@CFileDialog@@QAAJKABV?$CStringT@GV?$StrTraitMFC_DLL@GV?$ChTraitsCRT@G@ATL@@@@@ATL@@@Z => Microsoft (R) C++ Name Undecorator Copyright (C) Microsoft Corporation. All rights reserved.  Undecoration of :- "?AddPushButton@CFileDialog@@QAAJKABV?$CStringT@GV?$StrTraitMFC_DLL@GV?$ChTraitsCRT@G@ATL@@@@@ATL@@@Z" is :- "public: long __cdecl CFileDialog::AddPushButton(unsigned long,class ATL::CStringT<unsigned short,class StrTraitMFC_DLL<unsigned short,class ATL::ChTraitsCRT<unsigned short> > > const &)" 
?AddQATOnlyCategory@CMFCRibbonBar@@QAAPAVCMFCRibbonCategory@@PB_WIVCSize@@@Z => Microsoft (R) C++ Name Undecorator Copyright (C) Microsoft Corporation. All rights reserved.  Undecoration of :- "?AddQATOnlyCategory@CMFCRibbonBar@@QAAPAVCMFCRibbonCategory@@PB_WIVCSize@@@Z" is :- "public: class CMFCRibbonCategory * __cdecl CMFCRibbonBar::AddQATOnlyCategory(wchar_t const *,unsigned int,class CSize)" 
?AddQATOnlyCategory@CMFCRibbonBar@@QAAPAVCMFCRibbonCategory@@PBGIVCSize@@@Z => Microsoft (R) C++ Name Undecorator Copyright (C) Microsoft Corporation. All rights reserved.  Undecoration of :- "?AddQATOnlyCategory@CMFCRibbonBar@@QAAPAVCMFCRibbonCategory@@PBGIVCSize@@@Z" is :- "public: class CMFCRibbonCategory * __cdecl CMFCRibbonBar::AddQATOnlyCategory(unsigned short const *,unsigned int,class CSize)" 
?AddRadioButton@CTaskDialog@@QAAXHABV?$CStringT@_WV?$StrTraitMFC_DLL@_WV?$ChTraitsCRT@_W@ATL@@@@@ATL@@H@Z => Microsoft (R) C++ Name Undecorator Copyright (C) Microsoft Corporation. All rights reserved.  Undecoration of :- "?AddRadioButton@CTaskDialog@@QAAXHABV?$CStringT@_WV?$StrTraitMFC_DLL@_WV?$ChTraitsCRT@_W@ATL@@@@@ATL@@H@Z" is :- "public: void __cdecl CTaskDialog::AddRadioButton(int,class ATL::CStringT<wchar_t,class StrTraitMFC_DLL<wchar_t,class ATL::ChTraitsCRT<wchar_t> > > const &,int)" 
?AddRadioButton@CTaskDialog@@QAAXHABV?$CStringT@GV?$StrTraitMFC_DLL@GV?$ChTraitsCRT@G@ATL@@@@@ATL@@H@Z => Microsoft (R) C++ Name Undecorator Copyright (C) Microsoft Corporation. All rights reserved.  Undecoration of :- "?AddRadioButton@CTaskDialog@@QAAXHABV?$CStringT@GV?$StrTraitMFC_DLL@GV?$ChTraitsCRT@G@ATL@@@@@ATL@@H@Z" is :- "public: void __cdecl CTaskDialog::AddRadioButton(int,class ATL::CStringT<unsigned short,class StrTraitMFC_DLL<unsigned short,class ATL::ChTraitsCRT<unsigned short> > > const &,int)" 
?AddRecentFilesList@CMFCRibbonMainPanel@@QAAXPB_WH@Z => Microsoft (R) C++ Name Undecorator Copyright (C) Microsoft Corporation. All rights reserved.  Undecoration of :- "?AddRecentFilesList@CMFCRibbonMainPanel@@QAAXPB_WH@Z" is :- "public: void __cdecl CMFCRibbonMainPanel::AddRecentFilesList(wchar_t const *,int)" 
?AddRecentFilesList@CMFCRibbonMainPanel@@QAAXPBGH@Z => Microsoft (R) C++ Name Undecorator Copyright (C) Microsoft Corporation. All rights reserved.  Undecoration of :- "?AddRecentFilesList@CMFCRibbonMainPanel@@QAAXPBGH@Z" is :- "public: void __cdecl CMFCRibbonMainPanel::AddRecentFilesList(unsigned short const *,int)" 
?AddRequestHeaders@CHttpFile@@QAAHAAV?$CStringT@_WV?$StrTraitMFC_DLL@_WV?$ChTraitsCRT@_W@ATL@@@@@ATL@@K@Z => Microsoft (R) C++ Name Undecorator Copyright (C) Microsoft Corporation. All rights reserved.  Undecoration of :- "?AddRequestHeaders@CHttpFile@@QAAHAAV?$CStringT@_WV?$StrTraitMFC_DLL@_WV?$ChTraitsCRT@_W@ATL@@@@@ATL@@K@Z" is :- "public: int __cdecl CHttpFile::AddRequestHeaders(class ATL::CStringT<wchar_t,class StrTraitMFC_DLL<wchar_t,class ATL::ChTraitsCRT<wchar_t> > > &,unsigned long)" 
?AddRequestHeaders@CHttpFile@@QAAHAAV?$CStringT@GV?$StrTraitMFC_DLL@GV?$ChTraitsCRT@G@ATL@@@@@ATL@@K@Z => Microsoft (R) C++ Name Undecorator Copyright (C) Microsoft Corporation. All rights reserved.  Undecoration of :- "?AddRequestHeaders@CHttpFile@@QAAHAAV?$CStringT@GV?$StrTraitMFC_DLL@GV?$ChTraitsCRT@G@ATL@@@@@ATL@@K@Z" is :- "public: int __cdecl CHttpFile::AddRequestHeaders(class ATL::CStringT<unsigned short,class StrTraitMFC_DLL<unsigned short,class ATL::ChTraitsCRT<unsigned short> > > &,unsigned long)" 
?AddRequestHeaders@CHttpFile@@QAAHPB_WKH@Z => Microsoft (R) C++ Name Undecorator Copyright (C) Microsoft Corporation. All rights reserved.  Undecoration of :- "?AddRequestHeaders@CHttpFile@@QAAHPB_WKH@Z" is :- "public: int __cdecl CHttpFile::AddRequestHeaders(wchar_t const *,unsigned long,int)" 
?AddRequestHeaders@CHttpFile@@QAAHPBGKH@Z => Microsoft (R) C++ Name Undecorator Copyright (C) Microsoft Corporation. All rights reserved.  Undecoration of :- "?AddRequestHeaders@CHttpFile@@QAAHPBGKH@Z" is :- "public: int __cdecl CHttpFile::AddRequestHeaders(unsigned short const *,unsigned long,int)" 
?AddSortedItem@CMFCToolBarComboBoxButton@@UAAHPB_WK@Z => Microsoft (R) C++ Name Undecorator Copyright (C) Microsoft Corporation. All rights reserved.  Undecoration of :- "?AddSortedItem@CMFCToolBarComboBoxButton@@UAAHPB_WK@Z" is :- "public: virtual int __cdecl CMFCToolBarComboBoxButton::AddSortedItem(wchar_t const *,unsigned long)" 
?AddSortedItem@CMFCToolBarComboBoxButton@@UAAHPBGK@Z => Microsoft (R) C++ Name Undecorator Copyright (C) Microsoft Corporation. All rights reserved.  Undecoration of :- "?AddSortedItem@CMFCToolBarComboBoxButton@@UAAHPBGK@Z" is :- "public: virtual int __cdecl CMFCToolBarComboBoxButton::AddSortedItem(unsigned short const *,unsigned long)" 
?AddString@CMFCDropDownListBox@@QAAXPB_W@Z => Microsoft (R) C++ Name Undecorator Copyright (C) Microsoft Corporation. All rights reserved.  Undecoration of :- "?AddString@CMFCDropDownListBox@@QAAXPB_W@Z" is :- "public: void __cdecl CMFCDropDownListBox::AddString(wchar_t const *)" 
?AddString@CMFCDropDownListBox@@QAAXPBG@Z => Microsoft (R) C++ Name Undecorator Copyright (C) Microsoft Corporation. All rights reserved.  Undecoration of :- "?AddString@CMFCDropDownListBox@@QAAXPBG@Z" is :- "public: void __cdecl CMFCDropDownListBox::AddString(unsigned short const *)" 
?AddTab@CMFCBaseTabCtrl@@UAAXPAVCWnd@@PB_WIH@Z => Microsoft (R) C++ Name Undecorator Copyright (C) Microsoft Corporation. All rights reserved.  Undecoration of :- "?AddTab@CMFCBaseTabCtrl@@UAAXPAVCWnd@@PB_WIH@Z" is :- "public: virtual void __cdecl CMFCBaseTabCtrl::AddTab(class CWnd *,wchar_t const *,unsigned int,int)" 
?AddTab@CMFCBaseTabCtrl@@UAAXPAVCWnd@@PBGIH@Z => Microsoft (R) C++ Name Undecorator Copyright (C) Microsoft Corporation. All rights reserved.  Undecoration of :- "?AddTab@CMFCBaseTabCtrl@@UAAXPAVCWnd@@PBGIH@Z" is :- "public: virtual void __cdecl CMFCBaseTabCtrl::AddTab(class CWnd *,unsigned short const *,unsigned int,int)" 
?AddTail@CStringList@@QAAPAU__POSITION@@ABV?$CStringT@_WV?$StrTraitMFC_DLL@_WV?$ChTraitsCRT@_W@ATL@@@@@ATL@@@Z => Microsoft (R) C++ Name Undecorator Copyright (C) Microsoft Corporation. All rights reserved.  Undecoration of :- "?AddTail@CStringList@@QAAPAU__POSITION@@ABV?$CStringT@_WV?$StrTraitMFC_DLL@_WV?$ChTraitsCRT@_W@ATL@@@@@ATL@@@Z" is :- "public: struct __POSITION * __cdecl CStringList::AddTail(class ATL::CStringT<wchar_t,class StrTraitMFC_DLL<wchar_t,class ATL::ChTraitsCRT<wchar_t> > > const &)" 
?AddTail@CStringList@@QAAPAU__POSITION@@ABV?$CStringT@GV?$StrTraitMFC_DLL@GV?$ChTraitsCRT@G@ATL@@@@@ATL@@@Z => Microsoft (R) C++ Name Undecorator Copyright (C) Microsoft Corporation. All rights reserved.  Undecoration of :- "?AddTail@CStringList@@QAAPAU__POSITION@@ABV?$CStringT@GV?$StrTraitMFC_DLL@GV?$ChTraitsCRT@G@ATL@@@@@ATL@@@Z" is :- "public: struct __POSITION * __cdecl CStringList::AddTail(class ATL::CStringT<unsigned short,class StrTraitMFC_DLL<unsigned short,class ATL::ChTraitsCRT<unsigned short> > > const &)" 
?AddTail@CStringList@@QAAPAU__POSITION@@PB_W@Z => Microsoft (R) C++ Name Undecorator Copyright (C) Microsoft Corporation. All rights reserved.  Undecoration of :- "?AddTail@CStringList@@QAAPAU__POSITION@@PB_W@Z" is :- "public: struct __POSITION * __cdecl CStringList::AddTail(wchar_t const *)" 
?AddTail@CStringList@@QAAPAU__POSITION@@PBG@Z => Microsoft (R) C++ Name Undecorator Copyright (C) Microsoft Corporation. All rights reserved.  Undecoration of :- "?AddTail@CStringList@@QAAPAU__POSITION@@PBG@Z" is :- "public: struct __POSITION * __cdecl CStringList::AddTail(unsigned short const *)" 
?AddTask@CJumpList@@QAAHPB_W000H@Z => Microsoft (R) C++ Name Undecorator Copyright (C) Microsoft Corporation. All rights reserved.  Undecoration of :- "?AddTask@CJumpList@@QAAHPB_W000H@Z" is :- "public: int __cdecl CJumpList::AddTask(wchar_t const *,wchar_t const *,wchar_t const *,wchar_t const *,int)" 
?AddTask@CJumpList@@QAAHPBG000H@Z => Microsoft (R) C++ Name Undecorator Copyright (C) Microsoft Corporation. All rights reserved.  Undecoration of :- "?AddTask@CJumpList@@QAAHPBG000H@Z" is :- "public: int __cdecl CJumpList::AddTask(unsigned short const *,unsigned short const *,unsigned short const *,unsigned short const *,int)" 
?AddTask@CMFCTasksPane@@QAAHHPB_WHIK@Z => Microsoft (R) C++ Name Undecorator Copyright (C) Microsoft Corporation. All rights reserved.  Undecoration of :- "?AddTask@CMFCTasksPane@@QAAHHPB_WHIK@Z" is :- "public: int __cdecl CMFCTasksPane::AddTask(int,wchar_t const *,int,unsigned int,unsigned long)" 
?AddTask@CMFCTasksPane@@QAAHHPBGHIK@Z => Microsoft (R) C++ Name Undecorator Copyright (C) Microsoft Corporation. All rights reserved.  Undecoration of :- "?AddTask@CMFCTasksPane@@QAAHHPBGHIK@Z" is :- "public: int __cdecl CMFCTasksPane::AddTask(int,unsigned short const *,int,unsigned int,unsigned long)" 
?AddText@CFileDialog@@QAAJKABV?$CStringT@_WV?$StrTraitMFC_DLL@_WV?$ChTraitsCRT@_W@ATL@@@@@ATL@@@Z => Microsoft (R) C++ Name Undecorator Copyright (C) Microsoft Corporation. All rights reserved.  Undecoration of :- "?AddText@CFileDialog@@QAAJKABV?$CStringT@_WV?$StrTraitMFC_DLL@_WV?$ChTraitsCRT@_W@ATL@@@@@ATL@@@Z" is :- "public: long __cdecl CFileDialog::AddText(unsigned long,class ATL::CStringT<wchar_t,class StrTraitMFC_DLL<wchar_t,class ATL::ChTraitsCRT<wchar_t> > > const &)" 
?AddText@CFileDialog@@QAAJKABV?$CStringT@GV?$StrTraitMFC_DLL@GV?$ChTraitsCRT@G@ATL@@@@@ATL@@@Z => Microsoft (R) C++ Name Undecorator Copyright (C) Microsoft Corporation. All rights reserved.  Undecoration of :- "?AddText@CFileDialog@@QAAJKABV?$CStringT@GV?$StrTraitMFC_DLL@GV?$ChTraitsCRT@G@ATL@@@@@ATL@@@Z" is :- "public: long __cdecl CFileDialog::AddText(unsigned long,class ATL::CStringT<unsigned short,class StrTraitMFC_DLL<unsigned short,class ATL::ChTraitsCRT<unsigned short> > > const &)" 
?AddTool@CToolTipCtrl@@QAAHPAVCWnd@@PB_WPBUtagRECT@@I@Z => Microsoft (R) C++ Name Undecorator Copyright (C) Microsoft Corporation. All rights reserved.  Undecoration of :- "?AddTool@CToolTipCtrl@@QAAHPAVCWnd@@PB_WPBUtagRECT@@I@Z" is :- "public: int __cdecl CToolTipCtrl::AddTool(class CWnd *,wchar_t const *,struct tagRECT const *,unsigned int)" 
?AddTool@CToolTipCtrl@@QAAHPAVCWnd@@PBGPBUtagRECT@@I@Z => Microsoft (R) C++ Name Undecorator Copyright (C) Microsoft Corporation. All rights reserved.  Undecoration of :- "?AddTool@CToolTipCtrl@@QAAHPAVCWnd@@PBGPBUtagRECT@@I@Z" is :- "public: int __cdecl CToolTipCtrl::AddTool(class CWnd *,unsigned short const *,struct tagRECT const *,unsigned int)" 
?AddToolBar@CMFCToolBarsCustomizeDialog@@QAAHPB_WI@Z => Microsoft (R) C++ Name Undecorator Copyright (C) Microsoft Corporation. All rights reserved.  Undecoration of :- "?AddToolBar@CMFCToolBarsCustomizeDialog@@QAAHPB_WI@Z" is :- "public: int __cdecl CMFCToolBarsCustomizeDialog::AddToolBar(wchar_t const *,unsigned int)" 
?AddToolBar@CMFCToolBarsCustomizeDialog@@QAAHPBGI@Z => Microsoft (R) C++ Name Undecorator Copyright (C) Microsoft Corporation. All rights reserved.  Undecoration of :- "?AddToolBar@CMFCToolBarsCustomizeDialog@@QAAHPBGI@Z" is :- "public: int __cdecl CMFCToolBarsCustomizeDialog::AddToolBar(unsigned short const *,unsigned int)" 
?AddToRecentFileList@CWinApp@@UAAXPB_W@Z => Microsoft (R) C++ Name Undecorator Copyright (C) Microsoft Corporation. All rights reserved.  Undecoration of :- "?AddToRecentFileList@CWinApp@@UAAXPB_W@Z" is :- "public: virtual void __cdecl CWinApp::AddToRecentFileList(wchar_t const *)" 
?AddToRecentFileList@CWinApp@@UAAXPBG@Z => Microsoft (R) C++ Name Undecorator Copyright (C) Microsoft Corporation. All rights reserved.  Undecoration of :- "?AddToRecentFileList@CWinApp@@UAAXPBG@Z" is :- "public: virtual void __cdecl CWinApp::AddToRecentFileList(unsigned short const *)" 
?AddTreeCategory@CMFCPropertySheet@@QAAPAVCMFCPropertySheetCategoryInfo@@PB_WHHPBV2@@Z => Microsoft (R) C++ Name Undecorator Copyright (C) Microsoft Corporation. All rights reserved.  Undecoration of :- "?AddTreeCategory@CMFCPropertySheet@@QAAPAVCMFCPropertySheetCategoryInfo@@PB_WHHPBV2@@Z" is :- "public: class CMFCPropertySheetCategoryInfo * __cdecl CMFCPropertySheet::AddTreeCategory(wchar_t const *,int,int,class CMFCPropertySheetCategoryInfo const *)" 
?AddTreeCategory@CMFCPropertySheet@@QAAPAVCMFCPropertySheetCategoryInfo@@PBGHHPBV2@@Z => Microsoft (R) C++ Name Undecorator Copyright (C) Microsoft Corporation. All rights reserved.  Undecoration of :- "?AddTreeCategory@CMFCPropertySheet@@QAAPAVCMFCPropertySheetCategoryInfo@@PBGHHPBV2@@Z" is :- "public: class CMFCPropertySheetCategoryInfo * __cdecl CMFCPropertySheet::AddTreeCategory(unsigned short const *,int,int,class CMFCPropertySheetCategoryInfo const *)" 
?AddUndoAction@CMFCRibbonUndoButton@@QAAXPB_W@Z => Microsoft (R) C++ Name Undecorator Copyright (C) Microsoft Corporation. All rights reserved.  Undecoration of :- "?AddUndoAction@CMFCRibbonUndoButton@@QAAXPB_W@Z" is :- "public: void __cdecl CMFCRibbonUndoButton::AddUndoAction(wchar_t const *)" 
?AddUndoAction@CMFCRibbonUndoButton@@QAAXPBG@Z => Microsoft (R) C++ Name Undecorator Copyright (C) Microsoft Corporation. All rights reserved.  Undecoration of :- "?AddUndoAction@CMFCRibbonUndoButton@@QAAXPBG@Z" is :- "public: void __cdecl CMFCRibbonUndoButton::AddUndoAction(unsigned short const *)" 
?AddUserTools@CMFCToolBarsCustomizeDialog@@IAAXPB_W@Z => Microsoft (R) C++ Name Undecorator Copyright (C) Microsoft Corporation. All rights reserved.  Undecoration of :- "?AddUserTools@CMFCToolBarsCustomizeDialog@@IAAXPB_W@Z" is :- "protected: void __cdecl CMFCToolBarsCustomizeDialog::AddUserTools(wchar_t const *)" 
?AddUserTools@CMFCToolBarsCustomizeDialog@@IAAXPBG@Z => Microsoft (R) C++ Name Undecorator Copyright (C) Microsoft Corporation. All rights reserved.  Undecoration of :- "?AddUserTools@CMFCToolBarsCustomizeDialog@@IAAXPBG@Z" is :- "protected: void __cdecl CMFCToolBarsCustomizeDialog::AddUserTools(unsigned short const *)" 
?AddView@CMouseManager@@QAAHHPB_WI@Z => Microsoft (R) C++ Name Undecorator Copyright (C) Microsoft Corporation. All rights reserved.  Undecoration of :- "?AddView@CMouseManager@@QAAHHPB_WI@Z" is :- "public: int __cdecl CMouseManager::AddView(int,wchar_t const *,unsigned int)" 
?AddView@CMouseManager@@QAAHHPBGI@Z => Microsoft (R) C++ Name Undecorator Copyright (C) Microsoft Corporation. All rights reserved.  Undecoration of :- "?AddView@CMouseManager@@QAAHHPBGI@Z" is :- "public: int __cdecl CMouseManager::AddView(int,unsigned short const *,unsigned int)" 
?AddView@CTabView@@QAAHPAUCRuntimeClass@@ABV?$CStringT@_WV?$StrTraitMFC_DLL@_WV?$ChTraitsCRT@_W@ATL@@@@@ATL@@HPAUCCreateContext@@@Z => Microsoft (R) C++ Name Undecorator Copyright (C) Microsoft Corporation. All rights reserved.  Undecoration of :- "?AddView@CTabView@@QAAHPAUCRuntimeClass@@ABV?$CStringT@_WV?$StrTraitMFC_DLL@_WV?$ChTraitsCRT@_W@ATL@@@@@ATL@@HPAUCCreateContext@@@Z" is :- "public: int __cdecl CTabView::AddView(struct CRuntimeClass *,class ATL::CStringT<wchar_t,class StrTraitMFC_DLL<wchar_t,class ATL::ChTraitsCRT<wchar_t> > > const &,int,struct CCreateContext *)" 
?AddView@CTabView@@QAAHPAUCRuntimeClass@@ABV?$CStringT@GV?$StrTraitMFC_DLL@GV?$ChTraitsCRT@G@ATL@@@@@ATL@@HPAUCCreateContext@@@Z => Microsoft (R) C++ Name Undecorator Copyright (C) Microsoft Corporation. All rights reserved.  Undecoration of :- "?AddView@CTabView@@QAAHPAUCRuntimeClass@@ABV?$CStringT@GV?$StrTraitMFC_DLL@GV?$ChTraitsCRT@G@ATL@@@@@ATL@@HPAUCCreateContext@@@Z" is :- "public: int __cdecl CTabView::AddView(struct CRuntimeClass *,class ATL::CStringT<unsigned short,class StrTraitMFC_DLL<unsigned short,class ATL::ChTraitsCRT<unsigned short> > > const &,int,struct CCreateContext *)" 
?AddVirtKeyStr@CMFCAcceleratorKey@@IBAXAAV?$CStringT@_WV?$StrTraitMFC_DLL@_WV?$ChTraitsCRT@_W@ATL@@@@@ATL@@IH@Z => Microsoft (R) C++ Name Undecorator Copyright (C) Microsoft Corporation. All rights reserved.  Undecoration of :- "?AddVirtKeyStr@CMFCAcceleratorKey@@IBAXAAV?$CStringT@_WV?$StrTraitMFC_DLL@_WV?$ChTraitsCRT@_W@ATL@@@@@ATL@@IH@Z" is :- "protected: void __cdecl CMFCAcceleratorKey::AddVirtKeyStr(class ATL::CStringT<wchar_t,class StrTraitMFC_DLL<wchar_t,class ATL::ChTraitsCRT<wchar_t> > > &,unsigned int,int)const " 
?AddVirtKeyStr@CMFCAcceleratorKey@@IBAXAAV?$CStringT@GV?$StrTraitMFC_DLL@GV?$ChTraitsCRT@G@ATL@@@@@ATL@@IH@Z => Microsoft (R) C++ Name Undecorator Copyright (C) Microsoft Corporation. All rights reserved.  Undecoration of :- "?AddVirtKeyStr@CMFCAcceleratorKey@@IBAXAAV?$CStringT@GV?$StrTraitMFC_DLL@GV?$ChTraitsCRT@G@ATL@@@@@ATL@@IH@Z" is :- "protected: void __cdecl CMFCAcceleratorKey::AddVirtKeyStr(class ATL::CStringT<unsigned short,class StrTraitMFC_DLL<unsigned short,class ATL::ChTraitsCRT<unsigned short> > > &,unsigned int,int)const " 
?AfxA2WHelper@@YAPA_WPA_WPBDH@Z => Microsoft (R) C++ Name Undecorator Copyright (C) Microsoft Corporation. All rights reserved.  Undecoration of :- "?AfxA2WHelper@@YAPA_WPA_WPBDH@Z" is :- "wchar_t * __cdecl AfxA2WHelper(wchar_t *,char const *,int)" 
?AfxA2WHelper@@YAPAGPAGPBDH@Z => Microsoft (R) C++ Name Undecorator Copyright (C) Microsoft Corporation. All rights reserved.  Undecoration of :- "?AfxA2WHelper@@YAPAGPAGPBDH@Z" is :- "unsigned short * __cdecl AfxA2WHelper(unsigned short *,char const *,int)" 
?AfxBSTR2CString@@YAXPAV?$CStringT@_WV?$StrTraitMFC_DLL@_WV?$ChTraitsCRT@_W@ATL@@@@@ATL@@PA_W@Z => Microsoft (R) C++ Name Undecorator Copyright (C) Microsoft Corporation. All rights reserved.  Undecoration of :- "?AfxBSTR2CString@@YAXPAV?$CStringT@_WV?$StrTraitMFC_DLL@_WV?$ChTraitsCRT@_W@ATL@@@@@ATL@@PA_W@Z" is :- "void __cdecl AfxBSTR2CString(class ATL::CStringT<wchar_t,class StrTraitMFC_DLL<wchar_t,class ATL::ChTraitsCRT<wchar_t> > > *,wchar_t *)" 
?AfxBSTR2CString@@YAXPAV?$CStringT@GV?$StrTraitMFC_DLL@GV?$ChTraitsCRT@G@ATL@@@@@ATL@@PAG@Z => Microsoft (R) C++ Name Undecorator Copyright (C) Microsoft Corporation. All rights reserved.  Undecoration of :- "?AfxBSTR2CString@@YAXPAV?$CStringT@GV?$StrTraitMFC_DLL@GV?$ChTraitsCRT@G@ATL@@@@@ATL@@PAG@Z" is :- "void __cdecl AfxBSTR2CString(class ATL::CStringT<unsigned short,class StrTraitMFC_DLL<unsigned short,class ATL::ChTraitsCRT<unsigned short> > > *,unsigned short *)" 
?AfxComparePath@@YAHPB_W0@Z => Microsoft (R) C++ Name Undecorator Copyright (C) Microsoft Corporation. All rights reserved.  Undecoration of :- "?AfxComparePath@@YAHPB_W0@Z" is :- "int __cdecl AfxComparePath(wchar_t const *,wchar_t const *)" 
?AfxComparePath@@YAHPBG0@Z => Microsoft (R) C++ Name Undecorator Copyright (C) Microsoft Corporation. All rights reserved.  Undecoration of :- "?AfxComparePath@@YAHPBG0@Z" is :- "int __cdecl AfxComparePath(unsigned short const *,unsigned short const *)" 
?AfxDelRegTreeHelper@@YAJPAUHKEY__@@ABV?$CStringT@_WV?$StrTraitMFC_DLL@_WV?$ChTraitsCRT@_W@ATL@@@@@ATL@@PAVCAtlTransactionManager@3@@Z => Microsoft (R) C++ Name Undecorator Copyright (C) Microsoft Corporation. All rights reserved.  Undecoration of :- "?AfxDelRegTreeHelper@@YAJPAUHKEY__@@ABV?$CStringT@_WV?$StrTraitMFC_DLL@_WV?$ChTraitsCRT@_W@ATL@@@@@ATL@@PAVCAtlTransactionManager@3@@Z" is :- "long __cdecl AfxDelRegTreeHelper(struct HKEY__ *,class ATL::CStringT<wchar_t,class StrTraitMFC_DLL<wchar_t,class ATL::ChTraitsCRT<wchar_t> > > const &,class ATL::CAtlTransactionManager *)" 
?AfxDelRegTreeHelper@@YAJPAUHKEY__@@ABV?$CStringT@GV?$StrTraitMFC_DLL@GV?$ChTraitsCRT@G@ATL@@@@@ATL@@PAVCAtlTransactionManager@3@@Z => Microsoft (R) C++ Name Undecorator Copyright (C) Microsoft Corporation. All rights reserved.  Undecoration of :- "?AfxDelRegTreeHelper@@YAJPAUHKEY__@@ABV?$CStringT@GV?$StrTraitMFC_DLL@GV?$ChTraitsCRT@G@ATL@@@@@ATL@@PAVCAtlTransactionManager@3@@Z" is :- "long __cdecl AfxDelRegTreeHelper(struct HKEY__ *,class ATL::CStringT<unsigned short,class StrTraitMFC_DLL<unsigned short,class ATL::ChTraitsCRT<unsigned short> > > const &,class ATL::CAtlTransactionManager *)" 
?AfxDoRegisterMFCControlClass@@YAXPB_W0@Z => Microsoft (R) C++ Name Undecorator Copyright (C) Microsoft Corporation. All rights reserved.  Undecoration of :- "?AfxDoRegisterMFCControlClass@@YAXPB_W0@Z" is :- "void __cdecl AfxDoRegisterMFCControlClass(wchar_t const *,wchar_t const *)" 
?AfxDoRegisterMFCControlClass@@YAXPBG0@Z => Microsoft (R) C++ Name Undecorator Copyright (C) Microsoft Corporation. All rights reserved.  Undecoration of :- "?AfxDoRegisterMFCControlClass@@YAXPBG0@Z" is :- "void __cdecl AfxDoRegisterMFCControlClass(unsigned short const *,unsigned short const *)" 
?AfxExtractSubString@@YAHAAV?$CStringT@_WV?$StrTraitMFC_DLL@_WV?$ChTraitsCRT@_W@ATL@@@@@ATL@@PB_WH_W@Z => Microsoft (R) C++ Name Undecorator Copyright (C) Microsoft Corporation. All rights reserved.  Undecoration of :- "?AfxExtractSubString@@YAHAAV?$CStringT@_WV?$StrTraitMFC_DLL@_WV?$ChTraitsCRT@_W@ATL@@@@@ATL@@PB_WH_W@Z" is :- "int __cdecl AfxExtractSubString(class ATL::CStringT<wchar_t,class StrTraitMFC_DLL<wchar_t,class ATL::ChTraitsCRT<wchar_t> > > &,wchar_t const *,int,wchar_t)" 
?AfxExtractSubString@@YAHAAV?$CStringT@GV?$StrTraitMFC_DLL@GV?$ChTraitsCRT@G@ATL@@@@@ATL@@PBGHG@Z => Microsoft (R) C++ Name Undecorator Copyright (C) Microsoft Corporation. All rights reserved.  Undecoration of :- "?AfxExtractSubString@@YAHAAV?$CStringT@GV?$StrTraitMFC_DLL@GV?$ChTraitsCRT@G@ATL@@@@@ATL@@PBGHG@Z" is :- "int __cdecl AfxExtractSubString(class ATL::CStringT<unsigned short,class StrTraitMFC_DLL<unsigned short,class ATL::ChTraitsCRT<unsigned short> > > &,unsigned short const *,int,unsigned short)" 
?AfxFindResourceHandle@@YAPAUHINSTANCE__@@PB_W0@Z => Microsoft (R) C++ Name Undecorator Copyright (C) Microsoft Corporation. All rights reserved.  Undecoration of :- "?AfxFindResourceHandle@@YAPAUHINSTANCE__@@PB_W0@Z" is :- "struct HINSTANCE__ * __cdecl AfxFindResourceHandle(wchar_t const *,wchar_t const *)" 
?AfxFindResourceHandle@@YAPAUHINSTANCE__@@PBG0@Z => Microsoft (R) C++ Name Undecorator Copyright (C) Microsoft Corporation. All rights reserved.  Undecoration of :- "?AfxFindResourceHandle@@YAPAUHINSTANCE__@@PBG0@Z" is :- "struct HINSTANCE__ * __cdecl AfxFindResourceHandle(unsigned short const *,unsigned short const *)" 
?AfxFormatString1@@YAXAAV?$CStringT@_WV?$StrTraitMFC_DLL@_WV?$ChTraitsCRT@_W@ATL@@@@@ATL@@IPB_W@Z => Microsoft (R) C++ Name Undecorator Copyright (C) Microsoft Corporation. All rights reserved.  Undecoration of :- "?AfxFormatString1@@YAXAAV?$CStringT@_WV?$StrTraitMFC_DLL@_WV?$ChTraitsCRT@_W@ATL@@@@@ATL@@IPB_W@Z" is :- "void __cdecl AfxFormatString1(class ATL::CStringT<wchar_t,class StrTraitMFC_DLL<wchar_t,class ATL::ChTraitsCRT<wchar_t> > > &,unsigned int,wchar_t const *)" 
?AfxFormatString1@@YAXAAV?$CStringT@GV?$StrTraitMFC_DLL@GV?$ChTraitsCRT@G@ATL@@@@@ATL@@IPBG@Z => Microsoft (R) C++ Name Undecorator Copyright (C) Microsoft Corporation. All rights reserved.  Undecoration of :- "?AfxFormatString1@@YAXAAV?$CStringT@GV?$StrTraitMFC_DLL@GV?$ChTraitsCRT@G@ATL@@@@@ATL@@IPBG@Z" is :- "void __cdecl AfxFormatString1(class ATL::CStringT<unsigned short,class StrTraitMFC_DLL<unsigned short,class ATL::ChTraitsCRT<unsigned short> > > &,unsigned int,unsigned short const *)" 
?AfxFormatString2@@YAXAAV?$CStringT@_WV?$StrTraitMFC_DLL@_WV?$ChTraitsCRT@_W@ATL@@@@@ATL@@IPB_W1@Z => Microsoft (R) C++ Name Undecorator Copyright (C) Microsoft Corporation. All rights reserved.  Undecoration of :- "?AfxFormatString2@@YAXAAV?$CStringT@_WV?$StrTraitMFC_DLL@_WV?$ChTraitsCRT@_W@ATL@@@@@ATL@@IPB_W1@Z" is :- "void __cdecl AfxFormatString2(class ATL::CStringT<wchar_t,class StrTraitMFC_DLL<wchar_t,class ATL::ChTraitsCRT<wchar_t> > > &,unsigned int,wchar_t const *,wchar_t const *)" 
?AfxFormatString2@@YAXAAV?$CStringT@GV?$StrTraitMFC_DLL@GV?$ChTraitsCRT@G@ATL@@@@@ATL@@IPBG1@Z => Microsoft (R) C++ Name Undecorator Copyright (C) Microsoft Corporation. All rights reserved.  Undecoration of :- "?AfxFormatString2@@YAXAAV?$CStringT@GV?$StrTraitMFC_DLL@GV?$ChTraitsCRT@G@ATL@@@@@ATL@@IPBG1@Z" is :- "void __cdecl AfxFormatString2(class ATL::CStringT<unsigned short,class StrTraitMFC_DLL<unsigned short,class ATL::ChTraitsCRT<unsigned short> > > &,unsigned int,unsigned short const *,unsigned short const *)" 
?AfxFormatStrings@@YAXAAV?$CStringT@_WV?$StrTraitMFC_DLL@_WV?$ChTraitsCRT@_W@ATL@@@@@ATL@@IPBQB_WH@Z => Microsoft (R) C++ Name Undecorator Copyright (C) Microsoft Corporation. All rights reserved.  Undecoration of :- "?AfxFormatStrings@@YAXAAV?$CStringT@_WV?$StrTraitMFC_DLL@_WV?$ChTraitsCRT@_W@ATL@@@@@ATL@@IPBQB_WH@Z" is :- "void __cdecl AfxFormatStrings(class ATL::CStringT<wchar_t,class StrTraitMFC_DLL<wchar_t,class ATL::ChTraitsCRT<wchar_t> > > &,unsigned int,wchar_t const * const *,int)" 
?AfxFormatStrings@@YAXAAV?$CStringT@_WV?$StrTraitMFC_DLL@_WV?$ChTraitsCRT@_W@ATL@@@@@ATL@@PB_WPBQB_WH@Z => Microsoft (R) C++ Name Undecorator Copyright (C) Microsoft Corporation. All rights reserved.  Undecoration of :- "?AfxFormatStrings@@YAXAAV?$CStringT@_WV?$StrTraitMFC_DLL@_WV?$ChTraitsCRT@_W@ATL@@@@@ATL@@PB_WPBQB_WH@Z" is :- "void __cdecl AfxFormatStrings(class ATL::CStringT<wchar_t,class StrTraitMFC_DLL<wchar_t,class ATL::ChTraitsCRT<wchar_t> > > &,wchar_t const *,wchar_t const * const *,int)" 
?AfxFormatStrings@@YAXAAV?$CStringT@GV?$StrTraitMFC_DLL@GV?$ChTraitsCRT@G@ATL@@@@@ATL@@IPBQBGH@Z => Microsoft (R) C++ Name Undecorator Copyright (C) Microsoft Corporation. All rights reserved.  Undecoration of :- "?AfxFormatStrings@@YAXAAV?$CStringT@GV?$StrTraitMFC_DLL@GV?$ChTraitsCRT@G@ATL@@@@@ATL@@IPBQBGH@Z" is :- "void __cdecl AfxFormatStrings(class ATL::CStringT<unsigned short,class StrTraitMFC_DLL<unsigned short,class ATL::ChTraitsCRT<unsigned short> > > &,unsigned int,unsigned short const * const *,int)" 
?AfxFormatStrings@@YAXAAV?$CStringT@GV?$StrTraitMFC_DLL@GV?$ChTraitsCRT@G@ATL@@@@@ATL@@PBGPBQBGH@Z => Microsoft (R) C++ Name Undecorator Copyright (C) Microsoft Corporation. All rights reserved.  Undecoration of :- "?AfxFormatStrings@@YAXAAV?$CStringT@GV?$StrTraitMFC_DLL@GV?$ChTraitsCRT@G@ATL@@@@@ATL@@PBGPBQBGH@Z" is :- "void __cdecl AfxFormatStrings(class ATL::CStringT<unsigned short,class StrTraitMFC_DLL<unsigned short,class ATL::ChTraitsCRT<unsigned short> > > &,unsigned short const *,unsigned short const * const *,int)" 
?AfxFullPath@@YAHPA_WPB_W@Z => Microsoft (R) C++ Name Undecorator Copyright (C) Microsoft Corporation. All rights reserved.  Undecoration of :- "?AfxFullPath@@YAHPA_WPB_W@Z" is :- "int __cdecl AfxFullPath(wchar_t *,wchar_t const *)" 
?AfxFullPath@@YAHPAGPBG@Z => Microsoft (R) C++ Name Undecorator Copyright (C) Microsoft Corporation. All rights reserved.  Undecoration of :- "?AfxFullPath@@YAHPAGPBG@Z" is :- "int __cdecl AfxFullPath(unsigned short *,unsigned short const *)" 
?AfxGetClassIDFromString@@YAJPB_WPAU_GUID@@@Z => Microsoft (R) C++ Name Undecorator Copyright (C) Microsoft Corporation. All rights reserved.  Undecoration of :- "?AfxGetClassIDFromString@@YAJPB_WPAU_GUID@@@Z" is :- "long __cdecl AfxGetClassIDFromString(wchar_t const *,struct _GUID *)" 
?AfxGetClassIDFromString@@YAJPBGPAU_GUID@@@Z => Microsoft (R) C++ Name Undecorator Copyright (C) Microsoft Corporation. All rights reserved.  Undecoration of :- "?AfxGetClassIDFromString@@YAJPBGPAU_GUID@@@Z" is :- "long __cdecl AfxGetClassIDFromString(unsigned short const *,struct _GUID *)" 
?AfxGetFileName@@YAIPB_WPA_WI@Z => Microsoft (R) C++ Name Undecorator Copyright (C) Microsoft Corporation. All rights reserved.  Undecoration of :- "?AfxGetFileName@@YAIPB_WPA_WI@Z" is :- "unsigned int __cdecl AfxGetFileName(wchar_t const *,wchar_t *,unsigned int)" 
?AfxGetFileName@@YAIPBGPAGI@Z => Microsoft (R) C++ Name Undecorator Copyright (C) Microsoft Corporation. All rights reserved.  Undecoration of :- "?AfxGetFileName@@YAIPBGPAGI@Z" is :- "unsigned int __cdecl AfxGetFileName(unsigned short const *,unsigned short *,unsigned int)" 
?AfxGetFileTitle@@YAIPB_WPA_WI@Z => Microsoft (R) C++ Name Undecorator Copyright (C) Microsoft Corporation. All rights reserved.  Undecoration of :- "?AfxGetFileTitle@@YAIPB_WPA_WI@Z" is :- "unsigned int __cdecl AfxGetFileTitle(wchar_t const *,wchar_t *,unsigned int)" 
?AfxGetFileTitle@@YAIPBGPAGI@Z => Microsoft (R) C++ Name Undecorator Copyright (C) Microsoft Corporation. All rights reserved.  Undecoration of :- "?AfxGetFileTitle@@YAIPBGPAGI@Z" is :- "unsigned int __cdecl AfxGetFileTitle(unsigned short const *,unsigned short *,unsigned int)" 
?AfxGetInProcServer@@YAHPB_WAAV?$CStringT@_WV?$StrTraitMFC_DLL@_WV?$ChTraitsCRT@_W@ATL@@@@@ATL@@@Z => Microsoft (R) C++ Name Undecorator Copyright (C) Microsoft Corporation. All rights reserved.  Undecoration of :- "?AfxGetInProcServer@@YAHPB_WAAV?$CStringT@_WV?$StrTraitMFC_DLL@_WV?$ChTraitsCRT@_W@ATL@@@@@ATL@@@Z" is :- "int __cdecl AfxGetInProcServer(wchar_t const *,class ATL::CStringT<wchar_t,class StrTraitMFC_DLL<wchar_t,class ATL::ChTraitsCRT<wchar_t> > > &)" 
?AfxGetInProcServer@@YAHPBGAAV?$CStringT@GV?$StrTraitMFC_DLL@GV?$ChTraitsCRT@G@ATL@@@@@ATL@@@Z => Microsoft (R) C++ Name Undecorator Copyright (C) Microsoft Corporation. All rights reserved.  Undecoration of :- "?AfxGetInProcServer@@YAHPBGAAV?$CStringT@GV?$StrTraitMFC_DLL@GV?$ChTraitsCRT@G@ATL@@@@@ATL@@@Z" is :- "int __cdecl AfxGetInProcServer(unsigned short const *,class ATL::CStringT<unsigned short,class StrTraitMFC_DLL<unsigned short,class ATL::ChTraitsCRT<unsigned short> > > &)" 
?AfxGetModuleFileName@@YAXPAUHINSTANCE__@@AAV?$CStringT@_WV?$StrTraitMFC_DLL@_WV?$ChTraitsCRT@_W@ATL@@@@@ATL@@@Z => Microsoft (R) C++ Name Undecorator Copyright (C) Microsoft Corporation. All rights reserved.  Undecoration of :- "?AfxGetModuleFileName@@YAXPAUHINSTANCE__@@AAV?$CStringT@_WV?$StrTraitMFC_DLL@_WV?$ChTraitsCRT@_W@ATL@@@@@ATL@@@Z" is :- "void __cdecl AfxGetModuleFileName(struct HINSTANCE__ *,class ATL::CStringT<wchar_t,class StrTraitMFC_DLL<wchar_t,class ATL::ChTraitsCRT<wchar_t> > > &)" 
?AfxGetModuleFileName@@YAXPAUHINSTANCE__@@AAV?$CStringT@GV?$StrTraitMFC_DLL@GV?$ChTraitsCRT@G@ATL@@@@@ATL@@@Z => Microsoft (R) C++ Name Undecorator Copyright (C) Microsoft Corporation. All rights reserved.  Undecoration of :- "?AfxGetModuleFileName@@YAXPAUHINSTANCE__@@AAV?$CStringT@GV?$StrTraitMFC_DLL@GV?$ChTraitsCRT@G@ATL@@@@@ATL@@@Z" is :- "void __cdecl AfxGetModuleFileName(struct HINSTANCE__ *,class ATL::CStringT<unsigned short,class StrTraitMFC_DLL<unsigned short,class ATL::ChTraitsCRT<unsigned short> > > &)" 
?AfxGetModuleShortFileName@@YAXPAUHINSTANCE__@@AAV?$CStringT@_WV?$StrTraitMFC_DLL@_WV?$ChTraitsCRT@_W@ATL@@@@@ATL@@@Z => Microsoft (R) C++ Name Undecorator Copyright (C) Microsoft Corporation. All rights reserved.  Undecoration of :- "?AfxGetModuleShortFileName@@YAXPAUHINSTANCE__@@AAV?$CStringT@_WV?$StrTraitMFC_DLL@_WV?$ChTraitsCRT@_W@ATL@@@@@ATL@@@Z" is :- "void __cdecl AfxGetModuleShortFileName(struct HINSTANCE__ *,class ATL::CStringT<wchar_t,class StrTraitMFC_DLL<wchar_t,class ATL::ChTraitsCRT<wchar_t> > > &)" 
?AfxGetModuleShortFileName@@YAXPAUHINSTANCE__@@AAV?$CStringT@GV?$StrTraitMFC_DLL@GV?$ChTraitsCRT@G@ATL@@@@@ATL@@@Z => Microsoft (R) C++ Name Undecorator Copyright (C) Microsoft Corporation. All rights reserved.  Undecoration of :- "?AfxGetModuleShortFileName@@YAXPAUHINSTANCE__@@AAV?$CStringT@GV?$StrTraitMFC_DLL@GV?$ChTraitsCRT@G@ATL@@@@@ATL@@@Z" is :- "void __cdecl AfxGetModuleShortFileName(struct HINSTANCE__ *,class ATL::CStringT<unsigned short,class StrTraitMFC_DLL<unsigned short,class ATL::ChTraitsCRT<unsigned short> > > &)" 
?AfxGetPropSheetFont@@YAHAAV?$CStringT@_WV?$StrTraitMFC_DLL@_WV?$ChTraitsCRT@_W@ATL@@@@@ATL@@AAGH@Z => Microsoft (R) C++ Name Undecorator Copyright (C) Microsoft Corporation. All rights reserved.  Undecoration of :- "?AfxGetPropSheetFont@@YAHAAV?$CStringT@_WV?$StrTraitMFC_DLL@_WV?$ChTraitsCRT@_W@ATL@@@@@ATL@@AAGH@Z" is :- "int __cdecl AfxGetPropSheetFont(class ATL::CStringT<wchar_t,class StrTraitMFC_DLL<wchar_t,class ATL::ChTraitsCRT<wchar_t> > > &,unsigned short &,int)" 
?AfxGetPropSheetFont@@YAHAAV?$CStringT@GV?$StrTraitMFC_DLL@GV?$ChTraitsCRT@G@ATL@@@@@ATL@@AAGH@Z => Microsoft (R) C++ Name Undecorator Copyright (C) Microsoft Corporation. All rights reserved.  Undecoration of :- "?AfxGetPropSheetFont@@YAHAAV?$CStringT@GV?$StrTraitMFC_DLL@GV?$ChTraitsCRT@G@ATL@@@@@ATL@@AAGH@Z" is :- "int __cdecl AfxGetPropSheetFont(class ATL::CStringT<unsigned short,class StrTraitMFC_DLL<unsigned short,class ATL::ChTraitsCRT<unsigned short> > > &,unsigned short &,int)" 
?AFXGetRegPath@@YA?AV?$CStringT@_WV?$StrTraitMFC_DLL@_WV?$ChTraitsCRT@_W@ATL@@@@@ATL@@PB_W0@Z => Microsoft (R) C++ Name Undecorator Copyright (C) Microsoft Corporation. All rights reserved.  Undecoration of :- "?AFXGetRegPath@@YA?AV?$CStringT@_WV?$StrTraitMFC_DLL@_WV?$ChTraitsCRT@_W@ATL@@@@@ATL@@PB_W0@Z" is :- "class ATL::CStringT<wchar_t,class StrTraitMFC_DLL<wchar_t,class ATL::ChTraitsCRT<wchar_t> > > __cdecl AFXGetRegPath(wchar_t const *,wchar_t const *)" 
?AFXGetRegPath@@YA?AV?$CStringT@GV?$StrTraitMFC_DLL@GV?$ChTraitsCRT@G@ATL@@@@@ATL@@PBG0@Z => Microsoft (R) C++ Name Undecorator Copyright (C) Microsoft Corporation. All rights reserved.  Undecoration of :- "?AFXGetRegPath@@YA?AV?$CStringT@GV?$StrTraitMFC_DLL@GV?$ChTraitsCRT@G@ATL@@@@@ATL@@PBG0@Z" is :- "class ATL::CStringT<unsigned short,class StrTraitMFC_DLL<unsigned short,class ATL::ChTraitsCRT<unsigned short> > > __cdecl AFXGetRegPath(unsigned short const *,unsigned short const *)" 
?AfxGetRoot@@YAXPB_WAAV?$CStringT@_WV?$StrTraitMFC_DLL@_WV?$ChTraitsCRT@_W@ATL@@@@@ATL@@@Z => Microsoft (R) C++ Name Undecorator Copyright (C) Microsoft Corporation. All rights reserved.  Undecoration of :- "?AfxGetRoot@@YAXPB_WAAV?$CStringT@_WV?$StrTraitMFC_DLL@_WV?$ChTraitsCRT@_W@ATL@@@@@ATL@@@Z" is :- "void __cdecl AfxGetRoot(wchar_t const *,class ATL::CStringT<wchar_t,class StrTraitMFC_DLL<wchar_t,class ATL::ChTraitsCRT<wchar_t> > > &)" 
?AfxGetRoot@@YAXPBGAAV?$CStringT@GV?$StrTraitMFC_DLL@GV?$ChTraitsCRT@G@ATL@@@@@ATL@@@Z => Microsoft (R) C++ Name Undecorator Copyright (C) Microsoft Corporation. All rights reserved.  Undecoration of :- "?AfxGetRoot@@YAXPBGAAV?$CStringT@GV?$StrTraitMFC_DLL@GV?$ChTraitsCRT@G@ATL@@@@@ATL@@@Z" is :- "void __cdecl AfxGetRoot(unsigned short const *,class ATL::CStringT<unsigned short,class StrTraitMFC_DLL<unsigned short,class ATL::ChTraitsCRT<unsigned short> > > &)" 
?AfxHtmlHelp@@YAPAUHWND__@@PAU1@PB_WIK@Z => Microsoft (R) C++ Name Undecorator Copyright (C) Microsoft Corporation. All rights reserved.  Undecoration of :- "?AfxHtmlHelp@@YAPAUHWND__@@PAU1@PB_WIK@Z" is :- "struct HWND__ * __cdecl AfxHtmlHelp(struct HWND__ *,wchar_t const *,unsigned int,unsigned long)" 
?AfxHtmlHelp@@YAPAUHWND__@@PAU1@PBGIK@Z => Microsoft (R) C++ Name Undecorator Copyright (C) Microsoft Corporation. All rights reserved.  Undecoration of :- "?AfxHtmlHelp@@YAPAUHWND__@@PAU1@PBGIK@Z" is :- "struct HWND__ * __cdecl AfxHtmlHelp(struct HWND__ *,unsigned short const *,unsigned int,unsigned long)" 
?AfxIsValidAtom@@YAHPB_W@Z => Microsoft (R) C++ Name Undecorator Copyright (C) Microsoft Corporation. All rights reserved.  Undecoration of :- "?AfxIsValidAtom@@YAHPB_W@Z" is :- "int __cdecl AfxIsValidAtom(wchar_t const *)" 
?AfxIsValidAtom@@YAHPBG@Z => Microsoft (R) C++ Name Undecorator Copyright (C) Microsoft Corporation. All rights reserved.  Undecoration of :- "?AfxIsValidAtom@@YAHPBG@Z" is :- "int __cdecl AfxIsValidAtom(unsigned short const *)" 
?AfxIsValidString@@YAHPB_WH@Z => Microsoft (R) C++ Name Undecorator Copyright (C) Microsoft Corporation. All rights reserved.  Undecoration of :- "?AfxIsValidString@@YAHPB_WH@Z" is :- "int __cdecl AfxIsValidString(wchar_t const *,int)" 
?AfxIsValidString@@YAHPBGH@Z => Microsoft (R) C++ Name Undecorator Copyright (C) Microsoft Corporation. All rights reserved.  Undecoration of :- "?AfxIsValidString@@YAHPBGH@Z" is :- "int __cdecl AfxIsValidString(unsigned short const *,int)" 
?AfxLoadLangResourceDLL@@YAPAUHINSTANCE__@@PB_W@Z => Microsoft (R) C++ Name Undecorator Copyright (C) Microsoft Corporation. All rights reserved.  Undecoration of :- "?AfxLoadLangResourceDLL@@YAPAUHINSTANCE__@@PB_W@Z" is :- "struct HINSTANCE__ * __cdecl AfxLoadLangResourceDLL(wchar_t const *)" 
?AfxLoadLangResourceDLL@@YAPAUHINSTANCE__@@PB_W0@Z => Microsoft (R) C++ Name Undecorator Copyright (C) Microsoft Corporation. All rights reserved.  Undecoration of :- "?AfxLoadLangResourceDLL@@YAPAUHINSTANCE__@@PB_W0@Z" is :- "struct HINSTANCE__ * __cdecl AfxLoadLangResourceDLL(wchar_t const *,wchar_t const *)" 
?AfxLoadLangResourceDLL@@YAPAUHINSTANCE__@@PBG@Z => Microsoft (R) C++ Name Undecorator Copyright (C) Microsoft Corporation. All rights reserved.  Undecoration of :- "?AfxLoadLangResourceDLL@@YAPAUHINSTANCE__@@PBG@Z" is :- "struct HINSTANCE__ * __cdecl AfxLoadLangResourceDLL(unsigned short const *)" 
?AfxLoadLangResourceDLL@@YAPAUHINSTANCE__@@PBG0@Z => Microsoft (R) C++ Name Undecorator Copyright (C) Microsoft Corporation. All rights reserved.  Undecoration of :- "?AfxLoadLangResourceDLL@@YAPAUHINSTANCE__@@PBG0@Z" is :- "struct HINSTANCE__ * __cdecl AfxLoadLangResourceDLL(unsigned short const *,unsigned short const *)" 
?AfxLoadLibrary@@YAPAUHINSTANCE__@@PB_W@Z => Microsoft (R) C++ Name Undecorator Copyright (C) Microsoft Corporation. All rights reserved.  Undecoration of :- "?AfxLoadLibrary@@YAPAUHINSTANCE__@@PB_W@Z" is :- "struct HINSTANCE__ * __cdecl AfxLoadLibrary(wchar_t const *)" 
?AfxLoadLibrary@@YAPAUHINSTANCE__@@PBG@Z => Microsoft (R) C++ Name Undecorator Copyright (C) Microsoft Corporation. All rights reserved.  Undecoration of :- "?AfxLoadLibrary@@YAPAUHINSTANCE__@@PBG@Z" is :- "struct HINSTANCE__ * __cdecl AfxLoadLibrary(unsigned short const *)" 
?AfxLoadLibraryEx@@YAPAUHINSTANCE__@@PB_WPAXK@Z => Microsoft (R) C++ Name Undecorator Copyright (C) Microsoft Corporation. All rights reserved.  Undecoration of :- "?AfxLoadLibraryEx@@YAPAUHINSTANCE__@@PB_WPAXK@Z" is :- "struct HINSTANCE__ * __cdecl AfxLoadLibraryEx(wchar_t const *,void *,unsigned long)" 
?AfxLoadLibraryEx@@YAPAUHINSTANCE__@@PBGPAXK@Z => Microsoft (R) C++ Name Undecorator Copyright (C) Microsoft Corporation. All rights reserved.  Undecoration of :- "?AfxLoadLibraryEx@@YAPAUHINSTANCE__@@PBGPAXK@Z" is :- "struct HINSTANCE__ * __cdecl AfxLoadLibraryEx(unsigned short const *,void *,unsigned long)" 
?AfxLoadString@@YAHIPA_WI@Z => Microsoft (R) C++ Name Undecorator Copyright (C) Microsoft Corporation. All rights reserved.  Undecoration of :- "?AfxLoadString@@YAHIPA_WI@Z" is :- "int __cdecl AfxLoadString(unsigned int,wchar_t *,unsigned int)" 
?AfxLoadString@@YAHIPAGI@Z => Microsoft (R) C++ Name Undecorator Copyright (C) Microsoft Corporation. All rights reserved.  Undecoration of :- "?AfxLoadString@@YAHIPAGI@Z" is :- "int __cdecl AfxLoadString(unsigned int,unsigned short *,unsigned int)" 
?AfxMessageBox@@YAHPB_WII@Z => Microsoft (R) C++ Name Undecorator Copyright (C) Microsoft Corporation. All rights reserved.  Undecoration of :- "?AfxMessageBox@@YAHPB_WII@Z" is :- "int __cdecl AfxMessageBox(wchar_t const *,unsigned int,unsigned int)" 
?AfxMessageBox@@YAHPBGII@Z => Microsoft (R) C++ Name Undecorator Copyright (C) Microsoft Corporation. All rights reserved.  Undecoration of :- "?AfxMessageBox@@YAHPBGII@Z" is :- "int __cdecl AfxMessageBox(unsigned short const *,unsigned int,unsigned int)" 
?AfxOleLockControl@@YAHPB_W@Z => Microsoft (R) C++ Name Undecorator Copyright (C) Microsoft Corporation. All rights reserved.  Undecoration of :- "?AfxOleLockControl@@YAHPB_W@Z" is :- "int __cdecl AfxOleLockControl(wchar_t const *)" 
?AfxOleLockControl@@YAHPBG@Z => Microsoft (R) C++ Name Undecorator Copyright (C) Microsoft Corporation. All rights reserved.  Undecoration of :- "?AfxOleLockControl@@YAHPBG@Z" is :- "int __cdecl AfxOleLockControl(unsigned short const *)" 
?AfxOleRegisterControlClass@@YAHPAUHINSTANCE__@@ABU_GUID@@PB_WIIHK1GG@Z => Microsoft (R) C++ Name Undecorator Copyright (C) Microsoft Corporation. All rights reserved.  Undecoration of :- "?AfxOleRegisterControlClass@@YAHPAUHINSTANCE__@@ABU_GUID@@PB_WIIHK1GG@Z" is :- "int __cdecl AfxOleRegisterControlClass(struct HINSTANCE__ *,struct _GUID const &,wchar_t const *,unsigned int,unsigned int,int,unsigned long,struct _GUID const &,unsigned short,unsigned short)" 
?AfxOleRegisterControlClass@@YAHPAUHINSTANCE__@@ABU_GUID@@PBGIIHK1GG@Z => Microsoft (R) C++ Name Undecorator Copyright (C) Microsoft Corporation. All rights reserved.  Undecoration of :- "?AfxOleRegisterControlClass@@YAHPAUHINSTANCE__@@ABU_GUID@@PBGIIHK1GG@Z" is :- "int __cdecl AfxOleRegisterControlClass(struct HINSTANCE__ *,struct _GUID const &,unsigned short const *,unsigned int,unsigned int,int,unsigned long,struct _GUID const &,unsigned short,unsigned short)" 
?AfxOleRegisterHelper@@YAHPBQB_W0HHPAUHKEY__@@@Z => Microsoft (R) C++ Name Undecorator Copyright (C) Microsoft Corporation. All rights reserved.  Undecoration of :- "?AfxOleRegisterHelper@@YAHPBQB_W0HHPAUHKEY__@@@Z" is :- "int __cdecl AfxOleRegisterHelper(wchar_t const * const *,wchar_t const * const *,int,int,struct HKEY__ *)" 
?AfxOleRegisterHelper@@YAHPBQBG0HHPAUHKEY__@@@Z => Microsoft (R) C++ Name Undecorator Copyright (C) Microsoft Corporation. All rights reserved.  Undecoration of :- "?AfxOleRegisterHelper@@YAHPBQBG0HHPAUHKEY__@@@Z" is :- "int __cdecl AfxOleRegisterHelper(unsigned short const * const *,unsigned short const * const *,int,int,struct HKEY__ *)" 
?AfxOleRegisterServerClass@@YAHABU_GUID@@PB_W11W4OLE_APPTYPE@@PAPB_W3H1@Z => Microsoft (R) C++ Name Undecorator Copyright (C) Microsoft Corporation. All rights reserved.  Undecoration of :- "?AfxOleRegisterServerClass@@YAHABU_GUID@@PB_W11W4OLE_APPTYPE@@PAPB_W3H1@Z" is :- "int __cdecl AfxOleRegisterServerClass(struct _GUID const &,wchar_t const *,wchar_t const *,wchar_t const *,enum OLE_APPTYPE,wchar_t const * *,wchar_t const * *,int,wchar_t const *)" 
?AfxOleRegisterServerClass@@YAHABU_GUID@@PB_W11W4OLE_APPTYPE@@PAPB_W3H11@Z => Microsoft (R) C++ Name Undecorator Copyright (C) Microsoft Corporation. All rights reserved.  Undecoration of :- "?AfxOleRegisterServerClass@@YAHABU_GUID@@PB_W11W4OLE_APPTYPE@@PAPB_W3H11@Z" is :- "int __cdecl AfxOleRegisterServerClass(struct _GUID const &,wchar_t const *,wchar_t const *,wchar_t const *,enum OLE_APPTYPE,wchar_t const * *,wchar_t const * *,int,wchar_t const *,wchar_t const *)" 
?AfxOleRegisterServerClass@@YAHABU_GUID@@PBG11W4OLE_APPTYPE@@PAPBG3H1@Z => Microsoft (R) C++ Name Undecorator Copyright (C) Microsoft Corporation. All rights reserved.  Undecoration of :- "?AfxOleRegisterServerClass@@YAHABU_GUID@@PBG11W4OLE_APPTYPE@@PAPBG3H1@Z" is :- "int __cdecl AfxOleRegisterServerClass(struct _GUID const &,unsigned short const *,unsigned short const *,unsigned short const *,enum OLE_APPTYPE,unsigned short const * *,unsigned short const * *,int,unsigned short const *)" 
?AfxOleRegisterServerClass@@YAHABU_GUID@@PBG11W4OLE_APPTYPE@@PAPBG3H11@Z => Microsoft (R) C++ Name Undecorator Copyright (C) Microsoft Corporation. All rights reserved.  Undecoration of :- "?AfxOleRegisterServerClass@@YAHABU_GUID@@PBG11W4OLE_APPTYPE@@PAPBG3H11@Z" is :- "int __cdecl AfxOleRegisterServerClass(struct _GUID const &,unsigned short const *,unsigned short const *,unsigned short const *,enum OLE_APPTYPE,unsigned short const * *,unsigned short const * *,int,unsigned short const *,unsigned short const *)" 
?AfxOleRegisterTypeLib@@YAHPAUHINSTANCE__@@ABU_GUID@@PB_W2@Z => Microsoft (R) C++ Name Undecorator Copyright (C) Microsoft Corporation. All rights reserved.  Undecoration of :- "?AfxOleRegisterTypeLib@@YAHPAUHINSTANCE__@@ABU_GUID@@PB_W2@Z" is :- "int __cdecl AfxOleRegisterTypeLib(struct HINSTANCE__ *,struct _GUID const &,wchar_t const *,wchar_t const *)" 
?AfxOleRegisterTypeLib@@YAHPAUHINSTANCE__@@ABU_GUID@@PBG2@Z => Microsoft (R) C++ Name Undecorator Copyright (C) Microsoft Corporation. All rights reserved.  Undecoration of :- "?AfxOleRegisterTypeLib@@YAHPAUHINSTANCE__@@ABU_GUID@@PBG2@Z" is :- "int __cdecl AfxOleRegisterTypeLib(struct HINSTANCE__ *,struct _GUID const &,unsigned short const *,unsigned short const *)" 
?AfxOleUnlockControl@@YAHPB_W@Z => Microsoft (R) C++ Name Undecorator Copyright (C) Microsoft Corporation. All rights reserved.  Undecoration of :- "?AfxOleUnlockControl@@YAHPB_W@Z" is :- "int __cdecl AfxOleUnlockControl(wchar_t const *)" 
?AfxOleUnlockControl@@YAHPBG@Z => Microsoft (R) C++ Name Undecorator Copyright (C) Microsoft Corporation. All rights reserved.  Undecoration of :- "?AfxOleUnlockControl@@YAHPBG@Z" is :- "int __cdecl AfxOleUnlockControl(unsigned short const *)" 
?AfxOleUnregisterClass@@YAHABU_GUID@@PB_W@Z => Microsoft (R) C++ Name Undecorator Copyright (C) Microsoft Corporation. All rights reserved.  Undecoration of :- "?AfxOleUnregisterClass@@YAHABU_GUID@@PB_W@Z" is :- "int __cdecl AfxOleUnregisterClass(struct _GUID const &,wchar_t const *)" 
?AfxOleUnregisterClass@@YAHABU_GUID@@PBG@Z => Microsoft (R) C++ Name Undecorator Copyright (C) Microsoft Corporation. All rights reserved.  Undecoration of :- "?AfxOleUnregisterClass@@YAHABU_GUID@@PBG@Z" is :- "int __cdecl AfxOleUnregisterClass(struct _GUID const &,unsigned short const *)" 
?AfxOleUnregisterHelper@@YAHPBQB_W0HPAUHKEY__@@@Z => Microsoft (R) C++ Name Undecorator Copyright (C) Microsoft Corporation. All rights reserved.  Undecoration of :- "?AfxOleUnregisterHelper@@YAHPBQB_W0HPAUHKEY__@@@Z" is :- "int __cdecl AfxOleUnregisterHelper(wchar_t const * const *,wchar_t const * const *,int,struct HKEY__ *)" 
?AfxOleUnregisterHelper@@YAHPBQBG0HPAUHKEY__@@@Z => Microsoft (R) C++ Name Undecorator Copyright (C) Microsoft Corporation. All rights reserved.  Undecoration of :- "?AfxOleUnregisterHelper@@YAHPBQBG0HPAUHKEY__@@@Z" is :- "int __cdecl AfxOleUnregisterHelper(unsigned short const * const *,unsigned short const * const *,int,struct HKEY__ *)" 
?AfxOleUnregisterServerClass@@YAHABU_GUID@@PB_W11W4OLE_APPTYPE@@PAPB_W3@Z => Microsoft (R) C++ Name Undecorator Copyright (C) Microsoft Corporation. All rights reserved.  Undecoration of :- "?AfxOleUnregisterServerClass@@YAHABU_GUID@@PB_W11W4OLE_APPTYPE@@PAPB_W3@Z" is :- "int __cdecl AfxOleUnregisterServerClass(struct _GUID const &,wchar_t const *,wchar_t const *,wchar_t const *,enum OLE_APPTYPE,wchar_t const * *,wchar_t const * *)" 
?AfxOleUnregisterServerClass@@YAHABU_GUID@@PBG11W4OLE_APPTYPE@@PAPBG3@Z => Microsoft (R) C++ Name Undecorator Copyright (C) Microsoft Corporation. All rights reserved.  Undecoration of :- "?AfxOleUnregisterServerClass@@YAHABU_GUID@@PBG11W4OLE_APPTYPE@@PAPBG3@Z" is :- "int __cdecl AfxOleUnregisterServerClass(struct _GUID const &,unsigned short const *,unsigned short const *,unsigned short const *,enum OLE_APPTYPE,unsigned short const * *,unsigned short const * *)" 
?AfxParseURL@@YAHPB_WAAKAAV?$CStringT@_WV?$StrTraitMFC_DLL@_WV?$ChTraitsCRT@_W@ATL@@@@@ATL@@2AAG@Z => Microsoft (R) C++ Name Undecorator Copyright (C) Microsoft Corporation. All rights reserved.  Undecoration of :- "?AfxParseURL@@YAHPB_WAAKAAV?$CStringT@_WV?$StrTraitMFC_DLL@_WV?$ChTraitsCRT@_W@ATL@@@@@ATL@@2AAG@Z" is :- "int __cdecl AfxParseURL(wchar_t const *,unsigned long &,class ATL::CStringT<wchar_t,class StrTraitMFC_DLL<wchar_t,class ATL::ChTraitsCRT<wchar_t> > > &,class ATL::CStringT<wchar_t,class StrTraitMFC_DLL<wchar_t,class ATL::ChTraitsCRT<wchar_t> > > &,unsigned short &)" 
?AfxParseURL@@YAHPBGAAKAAV?$CStringT@GV?$StrTraitMFC_DLL@GV?$ChTraitsCRT@G@ATL@@@@@ATL@@2AAG@Z => Microsoft (R) C++ Name Undecorator Copyright (C) Microsoft Corporation. All rights reserved.  Undecoration of :- "?AfxParseURL@@YAHPBGAAKAAV?$CStringT@GV?$StrTraitMFC_DLL@GV?$ChTraitsCRT@G@ATL@@@@@ATL@@2AAG@Z" is :- "int __cdecl AfxParseURL(unsigned short const *,unsigned long &,class ATL::CStringT<unsigned short,class StrTraitMFC_DLL<unsigned short,class ATL::ChTraitsCRT<unsigned short> > > &,class ATL::CStringT<unsigned short,class StrTraitMFC_DLL<unsigned short,class ATL::ChTraitsCRT<unsigned short> > > &,unsigned short &)" 
?AfxParseURLEx@@YAHPB_WAAKAAV?$CStringT@_WV?$StrTraitMFC_DLL@_WV?$ChTraitsCRT@_W@ATL@@@@@ATL@@2AAG22K@Z => Microsoft (R) C++ Name Undecorator Copyright (C) Microsoft Corporation. All rights reserved.  Undecoration of :- "?AfxParseURLEx@@YAHPB_WAAKAAV?$CStringT@_WV?$StrTraitMFC_DLL@_WV?$ChTraitsCRT@_W@ATL@@@@@ATL@@2AAG22K@Z" is :- "int __cdecl AfxParseURLEx(wchar_t const *,unsigned long &,class ATL::CStringT<wchar_t,class StrTraitMFC_DLL<wchar_t,class ATL::ChTraitsCRT<wchar_t> > > &,class ATL::CStringT<wchar_t,class StrTraitMFC_DLL<wchar_t,class ATL::ChTraitsCRT<wchar_t> > > &,unsigned short &,class ATL::CStringT<wchar_t,class StrTraitMFC_DLL<wchar_t,class ATL::ChTraitsCRT<wchar_t> > > &,class ATL::CStringT<wchar_t,class StrTraitMFC_DLL<wchar_t,class ATL::ChTraitsCRT<wchar_t> > > &,unsigned long)" 
?AfxParseURLEx@@YAHPBGAAKAAV?$CStringT@GV?$StrTraitMFC_DLL@GV?$ChTraitsCRT@G@ATL@@@@@ATL@@2AAG22K@Z => Microsoft (R) C++ Name Undecorator Copyright (C) Microsoft Corporation. All rights reserved.  Undecoration of :- "?AfxParseURLEx@@YAHPBGAAKAAV?$CStringT@GV?$StrTraitMFC_DLL@GV?$ChTraitsCRT@G@ATL@@@@@ATL@@2AAG22K@Z" is :- "int __cdecl AfxParseURLEx(unsigned short const *,unsigned long &,class ATL::CStringT<unsigned short,class StrTraitMFC_DLL<unsigned short,class ATL::ChTraitsCRT<unsigned short> > > &,class ATL::CStringT<unsigned short,class StrTraitMFC_DLL<unsigned short,class ATL::ChTraitsCRT<unsigned short> > > &,unsigned short &,class ATL::CStringT<unsigned short,class StrTraitMFC_DLL<unsigned short,class ATL::ChTraitsCRT<unsigned short> > > &,class ATL::CStringT<unsigned short,class StrTraitMFC_DLL<unsigned short,class ATL::ChTraitsCRT<unsigned short> > > &,unsigned long)" 
?AfxRegCreateKey@@YAJPAUHKEY__@@PB_WPAPAU1@PAVCAtlTransactionManager@ATL@@@Z => Microsoft (R) C++ Name Undecorator Copyright (C) Microsoft Corporation. All rights reserved.  Undecoration of :- "?AfxRegCreateKey@@YAJPAUHKEY__@@PB_WPAPAU1@PAVCAtlTransactionManager@ATL@@@Z" is :- "long __cdecl AfxRegCreateKey(struct HKEY__ *,wchar_t const *,struct HKEY__ * *,class ATL::CAtlTransactionManager *)" 
?AfxRegCreateKey@@YAJPAUHKEY__@@PBGPAPAU1@PAVCAtlTransactionManager@ATL@@@Z => Microsoft (R) C++ Name Undecorator Copyright (C) Microsoft Corporation. All rights reserved.  Undecoration of :- "?AfxRegCreateKey@@YAJPAUHKEY__@@PBGPAPAU1@PAVCAtlTransactionManager@ATL@@@Z" is :- "long __cdecl AfxRegCreateKey(struct HKEY__ *,unsigned short const *,struct HKEY__ * *,class ATL::CAtlTransactionManager *)" 
?AfxRegDeleteKey@@YAJPAUHKEY__@@PB_WPAVCAtlTransactionManager@ATL@@@Z => Microsoft (R) C++ Name Undecorator Copyright (C) Microsoft Corporation. All rights reserved.  Undecoration of :- "?AfxRegDeleteKey@@YAJPAUHKEY__@@PB_WPAVCAtlTransactionManager@ATL@@@Z" is :- "long __cdecl AfxRegDeleteKey(struct HKEY__ *,wchar_t const *,class ATL::CAtlTransactionManager *)" 
?AfxRegDeleteKey@@YAJPAUHKEY__@@PBGPAVCAtlTransactionManager@ATL@@@Z => Microsoft (R) C++ Name Undecorator Copyright (C) Microsoft Corporation. All rights reserved.  Undecoration of :- "?AfxRegDeleteKey@@YAJPAUHKEY__@@PBGPAVCAtlTransactionManager@ATL@@@Z" is :- "long __cdecl AfxRegDeleteKey(struct HKEY__ *,unsigned short const *,class ATL::CAtlTransactionManager *)" 
?AfxRegisterPreviewHandler@@YAHPB_W00@Z => Microsoft (R) C++ Name Undecorator Copyright (C) Microsoft Corporation. All rights reserved.  Undecoration of :- "?AfxRegisterPreviewHandler@@YAHPB_W00@Z" is :- "int __cdecl AfxRegisterPreviewHandler(wchar_t const *,wchar_t const *,wchar_t const *)" 
?AfxRegisterPreviewHandler@@YAHPBG00@Z => Microsoft (R) C++ Name Undecorator Copyright (C) Microsoft Corporation. All rights reserved.  Undecoration of :- "?AfxRegisterPreviewHandler@@YAHPBG00@Z" is :- "int __cdecl AfxRegisterPreviewHandler(unsigned short const *,unsigned short const *,unsigned short const *)" 
?AfxRegisterThumbnailHandler@@YAHPB_W0K@Z => Microsoft (R) C++ Name Undecorator Copyright (C) Microsoft Corporation. All rights reserved.  Undecoration of :- "?AfxRegisterThumbnailHandler@@YAHPB_W0K@Z" is :- "int __cdecl AfxRegisterThumbnailHandler(wchar_t const *,wchar_t const *,unsigned long)" 
?AfxRegisterThumbnailHandler@@YAHPBG0K@Z => Microsoft (R) C++ Name Undecorator Copyright (C) Microsoft Corporation. All rights reserved.  Undecoration of :- "?AfxRegisterThumbnailHandler@@YAHPBG0K@Z" is :- "int __cdecl AfxRegisterThumbnailHandler(unsigned short const *,unsigned short const *,unsigned long)" 
?AfxRegisterWndClass@@YAPB_WIPAUHICON__@@PAUHBRUSH__@@0@Z => Microsoft (R) C++ Name Undecorator Copyright (C) Microsoft Corporation. All rights reserved.  Undecoration of :- "?AfxRegisterWndClass@@YAPB_WIPAUHICON__@@PAUHBRUSH__@@0@Z" is :- "wchar_t const * __cdecl AfxRegisterWndClass(unsigned int,struct HICON__ *,struct HBRUSH__ *,struct HICON__ *)" 
?AfxRegisterWndClass@@YAPBGIPAUHICON__@@PAUHBRUSH__@@0@Z => Microsoft (R) C++ Name Undecorator Copyright (C) Microsoft Corporation. All rights reserved.  Undecoration of :- "?AfxRegisterWndClass@@YAPBGIPAUHICON__@@PAUHBRUSH__@@0@Z" is :- "unsigned short const * __cdecl AfxRegisterWndClass(unsigned int,struct HICON__ *,struct HBRUSH__ *,struct HICON__ *)" 
?AfxRegOpenKey@@YAJPAUHKEY__@@PB_WPAPAU1@PAVCAtlTransactionManager@ATL@@@Z => Microsoft (R) C++ Name Undecorator Copyright (C) Microsoft Corporation. All rights reserved.  Undecoration of :- "?AfxRegOpenKey@@YAJPAUHKEY__@@PB_WPAPAU1@PAVCAtlTransactionManager@ATL@@@Z" is :- "long __cdecl AfxRegOpenKey(struct HKEY__ *,wchar_t const *,struct HKEY__ * *,class ATL::CAtlTransactionManager *)" 
?AfxRegOpenKey@@YAJPAUHKEY__@@PBGPAPAU1@PAVCAtlTransactionManager@ATL@@@Z => Microsoft (R) C++ Name Undecorator Copyright (C) Microsoft Corporation. All rights reserved.  Undecoration of :- "?AfxRegOpenKey@@YAJPAUHKEY__@@PBGPAPAU1@PAVCAtlTransactionManager@ATL@@@Z" is :- "long __cdecl AfxRegOpenKey(struct HKEY__ *,unsigned short const *,struct HKEY__ * *,class ATL::CAtlTransactionManager *)" 
?AfxRegOpenKeyEx@@YAJPAUHKEY__@@PB_WKKPAPAU1@PAVCAtlTransactionManager@ATL@@@Z => Microsoft (R) C++ Name Undecorator Copyright (C) Microsoft Corporation. All rights reserved.  Undecoration of :- "?AfxRegOpenKeyEx@@YAJPAUHKEY__@@PB_WKKPAPAU1@PAVCAtlTransactionManager@ATL@@@Z" is :- "long __cdecl AfxRegOpenKeyEx(struct HKEY__ *,wchar_t const *,unsigned long,unsigned long,struct HKEY__ * *,class ATL::CAtlTransactionManager *)" 
?AfxRegOpenKeyEx@@YAJPAUHKEY__@@PBGKKPAPAU1@PAVCAtlTransactionManager@ATL@@@Z => Microsoft (R) C++ Name Undecorator Copyright (C) Microsoft Corporation. All rights reserved.  Undecoration of :- "?AfxRegOpenKeyEx@@YAJPAUHKEY__@@PBGKKPAPAU1@PAVCAtlTransactionManager@ATL@@@Z" is :- "long __cdecl AfxRegOpenKeyEx(struct HKEY__ *,unsigned short const *,unsigned long,unsigned long,struct HKEY__ * *,class ATL::CAtlTransactionManager *)" 
?AfxRegQueryValue@@YAJPAUHKEY__@@PB_WPA_WPAJ@Z => Microsoft (R) C++ Name Undecorator Copyright (C) Microsoft Corporation. All rights reserved.  Undecoration of :- "?AfxRegQueryValue@@YAJPAUHKEY__@@PB_WPA_WPAJ@Z" is :- "long __cdecl AfxRegQueryValue(struct HKEY__ *,wchar_t const *,wchar_t *,long *)" 
?AfxRegQueryValue@@YAJPAUHKEY__@@PBGPAGPAJ@Z => Microsoft (R) C++ Name Undecorator Copyright (C) Microsoft Corporation. All rights reserved.  Undecoration of :- "?AfxRegQueryValue@@YAJPAUHKEY__@@PBGPAGPAJ@Z" is :- "long __cdecl AfxRegQueryValue(struct HKEY__ *,unsigned short const *,unsigned short *,long *)" 
?AfxRegSetValue@@YAJPAUHKEY__@@PB_WK1K@Z => Microsoft (R) C++ Name Undecorator Copyright (C) Microsoft Corporation. All rights reserved.  Undecoration of :- "?AfxRegSetValue@@YAJPAUHKEY__@@PB_WK1K@Z" is :- "long __cdecl AfxRegSetValue(struct HKEY__ *,wchar_t const *,unsigned long,wchar_t const *,unsigned long)" 
?AfxRegSetValue@@YAJPAUHKEY__@@PBGK1K@Z => Microsoft (R) C++ Name Undecorator Copyright (C) Microsoft Corporation. All rights reserved.  Undecoration of :- "?AfxRegSetValue@@YAJPAUHKEY__@@PBGK1K@Z" is :- "long __cdecl AfxRegSetValue(struct HKEY__ *,unsigned short const *,unsigned long,unsigned short const *,unsigned long)" 
?AfxResolveShortcut@@YAHPAVCWnd@@PB_WPA_WH@Z => Microsoft (R) C++ Name Undecorator Copyright (C) Microsoft Corporation. All rights reserved.  Undecoration of :- "?AfxResolveShortcut@@YAHPAVCWnd@@PB_WPA_WH@Z" is :- "int __cdecl AfxResolveShortcut(class CWnd *,wchar_t const *,wchar_t *,int)" 
?AfxResolveShortcut@@YAHPAVCWnd@@PBGPAGH@Z => Microsoft (R) C++ Name Undecorator Copyright (C) Microsoft Corporation. All rights reserved.  Undecoration of :- "?AfxResolveShortcut@@YAHPAVCWnd@@PBGPAGH@Z" is :- "int __cdecl AfxResolveShortcut(class CWnd *,unsigned short const *,unsigned short *,int)" 
?AfxRFXBulkDefault@@YAXPAVCFieldExchange@@PB_WPAXPAJHK@Z => Microsoft (R) C++ Name Undecorator Copyright (C) Microsoft Corporation. All rights reserved.  Undecoration of :- "?AfxRFXBulkDefault@@YAXPAVCFieldExchange@@PB_WPAXPAJHK@Z" is :- "void __cdecl AfxRFXBulkDefault(class CFieldExchange *,wchar_t const *,void *,long *,int,unsigned long)" 
?AfxRFXBulkDefault@@YAXPAVCFieldExchange@@PBGPAXPAJHK@Z => Microsoft (R) C++ Name Undecorator Copyright (C) Microsoft Corporation. All rights reserved.  Undecoration of :- "?AfxRFXBulkDefault@@YAXPAVCFieldExchange@@PBGPAXPAJHK@Z" is :- "void __cdecl AfxRFXBulkDefault(class CFieldExchange *,unsigned short const *,void *,long *,int,unsigned long)" 
?AfxSetWindowText@@YAXPAUHWND__@@PB_W@Z => Microsoft (R) C++ Name Undecorator Copyright (C) Microsoft Corporation. All rights reserved.  Undecoration of :- "?AfxSetWindowText@@YAXPAUHWND__@@PB_W@Z" is :- "void __cdecl AfxSetWindowText(struct HWND__ *,wchar_t const *)" 
?AfxSetWindowText@@YAXPAUHWND__@@PBG@Z => Microsoft (R) C++ Name Undecorator Copyright (C) Microsoft Corporation. All rights reserved.  Undecoration of :- "?AfxSetWindowText@@YAXPAUHWND__@@PBG@Z" is :- "void __cdecl AfxSetWindowText(struct HWND__ *,unsigned short const *)" 
?AfxStringFromCLSID@@YA?AV?$CStringT@_WV?$StrTraitMFC_DLL@_WV?$ChTraitsCRT@_W@ATL@@@@@ATL@@ABU_GUID@@@Z => Microsoft (R) C++ Name Undecorator Copyright (C) Microsoft Corporation. All rights reserved.  Undecoration of :- "?AfxStringFromCLSID@@YA?AV?$CStringT@_WV?$StrTraitMFC_DLL@_WV?$ChTraitsCRT@_W@ATL@@@@@ATL@@ABU_GUID@@@Z" is :- "class ATL::CStringT<wchar_t,class StrTraitMFC_DLL<wchar_t,class ATL::ChTraitsCRT<wchar_t> > > __cdecl AfxStringFromCLSID(struct _GUID const &)" 
?AfxStringFromCLSID@@YA?AV?$CStringT@GV?$StrTraitMFC_DLL@GV?$ChTraitsCRT@G@ATL@@@@@ATL@@ABU_GUID@@@Z => Microsoft (R) C++ Name Undecorator Copyright (C) Microsoft Corporation. All rights reserved.  Undecoration of :- "?AfxStringFromCLSID@@YA?AV?$CStringT@GV?$StrTraitMFC_DLL@GV?$ChTraitsCRT@G@ATL@@@@@ATL@@ABU_GUID@@@Z" is :- "class ATL::CStringT<unsigned short,class StrTraitMFC_DLL<unsigned short,class ATL::ChTraitsCRT<unsigned short> > > __cdecl AfxStringFromCLSID(struct _GUID const &)" 
?AfxThrowArchiveException@@YAXHPB_W@Z => Microsoft (R) C++ Name Undecorator Copyright (C) Microsoft Corporation. All rights reserved.  Undecoration of :- "?AfxThrowArchiveException@@YAXHPB_W@Z" is :- "void __cdecl AfxThrowArchiveException(int,wchar_t const *)" 
?AfxThrowArchiveException@@YAXHPBG@Z => Microsoft (R) C++ Name Undecorator Copyright (C) Microsoft Corporation. All rights reserved.  Undecoration of :- "?AfxThrowArchiveException@@YAXHPBG@Z" is :- "void __cdecl AfxThrowArchiveException(int,unsigned short const *)" 
?AfxThrowFileException@@YAXHJPB_W@Z => Microsoft (R) C++ Name Undecorator Copyright (C) Microsoft Corporation. All rights reserved.  Undecoration of :- "?AfxThrowFileException@@YAXHJPB_W@Z" is :- "void __cdecl AfxThrowFileException(int,long,wchar_t const *)" 
?AfxThrowFileException@@YAXHJPBG@Z => Microsoft (R) C++ Name Undecorator Copyright (C) Microsoft Corporation. All rights reserved.  Undecoration of :- "?AfxThrowFileException@@YAXHJPBG@Z" is :- "void __cdecl AfxThrowFileException(int,long,unsigned short const *)" 
?AfxThrowOleDispatchException@@YAXGPB_WI@Z => Microsoft (R) C++ Name Undecorator Copyright (C) Microsoft Corporation. All rights reserved.  Undecoration of :- "?AfxThrowOleDispatchException@@YAXGPB_WI@Z" is :- "void __cdecl AfxThrowOleDispatchException(unsigned short,wchar_t const *,unsigned int)" 
?AfxThrowOleDispatchException@@YAXGPBGI@Z => Microsoft (R) C++ Name Undecorator Copyright (C) Microsoft Corporation. All rights reserved.  Undecoration of :- "?AfxThrowOleDispatchException@@YAXGPBGI@Z" is :- "void __cdecl AfxThrowOleDispatchException(unsigned short,unsigned short const *,unsigned int)" 
?AfxUnRegisterPreviewHandler@@YAHPB_W@Z => Microsoft (R) C++ Name Undecorator Copyright (C) Microsoft Corporation. All rights reserved.  Undecoration of :- "?AfxUnRegisterPreviewHandler@@YAHPB_W@Z" is :- "int __cdecl AfxUnRegisterPreviewHandler(wchar_t const *)" 
?AfxUnRegisterPreviewHandler@@YAHPBG@Z => Microsoft (R) C++ Name Undecorator Copyright (C) Microsoft Corporation. All rights reserved.  Undecoration of :- "?AfxUnRegisterPreviewHandler@@YAHPBG@Z" is :- "int __cdecl AfxUnRegisterPreviewHandler(unsigned short const *)" 
?AfxVerifyLicFile@@YAHPAUHINSTANCE__@@PB_W1I@Z => Microsoft (R) C++ Name Undecorator Copyright (C) Microsoft Corporation. All rights reserved.  Undecoration of :- "?AfxVerifyLicFile@@YAHPAUHINSTANCE__@@PB_W1I@Z" is :- "int __cdecl AfxVerifyLicFile(struct HINSTANCE__ *,wchar_t const *,wchar_t const *,unsigned int)" 
?AfxVerifyLicFile@@YAHPAUHINSTANCE__@@PBG1I@Z => Microsoft (R) C++ Name Undecorator Copyright (C) Microsoft Corporation. All rights reserved.  Undecoration of :- "?AfxVerifyLicFile@@YAHPAUHINSTANCE__@@PBG1I@Z" is :- "int __cdecl AfxVerifyLicFile(struct HINSTANCE__ *,unsigned short const *,unsigned short const *,unsigned int)" 
?AfxW2AHelper@@YAPADPADPB_WH@Z => Microsoft (R) C++ Name Undecorator Copyright (C) Microsoft Corporation. All rights reserved.  Undecoration of :- "?AfxW2AHelper@@YAPADPADPB_WH@Z" is :- "char * __cdecl AfxW2AHelper(char *,wchar_t const *,int)" 
?AfxW2AHelper@@YAPADPADPBGH@Z => Microsoft (R) C++ Name Undecorator Copyright (C) Microsoft Corporation. All rights reserved.  Undecoration of :- "?AfxW2AHelper@@YAPADPADPBGH@Z" is :- "char * __cdecl AfxW2AHelper(char *,unsigned short const *,int)" 
?AfxWinInit@@YAHPAUHINSTANCE__@@0PA_WH@Z => Microsoft (R) C++ Name Undecorator Copyright (C) Microsoft Corporation. All rights reserved.  Undecoration of :- "?AfxWinInit@@YAHPAUHINSTANCE__@@0PA_WH@Z" is :- "int __cdecl AfxWinInit(struct HINSTANCE__ *,struct HINSTANCE__ *,wchar_t *,int)" 
?AfxWinInit@@YAHPAUHINSTANCE__@@0PAGH@Z => Microsoft (R) C++ Name Undecorator Copyright (C) Microsoft Corporation. All rights reserved.  Undecoration of :- "?AfxWinInit@@YAHPAUHINSTANCE__@@0PAGH@Z" is :- "int __cdecl AfxWinInit(struct HINSTANCE__ *,struct HINSTANCE__ *,unsigned short *,int)" 
?AfxWinMain@@YAHPAUHINSTANCE__@@0PA_WH@Z => Microsoft (R) C++ Name Undecorator Copyright (C) Microsoft Corporation. All rights reserved.  Undecoration of :- "?AfxWinMain@@YAHPAUHINSTANCE__@@0PA_WH@Z" is :- "int __cdecl AfxWinMain(struct HINSTANCE__ *,struct HINSTANCE__ *,wchar_t *,int)" 
?AfxWinMain@@YAHPAUHINSTANCE__@@0PAGH@Z => Microsoft (R) C++ Name Undecorator Copyright (C) Microsoft Corporation. All rights reserved.  Undecoration of :- "?AfxWinMain@@YAHPAUHINSTANCE__@@0PAGH@Z" is :- "int __cdecl AfxWinMain(struct HINSTANCE__ *,struct HINSTANCE__ *,unsigned short *,int)" 
?AllocSysString@?$CStringT@_WV?$StrTraitMFC_DLL@_WV?$ChTraitsCRT@_W@ATL@@@@@ATL@@QBAPA_WXZ => Microsoft (R) C++ Name Undecorator Copyright (C) Microsoft Corporation. All rights reserved.  Undecoration of :- "?AllocSysString@?$CStringT@_WV?$StrTraitMFC_DLL@_WV?$ChTraitsCRT@_W@ATL@@@@@ATL@@QBAPA_WXZ" is :- "public: wchar_t * __cdecl ATL::CStringT<wchar_t,class StrTraitMFC_DLL<wchar_t,class ATL::ChTraitsCRT<wchar_t> > >::AllocSysString(void)const " 
?AllocSysString@?$CStringT@DV?$StrTraitMFC_DLL@DV?$ChTraitsCRT@D@ATL@@@@@ATL@@QBAPA_WXZ => Microsoft (R) C++ Name Undecorator Copyright (C) Microsoft Corporation. All rights reserved.  Undecoration of :- "?AllocSysString@?$CStringT@DV?$StrTraitMFC_DLL@DV?$ChTraitsCRT@D@ATL@@@@@ATL@@QBAPA_WXZ" is :- "public: wchar_t * __cdecl ATL::CStringT<char,class StrTraitMFC_DLL<char,class ATL::ChTraitsCRT<char> > >::AllocSysString(void)const " 
?AllocSysString@?$CStringT@DV?$StrTraitMFC_DLL@DV?$ChTraitsCRT@D@ATL@@@@@ATL@@QBAPAGXZ => Microsoft (R) C++ Name Undecorator Copyright (C) Microsoft Corporation. All rights reserved.  Undecoration of :- "?AllocSysString@?$CStringT@DV?$StrTraitMFC_DLL@DV?$ChTraitsCRT@D@ATL@@@@@ATL@@QBAPAGXZ" is :- "public: unsigned short * __cdecl ATL::CStringT<char,class StrTraitMFC_DLL<char,class ATL::ChTraitsCRT<char> > >::AllocSysString(void)const " 
?AllocSysString@?$CStringT@GV?$StrTraitMFC_DLL@GV?$ChTraitsCRT@G@ATL@@@@@ATL@@QBAPAGXZ => Microsoft (R) C++ Name Undecorator Copyright (C) Microsoft Corporation. All rights reserved.  Undecoration of :- "?AllocSysString@?$CStringT@GV?$StrTraitMFC_DLL@GV?$ChTraitsCRT@G@ATL@@@@@ATL@@QBAPAGXZ" is :- "public: unsigned short * __cdecl ATL::CStringT<unsigned short,class StrTraitMFC_DLL<unsigned short,class ATL::ChTraitsCRT<unsigned short> > >::AllocSysString(void)const " 
?AmbientDisplayName@COleControl@@QAA?AV?$CStringT@_WV?$StrTraitMFC_DLL@_WV?$ChTraitsCRT@_W@ATL@@@@@ATL@@XZ => Microsoft (R) C++ Name Undecorator Copyright (C) Microsoft Corporation. All rights reserved.  Undecoration of :- "?AmbientDisplayName@COleControl@@QAA?AV?$CStringT@_WV?$StrTraitMFC_DLL@_WV?$ChTraitsCRT@_W@ATL@@@@@ATL@@XZ" is :- "public: class ATL::CStringT<wchar_t,class StrTraitMFC_DLL<wchar_t,class ATL::ChTraitsCRT<wchar_t> > > __cdecl COleControl::AmbientDisplayName(void)" 
?AmbientDisplayName@COleControl@@QAA?AV?$CStringT@GV?$StrTraitMFC_DLL@GV?$ChTraitsCRT@G@ATL@@@@@ATL@@XZ => Microsoft (R) C++ Name Undecorator Copyright (C) Microsoft Corporation. All rights reserved.  Undecoration of :- "?AmbientDisplayName@COleControl@@QAA?AV?$CStringT@GV?$StrTraitMFC_DLL@GV?$ChTraitsCRT@G@ATL@@@@@ATL@@XZ" is :- "public: class ATL::CStringT<unsigned short,class StrTraitMFC_DLL<unsigned short,class ATL::ChTraitsCRT<unsigned short> > > __cdecl COleControl::AmbientDisplayName(void)" 
?AmbientScaleUnits@COleControl@@QAA?AV?$CStringT@_WV?$StrTraitMFC_DLL@_WV?$ChTraitsCRT@_W@ATL@@@@@ATL@@XZ => Microsoft (R) C++ Name Undecorator Copyright (C) Microsoft Corporation. All rights reserved.  Undecoration of :- "?AmbientScaleUnits@COleControl@@QAA?AV?$CStringT@_WV?$StrTraitMFC_DLL@_WV?$ChTraitsCRT@_W@ATL@@@@@ATL@@XZ" is :- "public: class ATL::CStringT<wchar_t,class StrTraitMFC_DLL<wchar_t,class ATL::ChTraitsCRT<wchar_t> > > __cdecl COleControl::AmbientScaleUnits(void)" 
?AmbientScaleUnits@COleControl@@QAA?AV?$CStringT@GV?$StrTraitMFC_DLL@GV?$ChTraitsCRT@G@ATL@@@@@ATL@@XZ => Microsoft (R) C++ Name Undecorator Copyright (C) Microsoft Corporation. All rights reserved.  Undecoration of :- "?AmbientScaleUnits@COleControl@@QAA?AV?$CStringT@GV?$StrTraitMFC_DLL@GV?$ChTraitsCRT@G@ATL@@@@@ATL@@XZ" is :- "public: class ATL::CStringT<unsigned short,class StrTraitMFC_DLL<unsigned short,class ATL::ChTraitsCRT<unsigned short> > > __cdecl COleControl::AmbientScaleUnits(void)" 
?Append@?$CSimpleStringT@_W$00@ATL@@QAAXABV12@@Z => Microsoft (R) C++ Name Undecorator Copyright (C) Microsoft Corporation. All rights reserved.  Undecoration of :- "?Append@?$CSimpleStringT@_W$00@ATL@@QAAXABV12@@Z" is :- "public: void __cdecl ATL::CSimpleStringT<wchar_t,1>::Append(class ATL::CSimpleStringT<wchar_t,1> const &)" 
?Append@?$CSimpleStringT@_W$00@ATL@@QAAXPB_W@Z => Microsoft (R) C++ Name Undecorator Copyright (C) Microsoft Corporation. All rights reserved.  Undecoration of :- "?Append@?$CSimpleStringT@_W$00@ATL@@QAAXPB_W@Z" is :- "public: void __cdecl ATL::CSimpleStringT<wchar_t,1>::Append(wchar_t const *)" 
?Append@?$CSimpleStringT@_W$00@ATL@@QAAXPB_WH@Z => Microsoft (R) C++ Name Undecorator Copyright (C) Microsoft Corporation. All rights reserved.  Undecoration of :- "?Append@?$CSimpleStringT@_W$00@ATL@@QAAXPB_WH@Z" is :- "public: void __cdecl ATL::CSimpleStringT<wchar_t,1>::Append(wchar_t const *,int)" 
?Append@?$CSimpleStringT@G$00@ATL@@QAAXABV12@@Z => Microsoft (R) C++ Name Undecorator Copyright (C) Microsoft Corporation. All rights reserved.  Undecoration of :- "?Append@?$CSimpleStringT@G$00@ATL@@QAAXABV12@@Z" is :- "public: void __cdecl ATL::CSimpleStringT<unsigned short,1>::Append(class ATL::CSimpleStringT<unsigned short,1> const &)" 
?Append@?$CSimpleStringT@G$00@ATL@@QAAXPBG@Z => Microsoft (R) C++ Name Undecorator Copyright (C) Microsoft Corporation. All rights reserved.  Undecoration of :- "?Append@?$CSimpleStringT@G$00@ATL@@QAAXPBG@Z" is :- "public: void __cdecl ATL::CSimpleStringT<unsigned short,1>::Append(unsigned short const *)" 
?Append@?$CSimpleStringT@G$00@ATL@@QAAXPBGH@Z => Microsoft (R) C++ Name Undecorator Copyright (C) Microsoft Corporation. All rights reserved.  Undecoration of :- "?Append@?$CSimpleStringT@G$00@ATL@@QAAXPBGH@Z" is :- "public: void __cdecl ATL::CSimpleStringT<unsigned short,1>::Append(unsigned short const *,int)" 
?AppendChar@?$CSimpleStringT@_W$00@ATL@@QAAX_W@Z => Microsoft (R) C++ Name Undecorator Copyright (C) Microsoft Corporation. All rights reserved.  Undecoration of :- "?AppendChar@?$CSimpleStringT@_W$00@ATL@@QAAX_W@Z" is :- "public: void __cdecl ATL::CSimpleStringT<wchar_t,1>::AppendChar(wchar_t)" 
?AppendChar@?$CSimpleStringT@G$00@ATL@@QAAXG@Z => Microsoft (R) C++ Name Undecorator Copyright (C) Microsoft Corporation. All rights reserved.  Undecoration of :- "?AppendChar@?$CSimpleStringT@G$00@ATL@@QAAXG@Z" is :- "public: void __cdecl ATL::CSimpleStringT<unsigned short,1>::AppendChar(unsigned short)" 
?AppendFormat@?$CStringT@_WV?$StrTraitMFC_DLL@_WV?$ChTraitsCRT@_W@ATL@@@@@ATL@@QAAXIZZ => Microsoft (R) C++ Name Undecorator Copyright (C) Microsoft Corporation. All rights reserved.  Undecoration of :- "?AppendFormat@?$CStringT@_WV?$StrTraitMFC_DLL@_WV?$ChTraitsCRT@_W@ATL@@@@@ATL@@QAAXIZZ" is :- "public: void __cdecl ATL::CStringT<wchar_t,class StrTraitMFC_DLL<wchar_t,class ATL::ChTraitsCRT<wchar_t> > >::AppendFormat(unsigned int,...)" 
?AppendFormat@?$CStringT@_WV?$StrTraitMFC_DLL@_WV?$ChTraitsCRT@_W@ATL@@@@@ATL@@QAAXPB_WZZ => Microsoft (R) C++ Name Undecorator Copyright (C) Microsoft Corporation. All rights reserved.  Undecoration of :- "?AppendFormat@?$CStringT@_WV?$StrTraitMFC_DLL@_WV?$ChTraitsCRT@_W@ATL@@@@@ATL@@QAAXPB_WZZ" is :- "public: void __cdecl ATL::CStringT<wchar_t,class StrTraitMFC_DLL<wchar_t,class ATL::ChTraitsCRT<wchar_t> > >::AppendFormat(wchar_t const *,...)" 
?AppendFormat@?$CStringT@GV?$StrTraitMFC_DLL@GV?$ChTraitsCRT@G@ATL@@@@@ATL@@QAAXIZZ => Microsoft (R) C++ Name Undecorator Copyright (C) Microsoft Corporation. All rights reserved.  Undecoration of :- "?AppendFormat@?$CStringT@GV?$StrTraitMFC_DLL@GV?$ChTraitsCRT@G@ATL@@@@@ATL@@QAAXIZZ" is :- "public: void __cdecl ATL::CStringT<unsigned short,class StrTraitMFC_DLL<unsigned short,class ATL::ChTraitsCRT<unsigned short> > >::AppendFormat(unsigned int,...)" 
?AppendFormat@?$CStringT@GV?$StrTraitMFC_DLL@GV?$ChTraitsCRT@G@ATL@@@@@ATL@@QAAXPBGZZ => Microsoft (R) C++ Name Undecorator Copyright (C) Microsoft Corporation. All rights reserved.  Undecoration of :- "?AppendFormat@?$CStringT@GV?$StrTraitMFC_DLL@GV?$ChTraitsCRT@G@ATL@@@@@ATL@@QAAXPBGZZ" is :- "public: void __cdecl ATL::CStringT<unsigned short,class StrTraitMFC_DLL<unsigned short,class ATL::ChTraitsCRT<unsigned short> > >::AppendFormat(unsigned short const *,...)" 
?AppendFormatV@?$CStringT@_WV?$StrTraitMFC_DLL@_WV?$ChTraitsCRT@_W@ATL@@@@@ATL@@QAAXPB_WPAD@Z => Microsoft (R) C++ Name Undecorator Copyright (C) Microsoft Corporation. All rights reserved.  Undecoration of :- "?AppendFormatV@?$CStringT@_WV?$StrTraitMFC_DLL@_WV?$ChTraitsCRT@_W@ATL@@@@@ATL@@QAAXPB_WPAD@Z" is :- "public: void __cdecl ATL::CStringT<wchar_t,class StrTraitMFC_DLL<wchar_t,class ATL::ChTraitsCRT<wchar_t> > >::AppendFormatV(wchar_t const *,char *)" 
?AppendFormatV@?$CStringT@GV?$StrTraitMFC_DLL@GV?$ChTraitsCRT@G@ATL@@@@@ATL@@QAAXPBGPAD@Z => Microsoft (R) C++ Name Undecorator Copyright (C) Microsoft Corporation. All rights reserved.  Undecoration of :- "?AppendFormatV@?$CStringT@GV?$StrTraitMFC_DLL@GV?$ChTraitsCRT@G@ATL@@@@@ATL@@QAAXPBGPAD@Z" is :- "public: void __cdecl ATL::CStringT<unsigned short,class StrTraitMFC_DLL<unsigned short,class ATL::ChTraitsCRT<unsigned short> > >::AppendFormatV(unsigned short const *,char *)" 
?AppendNames@CRecordset@@QAAIPAV?$CStringT@_WV?$StrTraitMFC_DLL@_WV?$ChTraitsCRT@_W@ATL@@@@@ATL@@PB_W@Z => Microsoft (R) C++ Name Undecorator Copyright (C) Microsoft Corporation. All rights reserved.  Undecoration of :- "?AppendNames@CRecordset@@QAAIPAV?$CStringT@_WV?$StrTraitMFC_DLL@_WV?$ChTraitsCRT@_W@ATL@@@@@ATL@@PB_W@Z" is :- "public: unsigned int __cdecl CRecordset::AppendNames(class ATL::CStringT<wchar_t,class StrTraitMFC_DLL<wchar_t,class ATL::ChTraitsCRT<wchar_t> > > *,wchar_t const *)" 
?AppendNames@CRecordset@@QAAIPAV?$CStringT@GV?$StrTraitMFC_DLL@GV?$ChTraitsCRT@G@ATL@@@@@ATL@@PBG@Z => Microsoft (R) C++ Name Undecorator Copyright (C) Microsoft Corporation. All rights reserved.  Undecoration of :- "?AppendNames@CRecordset@@QAAIPAV?$CStringT@GV?$StrTraitMFC_DLL@GV?$ChTraitsCRT@G@ATL@@@@@ATL@@PBG@Z" is :- "public: unsigned int __cdecl CRecordset::AppendNames(class ATL::CStringT<unsigned short,class StrTraitMFC_DLL<unsigned short,class ATL::ChTraitsCRT<unsigned short> > > *,unsigned short const *)" 
?AppendNamesValues@CRecordset@@QAAIPAXPAV?$CStringT@_WV?$StrTraitMFC_DLL@_WV?$ChTraitsCRT@_W@ATL@@@@@ATL@@PB_W@Z => Microsoft (R) C++ Name Undecorator Copyright (C) Microsoft Corporation. All rights reserved.  Undecoration of :- "?AppendNamesValues@CRecordset@@QAAIPAXPAV?$CStringT@_WV?$StrTraitMFC_DLL@_WV?$ChTraitsCRT@_W@ATL@@@@@ATL@@PB_W@Z" is :- "public: unsigned int __cdecl CRecordset::AppendNamesValues(void *,class ATL::CStringT<wchar_t,class StrTraitMFC_DLL<wchar_t,class ATL::ChTraitsCRT<wchar_t> > > *,wchar_t const *)" 
?AppendNamesValues@CRecordset@@QAAIPAXPAV?$CStringT@GV?$StrTraitMFC_DLL@GV?$ChTraitsCRT@G@ATL@@@@@ATL@@PBG@Z => Microsoft (R) C++ Name Undecorator Copyright (C) Microsoft Corporation. All rights reserved.  Undecoration of :- "?AppendNamesValues@CRecordset@@QAAIPAXPAV?$CStringT@GV?$StrTraitMFC_DLL@GV?$ChTraitsCRT@G@ATL@@@@@ATL@@PBG@Z" is :- "public: unsigned int __cdecl CRecordset::AppendNamesValues(void *,class ATL::CStringT<unsigned short,class StrTraitMFC_DLL<unsigned short,class ATL::ChTraitsCRT<unsigned short> > > *,unsigned short const *)" 
?AppendValues@CRecordset@@QAAIPAXPAV?$CStringT@_WV?$StrTraitMFC_DLL@_WV?$ChTraitsCRT@_W@ATL@@@@@ATL@@PB_W@Z => Microsoft (R) C++ Name Undecorator Copyright (C) Microsoft Corporation. All rights reserved.  Undecoration of :- "?AppendValues@CRecordset@@QAAIPAXPAV?$CStringT@_WV?$StrTraitMFC_DLL@_WV?$ChTraitsCRT@_W@ATL@@@@@ATL@@PB_W@Z" is :- "public: unsigned int __cdecl CRecordset::AppendValues(void *,class ATL::CStringT<wchar_t,class StrTraitMFC_DLL<wchar_t,class ATL::ChTraitsCRT<wchar_t> > > *,wchar_t const *)" 
?AppendValues@CRecordset@@QAAIPAXPAV?$CStringT@GV?$StrTraitMFC_DLL@GV?$ChTraitsCRT@G@ATL@@@@@ATL@@PBG@Z => Microsoft (R) C++ Name Undecorator Copyright (C) Microsoft Corporation. All rights reserved.  Undecoration of :- "?AppendValues@CRecordset@@QAAIPAXPAV?$CStringT@GV?$StrTraitMFC_DLL@GV?$ChTraitsCRT@G@ATL@@@@@ATL@@PBG@Z" is :- "public: unsigned int __cdecl CRecordset::AppendValues(void *,class ATL::CStringT<unsigned short,class StrTraitMFC_DLL<unsigned short,class ATL::ChTraitsCRT<unsigned short> > > *,unsigned short const *)" 
?Attach@?$CSimpleStringT@_W$00@ATL@@AAAXPAUCStringData@2@@Z => Microsoft (R) C++ Name Undecorator Copyright (C) Microsoft Corporation. All rights reserved.  Undecoration of :- "?Attach@?$CSimpleStringT@_W$00@ATL@@AAAXPAUCStringData@2@@Z" is :- "private: void __cdecl ATL::CSimpleStringT<wchar_t,1>::Attach(struct ATL::CStringData *)" 
?Attach@?$CSimpleStringT@G$00@ATL@@AAAXPAUCStringData@2@@Z => Microsoft (R) C++ Name Undecorator Copyright (C) Microsoft Corporation. All rights reserved.  Undecoration of :- "?Attach@?$CSimpleStringT@G$00@ATL@@AAAXPAUCStringData@2@@Z" is :- "private: void __cdecl ATL::CSimpleStringT<unsigned short,1>::Attach(struct ATL::CStringData *)" 
?Attach@CMonikerFile@@IAAHPB_WPAUIBindHost@@PAUIBindStatusCallback@@PAUIBindCtx@@PAVCFileException@@@Z => Microsoft (R) C++ Name Undecorator Copyright (C) Microsoft Corporation. All rights reserved.  Undecoration of :- "?Attach@CMonikerFile@@IAAHPB_WPAUIBindHost@@PAUIBindStatusCallback@@PAUIBindCtx@@PAVCFileException@@@Z" is :- "protected: int __cdecl CMonikerFile::Attach(wchar_t const *,struct IBindHost *,struct IBindStatusCallback *,struct IBindCtx *,class CFileException *)" 
?Attach@CMonikerFile@@IAAHPBGPAUIBindHost@@PAUIBindStatusCallback@@PAUIBindCtx@@PAVCFileException@@@Z => Microsoft (R) C++ Name Undecorator Copyright (C) Microsoft Corporation. All rights reserved.  Undecoration of :- "?Attach@CMonikerFile@@IAAHPBGPAUIBindHost@@PAUIBindStatusCallback@@PAUIBindCtx@@PAVCFileException@@@Z" is :- "protected: int __cdecl CMonikerFile::Attach(unsigned short const *,struct IBindHost *,struct IBindStatusCallback *,struct IBindCtx *,class CFileException *)" 
?Bind@CAsyncSocket@@QAAHIPB_W@Z => Microsoft (R) C++ Name Undecorator Copyright (C) Microsoft Corporation. All rights reserved.  Undecoration of :- "?Bind@CAsyncSocket@@QAAHIPB_W@Z" is :- "public: int __cdecl CAsyncSocket::Bind(unsigned int,wchar_t const *)" 
?Bind@CAsyncSocket@@QAAHIPBG@Z => Microsoft (R) C++ Name Undecorator Copyright (C) Microsoft Corporation. All rights reserved.  Undecoration of :- "?Bind@CAsyncSocket@@QAAHIPBG@Z" is :- "public: int __cdecl CAsyncSocket::Bind(unsigned int,unsigned short const *)" 
?BindDefaultProperty@COleControlSite@@UAAXJGPB_WPAVCWnd@@@Z => Microsoft (R) C++ Name Undecorator Copyright (C) Microsoft Corporation. All rights reserved.  Undecoration of :- "?BindDefaultProperty@COleControlSite@@UAAXJGPB_WPAVCWnd@@@Z" is :- "public: virtual void __cdecl COleControlSite::BindDefaultProperty(long,unsigned short,wchar_t const *,class CWnd *)" 
?BindDefaultProperty@COleControlSite@@UAAXJGPBGPAVCWnd@@@Z => Microsoft (R) C++ Name Undecorator Copyright (C) Microsoft Corporation. All rights reserved.  Undecoration of :- "?BindDefaultProperty@COleControlSite@@UAAXJGPBGPAVCWnd@@@Z" is :- "public: virtual void __cdecl COleControlSite::BindDefaultProperty(long,unsigned short,unsigned short const *,class CWnd *)" 
?BindDefaultProperty@CWnd@@QAAXJGPB_WPAV1@@Z => Microsoft (R) C++ Name Undecorator Copyright (C) Microsoft Corporation. All rights reserved.  Undecoration of :- "?BindDefaultProperty@CWnd@@QAAXJGPB_WPAV1@@Z" is :- "public: void __cdecl CWnd::BindDefaultProperty(long,unsigned short,wchar_t const *,class CWnd *)" 
?BindDefaultProperty@CWnd@@QAAXJGPBGPAV1@@Z => Microsoft (R) C++ Name Undecorator Copyright (C) Microsoft Corporation. All rights reserved.  Undecoration of :- "?BindDefaultProperty@CWnd@@QAAXJGPBGPAV1@@Z" is :- "public: void __cdecl CWnd::BindDefaultProperty(long,unsigned short,unsigned short const *,class CWnd *)" 
?BrowseForFolder@CShellManager@@QAAHAAV?$CStringT@_WV?$StrTraitMFC_DLL@_WV?$ChTraitsCRT@_W@ATL@@@@@ATL@@PAVCWnd@@PB_W2IPAH@Z => Microsoft (R) C++ Name Undecorator Copyright (C) Microsoft Corporation. All rights reserved.  Undecoration of :- "?BrowseForFolder@CShellManager@@QAAHAAV?$CStringT@_WV?$StrTraitMFC_DLL@_WV?$ChTraitsCRT@_W@ATL@@@@@ATL@@PAVCWnd@@PB_W2IPAH@Z" is :- "public: int __cdecl CShellManager::BrowseForFolder(class ATL::CStringT<wchar_t,class StrTraitMFC_DLL<wchar_t,class ATL::ChTraitsCRT<wchar_t> > > &,class CWnd *,wchar_t const *,wchar_t const *,unsigned int,int *)" 
?BrowseForFolder@CShellManager@@QAAHAAV?$CStringT@GV?$StrTraitMFC_DLL@GV?$ChTraitsCRT@G@ATL@@@@@ATL@@PAVCWnd@@PBG2IPAH@Z => Microsoft (R) C++ Name Undecorator Copyright (C) Microsoft Corporation. All rights reserved.  Undecoration of :- "?BrowseForFolder@CShellManager@@QAAHAAV?$CStringT@GV?$StrTraitMFC_DLL@GV?$ChTraitsCRT@G@ATL@@@@@ATL@@PAVCWnd@@PBG2IPAH@Z" is :- "public: int __cdecl CShellManager::BrowseForFolder(class ATL::CStringT<unsigned short,class StrTraitMFC_DLL<unsigned short,class ATL::ChTraitsCRT<unsigned short> > > &,class CWnd *,unsigned short const *,unsigned short const *,unsigned int,int *)" 
?Build@CMenuTearOffManager@@QAAXIAAV?$CStringT@_WV?$StrTraitMFC_DLL@_WV?$ChTraitsCRT@_W@ATL@@@@@ATL@@@Z => Microsoft (R) C++ Name Undecorator Copyright (C) Microsoft Corporation. All rights reserved.  Undecoration of :- "?Build@CMenuTearOffManager@@QAAXIAAV?$CStringT@_WV?$StrTraitMFC_DLL@_WV?$ChTraitsCRT@_W@ATL@@@@@ATL@@@Z" is :- "public: void __cdecl CMenuTearOffManager::Build(unsigned int,class ATL::CStringT<wchar_t,class StrTraitMFC_DLL<wchar_t,class ATL::ChTraitsCRT<wchar_t> > > &)" 
?Build@CMenuTearOffManager@@QAAXIAAV?$CStringT@GV?$StrTraitMFC_DLL@GV?$ChTraitsCRT@G@ATL@@@@@ATL@@@Z => Microsoft (R) C++ Name Undecorator Copyright (C) Microsoft Corporation. All rights reserved.  Undecoration of :- "?Build@CMenuTearOffManager@@QAAXIAAV?$CStringT@GV?$StrTraitMFC_DLL@GV?$ChTraitsCRT@G@ATL@@@@@ATL@@@Z" is :- "public: void __cdecl CMenuTearOffManager::Build(unsigned int,class ATL::CStringT<unsigned short,class StrTraitMFC_DLL<unsigned short,class ATL::ChTraitsCRT<unsigned short> > > &)" 
?BuildSQL@CRecordset@@IAAXPB_W@Z => Microsoft (R) C++ Name Undecorator Copyright (C) Microsoft Corporation. All rights reserved.  Undecoration of :- "?BuildSQL@CRecordset@@IAAXPB_W@Z" is :- "protected: void __cdecl CRecordset::BuildSQL(wchar_t const *)" 
?BuildSQL@CRecordset@@IAAXPBG@Z => Microsoft (R) C++ Name Undecorator Copyright (C) Microsoft Corporation. All rights reserved.  Undecoration of :- "?BuildSQL@CRecordset@@IAAXPBG@Z" is :- "protected: void __cdecl CRecordset::BuildSQL(unsigned short const *)" 
?CheckChar@CMFCMaskedEdit@@AAAH_WH@Z => Microsoft (R) C++ Name Undecorator Copyright (C) Microsoft Corporation. All rights reserved.  Undecoration of :- "?CheckChar@CMFCMaskedEdit@@AAAH_WH@Z" is :- "private: int __cdecl CMFCMaskedEdit::CheckChar(wchar_t,int)" 
?CheckChar@CMFCMaskedEdit@@AAAHGH@Z => Microsoft (R) C++ Name Undecorator Copyright (C) Microsoft Corporation. All rights reserved.  Undecoration of :- "?CheckChar@CMFCMaskedEdit@@AAAHGH@Z" is :- "private: int __cdecl CMFCMaskedEdit::CheckChar(unsigned short,int)" 
?CheckImplicitLoad@?$CStringT@_WV?$StrTraitMFC_DLL@_WV?$ChTraitsCRT@_W@ATL@@@@@ATL@@AAA_NPBX@Z => Microsoft (R) C++ Name Undecorator Copyright (C) Microsoft Corporation. All rights reserved.  Undecoration of :- "?CheckImplicitLoad@?$CStringT@_WV?$StrTraitMFC_DLL@_WV?$ChTraitsCRT@_W@ATL@@@@@ATL@@AAA_NPBX@Z" is :- "private: bool __cdecl ATL::CStringT<wchar_t,class StrTraitMFC_DLL<wchar_t,class ATL::ChTraitsCRT<wchar_t> > >::CheckImplicitLoad(void const *)" 
?CheckImplicitLoad@?$CStringT@GV?$StrTraitMFC_DLL@GV?$ChTraitsCRT@G@ATL@@@@@ATL@@AAA_NPBX@Z => Microsoft (R) C++ Name Undecorator Copyright (C) Microsoft Corporation. All rights reserved.  Undecoration of :- "?CheckImplicitLoad@?$CStringT@GV?$StrTraitMFC_DLL@GV?$ChTraitsCRT@G@ATL@@@@@ATL@@AAA_NPBX@Z" is :- "private: bool __cdecl ATL::CStringT<unsigned short,class StrTraitMFC_DLL<unsigned short,class ATL::ChTraitsCRT<unsigned short> > >::CheckImplicitLoad(void const *)" 
?CleanState@CWinAppEx@@UAAHPB_W@Z => Microsoft (R) C++ Name Undecorator Copyright (C) Microsoft Corporation. All rights reserved.  Undecoration of :- "?CleanState@CWinAppEx@@UAAHPB_W@Z" is :- "public: virtual int __cdecl CWinAppEx::CleanState(wchar_t const *)" 
?CleanState@CWinAppEx@@UAAHPBG@Z => Microsoft (R) C++ Name Undecorator Copyright (C) Microsoft Corporation. All rights reserved.  Undecoration of :- "?CleanState@CWinAppEx@@UAAHPBG@Z" is :- "public: virtual int __cdecl CWinAppEx::CleanState(unsigned short const *)" 
?CloneData@?$CSimpleStringT@_W$00@ATL@@CAPAUCStringData@2@PAU32@@Z => Microsoft (R) C++ Name Undecorator Copyright (C) Microsoft Corporation. All rights reserved.  Undecoration of :- "?CloneData@?$CSimpleStringT@_W$00@ATL@@CAPAUCStringData@2@PAU32@@Z" is :- "private: static struct ATL::CStringData * __cdecl ATL::CSimpleStringT<wchar_t,1>::CloneData(struct ATL::CStringData *)" 
?CloneData@?$CSimpleStringT@G$00@ATL@@CAPAUCStringData@2@PAU32@@Z => Microsoft (R) C++ Name Undecorator Copyright (C) Microsoft Corporation. All rights reserved.  Undecoration of :- "?CloneData@?$CSimpleStringT@G$00@ATL@@CAPAUCStringData@2@PAU32@@Z" is :- "private: static struct ATL::CStringData * __cdecl ATL::CSimpleStringT<unsigned short,1>::CloneData(struct ATL::CStringData *)" 
?Collate@?$CStringT@_WV?$StrTraitMFC_DLL@_WV?$ChTraitsCRT@_W@ATL@@@@@ATL@@QBAHPB_W@Z => Microsoft (R) C++ Name Undecorator Copyright (C) Microsoft Corporation. All rights reserved.  Undecoration of :- "?Collate@?$CStringT@_WV?$StrTraitMFC_DLL@_WV?$ChTraitsCRT@_W@ATL@@@@@ATL@@QBAHPB_W@Z" is :- "public: int __cdecl ATL::CStringT<wchar_t,class StrTraitMFC_DLL<wchar_t,class ATL::ChTraitsCRT<wchar_t> > >::Collate(wchar_t const *)const " 
?Collate@?$CStringT@GV?$StrTraitMFC_DLL@GV?$ChTraitsCRT@G@ATL@@@@@ATL@@QBAHPBG@Z => Microsoft (R) C++ Name Undecorator Copyright (C) Microsoft Corporation. All rights reserved.  Undecoration of :- "?Collate@?$CStringT@GV?$StrTraitMFC_DLL@GV?$ChTraitsCRT@G@ATL@@@@@ATL@@QBAHPBG@Z" is :- "public: int __cdecl ATL::CStringT<unsigned short,class StrTraitMFC_DLL<unsigned short,class ATL::ChTraitsCRT<unsigned short> > >::Collate(unsigned short const *)const " 
?CollateNoCase@?$CStringT@_WV?$StrTraitMFC_DLL@_WV?$ChTraitsCRT@_W@ATL@@@@@ATL@@QBAHPB_W@Z => Microsoft (R) C++ Name Undecorator Copyright (C) Microsoft Corporation. All rights reserved.  Undecoration of :- "?CollateNoCase@?$CStringT@_WV?$StrTraitMFC_DLL@_WV?$ChTraitsCRT@_W@ATL@@@@@ATL@@QBAHPB_W@Z" is :- "public: int __cdecl ATL::CStringT<wchar_t,class StrTraitMFC_DLL<wchar_t,class ATL::ChTraitsCRT<wchar_t> > >::CollateNoCase(wchar_t const *)const " 
?CollateNoCase@?$CStringT@GV?$StrTraitMFC_DLL@GV?$ChTraitsCRT@G@ATL@@@@@ATL@@QBAHPBG@Z => Microsoft (R) C++ Name Undecorator Copyright (C) Microsoft Corporation. All rights reserved.  Undecoration of :- "?CollateNoCase@?$CStringT@GV?$StrTraitMFC_DLL@GV?$ChTraitsCRT@G@ATL@@@@@ATL@@QBAHPBG@Z" is :- "public: int __cdecl ATL::CStringT<unsigned short,class StrTraitMFC_DLL<unsigned short,class ATL::ChTraitsCRT<unsigned short> > >::CollateNoCase(unsigned short const *)const " 
?Command@CFtpConnection@@QAAPAVCInternetFile@@PB_WW4CmdResponseType@1@KK@Z => Microsoft (R) C++ Name Undecorator Copyright (C) Microsoft Corporation. All rights reserved.  Undecoration of :- "?Command@CFtpConnection@@QAAPAVCInternetFile@@PB_WW4CmdResponseType@1@KK@Z" is :- "public: class CInternetFile * __cdecl CFtpConnection::Command(wchar_t const *,enum CFtpConnection::CmdResponseType,unsigned long,unsigned long)" 
?Command@CFtpConnection@@QAAPAVCInternetFile@@PBGW4CmdResponseType@1@KK@Z => Microsoft (R) C++ Name Undecorator Copyright (C) Microsoft Corporation. All rights reserved.  Undecoration of :- "?Command@CFtpConnection@@QAAPAVCInternetFile@@PBGW4CmdResponseType@1@KK@Z" is :- "public: class CInternetFile * __cdecl CFtpConnection::Command(unsigned short const *,enum CFtpConnection::CmdResponseType,unsigned long,unsigned long)" 
?CommonConstruct@COleObjectFactory@@IAAXABU_GUID@@PAUCRuntimeClass@@HHPB_W@Z => Microsoft (R) C++ Name Undecorator Copyright (C) Microsoft Corporation. All rights reserved.  Undecoration of :- "?CommonConstruct@COleObjectFactory@@IAAXABU_GUID@@PAUCRuntimeClass@@HHPB_W@Z" is :- "protected: void __cdecl COleObjectFactory::CommonConstruct(struct _GUID const &,struct CRuntimeClass *,int,int,wchar_t const *)" 
?CommonConstruct@COleObjectFactory@@IAAXABU_GUID@@PAUCRuntimeClass@@HHPBG@Z => Microsoft (R) C++ Name Undecorator Copyright (C) Microsoft Corporation. All rights reserved.  Undecoration of :- "?CommonConstruct@COleObjectFactory@@IAAXABU_GUID@@PAUCRuntimeClass@@HHPBG@Z" is :- "protected: void __cdecl COleObjectFactory::CommonConstruct(struct _GUID const &,struct CRuntimeClass *,int,int,unsigned short const *)" 
?CommonConstruct@CPropertyPage@@IAAXPB_WI@Z => Microsoft (R) C++ Name Undecorator Copyright (C) Microsoft Corporation. All rights reserved.  Undecoration of :- "?CommonConstruct@CPropertyPage@@IAAXPB_WI@Z" is :- "protected: void __cdecl CPropertyPage::CommonConstruct(wchar_t const *,unsigned int)" 
?CommonConstruct@CPropertyPage@@IAAXPB_WIII@Z => Microsoft (R) C++ Name Undecorator Copyright (C) Microsoft Corporation. All rights reserved.  Undecoration of :- "?CommonConstruct@CPropertyPage@@IAAXPB_WIII@Z" is :- "protected: void __cdecl CPropertyPage::CommonConstruct(wchar_t const *,unsigned int,unsigned int,unsigned int)" 
?CommonConstruct@CPropertyPage@@IAAXPBGI@Z => Microsoft (R) C++ Name Undecorator Copyright (C) Microsoft Corporation. All rights reserved.  Undecoration of :- "?CommonConstruct@CPropertyPage@@IAAXPBGI@Z" is :- "protected: void __cdecl CPropertyPage::CommonConstruct(unsigned short const *,unsigned int)" 
?CommonConstruct@CPropertyPage@@IAAXPBGIII@Z => Microsoft (R) C++ Name Undecorator Copyright (C) Microsoft Corporation. All rights reserved.  Undecoration of :- "?CommonConstruct@CPropertyPage@@IAAXPBGIII@Z" is :- "protected: void __cdecl CPropertyPage::CommonConstruct(unsigned short const *,unsigned int,unsigned int,unsigned int)" 
?CommonInit@CFile@@IAAXPB_WIPAVCAtlTransactionManager@ATL@@@Z => Microsoft (R) C++ Name Undecorator Copyright (C) Microsoft Corporation. All rights reserved.  Undecoration of :- "?CommonInit@CFile@@IAAXPB_WIPAVCAtlTransactionManager@ATL@@@Z" is :- "protected: void __cdecl CFile::CommonInit(wchar_t const *,unsigned int,class ATL::CAtlTransactionManager *)" 
?CommonInit@CFile@@IAAXPBGIPAVCAtlTransactionManager@ATL@@@Z => Microsoft (R) C++ Name Undecorator Copyright (C) Microsoft Corporation. All rights reserved.  Undecoration of :- "?CommonInit@CFile@@IAAXPBGIPAVCAtlTransactionManager@ATL@@@Z" is :- "protected: void __cdecl CFile::CommonInit(unsigned short const *,unsigned int,class ATL::CAtlTransactionManager *)" 
?CommonInit@CMFCRibbonCategory@@IAAXPAVCMFCRibbonBar@@PB_WIIVCSize@@2@Z => Microsoft (R) C++ Name Undecorator Copyright (C) Microsoft Corporation. All rights reserved.  Undecoration of :- "?CommonInit@CMFCRibbonCategory@@IAAXPAVCMFCRibbonBar@@PB_WIIVCSize@@2@Z" is :- "protected: void __cdecl CMFCRibbonCategory::CommonInit(class CMFCRibbonBar *,wchar_t const *,unsigned int,unsigned int,class CSize,class CSize)" 
?CommonInit@CMFCRibbonCategory@@IAAXPAVCMFCRibbonBar@@PBGIIVCSize@@2@Z => Microsoft (R) C++ Name Undecorator Copyright (C) Microsoft Corporation. All rights reserved.  Undecoration of :- "?CommonInit@CMFCRibbonCategory@@IAAXPAVCMFCRibbonBar@@PBGIIVCSize@@2@Z" is :- "protected: void __cdecl CMFCRibbonCategory::CommonInit(class CMFCRibbonBar *,unsigned short const *,unsigned int,unsigned int,class CSize,class CSize)" 
?CommonInit@CMFCRibbonPanel@@IAAXPB_WPAUHICON__@@@Z => Microsoft (R) C++ Name Undecorator Copyright (C) Microsoft Corporation. All rights reserved.  Undecoration of :- "?CommonInit@CMFCRibbonPanel@@IAAXPB_WPAUHICON__@@@Z" is :- "protected: void __cdecl CMFCRibbonPanel::CommonInit(wchar_t const *,struct HICON__ *)" 
?CommonInit@CMFCRibbonPanel@@IAAXPBGPAUHICON__@@@Z => Microsoft (R) C++ Name Undecorator Copyright (C) Microsoft Corporation. All rights reserved.  Undecoration of :- "?CommonInit@CMFCRibbonPanel@@IAAXPBGPAUHICON__@@@Z" is :- "protected: void __cdecl CMFCRibbonPanel::CommonInit(unsigned short const *,struct HICON__ *)" 
?CommonInit@CStdioFile@@IAAXPB_WIPAVCAtlTransactionManager@ATL@@@Z => Microsoft (R) C++ Name Undecorator Copyright (C) Microsoft Corporation. All rights reserved.  Undecoration of :- "?CommonInit@CStdioFile@@IAAXPB_WIPAVCAtlTransactionManager@ATL@@@Z" is :- "protected: void __cdecl CStdioFile::CommonInit(wchar_t const *,unsigned int,class ATL::CAtlTransactionManager *)" 
?CommonInit@CStdioFile@@IAAXPBGIPAVCAtlTransactionManager@ATL@@@Z => Microsoft (R) C++ Name Undecorator Copyright (C) Microsoft Corporation. All rights reserved.  Undecoration of :- "?CommonInit@CStdioFile@@IAAXPBGIPAVCAtlTransactionManager@ATL@@@Z" is :- "protected: void __cdecl CStdioFile::CommonInit(unsigned short const *,unsigned int,class ATL::CAtlTransactionManager *)" 
?Compare@?$CStringT@_WV?$StrTraitMFC_DLL@_WV?$ChTraitsCRT@_W@ATL@@@@@ATL@@QBAHPB_W@Z => Microsoft (R) C++ Name Undecorator Copyright (C) Microsoft Corporation. All rights reserved.  Undecoration of :- "?Compare@?$CStringT@_WV?$StrTraitMFC_DLL@_WV?$ChTraitsCRT@_W@ATL@@@@@ATL@@QBAHPB_W@Z" is :- "public: int __cdecl ATL::CStringT<wchar_t,class StrTraitMFC_DLL<wchar_t,class ATL::ChTraitsCRT<wchar_t> > >::Compare(wchar_t const *)const " 
?Compare@?$CStringT@GV?$StrTraitMFC_DLL@GV?$ChTraitsCRT@G@ATL@@@@@ATL@@QBAHPBG@Z => Microsoft (R) C++ Name Undecorator Copyright (C) Microsoft Corporation. All rights reserved.  Undecoration of :- "?Compare@?$CStringT@GV?$StrTraitMFC_DLL@GV?$ChTraitsCRT@G@ATL@@@@@ATL@@QBAHPBG@Z" is :- "public: int __cdecl ATL::CStringT<unsigned short,class StrTraitMFC_DLL<unsigned short,class ATL::ChTraitsCRT<unsigned short> > >::Compare(unsigned short const *)const " 
?Compare@CMFCToolBarComboBoxButton@@UAAHPB_W0@Z => Microsoft (R) C++ Name Undecorator Copyright (C) Microsoft Corporation. All rights reserved.  Undecoration of :- "?Compare@CMFCToolBarComboBoxButton@@UAAHPB_W0@Z" is :- "public: virtual int __cdecl CMFCToolBarComboBoxButton::Compare(wchar_t const *,wchar_t const *)" 
?Compare@CMFCToolBarComboBoxButton@@UAAHPBG0@Z => Microsoft (R) C++ Name Undecorator Copyright (C) Microsoft Corporation. All rights reserved.  Undecoration of :- "?Compare@CMFCToolBarComboBoxButton@@UAAHPBG0@Z" is :- "public: virtual int __cdecl CMFCToolBarComboBoxButton::Compare(unsigned short const *,unsigned short const *)" 
?CompareNoCase@?$CStringT@_WV?$StrTraitMFC_DLL@_WV?$ChTraitsCRT@_W@ATL@@@@@ATL@@QBAHPB_W@Z => Microsoft (R) C++ Name Undecorator Copyright (C) Microsoft Corporation. All rights reserved.  Undecoration of :- "?CompareNoCase@?$CStringT@_WV?$StrTraitMFC_DLL@_WV?$ChTraitsCRT@_W@ATL@@@@@ATL@@QBAHPB_W@Z" is :- "public: int __cdecl ATL::CStringT<wchar_t,class StrTraitMFC_DLL<wchar_t,class ATL::ChTraitsCRT<wchar_t> > >::CompareNoCase(wchar_t const *)const " 
?CompareNoCase@?$CStringT@GV?$StrTraitMFC_DLL@GV?$ChTraitsCRT@G@ATL@@@@@ATL@@QBAHPBG@Z => Microsoft (R) C++ Name Undecorator Copyright (C) Microsoft Corporation. All rights reserved.  Undecoration of :- "?CompareNoCase@?$CStringT@GV?$StrTraitMFC_DLL@GV?$ChTraitsCRT@G@ATL@@@@@ATL@@QBAHPBG@Z" is :- "public: int __cdecl ATL::CStringT<unsigned short,class StrTraitMFC_DLL<unsigned short,class ATL::ChTraitsCRT<unsigned short> > >::CompareNoCase(unsigned short const *)const " 
?ComputeDeltas@CPreviewDC@@IAA?AVCSize@@AAHPB_WAAIHIPAHHPA_W30@Z => Microsoft (R) C++ Name Undecorator Copyright (C) Microsoft Corporation. All rights reserved.  Undecoration of :- "?ComputeDeltas@CPreviewDC@@IAA?AVCSize@@AAHPB_WAAIHIPAHHPA_W30@Z" is :- "protected: class CSize __cdecl CPreviewDC::ComputeDeltas(int &,wchar_t const *,unsigned int &,int,unsigned int,int *,int,wchar_t *,int *,int &)" 
?ComputeDeltas@CPreviewDC@@IAA?AVCSize@@AAHPBGAAIHIPAHHPAG30@Z => Microsoft (R) C++ Name Undecorator Copyright (C) Microsoft Corporation. All rights reserved.  Undecoration of :- "?ComputeDeltas@CPreviewDC@@IAA?AVCSize@@AAHPBGAAIHIPAHHPAG30@Z" is :- "protected: class CSize __cdecl CPreviewDC::ComputeDeltas(int &,unsigned short const *,unsigned int &,int,unsigned int,int *,int,unsigned short *,int *,int &)" 
?Concatenate@?$CSimpleStringT@_W$00@ATL@@KAXAAV12@PB_WH1H@Z => Microsoft (R) C++ Name Undecorator Copyright (C) Microsoft Corporation. All rights reserved.  Undecoration of :- "?Concatenate@?$CSimpleStringT@_W$00@ATL@@KAXAAV12@PB_WH1H@Z" is :- "protected: static void __cdecl ATL::CSimpleStringT<wchar_t,1>::Concatenate(class ATL::CSimpleStringT<wchar_t,1> &,wchar_t const *,int,wchar_t const *,int)" 
?Concatenate@?$CSimpleStringT@G$00@ATL@@KAXAAV12@PBGH1H@Z => Microsoft (R) C++ Name Undecorator Copyright (C) Microsoft Corporation. All rights reserved.  Undecoration of :- "?Concatenate@?$CSimpleStringT@G$00@ATL@@KAXAAV12@PBGH1H@Z" is :- "protected: static void __cdecl ATL::CSimpleStringT<unsigned short,1>::Concatenate(class ATL::CSimpleStringT<unsigned short,1> &,unsigned short const *,int,unsigned short const *,int)" 
?Connect@CAsyncSocket@@QAAHPB_WI@Z => Microsoft (R) C++ Name Undecorator Copyright (C) Microsoft Corporation. All rights reserved.  Undecoration of :- "?Connect@CAsyncSocket@@QAAHPB_WI@Z" is :- "public: int __cdecl CAsyncSocket::Connect(wchar_t const *,unsigned int)" 
?Connect@CAsyncSocket@@QAAHPBGI@Z => Microsoft (R) C++ Name Undecorator Copyright (C) Microsoft Corporation. All rights reserved.  Undecoration of :- "?Connect@CAsyncSocket@@QAAHPBGI@Z" is :- "public: int __cdecl CAsyncSocket::Connect(unsigned short const *,unsigned int)" 
?Construct@?$CStringT@_WV?$StrTraitMFC_DLL@_WV?$ChTraitsCRT@_W@ATL@@@@@ATL@@SAXPAV12@@Z => Microsoft (R) C++ Name Undecorator Copyright (C) Microsoft Corporation. All rights reserved.  Undecoration of :- "?Construct@?$CStringT@_WV?$StrTraitMFC_DLL@_WV?$ChTraitsCRT@_W@ATL@@@@@ATL@@SAXPAV12@@Z" is :- "public: static void __cdecl ATL::CStringT<wchar_t,class StrTraitMFC_DLL<wchar_t,class ATL::ChTraitsCRT<wchar_t> > >::Construct(class ATL::CStringT<wchar_t,class StrTraitMFC_DLL<wchar_t,class ATL::ChTraitsCRT<wchar_t> > > *)" 
?Construct@?$CStringT@GV?$StrTraitMFC_DLL@GV?$ChTraitsCRT@G@ATL@@@@@ATL@@SAXPAV12@@Z => Microsoft (R) C++ Name Undecorator Copyright (C) Microsoft Corporation. All rights reserved.  Undecoration of :- "?Construct@?$CStringT@GV?$StrTraitMFC_DLL@GV?$ChTraitsCRT@G@ATL@@@@@ATL@@SAXPAV12@@Z" is :- "public: static void __cdecl ATL::CStringT<unsigned short,class StrTraitMFC_DLL<unsigned short,class ATL::ChTraitsCRT<unsigned short> > >::Construct(class ATL::CStringT<unsigned short,class StrTraitMFC_DLL<unsigned short,class ATL::ChTraitsCRT<unsigned short> > > *)" 
?Construct@CPropertyPage@@QAAXPB_WI@Z => Microsoft (R) C++ Name Undecorator Copyright (C) Microsoft Corporation. All rights reserved.  Undecoration of :- "?Construct@CPropertyPage@@QAAXPB_WI@Z" is :- "public: void __cdecl CPropertyPage::Construct(wchar_t const *,unsigned int)" 
?Construct@CPropertyPage@@QAAXPB_WIII@Z => Microsoft (R) C++ Name Undecorator Copyright (C) Microsoft Corporation. All rights reserved.  Undecoration of :- "?Construct@CPropertyPage@@QAAXPB_WIII@Z" is :- "public: void __cdecl CPropertyPage::Construct(wchar_t const *,unsigned int,unsigned int,unsigned int)" 
?Construct@CPropertyPage@@QAAXPBGI@Z => Microsoft (R) C++ Name Undecorator Copyright (C) Microsoft Corporation. All rights reserved.  Undecoration of :- "?Construct@CPropertyPage@@QAAXPBGI@Z" is :- "public: void __cdecl CPropertyPage::Construct(unsigned short const *,unsigned int)" 
?Construct@CPropertyPage@@QAAXPBGIII@Z => Microsoft (R) C++ Name Undecorator Copyright (C) Microsoft Corporation. All rights reserved.  Undecoration of :- "?Construct@CPropertyPage@@QAAXPBGIII@Z" is :- "public: void __cdecl CPropertyPage::Construct(unsigned short const *,unsigned int,unsigned int,unsigned int)" 
?Construct@CPropertySheet@@QAAXPB_WPAVCWnd@@I@Z => Microsoft (R) C++ Name Undecorator Copyright (C) Microsoft Corporation. All rights reserved.  Undecoration of :- "?Construct@CPropertySheet@@QAAXPB_WPAVCWnd@@I@Z" is :- "public: void __cdecl CPropertySheet::Construct(wchar_t const *,class CWnd *,unsigned int)" 
?Construct@CPropertySheet@@QAAXPB_WPAVCWnd@@IPAUHBITMAP__@@PAUHPALETTE__@@2@Z => Microsoft (R) C++ Name Undecorator Copyright (C) Microsoft Corporation. All rights reserved.  Undecoration of :- "?Construct@CPropertySheet@@QAAXPB_WPAVCWnd@@IPAUHBITMAP__@@PAUHPALETTE__@@2@Z" is :- "public: void __cdecl CPropertySheet::Construct(wchar_t const *,class CWnd *,unsigned int,struct HBITMAP__ *,struct HPALETTE__ *,struct HBITMAP__ *)" 
?Construct@CPropertySheet@@QAAXPBGPAVCWnd@@I@Z => Microsoft (R) C++ Name Undecorator Copyright (C) Microsoft Corporation. All rights reserved.  Undecoration of :- "?Construct@CPropertySheet@@QAAXPBGPAVCWnd@@I@Z" is :- "public: void __cdecl CPropertySheet::Construct(unsigned short const *,class CWnd *,unsigned int)" 
?Construct@CPropertySheet@@QAAXPBGPAVCWnd@@IPAUHBITMAP__@@PAUHPALETTE__@@2@Z => Microsoft (R) C++ Name Undecorator Copyright (C) Microsoft Corporation. All rights reserved.  Undecoration of :- "?Construct@CPropertySheet@@QAAXPBGPAVCWnd@@IPAUHBITMAP__@@PAUHPALETTE__@@2@Z" is :- "public: void __cdecl CPropertySheet::Construct(unsigned short const *,class CWnd *,unsigned int,struct HBITMAP__ *,struct HPALETTE__ *,struct HBITMAP__ *)" 
?CopyChars@?$CSimpleStringT@_W$00@ATL@@SAXPA_WPB_WH@Z => Microsoft (R) C++ Name Undecorator Copyright (C) Microsoft Corporation. All rights reserved.  Undecoration of :- "?CopyChars@?$CSimpleStringT@_W$00@ATL@@SAXPA_WPB_WH@Z" is :- "public: static void __cdecl ATL::CSimpleStringT<wchar_t,1>::CopyChars(wchar_t *,wchar_t const *,int)" 
?CopyChars@?$CSimpleStringT@G$00@ATL@@SAXPAGPBGH@Z => Microsoft (R) C++ Name Undecorator Copyright (C) Microsoft Corporation. All rights reserved.  Undecoration of :- "?CopyChars@?$CSimpleStringT@G$00@ATL@@SAXPAGPBGH@Z" is :- "public: static void __cdecl ATL::CSimpleStringT<unsigned short,1>::CopyChars(unsigned short *,unsigned short const *,int)" 
?CopyCharsOverlapped@?$CSimpleStringT@_W$00@ATL@@SAXPA_WPB_WH@Z => Microsoft (R) C++ Name Undecorator Copyright (C) Microsoft Corporation. All rights reserved.  Undecoration of :- "?CopyCharsOverlapped@?$CSimpleStringT@_W$00@ATL@@SAXPA_WPB_WH@Z" is :- "public: static void __cdecl ATL::CSimpleStringT<wchar_t,1>::CopyCharsOverlapped(wchar_t *,wchar_t const *,int)" 
?CopyCharsOverlapped@?$CSimpleStringT@G$00@ATL@@SAXPAGPBGH@Z => Microsoft (R) C++ Name Undecorator Copyright (C) Microsoft Corporation. All rights reserved.  Undecoration of :- "?CopyCharsOverlapped@?$CSimpleStringT@G$00@ATL@@SAXPAGPBGH@Z" is :- "public: static void __cdecl ATL::CSimpleStringT<unsigned short,1>::CopyCharsOverlapped(unsigned short *,unsigned short const *,int)" 
?Create@CAsyncSocket@@QAAHIHJPB_W@Z => Microsoft (R) C++ Name Undecorator Copyright (C) Microsoft Corporation. All rights reserved.  Undecoration of :- "?Create@CAsyncSocket@@QAAHIHJPB_W@Z" is :- "public: int __cdecl CAsyncSocket::Create(unsigned int,int,long,wchar_t const *)" 
?Create@CAsyncSocket@@QAAHIHJPBG@Z => Microsoft (R) C++ Name Undecorator Copyright (C) Microsoft Corporation. All rights reserved.  Undecoration of :- "?Create@CAsyncSocket@@QAAHIHJPBG@Z" is :- "public: int __cdecl CAsyncSocket::Create(unsigned int,int,long,unsigned short const *)" 
?Create@CButton@@UAAHPB_WKABUtagRECT@@PAVCWnd@@I@Z => Microsoft (R) C++ Name Undecorator Copyright (C) Microsoft Corporation. All rights reserved.  Undecoration of :- "?Create@CButton@@UAAHPB_WKABUtagRECT@@PAVCWnd@@I@Z" is :- "public: virtual int __cdecl CButton::Create(wchar_t const *,unsigned long,struct tagRECT const &,class CWnd *,unsigned int)" 
?Create@CButton@@UAAHPBGKABUtagRECT@@PAVCWnd@@I@Z => Microsoft (R) C++ Name Undecorator Copyright (C) Microsoft Corporation. All rights reserved.  Undecoration of :- "?Create@CButton@@UAAHPBGKABUtagRECT@@PAVCWnd@@I@Z" is :- "public: virtual int __cdecl CButton::Create(unsigned short const *,unsigned long,struct tagRECT const &,class CWnd *,unsigned int)" 
?Create@CControlFrameWnd@@UAAHPB_W@Z => Microsoft (R) C++ Name Undecorator Copyright (C) Microsoft Corporation. All rights reserved.  Undecoration of :- "?Create@CControlFrameWnd@@UAAHPB_W@Z" is :- "public: virtual int __cdecl CControlFrameWnd::Create(wchar_t const *)" 
?Create@CControlFrameWnd@@UAAHPBG@Z => Microsoft (R) C++ Name Undecorator Copyright (C) Microsoft Corporation. All rights reserved.  Undecoration of :- "?Create@CControlFrameWnd@@UAAHPBG@Z" is :- "public: virtual int __cdecl CControlFrameWnd::Create(unsigned short const *)" 
?Create@CDialog@@UAAHPB_WPAVCWnd@@@Z => Microsoft (R) C++ Name Undecorator Copyright (C) Microsoft Corporation. All rights reserved.  Undecoration of :- "?Create@CDialog@@UAAHPB_WPAVCWnd@@@Z" is :- "public: virtual int __cdecl CDialog::Create(wchar_t const *,class CWnd *)" 
?Create@CDialog@@UAAHPBGPAVCWnd@@@Z => Microsoft (R) C++ Name Undecorator Copyright (C) Microsoft Corporation. All rights reserved.  Undecoration of :- "?Create@CDialog@@UAAHPBGPAVCWnd@@@Z" is :- "public: virtual int __cdecl CDialog::Create(unsigned short const *,class CWnd *)" 
?Create@CDialogBar@@UAAHPAVCWnd@@PB_WII@Z => Microsoft (R) C++ Name Undecorator Copyright (C) Microsoft Corporation. All rights reserved.  Undecoration of :- "?Create@CDialogBar@@UAAHPAVCWnd@@PB_WII@Z" is :- "public: virtual int __cdecl CDialogBar::Create(class CWnd *,wchar_t const *,unsigned int,unsigned int)" 
?Create@CDialogBar@@UAAHPAVCWnd@@PBGII@Z => Microsoft (R) C++ Name Undecorator Copyright (C) Microsoft Corporation. All rights reserved.  Undecoration of :- "?Create@CDialogBar@@UAAHPAVCWnd@@PBGII@Z" is :- "public: virtual int __cdecl CDialogBar::Create(class CWnd *,unsigned short const *,unsigned int,unsigned int)" 
?Create@CDockablePane@@UAAHPB_WPAVCWnd@@ABUtagRECT@@HIKKKPAUCCreateContext@@@Z => Microsoft (R) C++ Name Undecorator Copyright (C) Microsoft Corporation. All rights reserved.  Undecoration of :- "?Create@CDockablePane@@UAAHPB_WPAVCWnd@@ABUtagRECT@@HIKKKPAUCCreateContext@@@Z" is :- "public: virtual int __cdecl CDockablePane::Create(wchar_t const *,class CWnd *,struct tagRECT const &,int,unsigned int,unsigned long,unsigned long,unsigned long,struct CCreateContext *)" 
?Create@CDockablePane@@UAAHPB_WPAVCWnd@@VCSize@@HIKKK@Z => Microsoft (R) C++ Name Undecorator Copyright (C) Microsoft Corporation. All rights reserved.  Undecoration of :- "?Create@CDockablePane@@UAAHPB_WPAVCWnd@@VCSize@@HIKKK@Z" is :- "public: virtual int __cdecl CDockablePane::Create(wchar_t const *,class CWnd *,class CSize,int,unsigned int,unsigned long,unsigned long,unsigned long)" 
?Create@CDockablePane@@UAAHPBGPAVCWnd@@ABUtagRECT@@HIKKKPAUCCreateContext@@@Z => Microsoft (R) C++ Name Undecorator Copyright (C) Microsoft Corporation. All rights reserved.  Undecoration of :- "?Create@CDockablePane@@UAAHPBGPAVCWnd@@ABUtagRECT@@HIKKKPAUCCreateContext@@@Z" is :- "public: virtual int __cdecl CDockablePane::Create(unsigned short const *,class CWnd *,struct tagRECT const &,int,unsigned int,unsigned long,unsigned long,unsigned long,struct CCreateContext *)" 
?Create@CDockablePane@@UAAHPBGPAVCWnd@@VCSize@@HIKKK@Z => Microsoft (R) C++ Name Undecorator Copyright (C) Microsoft Corporation. All rights reserved.  Undecoration of :- "?Create@CDockablePane@@UAAHPBGPAVCWnd@@VCSize@@HIKKK@Z" is :- "public: virtual int __cdecl CDockablePane::Create(unsigned short const *,class CWnd *,class CSize,int,unsigned int,unsigned long,unsigned long,unsigned long)" 
?Create@CFindReplaceDialog@@UAAHHPB_W0KPAVCWnd@@@Z => Microsoft (R) C++ Name Undecorator Copyright (C) Microsoft Corporation. All rights reserved.  Undecoration of :- "?Create@CFindReplaceDialog@@UAAHHPB_W0KPAVCWnd@@@Z" is :- "public: virtual int __cdecl CFindReplaceDialog::Create(int,wchar_t const *,wchar_t const *,unsigned long,class CWnd *)" 
?Create@CFindReplaceDialog@@UAAHHPBG0KPAVCWnd@@@Z => Microsoft (R) C++ Name Undecorator Copyright (C) Microsoft Corporation. All rights reserved.  Undecoration of :- "?Create@CFindReplaceDialog@@UAAHHPBG0KPAVCWnd@@@Z" is :- "public: virtual int __cdecl CFindReplaceDialog::Create(int,unsigned short const *,unsigned short const *,unsigned long,class CWnd *)" 
?Create@CFormView@@MAAHPB_W0KABUtagRECT@@PAVCWnd@@IPAUCCreateContext@@@Z => Microsoft (R) C++ Name Undecorator Copyright (C) Microsoft Corporation. All rights reserved.  Undecoration of :- "?Create@CFormView@@MAAHPB_W0KABUtagRECT@@PAVCWnd@@IPAUCCreateContext@@@Z" is :- "protected: virtual int __cdecl CFormView::Create(wchar_t const *,wchar_t const *,unsigned long,struct tagRECT const &,class CWnd *,unsigned int,struct CCreateContext *)" 
?Create@CFormView@@MAAHPBG0KABUtagRECT@@PAVCWnd@@IPAUCCreateContext@@@Z => Microsoft (R) C++ Name Undecorator Copyright (C) Microsoft Corporation. All rights reserved.  Undecoration of :- "?Create@CFormView@@MAAHPBG0KABUtagRECT@@PAVCWnd@@IPAUCCreateContext@@@Z" is :- "protected: virtual int __cdecl CFormView::Create(unsigned short const *,unsigned short const *,unsigned long,struct tagRECT const &,class CWnd *,unsigned int,struct CCreateContext *)" 
?Create@CFrameWnd@@UAAHPB_W0KABUtagRECT@@PAVCWnd@@0KPAUCCreateContext@@@Z => Microsoft (R) C++ Name Undecorator Copyright (C) Microsoft Corporation. All rights reserved.  Undecoration of :- "?Create@CFrameWnd@@UAAHPB_W0KABUtagRECT@@PAVCWnd@@0KPAUCCreateContext@@@Z" is :- "public: virtual int __cdecl CFrameWnd::Create(wchar_t const *,wchar_t const *,unsigned long,struct tagRECT const &,class CWnd *,wchar_t const *,unsigned long,struct CCreateContext *)" 
?Create@CFrameWnd@@UAAHPBG0KABUtagRECT@@PAVCWnd@@0KPAUCCreateContext@@@Z => Microsoft (R) C++ Name Undecorator Copyright (C) Microsoft Corporation. All rights reserved.  Undecoration of :- "?Create@CFrameWnd@@UAAHPBG0KABUtagRECT@@PAVCWnd@@0KPAUCCreateContext@@@Z" is :- "public: virtual int __cdecl CFrameWnd::Create(unsigned short const *,unsigned short const *,unsigned long,struct tagRECT const &,class CWnd *,unsigned short const *,unsigned long,struct CCreateContext *)" 
?Create@CHtmlEditCtrl@@UAAHPB_WKABUtagRECT@@PAVCWnd@@HPAUCCreateContext@@@Z => Microsoft (R) C++ Name Undecorator Copyright (C) Microsoft Corporation. All rights reserved.  Undecoration of :- "?Create@CHtmlEditCtrl@@UAAHPB_WKABUtagRECT@@PAVCWnd@@HPAUCCreateContext@@@Z" is :- "public: virtual int __cdecl CHtmlEditCtrl::Create(wchar_t const *,unsigned long,struct tagRECT const &,class CWnd *,int,struct CCreateContext *)" 
?Create@CHtmlEditCtrl@@UAAHPBGKABUtagRECT@@PAVCWnd@@HPAUCCreateContext@@@Z => Microsoft (R) C++ Name Undecorator Copyright (C) Microsoft Corporation. All rights reserved.  Undecoration of :- "?Create@CHtmlEditCtrl@@UAAHPBGKABUtagRECT@@PAVCWnd@@HPAUCCreateContext@@@Z" is :- "public: virtual int __cdecl CHtmlEditCtrl::Create(unsigned short const *,unsigned long,struct tagRECT const &,class CWnd *,int,struct CCreateContext *)" 
?Create@CHtmlEditView@@UAAHPB_W0KABUtagRECT@@PAVCWnd@@IPAUCCreateContext@@@Z => Microsoft (R) C++ Name Undecorator Copyright (C) Microsoft Corporation. All rights reserved.  Undecoration of :- "?Create@CHtmlEditView@@UAAHPB_W0KABUtagRECT@@PAVCWnd@@IPAUCCreateContext@@@Z" is :- "public: virtual int __cdecl CHtmlEditView::Create(wchar_t const *,wchar_t const *,unsigned long,struct tagRECT const &,class CWnd *,unsigned int,struct CCreateContext *)" 
?Create@CHtmlEditView@@UAAHPBG0KABUtagRECT@@PAVCWnd@@IPAUCCreateContext@@@Z => Microsoft (R) C++ Name Undecorator Copyright (C) Microsoft Corporation. All rights reserved.  Undecoration of :- "?Create@CHtmlEditView@@UAAHPBG0KABUtagRECT@@PAVCWnd@@IPAUCCreateContext@@@Z" is :- "public: virtual int __cdecl CHtmlEditView::Create(unsigned short const *,unsigned short const *,unsigned long,struct tagRECT const &,class CWnd *,unsigned int,struct CCreateContext *)" 
?Create@CHtmlView@@UAAHPB_W0KABUtagRECT@@PAVCWnd@@IPAUCCreateContext@@@Z => Microsoft (R) C++ Name Undecorator Copyright (C) Microsoft Corporation. All rights reserved.  Undecoration of :- "?Create@CHtmlView@@UAAHPB_W0KABUtagRECT@@PAVCWnd@@IPAUCCreateContext@@@Z" is :- "public: virtual int __cdecl CHtmlView::Create(wchar_t const *,wchar_t const *,unsigned long,struct tagRECT const &,class CWnd *,unsigned int,struct CCreateContext *)" 
?Create@CHtmlView@@UAAHPBG0KABUtagRECT@@PAVCWnd@@IPAUCCreateContext@@@Z => Microsoft (R) C++ Name Undecorator Copyright (C) Microsoft Corporation. All rights reserved.  Undecoration of :- "?Create@CHtmlView@@UAAHPBG0KABUtagRECT@@PAVCWnd@@IPAUCCreateContext@@@Z" is :- "public: virtual int __cdecl CHtmlView::Create(unsigned short const *,unsigned short const *,unsigned long,struct tagRECT const &,class CWnd *,unsigned int,struct CCreateContext *)" 
?Create@CImageList@@QAAHPB_WHHK@Z => Microsoft (R) C++ Name Undecorator Copyright (C) Microsoft Corporation. All rights reserved.  Undecoration of :- "?Create@CImageList@@QAAHPB_WHHK@Z" is :- "public: int __cdecl CImageList::Create(wchar_t const *,int,int,unsigned long)" 
?Create@CImageList@@QAAHPBGHHK@Z => Microsoft (R) C++ Name Undecorator Copyright (C) Microsoft Corporation. All rights reserved.  Undecoration of :- "?Create@CImageList@@QAAHPBGHHK@Z" is :- "public: int __cdecl CImageList::Create(unsigned short const *,int,int,unsigned long)" 
?Create@CLinkCtrl@@UAAHPB_WKABUtagRECT@@PAVCWnd@@I@Z => Microsoft (R) C++ Name Undecorator Copyright (C) Microsoft Corporation. All rights reserved.  Undecoration of :- "?Create@CLinkCtrl@@UAAHPB_WKABUtagRECT@@PAVCWnd@@I@Z" is :- "public: virtual int __cdecl CLinkCtrl::Create(wchar_t const *,unsigned long,struct tagRECT const &,class CWnd *,unsigned int)" 
?Create@CLinkCtrl@@UAAHPBGKABUtagRECT@@PAVCWnd@@I@Z => Microsoft (R) C++ Name Undecorator Copyright (C) Microsoft Corporation. All rights reserved.  Undecoration of :- "?Create@CLinkCtrl@@UAAHPBGKABUtagRECT@@PAVCWnd@@I@Z" is :- "public: virtual int __cdecl CLinkCtrl::Create(unsigned short const *,unsigned long,struct tagRECT const &,class CWnd *,unsigned int)" 
?Create@CMDIChildWnd@@UAAHPB_W0KABUtagRECT@@PAVCMDIFrameWnd@@PAUCCreateContext@@@Z => Microsoft (R) C++ Name Undecorator Copyright (C) Microsoft Corporation. All rights reserved.  Undecoration of :- "?Create@CMDIChildWnd@@UAAHPB_W0KABUtagRECT@@PAVCMDIFrameWnd@@PAUCCreateContext@@@Z" is :- "public: virtual int __cdecl CMDIChildWnd::Create(wchar_t const *,wchar_t const *,unsigned long,struct tagRECT const &,class CMDIFrameWnd *,struct CCreateContext *)" 
?Create@CMDIChildWnd@@UAAHPBG0KABUtagRECT@@PAVCMDIFrameWnd@@PAUCCreateContext@@@Z => Microsoft (R) C++ Name Undecorator Copyright (C) Microsoft Corporation. All rights reserved.  Undecoration of :- "?Create@CMDIChildWnd@@UAAHPBG0KABUtagRECT@@PAVCMDIFrameWnd@@PAUCCreateContext@@@Z" is :- "public: virtual int __cdecl CMDIChildWnd::Create(unsigned short const *,unsigned short const *,unsigned long,struct tagRECT const &,class CMDIFrameWnd *,struct CCreateContext *)" 
?Create@CMFCAutoHideBar@@UAAHPB_WKABUtagRECT@@PAVCWnd@@IKPAUCCreateContext@@@Z => Microsoft (R) C++ Name Undecorator Copyright (C) Microsoft Corporation. All rights reserved.  Undecoration of :- "?Create@CMFCAutoHideBar@@UAAHPB_WKABUtagRECT@@PAVCWnd@@IKPAUCCreateContext@@@Z" is :- "public: virtual int __cdecl CMFCAutoHideBar::Create(wchar_t const *,unsigned long,struct tagRECT const &,class CWnd *,unsigned int,unsigned long,struct CCreateContext *)" 
?Create@CMFCAutoHideBar@@UAAHPBGKABUtagRECT@@PAVCWnd@@IKPAUCCreateContext@@@Z => Microsoft (R) C++ Name Undecorator Copyright (C) Microsoft Corporation. All rights reserved.  Undecoration of :- "?Create@CMFCAutoHideBar@@UAAHPBGKABUtagRECT@@PAVCWnd@@IKPAUCCreateContext@@@Z" is :- "public: virtual int __cdecl CMFCAutoHideBar::Create(unsigned short const *,unsigned long,struct tagRECT const &,class CWnd *,unsigned int,unsigned long,struct CCreateContext *)" 
?Create@CMFCOutlookBar@@UAAHPB_WPAVCWnd@@ABUtagRECT@@IKKPAUCCreateContext@@@Z => Microsoft (R) C++ Name Undecorator Copyright (C) Microsoft Corporation. All rights reserved.  Undecoration of :- "?Create@CMFCOutlookBar@@UAAHPB_WPAVCWnd@@ABUtagRECT@@IKKPAUCCreateContext@@@Z" is :- "public: virtual int __cdecl CMFCOutlookBar::Create(wchar_t const *,class CWnd *,struct tagRECT const &,unsigned int,unsigned long,unsigned long,struct CCreateContext *)" 
?Create@CMFCOutlookBar@@UAAHPBGPAVCWnd@@ABUtagRECT@@IKKPAUCCreateContext@@@Z => Microsoft (R) C++ Name Undecorator Copyright (C) Microsoft Corporation. All rights reserved.  Undecoration of :- "?Create@CMFCOutlookBar@@UAAHPBGPAVCWnd@@ABUtagRECT@@IKKPAUCCreateContext@@@Z" is :- "public: virtual int __cdecl CMFCOutlookBar::Create(unsigned short const *,class CWnd *,struct tagRECT const &,unsigned int,unsigned long,unsigned long,struct CCreateContext *)" 
?Create@CMiniFrameWnd@@UAAHPB_W0KABUtagRECT@@PAVCWnd@@I@Z => Microsoft (R) C++ Name Undecorator Copyright (C) Microsoft Corporation. All rights reserved.  Undecoration of :- "?Create@CMiniFrameWnd@@UAAHPB_W0KABUtagRECT@@PAVCWnd@@I@Z" is :- "public: virtual int __cdecl CMiniFrameWnd::Create(wchar_t const *,wchar_t const *,unsigned long,struct tagRECT const &,class CWnd *,unsigned int)" 
?Create@CMiniFrameWnd@@UAAHPBG0KABUtagRECT@@PAVCWnd@@I@Z => Microsoft (R) C++ Name Undecorator Copyright (C) Microsoft Corporation. All rights reserved.  Undecoration of :- "?Create@CMiniFrameWnd@@UAAHPBG0KABUtagRECT@@PAVCWnd@@I@Z" is :- "public: virtual int __cdecl CMiniFrameWnd::Create(unsigned short const *,unsigned short const *,unsigned long,struct tagRECT const &,class CWnd *,unsigned int)" 
?Create@CPane@@UAAHPB_WKABUtagRECT@@PAVCWnd@@IKPAUCCreateContext@@@Z => Microsoft (R) C++ Name Undecorator Copyright (C) Microsoft Corporation. All rights reserved.  Undecoration of :- "?Create@CPane@@UAAHPB_WKABUtagRECT@@PAVCWnd@@IKPAUCCreateContext@@@Z" is :- "public: virtual int __cdecl CPane::Create(wchar_t const *,unsigned long,struct tagRECT const &,class CWnd *,unsigned int,unsigned long,struct CCreateContext *)" 
?Create@CPane@@UAAHPBGKABUtagRECT@@PAVCWnd@@IKPAUCCreateContext@@@Z => Microsoft (R) C++ Name Undecorator Copyright (C) Microsoft Corporation. All rights reserved.  Undecoration of :- "?Create@CPane@@UAAHPBGKABUtagRECT@@PAVCWnd@@IKPAUCCreateContext@@@Z" is :- "public: virtual int __cdecl CPane::Create(unsigned short const *,unsigned long,struct tagRECT const &,class CWnd *,unsigned int,unsigned long,struct CCreateContext *)" 
?Create@CPaneDialog@@QAAHPB_WPAVCWnd@@H0IIKK@Z => Microsoft (R) C++ Name Undecorator Copyright (C) Microsoft Corporation. All rights reserved.  Undecoration of :- "?Create@CPaneDialog@@QAAHPB_WPAVCWnd@@H0IIKK@Z" is :- "public: int __cdecl CPaneDialog::Create(wchar_t const *,class CWnd *,int,wchar_t const *,unsigned int,unsigned int,unsigned long,unsigned long)" 
?Create@CPaneDialog@@QAAHPB_WPAVCWnd@@HIII@Z => Microsoft (R) C++ Name Undecorator Copyright (C) Microsoft Corporation. All rights reserved.  Undecoration of :- "?Create@CPaneDialog@@QAAHPB_WPAVCWnd@@HIII@Z" is :- "public: int __cdecl CPaneDialog::Create(wchar_t const *,class CWnd *,int,unsigned int,unsigned int,unsigned int)" 
?Create@CPaneDialog@@QAAHPBGPAVCWnd@@H0IIKK@Z => Microsoft (R) C++ Name Undecorator Copyright (C) Microsoft Corporation. All rights reserved.  Undecoration of :- "?Create@CPaneDialog@@QAAHPBGPAVCWnd@@H0IIKK@Z" is :- "public: int __cdecl CPaneDialog::Create(unsigned short const *,class CWnd *,int,unsigned short const *,unsigned int,unsigned int,unsigned long,unsigned long)" 
?Create@CPaneDialog@@QAAHPBGPAVCWnd@@HIII@Z => Microsoft (R) C++ Name Undecorator Copyright (C) Microsoft Corporation. All rights reserved.  Undecoration of :- "?Create@CPaneDialog@@QAAHPBGPAVCWnd@@HIII@Z" is :- "public: int __cdecl CPaneDialog::Create(unsigned short const *,class CWnd *,int,unsigned int,unsigned int,unsigned int)" 
?Create@CPaneFrameWnd@@UAAHPB_WKABUtagRECT@@PAVCWnd@@PAUCCreateContext@@@Z => Microsoft (R) C++ Name Undecorator Copyright (C) Microsoft Corporation. All rights reserved.  Undecoration of :- "?Create@CPaneFrameWnd@@UAAHPB_WKABUtagRECT@@PAVCWnd@@PAUCCreateContext@@@Z" is :- "public: virtual int __cdecl CPaneFrameWnd::Create(wchar_t const *,unsigned long,struct tagRECT const &,class CWnd *,struct CCreateContext *)" 
?Create@CPaneFrameWnd@@UAAHPBGKABUtagRECT@@PAVCWnd@@PAUCCreateContext@@@Z => Microsoft (R) C++ Name Undecorator Copyright (C) Microsoft Corporation. All rights reserved.  Undecoration of :- "?Create@CPaneFrameWnd@@UAAHPBGKABUtagRECT@@PAVCWnd@@PAUCCreateContext@@@Z" is :- "public: virtual int __cdecl CPaneFrameWnd::Create(unsigned short const *,unsigned long,struct tagRECT const &,class CWnd *,struct CCreateContext *)" 
?Create@CSplitButton@@UAAHPB_WKABUtagRECT@@PAVCWnd@@I@Z => Microsoft (R) C++ Name Undecorator Copyright (C) Microsoft Corporation. All rights reserved.  Undecoration of :- "?Create@CSplitButton@@UAAHPB_WKABUtagRECT@@PAVCWnd@@I@Z" is :- "public: virtual int __cdecl CSplitButton::Create(wchar_t const *,unsigned long,struct tagRECT const &,class CWnd *,unsigned int)" 
?Create@CSplitButton@@UAAHPBGKABUtagRECT@@PAVCWnd@@I@Z => Microsoft (R) C++ Name Undecorator Copyright (C) Microsoft Corporation. All rights reserved.  Undecoration of :- "?Create@CSplitButton@@UAAHPBGKABUtagRECT@@PAVCWnd@@I@Z" is :- "public: virtual int __cdecl CSplitButton::Create(unsigned short const *,unsigned long,struct tagRECT const &,class CWnd *,unsigned int)" 
?Create@CStatic@@UAAHPB_WKABUtagRECT@@PAVCWnd@@I@Z => Microsoft (R) C++ Name Undecorator Copyright (C) Microsoft Corporation. All rights reserved.  Undecoration of :- "?Create@CStatic@@UAAHPB_WKABUtagRECT@@PAVCWnd@@I@Z" is :- "public: virtual int __cdecl CStatic::Create(wchar_t const *,unsigned long,struct tagRECT const &,class CWnd *,unsigned int)" 
?Create@CStatic@@UAAHPBGKABUtagRECT@@PAVCWnd@@I@Z => Microsoft (R) C++ Name Undecorator Copyright (C) Microsoft Corporation. All rights reserved.  Undecoration of :- "?Create@CStatic@@UAAHPBGKABUtagRECT@@PAVCWnd@@I@Z" is :- "public: virtual int __cdecl CStatic::Create(unsigned short const *,unsigned long,struct tagRECT const &,class CWnd *,unsigned int)" 
?Create@CWnd@@UAAHPB_W0KABUtagRECT@@PAV1@IPAUCCreateContext@@@Z => Microsoft (R) C++ Name Undecorator Copyright (C) Microsoft Corporation. All rights reserved.  Undecoration of :- "?Create@CWnd@@UAAHPB_W0KABUtagRECT@@PAV1@IPAUCCreateContext@@@Z" is :- "public: virtual int __cdecl CWnd::Create(wchar_t const *,wchar_t const *,unsigned long,struct tagRECT const &,class CWnd *,unsigned int,struct CCreateContext *)" 
?Create@CWnd@@UAAHPBG0KABUtagRECT@@PAV1@IPAUCCreateContext@@@Z => Microsoft (R) C++ Name Undecorator Copyright (C) Microsoft Corporation. All rights reserved.  Undecoration of :- "?Create@CWnd@@UAAHPBG0KABUtagRECT@@PAV1@IPAUCCreateContext@@@Z" is :- "public: virtual int __cdecl CWnd::Create(unsigned short const *,unsigned short const *,unsigned long,struct tagRECT const &,class CWnd *,unsigned int,struct CCreateContext *)" 
?CreateControl@COleControlContainer@@QAAHPAVCWnd@@ABU_GUID@@PB_WKABUtagRECT@@IPAVCFile@@HPA_WPAPAVCOleControlSite@@@Z => Microsoft (R) C++ Name Undecorator Copyright (C) Microsoft Corporation. All rights reserved.  Undecoration of :- "?CreateControl@COleControlContainer@@QAAHPAVCWnd@@ABU_GUID@@PB_WKABUtagRECT@@IPAVCFile@@HPA_WPAPAVCOleControlSite@@@Z" is :- "public: int __cdecl COleControlContainer::CreateControl(class CWnd *,struct _GUID const &,wchar_t const *,unsigned long,struct tagRECT const &,unsigned int,class CFile *,int,wchar_t *,class COleControlSite * *)" 
?CreateControl@COleControlContainer@@QAAHPAVCWnd@@ABU_GUID@@PB_WKPBUtagPOINT@@PBUtagSIZE@@IPAVCFile@@HPA_WPAPAVCOleControlSite@@@Z => Microsoft (R) C++ Name Undecorator Copyright (C) Microsoft Corporation. All rights reserved.  Undecoration of :- "?CreateControl@COleControlContainer@@QAAHPAVCWnd@@ABU_GUID@@PB_WKPBUtagPOINT@@PBUtagSIZE@@IPAVCFile@@HPA_WPAPAVCOleControlSite@@@Z" is :- "public: int __cdecl COleControlContainer::CreateControl(class CWnd *,struct _GUID const &,wchar_t const *,unsigned long,struct tagPOINT const *,struct tagSIZE const *,unsigned int,class CFile *,int,wchar_t *,class COleControlSite * *)" 
?CreateControl@COleControlContainer@@QAAHPAVCWnd@@ABU_GUID@@PBGKABUtagRECT@@IPAVCFile@@HPAGPAPAVCOleControlSite@@@Z => Microsoft (R) C++ Name Undecorator Copyright (C) Microsoft Corporation. All rights reserved.  Undecoration of :- "?CreateControl@COleControlContainer@@QAAHPAVCWnd@@ABU_GUID@@PBGKABUtagRECT@@IPAVCFile@@HPAGPAPAVCOleControlSite@@@Z" is :- "public: int __cdecl COleControlContainer::CreateControl(class CWnd *,struct _GUID const &,unsigned short const *,unsigned long,struct tagRECT const &,unsigned int,class CFile *,int,unsigned short *,class COleControlSite * *)" 
?CreateControl@COleControlContainer@@QAAHPAVCWnd@@ABU_GUID@@PBGKPBUtagPOINT@@PBUtagSIZE@@IPAVCFile@@HPAGPAPAVCOleControlSite@@@Z => Microsoft (R) C++ Name Undecorator Copyright (C) Microsoft Corporation. All rights reserved.  Undecoration of :- "?CreateControl@COleControlContainer@@QAAHPAVCWnd@@ABU_GUID@@PBGKPBUtagPOINT@@PBUtagSIZE@@IPAVCFile@@HPAGPAPAVCOleControlSite@@@Z" is :- "public: int __cdecl COleControlContainer::CreateControl(class CWnd *,struct _GUID const &,unsigned short const *,unsigned long,struct tagPOINT const *,struct tagSIZE const *,unsigned int,class CFile *,int,unsigned short *,class COleControlSite * *)" 
?CreateControl@COleControlSite@@UAAJPAVCWnd@@ABU_GUID@@PB_WKABUtagRECT@@IPAVCFile@@HPA_W@Z => Microsoft (R) C++ Name Undecorator Copyright (C) Microsoft Corporation. All rights reserved.  Undecoration of :- "?CreateControl@COleControlSite@@UAAJPAVCWnd@@ABU_GUID@@PB_WKABUtagRECT@@IPAVCFile@@HPA_W@Z" is :- "public: virtual long __cdecl COleControlSite::CreateControl(class CWnd *,struct _GUID const &,wchar_t const *,unsigned long,struct tagRECT const &,unsigned int,class CFile *,int,wchar_t *)" 
?CreateControl@COleControlSite@@UAAJPAVCWnd@@ABU_GUID@@PB_WKPBUtagPOINT@@PBUtagSIZE@@IPAVCFile@@HPA_W@Z => Microsoft (R) C++ Name Undecorator Copyright (C) Microsoft Corporation. All rights reserved.  Undecoration of :- "?CreateControl@COleControlSite@@UAAJPAVCWnd@@ABU_GUID@@PB_WKPBUtagPOINT@@PBUtagSIZE@@IPAVCFile@@HPA_W@Z" is :- "public: virtual long __cdecl COleControlSite::CreateControl(class CWnd *,struct _GUID const &,wchar_t const *,unsigned long,struct tagPOINT const *,struct tagSIZE const *,unsigned int,class CFile *,int,wchar_t *)" 
?CreateControl@COleControlSite@@UAAJPAVCWnd@@ABU_GUID@@PBGKABUtagRECT@@IPAVCFile@@HPAG@Z => Microsoft (R) C++ Name Undecorator Copyright (C) Microsoft Corporation. All rights reserved.  Undecoration of :- "?CreateControl@COleControlSite@@UAAJPAVCWnd@@ABU_GUID@@PBGKABUtagRECT@@IPAVCFile@@HPAG@Z" is :- "public: virtual long __cdecl COleControlSite::CreateControl(class CWnd *,struct _GUID const &,unsigned short const *,unsigned long,struct tagRECT const &,unsigned int,class CFile *,int,unsigned short *)" 
?CreateControl@COleControlSite@@UAAJPAVCWnd@@ABU_GUID@@PBGKPBUtagPOINT@@PBUtagSIZE@@IPAVCFile@@HPAG@Z => Microsoft (R) C++ Name Undecorator Copyright (C) Microsoft Corporation. All rights reserved.  Undecoration of :- "?CreateControl@COleControlSite@@UAAJPAVCWnd@@ABU_GUID@@PBGKPBUtagPOINT@@PBUtagSIZE@@IPAVCFile@@HPAG@Z" is :- "public: virtual long __cdecl COleControlSite::CreateControl(class CWnd *,struct _GUID const &,unsigned short const *,unsigned long,struct tagPOINT const *,struct tagSIZE const *,unsigned int,class CFile *,int,unsigned short *)" 
?CreateControl@CWnd@@QAAHABU_GUID@@PB_WKABUtagRECT@@PAV1@IPAVCFile@@HPA_W@Z => Microsoft (R) C++ Name Undecorator Copyright (C) Microsoft Corporation. All rights reserved.  Undecoration of :- "?CreateControl@CWnd@@QAAHABU_GUID@@PB_WKABUtagRECT@@PAV1@IPAVCFile@@HPA_W@Z" is :- "public: int __cdecl CWnd::CreateControl(struct _GUID const &,wchar_t const *,unsigned long,struct tagRECT const &,class CWnd *,unsigned int,class CFile *,int,wchar_t *)" 
?CreateControl@CWnd@@QAAHABU_GUID@@PB_WKPBUtagPOINT@@PBUtagSIZE@@PAV1@IPAVCFile@@HPA_W@Z => Microsoft (R) C++ Name Undecorator Copyright (C) Microsoft Corporation. All rights reserved.  Undecoration of :- "?CreateControl@CWnd@@QAAHABU_GUID@@PB_WKPBUtagPOINT@@PBUtagSIZE@@PAV1@IPAVCFile@@HPA_W@Z" is :- "public: int __cdecl CWnd::CreateControl(struct _GUID const &,wchar_t const *,unsigned long,struct tagPOINT const *,struct tagSIZE const *,class CWnd *,unsigned int,class CFile *,int,wchar_t *)" 
?CreateControl@CWnd@@QAAHABU_GUID@@PBGKABUtagRECT@@PAV1@IPAVCFile@@HPAG@Z => Microsoft (R) C++ Name Undecorator Copyright (C) Microsoft Corporation. All rights reserved.  Undecoration of :- "?CreateControl@CWnd@@QAAHABU_GUID@@PBGKABUtagRECT@@PAV1@IPAVCFile@@HPAG@Z" is :- "public: int __cdecl CWnd::CreateControl(struct _GUID const &,unsigned short const *,unsigned long,struct tagRECT const &,class CWnd *,unsigned int,class CFile *,int,unsigned short *)" 
?CreateControl@CWnd@@QAAHABU_GUID@@PBGKPBUtagPOINT@@PBUtagSIZE@@PAV1@IPAVCFile@@HPAG@Z => Microsoft (R) C++ Name Undecorator Copyright (C) Microsoft Corporation. All rights reserved.  Undecoration of :- "?CreateControl@CWnd@@QAAHABU_GUID@@PBGKPBUtagPOINT@@PBUtagSIZE@@PAV1@IPAVCFile@@HPAG@Z" is :- "public: int __cdecl CWnd::CreateControl(struct _GUID const &,unsigned short const *,unsigned long,struct tagPOINT const *,struct tagSIZE const *,class CWnd *,unsigned int,class CFile *,int,unsigned short *)" 
?CreateControl@CWnd@@QAAHPB_W0KABUtagRECT@@PAV1@IPAVCFile@@HPA_W@Z => Microsoft (R) C++ Name Undecorator Copyright (C) Microsoft Corporation. All rights reserved.  Undecoration of :- "?CreateControl@CWnd@@QAAHPB_W0KABUtagRECT@@PAV1@IPAVCFile@@HPA_W@Z" is :- "public: int __cdecl CWnd::CreateControl(wchar_t const *,wchar_t const *,unsigned long,struct tagRECT const &,class CWnd *,unsigned int,class CFile *,int,wchar_t *)" 
?CreateControl@CWnd@@QAAHPBG0KABUtagRECT@@PAV1@IPAVCFile@@HPAG@Z => Microsoft (R) C++ Name Undecorator Copyright (C) Microsoft Corporation. All rights reserved.  Undecoration of :- "?CreateControl@CWnd@@QAAHPBG0KABUtagRECT@@PAV1@IPAVCFile@@HPAG@Z" is :- "public: int __cdecl CWnd::CreateControl(unsigned short const *,unsigned short const *,unsigned long,struct tagRECT const &,class CWnd *,unsigned int,class CFile *,int,unsigned short *)" 
?CreateControlCommon@COleControlContainer@@QAAHPAVCWnd@@ABU_GUID@@ABVCControlCreationInfo@@PB_WKPBUtagPOINT@@PBUtagSIZE@@IPAVCFile@@HPA_WPAPAVCOleControlSite@@@Z => Microsoft (R) C++ Name Undecorator Copyright (C) Microsoft Corporation. All rights reserved.  Undecoration of :- "?CreateControlCommon@COleControlContainer@@QAAHPAVCWnd@@ABU_GUID@@ABVCControlCreationInfo@@PB_WKPBUtagPOINT@@PBUtagSIZE@@IPAVCFile@@HPA_WPAPAVCOleControlSite@@@Z" is :- "public: int __cdecl COleControlContainer::CreateControlCommon(class CWnd *,struct _GUID const &,class CControlCreationInfo const &,wchar_t const *,unsigned long,struct tagPOINT const *,struct tagSIZE const *,unsigned int,class CFile *,int,wchar_t *,class COleControlSite * *)" 
?CreateControlCommon@COleControlContainer@@QAAHPAVCWnd@@ABU_GUID@@ABVCControlCreationInfo@@PBGKPBUtagPOINT@@PBUtagSIZE@@IPAVCFile@@HPAGPAPAVCOleControlSite@@@Z => Microsoft (R) C++ Name Undecorator Copyright (C) Microsoft Corporation. All rights reserved.  Undecoration of :- "?CreateControlCommon@COleControlContainer@@QAAHPAVCWnd@@ABU_GUID@@ABVCControlCreationInfo@@PBGKPBUtagPOINT@@PBUtagSIZE@@IPAVCFile@@HPAGPAPAVCOleControlSite@@@Z" is :- "public: int __cdecl COleControlContainer::CreateControlCommon(class CWnd *,struct _GUID const &,class CControlCreationInfo const &,unsigned short const *,unsigned long,struct tagPOINT const *,struct tagSIZE const *,unsigned int,class CFile *,int,unsigned short *,class COleControlSite * *)" 
?CreateControlCommon@COleControlSite@@MAAJPAVCWnd@@ABU_GUID@@ABVCControlCreationInfo@@PB_WKPBUtagPOINT@@PBUtagSIZE@@IPAVCFile@@HPA_W@Z => Microsoft (R) C++ Name Undecorator Copyright (C) Microsoft Corporation. All rights reserved.  Undecoration of :- "?CreateControlCommon@COleControlSite@@MAAJPAVCWnd@@ABU_GUID@@ABVCControlCreationInfo@@PB_WKPBUtagPOINT@@PBUtagSIZE@@IPAVCFile@@HPA_W@Z" is :- "protected: virtual long __cdecl COleControlSite::CreateControlCommon(class CWnd *,struct _GUID const &,class CControlCreationInfo const &,wchar_t const *,unsigned long,struct tagPOINT const *,struct tagSIZE const *,unsigned int,class CFile *,int,wchar_t *)" 
?CreateControlCommon@COleControlSite@@MAAJPAVCWnd@@ABU_GUID@@ABVCControlCreationInfo@@PBGKPBUtagPOINT@@PBUtagSIZE@@IPAVCFile@@HPAG@Z => Microsoft (R) C++ Name Undecorator Copyright (C) Microsoft Corporation. All rights reserved.  Undecoration of :- "?CreateControlCommon@COleControlSite@@MAAJPAVCWnd@@ABU_GUID@@ABVCControlCreationInfo@@PBGKPBUtagPOINT@@PBUtagSIZE@@IPAVCFile@@HPAG@Z" is :- "protected: virtual long __cdecl COleControlSite::CreateControlCommon(class CWnd *,struct _GUID const &,class CControlCreationInfo const &,unsigned short const *,unsigned long,struct tagPOINT const *,struct tagSIZE const *,unsigned int,class CFile *,int,unsigned short *)" 
?CreateCustomPage@CMFCOutlookBar@@QAAPAVCMFCOutlookBarPane@@PB_WHKH@Z => Microsoft (R) C++ Name Undecorator Copyright (C) Microsoft Corporation. All rights reserved.  Undecoration of :- "?CreateCustomPage@CMFCOutlookBar@@QAAPAVCMFCOutlookBarPane@@PB_WHKH@Z" is :- "public: class CMFCOutlookBarPane * __cdecl CMFCOutlookBar::CreateCustomPage(wchar_t const *,int,unsigned long,int)" 
?CreateCustomPage@CMFCOutlookBar@@QAAPAVCMFCOutlookBarPane@@PBGHKH@Z => Microsoft (R) C++ Name Undecorator Copyright (C) Microsoft Corporation. All rights reserved.  Undecoration of :- "?CreateCustomPage@CMFCOutlookBar@@QAAPAVCMFCOutlookBarPane@@PBGHKH@Z" is :- "public: class CMFCOutlookBarPane * __cdecl CMFCOutlookBar::CreateCustomPage(unsigned short const *,int,unsigned long,int)" 
?CreateDirectoryW@CFtpConnection@@QAAHPB_W@Z => Microsoft (R) C++ Name Undecorator Copyright (C) Microsoft Corporation. All rights reserved.  Undecoration of :- "?CreateDirectoryW@CFtpConnection@@QAAHPB_W@Z" is :- "public: int __cdecl CFtpConnection::CreateDirectoryW(wchar_t const *)" 
?CreateDirectoryW@CFtpConnection@@QAAHPBG@Z => Microsoft (R) C++ Name Undecorator Copyright (C) Microsoft Corporation. All rights reserved.  Undecoration of :- "?CreateDirectoryW@CFtpConnection@@QAAHPBG@Z" is :- "public: int __cdecl CFtpConnection::CreateDirectoryW(unsigned short const *)" 
?CreateDispatch@COleDispatchDriver@@QAAHPB_WPAVCOleException@@@Z => Microsoft (R) C++ Name Undecorator Copyright (C) Microsoft Corporation. All rights reserved.  Undecoration of :- "?CreateDispatch@COleDispatchDriver@@QAAHPB_WPAVCOleException@@@Z" is :- "public: int __cdecl COleDispatchDriver::CreateDispatch(wchar_t const *,class COleException *)" 
?CreateDispatch@COleDispatchDriver@@QAAHPBGPAVCOleException@@@Z => Microsoft (R) C++ Name Undecorator Copyright (C) Microsoft Corporation. All rights reserved.  Undecoration of :- "?CreateDispatch@COleDispatchDriver@@QAAHPBGPAVCOleException@@@Z" is :- "public: int __cdecl COleDispatchDriver::CreateDispatch(unsigned short const *,class COleException *)" 
?CreateDlg@CWnd@@IAAHPB_WPAV1@@Z => Microsoft (R) C++ Name Undecorator Copyright (C) Microsoft Corporation. All rights reserved.  Undecoration of :- "?CreateDlg@CWnd@@IAAHPB_WPAV1@@Z" is :- "protected: int __cdecl CWnd::CreateDlg(wchar_t const *,class CWnd *)" 
?CreateDlg@CWnd@@IAAHPBGPAV1@@Z => Microsoft (R) C++ Name Undecorator Copyright (C) Microsoft Corporation. All rights reserved.  Undecoration of :- "?CreateDlg@CWnd@@IAAHPBGPAV1@@Z" is :- "protected: int __cdecl CWnd::CreateDlg(unsigned short const *,class CWnd *)" 
?CreateDlgControl@CMFCControlContainer@@IAAPAVCWnd@@PB_W@Z => Microsoft (R) C++ Name Undecorator Copyright (C) Microsoft Corporation. All rights reserved.  Undecoration of :- "?CreateDlgControl@CMFCControlContainer@@IAAPAVCWnd@@PB_W@Z" is :- "protected: class CWnd * __cdecl CMFCControlContainer::CreateDlgControl(wchar_t const *)" 
?CreateDlgControl@CMFCControlContainer@@IAAPAVCWnd@@PBG@Z => Microsoft (R) C++ Name Undecorator Copyright (C) Microsoft Corporation. All rights reserved.  Undecoration of :- "?CreateDlgControl@CMFCControlContainer@@IAAPAVCWnd@@PBG@Z" is :- "protected: class CWnd * __cdecl CMFCControlContainer::CreateDlgControl(unsigned short const *)" 
?CreateDlgControls@COccManager@@UAAHPAVCWnd@@PB_WPAU_AFX_OCC_DIALOG_INFO@@@Z => Microsoft (R) C++ Name Undecorator Copyright (C) Microsoft Corporation. All rights reserved.  Undecoration of :- "?CreateDlgControls@COccManager@@UAAHPAVCWnd@@PB_WPAU_AFX_OCC_DIALOG_INFO@@@Z" is :- "public: virtual int __cdecl COccManager::CreateDlgControls(class CWnd *,wchar_t const *,struct _AFX_OCC_DIALOG_INFO *)" 
?CreateDlgControls@COccManager@@UAAHPAVCWnd@@PBGPAU_AFX_OCC_DIALOG_INFO@@@Z => Microsoft (R) C++ Name Undecorator Copyright (C) Microsoft Corporation. All rights reserved.  Undecoration of :- "?CreateDlgControls@COccManager@@UAAHPAVCWnd@@PBGPAU_AFX_OCC_DIALOG_INFO@@@Z" is :- "public: virtual int __cdecl COccManager::CreateDlgControls(class CWnd *,unsigned short const *,struct _AFX_OCC_DIALOG_INFO *)" 
?CreateDocumentWindow@CMDIFrameWndEx@@UAAPAVCMDIChildWndEx@@PB_WPAVCObject@@@Z => Microsoft (R) C++ Name Undecorator Copyright (C) Microsoft Corporation. All rights reserved.  Undecoration of :- "?CreateDocumentWindow@CMDIFrameWndEx@@UAAPAVCMDIChildWndEx@@PB_WPAVCObject@@@Z" is :- "public: virtual class CMDIChildWndEx * __cdecl CMDIFrameWndEx::CreateDocumentWindow(wchar_t const *,class CObject *)" 
?CreateDocumentWindow@CMDIFrameWndEx@@UAAPAVCMDIChildWndEx@@PBGPAVCObject@@@Z => Microsoft (R) C++ Name Undecorator Copyright (C) Microsoft Corporation. All rights reserved.  Undecoration of :- "?CreateDocumentWindow@CMDIFrameWndEx@@UAAPAVCMDIChildWndEx@@PBGPAVCObject@@@Z" is :- "public: virtual class CMDIChildWndEx * __cdecl CMDIFrameWndEx::CreateDocumentWindow(unsigned short const *,class CObject *)" 
?CreateEx@CBasePane@@UAAHKPB_W0KABUtagRECT@@PAVCWnd@@IKPAUCCreateContext@@@Z => Microsoft (R) C++ Name Undecorator Copyright (C) Microsoft Corporation. All rights reserved.  Undecoration of :- "?CreateEx@CBasePane@@UAAHKPB_W0KABUtagRECT@@PAVCWnd@@IKPAUCCreateContext@@@Z" is :- "public: virtual int __cdecl CBasePane::CreateEx(unsigned long,wchar_t const *,wchar_t const *,unsigned long,struct tagRECT const &,class CWnd *,unsigned int,unsigned long,struct CCreateContext *)" 
?CreateEx@CBasePane@@UAAHKPBG0KABUtagRECT@@PAVCWnd@@IKPAUCCreateContext@@@Z => Microsoft (R) C++ Name Undecorator Copyright (C) Microsoft Corporation. All rights reserved.  Undecoration of :- "?CreateEx@CBasePane@@UAAHKPBG0KABUtagRECT@@PAVCWnd@@IKPAUCCreateContext@@@Z" is :- "public: virtual int __cdecl CBasePane::CreateEx(unsigned long,unsigned short const *,unsigned short const *,unsigned long,struct tagRECT const &,class CWnd *,unsigned int,unsigned long,struct CCreateContext *)" 
?CreateEx@CDockablePane@@UAAHKPB_WPAVCWnd@@ABUtagRECT@@HIKKKPAUCCreateContext@@@Z => Microsoft (R) C++ Name Undecorator Copyright (C) Microsoft Corporation. All rights reserved.  Undecoration of :- "?CreateEx@CDockablePane@@UAAHKPB_WPAVCWnd@@ABUtagRECT@@HIKKKPAUCCreateContext@@@Z" is :- "public: virtual int __cdecl CDockablePane::CreateEx(unsigned long,wchar_t const *,class CWnd *,struct tagRECT const &,int,unsigned int,unsigned long,unsigned long,unsigned long,struct CCreateContext *)" 
?CreateEx@CDockablePane@@UAAHKPBGPAVCWnd@@ABUtagRECT@@HIKKKPAUCCreateContext@@@Z => Microsoft (R) C++ Name Undecorator Copyright (C) Microsoft Corporation. All rights reserved.  Undecoration of :- "?CreateEx@CDockablePane@@UAAHKPBGPAVCWnd@@ABUtagRECT@@HIKKKPAUCCreateContext@@@Z" is :- "public: virtual int __cdecl CDockablePane::CreateEx(unsigned long,unsigned short const *,class CWnd *,struct tagRECT const &,int,unsigned int,unsigned long,unsigned long,unsigned long,struct CCreateContext *)" 
?CreateEx@CLinkCtrl@@UAAHPB_WKKABUtagRECT@@PAVCWnd@@I@Z => Microsoft (R) C++ Name Undecorator Copyright (C) Microsoft Corporation. All rights reserved.  Undecoration of :- "?CreateEx@CLinkCtrl@@UAAHPB_WKKABUtagRECT@@PAVCWnd@@I@Z" is :- "public: virtual int __cdecl CLinkCtrl::CreateEx(wchar_t const *,unsigned long,unsigned long,struct tagRECT const &,class CWnd *,unsigned int)" 
?CreateEx@CLinkCtrl@@UAAHPBGKKABUtagRECT@@PAVCWnd@@I@Z => Microsoft (R) C++ Name Undecorator Copyright (C) Microsoft Corporation. All rights reserved.  Undecoration of :- "?CreateEx@CLinkCtrl@@UAAHPBGKKABUtagRECT@@PAVCWnd@@I@Z" is :- "public: virtual int __cdecl CLinkCtrl::CreateEx(unsigned short const *,unsigned long,unsigned long,struct tagRECT const &,class CWnd *,unsigned int)" 
?CreateEx@CMiniFrameWnd@@UAAHKPB_W0KABUtagRECT@@PAVCWnd@@I@Z => Microsoft (R) C++ Name Undecorator Copyright (C) Microsoft Corporation. All rights reserved.  Undecoration of :- "?CreateEx@CMiniFrameWnd@@UAAHKPB_W0KABUtagRECT@@PAVCWnd@@I@Z" is :- "public: virtual int __cdecl CMiniFrameWnd::CreateEx(unsigned long,wchar_t const *,wchar_t const *,unsigned long,struct tagRECT const &,class CWnd *,unsigned int)" 
?CreateEx@CMiniFrameWnd@@UAAHKPBG0KABUtagRECT@@PAVCWnd@@I@Z => Microsoft (R) C++ Name Undecorator Copyright (C) Microsoft Corporation. All rights reserved.  Undecoration of :- "?CreateEx@CMiniFrameWnd@@UAAHKPBG0KABUtagRECT@@PAVCWnd@@I@Z" is :- "public: virtual int __cdecl CMiniFrameWnd::CreateEx(unsigned long,unsigned short const *,unsigned short const *,unsigned long,struct tagRECT const &,class CWnd *,unsigned int)" 
?CreateEx@CPane@@UAAHKPB_WKABUtagRECT@@PAVCWnd@@IKPAUCCreateContext@@@Z => Microsoft (R) C++ Name Undecorator Copyright (C) Microsoft Corporation. All rights reserved.  Undecoration of :- "?CreateEx@CPane@@UAAHKPB_WKABUtagRECT@@PAVCWnd@@IKPAUCCreateContext@@@Z" is :- "public: virtual int __cdecl CPane::CreateEx(unsigned long,wchar_t const *,unsigned long,struct tagRECT const &,class CWnd *,unsigned int,unsigned long,struct CCreateContext *)" 
?CreateEx@CPane@@UAAHKPBGKABUtagRECT@@PAVCWnd@@IKPAUCCreateContext@@@Z => Microsoft (R) C++ Name Undecorator Copyright (C) Microsoft Corporation. All rights reserved.  Undecoration of :- "?CreateEx@CPane@@UAAHKPBGKABUtagRECT@@PAVCWnd@@IKPAUCCreateContext@@@Z" is :- "public: virtual int __cdecl CPane::CreateEx(unsigned long,unsigned short const *,unsigned long,struct tagRECT const &,class CWnd *,unsigned int,unsigned long,struct CCreateContext *)" 
?CreateEx@CPaneFrameWnd@@UAAHKPB_WKABUtagRECT@@PAVCWnd@@PAUCCreateContext@@@Z => Microsoft (R) C++ Name Undecorator Copyright (C) Microsoft Corporation. All rights reserved.  Undecoration of :- "?CreateEx@CPaneFrameWnd@@UAAHKPB_WKABUtagRECT@@PAVCWnd@@PAUCCreateContext@@@Z" is :- "public: virtual int __cdecl CPaneFrameWnd::CreateEx(unsigned long,wchar_t const *,unsigned long,struct tagRECT const &,class CWnd *,struct CCreateContext *)" 
?CreateEx@CPaneFrameWnd@@UAAHKPBGKABUtagRECT@@PAVCWnd@@PAUCCreateContext@@@Z => Microsoft (R) C++ Name Undecorator Copyright (C) Microsoft Corporation. All rights reserved.  Undecoration of :- "?CreateEx@CPaneFrameWnd@@UAAHKPBGKABUtagRECT@@PAVCWnd@@PAUCCreateContext@@@Z" is :- "public: virtual int __cdecl CPaneFrameWnd::CreateEx(unsigned long,unsigned short const *,unsigned long,struct tagRECT const &,class CWnd *,struct CCreateContext *)" 
?CreateEx@CWnd@@UAAHKPB_W0KABUtagRECT@@PAV1@IPAX@Z => Microsoft (R) C++ Name Undecorator Copyright (C) Microsoft Corporation. All rights reserved.  Undecoration of :- "?CreateEx@CWnd@@UAAHKPB_W0KABUtagRECT@@PAV1@IPAX@Z" is :- "public: virtual int __cdecl CWnd::CreateEx(unsigned long,wchar_t const *,wchar_t const *,unsigned long,struct tagRECT const &,class CWnd *,unsigned int,void *)" 
?CreateEx@CWnd@@UAAHKPB_W0KHHHHPAUHWND__@@PAUHMENU__@@PAX@Z => Microsoft (R) C++ Name Undecorator Copyright (C) Microsoft Corporation. All rights reserved.  Undecoration of :- "?CreateEx@CWnd@@UAAHKPB_W0KHHHHPAUHWND__@@PAUHMENU__@@PAX@Z" is :- "public: virtual int __cdecl CWnd::CreateEx(unsigned long,wchar_t const *,wchar_t const *,unsigned long,int,int,int,int,struct HWND__ *,struct HMENU__ *,void *)" 
?CreateEx@CWnd@@UAAHKPBG0KABUtagRECT@@PAV1@IPAX@Z => Microsoft (R) C++ Name Undecorator Copyright (C) Microsoft Corporation. All rights reserved.  Undecoration of :- "?CreateEx@CWnd@@UAAHKPBG0KABUtagRECT@@PAV1@IPAX@Z" is :- "public: virtual int __cdecl CWnd::CreateEx(unsigned long,unsigned short const *,unsigned short const *,unsigned long,struct tagRECT const &,class CWnd *,unsigned int,void *)" 
?CreateEx@CWnd@@UAAHKPBG0KHHHHPAUHWND__@@PAUHMENU__@@PAX@Z => Microsoft (R) C++ Name Undecorator Copyright (C) Microsoft Corporation. All rights reserved.  Undecoration of :- "?CreateEx@CWnd@@UAAHKPBG0KHHHHPAUHWND__@@PAUHMENU__@@PAX@Z" is :- "public: virtual int __cdecl CWnd::CreateEx(unsigned long,unsigned short const *,unsigned short const *,unsigned long,int,int,int,int,struct HWND__ *,struct HMENU__ *,void *)" 
?CreateFromFile@COleClientItem@@QAAHPB_WABU_GUID@@W4tagOLERENDER@@GPAUtagFORMATETC@@@Z => Microsoft (R) C++ Name Undecorator Copyright (C) Microsoft Corporation. All rights reserved.  Undecoration of :- "?CreateFromFile@COleClientItem@@QAAHPB_WABU_GUID@@W4tagOLERENDER@@GPAUtagFORMATETC@@@Z" is :- "public: int __cdecl COleClientItem::CreateFromFile(wchar_t const *,struct _GUID const &,enum tagOLERENDER,unsigned short,struct tagFORMATETC *)" 
?CreateFromFile@COleClientItem@@QAAHPBGABU_GUID@@W4tagOLERENDER@@GPAUtagFORMATETC@@@Z => Microsoft (R) C++ Name Undecorator Copyright (C) Microsoft Corporation. All rights reserved.  Undecoration of :- "?CreateFromFile@COleClientItem@@QAAHPBGABU_GUID@@W4tagOLERENDER@@GPAUtagFORMATETC@@@Z" is :- "public: int __cdecl COleClientItem::CreateFromFile(unsigned short const *,struct _GUID const &,enum tagOLERENDER,unsigned short,struct tagFORMATETC *)" 
?CreateInstanceLic@XClassFactory@COleObjectFactory@@UAAJPAUIUnknown@@0ABU_GUID@@PA_WPAPAX@Z => Microsoft (R) C++ Name Undecorator Copyright (C) Microsoft Corporation. All rights reserved.  Undecoration of :- "?CreateInstanceLic@XClassFactory@COleObjectFactory@@UAAJPAUIUnknown@@0ABU_GUID@@PA_WPAPAX@Z" is :- "public: virtual long __cdecl COleObjectFactory::XClassFactory::CreateInstanceLic(struct IUnknown *,struct IUnknown *,struct _GUID const &,wchar_t *,void * *)" 
?CreateInstanceLic@XClassFactory@COleObjectFactory@@UAAJPAUIUnknown@@0ABU_GUID@@PAGPAPAX@Z => Microsoft (R) C++ Name Undecorator Copyright (C) Microsoft Corporation. All rights reserved.  Undecoration of :- "?CreateInstanceLic@XClassFactory@COleObjectFactory@@UAAJPAUIUnknown@@0ABU_GUID@@PAGPAPAX@Z" is :- "public: virtual long __cdecl COleObjectFactory::XClassFactory::CreateInstanceLic(struct IUnknown *,struct IUnknown *,struct _GUID const &,unsigned short *,void * *)" 
?CreateKey@CSettingsStore@@UAAHPB_W@Z => Microsoft (R) C++ Name Undecorator Copyright (C) Microsoft Corporation. All rights reserved.  Undecoration of :- "?CreateKey@CSettingsStore@@UAAHPB_W@Z" is :- "public: virtual int __cdecl CSettingsStore::CreateKey(wchar_t const *)" 
?CreateKey@CSettingsStore@@UAAHPBG@Z => Microsoft (R) C++ Name Undecorator Copyright (C) Microsoft Corporation. All rights reserved.  Undecoration of :- "?CreateKey@CSettingsStore@@UAAHPBG@Z" is :- "public: virtual int __cdecl CSettingsStore::CreateKey(unsigned short const *)" 
?CreateLinkFromFile@COleClientItem@@QAAHPB_WW4tagOLERENDER@@GPAUtagFORMATETC@@@Z => Microsoft (R) C++ Name Undecorator Copyright (C) Microsoft Corporation. All rights reserved.  Undecoration of :- "?CreateLinkFromFile@COleClientItem@@QAAHPB_WW4tagOLERENDER@@GPAUtagFORMATETC@@@Z" is :- "public: int __cdecl COleClientItem::CreateLinkFromFile(wchar_t const *,enum tagOLERENDER,unsigned short,struct tagFORMATETC *)" 
?CreateLinkFromFile@COleClientItem@@QAAHPBGW4tagOLERENDER@@GPAUtagFORMATETC@@@Z => Microsoft (R) C++ Name Undecorator Copyright (C) Microsoft Corporation. All rights reserved.  Undecoration of :- "?CreateLinkFromFile@COleClientItem@@QAAHPBGW4tagOLERENDER@@GPAUtagFORMATETC@@@Z" is :- "public: int __cdecl COleClientItem::CreateLinkFromFile(unsigned short const *,enum tagOLERENDER,unsigned short,struct tagFORMATETC *)" 
?CreateLocator@CGopherConnection@@QAA?AVCGopherLocator@@PB_W0K@Z => Microsoft (R) C++ Name Undecorator Copyright (C) Microsoft Corporation. All rights reserved.  Undecoration of :- "?CreateLocator@CGopherConnection@@QAA?AVCGopherLocator@@PB_W0K@Z" is :- "public: class CGopherLocator __cdecl CGopherConnection::CreateLocator(wchar_t const *,wchar_t const *,unsigned long)" 
?CreateLocator@CGopherConnection@@QAA?AVCGopherLocator@@PBG0K@Z => Microsoft (R) C++ Name Undecorator Copyright (C) Microsoft Corporation. All rights reserved.  Undecoration of :- "?CreateLocator@CGopherConnection@@QAA?AVCGopherLocator@@PBG0K@Z" is :- "public: class CGopherLocator __cdecl CGopherConnection::CreateLocator(unsigned short const *,unsigned short const *,unsigned long)" 
?CreateLocator@CGopherConnection@@SA?AVCGopherLocator@@PB_W@Z => Microsoft (R) C++ Name Undecorator Copyright (C) Microsoft Corporation. All rights reserved.  Undecoration of :- "?CreateLocator@CGopherConnection@@SA?AVCGopherLocator@@PB_W@Z" is :- "public: static class CGopherLocator __cdecl CGopherConnection::CreateLocator(wchar_t const *)" 
?CreateLocator@CGopherConnection@@SA?AVCGopherLocator@@PB_W00KG@Z => Microsoft (R) C++ Name Undecorator Copyright (C) Microsoft Corporation. All rights reserved.  Undecoration of :- "?CreateLocator@CGopherConnection@@SA?AVCGopherLocator@@PB_W00KG@Z" is :- "public: static class CGopherLocator __cdecl CGopherConnection::CreateLocator(wchar_t const *,wchar_t const *,wchar_t const *,unsigned long,unsigned short)" 
?CreateLocator@CGopherConnection@@SA?AVCGopherLocator@@PBG@Z => Microsoft (R) C++ Name Undecorator Copyright (C) Microsoft Corporation. All rights reserved.  Undecoration of :- "?CreateLocator@CGopherConnection@@SA?AVCGopherLocator@@PBG@Z" is :- "public: static class CGopherLocator __cdecl CGopherConnection::CreateLocator(unsigned short const *)" 
?CreateLocator@CGopherConnection@@SA?AVCGopherLocator@@PBG00KG@Z => Microsoft (R) C++ Name Undecorator Copyright (C) Microsoft Corporation. All rights reserved.  Undecoration of :- "?CreateLocator@CGopherConnection@@SA?AVCGopherLocator@@PBG00KG@Z" is :- "public: static class CGopherLocator __cdecl CGopherConnection::CreateLocator(unsigned short const *,unsigned short const *,unsigned short const *,unsigned long,unsigned short)" 
?CreateNewToolBar@CFrameImpl@@IAAPBVCMFCToolBar@@PB_W@Z => Microsoft (R) C++ Name Undecorator Copyright (C) Microsoft Corporation. All rights reserved.  Undecoration of :- "?CreateNewToolBar@CFrameImpl@@IAAPBVCMFCToolBar@@PB_W@Z" is :- "protected: class CMFCToolBar const * __cdecl CFrameImpl::CreateNewToolBar(wchar_t const *)" 
?CreateNewToolBar@CFrameImpl@@IAAPBVCMFCToolBar@@PBG@Z => Microsoft (R) C++ Name Undecorator Copyright (C) Microsoft Corporation. All rights reserved.  Undecoration of :- "?CreateNewToolBar@CFrameImpl@@IAAPBVCMFCToolBar@@PBG@Z" is :- "protected: class CMFCToolBar const * __cdecl CFrameImpl::CreateNewToolBar(unsigned short const *)" 
?CreateNewWindow@CMDIFrameWndEx@@UAAPAVCMDIChildWndEx@@PB_WPAVCObject@@@Z => Microsoft (R) C++ Name Undecorator Copyright (C) Microsoft Corporation. All rights reserved.  Undecoration of :- "?CreateNewWindow@CMDIFrameWndEx@@UAAPAVCMDIChildWndEx@@PB_WPAVCObject@@@Z" is :- "public: virtual class CMDIChildWndEx * __cdecl CMDIFrameWndEx::CreateNewWindow(wchar_t const *,class CObject *)" 
?CreateNewWindow@CMDIFrameWndEx@@UAAPAVCMDIChildWndEx@@PBGPAVCObject@@@Z => Microsoft (R) C++ Name Undecorator Copyright (C) Microsoft Corporation. All rights reserved.  Undecoration of :- "?CreateNewWindow@CMDIFrameWndEx@@UAAPAVCMDIChildWndEx@@PBGPAVCObject@@@Z" is :- "public: virtual class CMDIChildWndEx * __cdecl CMDIFrameWndEx::CreateNewWindow(unsigned short const *,class CObject *)" 
?CreateObject@CRuntimeClass@@SAPAVCObject@@PB_W@Z => Microsoft (R) C++ Name Undecorator Copyright (C) Microsoft Corporation. All rights reserved.  Undecoration of :- "?CreateObject@CRuntimeClass@@SAPAVCObject@@PB_W@Z" is :- "public: static class CObject * __cdecl CRuntimeClass::CreateObject(wchar_t const *)" 
?CreateObject@CRuntimeClass@@SAPAVCObject@@PBG@Z => Microsoft (R) C++ Name Undecorator Copyright (C) Microsoft Corporation. All rights reserved.  Undecoration of :- "?CreateObject@CRuntimeClass@@SAPAVCObject@@PBG@Z" is :- "public: static class CObject * __cdecl CRuntimeClass::CreateObject(unsigned short const *)" 
?CreateOrLoad@COleControlSite@@MAAJABU_GUID@@PAVCFile@@HPA_W@Z => Microsoft (R) C++ Name Undecorator Copyright (C) Microsoft Corporation. All rights reserved.  Undecoration of :- "?CreateOrLoad@COleControlSite@@MAAJABU_GUID@@PAVCFile@@HPA_W@Z" is :- "protected: virtual long __cdecl COleControlSite::CreateOrLoad(struct _GUID const &,class CFile *,int,wchar_t *)" 
?CreateOrLoad@COleControlSite@@MAAJABU_GUID@@PAVCFile@@HPAG@Z => Microsoft (R) C++ Name Undecorator Copyright (C) Microsoft Corporation. All rights reserved.  Undecoration of :- "?CreateOrLoad@COleControlSite@@MAAJABU_GUID@@PAVCFile@@HPAG@Z" is :- "protected: virtual long __cdecl COleControlSite::CreateOrLoad(struct _GUID const &,class CFile *,int,unsigned short *)" 
?CreatePointFont@CFont@@QAAHHPB_WPAVCDC@@@Z => Microsoft (R) C++ Name Undecorator Copyright (C) Microsoft Corporation. All rights reserved.  Undecoration of :- "?CreatePointFont@CFont@@QAAHHPB_WPAVCDC@@@Z" is :- "public: int __cdecl CFont::CreatePointFont(int,wchar_t const *,class CDC *)" 
?CreatePointFont@CFont@@QAAHHPBGPAVCDC@@@Z => Microsoft (R) C++ Name Undecorator Copyright (C) Microsoft Corporation. All rights reserved.  Undecoration of :- "?CreatePointFont@CFont@@QAAHHPBGPAVCDC@@@Z" is :- "public: int __cdecl CFont::CreatePointFont(int,unsigned short const *,class CDC *)" 
?CreateStream@COleStreamFile@@QAAHPAUIStorage@@PB_WKPAVCFileException@@@Z => Microsoft (R) C++ Name Undecorator Copyright (C) Microsoft Corporation. All rights reserved.  Undecoration of :- "?CreateStream@COleStreamFile@@QAAHPAUIStorage@@PB_WKPAVCFileException@@@Z" is :- "public: int __cdecl COleStreamFile::CreateStream(struct IStorage *,wchar_t const *,unsigned long,class CFileException *)" 
?CreateStream@COleStreamFile@@QAAHPAUIStorage@@PBGKPAVCFileException@@@Z => Microsoft (R) C++ Name Undecorator Copyright (C) Microsoft Corporation. All rights reserved.  Undecoration of :- "?CreateStream@COleStreamFile@@QAAHPAUIStorage@@PBGKPAVCFileException@@@Z" is :- "public: int __cdecl COleStreamFile::CreateStream(struct IStorage *,unsigned short const *,unsigned long,class CFileException *)" 
?CreateTearOffBar@CMFCColorPopupMenu@@UAAPAVCPane@@PAVCFrameWnd@@IPB_W@Z => Microsoft (R) C++ Name Undecorator Copyright (C) Microsoft Corporation. All rights reserved.  Undecoration of :- "?CreateTearOffBar@CMFCColorPopupMenu@@UAAPAVCPane@@PAVCFrameWnd@@IPB_W@Z" is :- "public: virtual class CPane * __cdecl CMFCColorPopupMenu::CreateTearOffBar(class CFrameWnd *,unsigned int,wchar_t const *)" 
?CreateTearOffBar@CMFCColorPopupMenu@@UAAPAVCPane@@PAVCFrameWnd@@IPBG@Z => Microsoft (R) C++ Name Undecorator Copyright (C) Microsoft Corporation. All rights reserved.  Undecoration of :- "?CreateTearOffBar@CMFCColorPopupMenu@@UAAPAVCPane@@PAVCFrameWnd@@IPBG@Z" is :- "public: virtual class CPane * __cdecl CMFCColorPopupMenu::CreateTearOffBar(class CFrameWnd *,unsigned int,unsigned short const *)" 
?CreateTearOffBar@CMFCPopupMenu@@MAAPAVCPane@@PAVCFrameWnd@@IPB_W@Z => Microsoft (R) C++ Name Undecorator Copyright (C) Microsoft Corporation. All rights reserved.  Undecoration of :- "?CreateTearOffBar@CMFCPopupMenu@@MAAPAVCPane@@PAVCFrameWnd@@IPB_W@Z" is :- "protected: virtual class CPane * __cdecl CMFCPopupMenu::CreateTearOffBar(class CFrameWnd *,unsigned int,wchar_t const *)" 
?CreateTearOffBar@CMFCPopupMenu@@MAAPAVCPane@@PAVCFrameWnd@@IPBG@Z => Microsoft (R) C++ Name Undecorator Copyright (C) Microsoft Corporation. All rights reserved.  Undecoration of :- "?CreateTearOffBar@CMFCPopupMenu@@MAAPAVCPane@@PAVCFrameWnd@@IPBG@Z" is :- "protected: virtual class CPane * __cdecl CMFCPopupMenu::CreateTearOffBar(class CFrameWnd *,unsigned int,unsigned short const *)" 
?CreateWrapper@CMFCBaseTabCtrl@@MAAPAVCWnd@@PAV2@PB_WH@Z => Microsoft (R) C++ Name Undecorator Copyright (C) Microsoft Corporation. All rights reserved.  Undecoration of :- "?CreateWrapper@CMFCBaseTabCtrl@@MAAPAVCWnd@@PAV2@PB_WH@Z" is :- "protected: virtual class CWnd * __cdecl CMFCBaseTabCtrl::CreateWrapper(class CWnd *,wchar_t const *,int)" 
?CreateWrapper@CMFCBaseTabCtrl@@MAAPAVCWnd@@PAV2@PBGH@Z => Microsoft (R) C++ Name Undecorator Copyright (C) Microsoft Corporation. All rights reserved.  Undecoration of :- "?CreateWrapper@CMFCBaseTabCtrl@@MAAPAVCWnd@@PAV2@PBGH@Z" is :- "protected: virtual class CWnd * __cdecl CMFCBaseTabCtrl::CreateWrapper(class CWnd *,unsigned short const *,int)" 
?CyFromString@CGlobalUtils@@QAAHAATtagCY@@PB_W@Z => Microsoft (R) C++ Name Undecorator Copyright (C) Microsoft Corporation. All rights reserved.  Undecoration of :- "?CyFromString@CGlobalUtils@@QAAHAATtagCY@@PB_W@Z" is :- "public: int __cdecl CGlobalUtils::CyFromString(union tagCY &,wchar_t const *)" 
?CyFromString@CGlobalUtils@@QAAHAATtagCY@@PBG@Z => Microsoft (R) C++ Name Undecorator Copyright (C) Microsoft Corporation. All rights reserved.  Undecoration of :- "?CyFromString@CGlobalUtils@@QAAHAATtagCY@@PBG@Z" is :- "public: int __cdecl CGlobalUtils::CyFromString(union tagCY &,unsigned short const *)" 
?DDP_Check@@YAXPAVCDataExchange@@HAAHPB_W@Z => Microsoft (R) C++ Name Undecorator Copyright (C) Microsoft Corporation. All rights reserved.  Undecoration of :- "?DDP_Check@@YAXPAVCDataExchange@@HAAHPB_W@Z" is :- "void __cdecl DDP_Check(class CDataExchange *,int,int &,wchar_t const *)" 
?DDP_Check@@YAXPAVCDataExchange@@HAAHPBG@Z => Microsoft (R) C++ Name Undecorator Copyright (C) Microsoft Corporation. All rights reserved.  Undecoration of :- "?DDP_Check@@YAXPAVCDataExchange@@HAAHPBG@Z" is :- "void __cdecl DDP_Check(class CDataExchange *,int,int &,unsigned short const *)" 
?DDP_EndCheck@@YAXPAVCDataExchange@@HPAHPB_W@Z => Microsoft (R) C++ Name Undecorator Copyright (C) Microsoft Corporation. All rights reserved.  Undecoration of :- "?DDP_EndCheck@@YAXPAVCDataExchange@@HPAHPB_W@Z" is :- "void __cdecl DDP_EndCheck(class CDataExchange *,int,int *,wchar_t const *)" 
?DDP_EndCheck@@YAXPAVCDataExchange@@HPAHPBG@Z => Microsoft (R) C++ Name Undecorator Copyright (C) Microsoft Corporation. All rights reserved.  Undecoration of :- "?DDP_EndCheck@@YAXPAVCDataExchange@@HPAHPBG@Z" is :- "void __cdecl DDP_EndCheck(class CDataExchange *,int,int *,unsigned short const *)" 
?DDP_EndRadio@@YAXPAVCDataExchange@@HPAHPB_W@Z => Microsoft (R) C++ Name Undecorator Copyright (C) Microsoft Corporation. All rights reserved.  Undecoration of :- "?DDP_EndRadio@@YAXPAVCDataExchange@@HPAHPB_W@Z" is :- "void __cdecl DDP_EndRadio(class CDataExchange *,int,int *,wchar_t const *)" 
?DDP_EndRadio@@YAXPAVCDataExchange@@HPAHPBG@Z => Microsoft (R) C++ Name Undecorator Copyright (C) Microsoft Corporation. All rights reserved.  Undecoration of :- "?DDP_EndRadio@@YAXPAVCDataExchange@@HPAHPBG@Z" is :- "void __cdecl DDP_EndRadio(class CDataExchange *,int,int *,unsigned short const *)" 
?DDP_EndText@@YAXPAVCDataExchange@@HPAEPB_W@Z => Microsoft (R) C++ Name Undecorator Copyright (C) Microsoft Corporation. All rights reserved.  Undecoration of :- "?DDP_EndText@@YAXPAVCDataExchange@@HPAEPB_W@Z" is :- "void __cdecl DDP_EndText(class CDataExchange *,int,unsigned char *,wchar_t const *)" 
?DDP_EndText@@YAXPAVCDataExchange@@HPAEPBG@Z => Microsoft (R) C++ Name Undecorator Copyright (C) Microsoft Corporation. All rights reserved.  Undecoration of :- "?DDP_EndText@@YAXPAVCDataExchange@@HPAEPBG@Z" is :- "void __cdecl DDP_EndText(class CDataExchange *,int,unsigned char *,unsigned short const *)" 
?DDP_EndText@@YAXPAVCDataExchange@@HPAFPB_W@Z => Microsoft (R) C++ Name Undecorator Copyright (C) Microsoft Corporation. All rights reserved.  Undecoration of :- "?DDP_EndText@@YAXPAVCDataExchange@@HPAFPB_W@Z" is :- "void __cdecl DDP_EndText(class CDataExchange *,int,short *,wchar_t const *)" 
?DDP_EndText@@YAXPAVCDataExchange@@HPAFPBG@Z => Microsoft (R) C++ Name Undecorator Copyright (C) Microsoft Corporation. All rights reserved.  Undecoration of :- "?DDP_EndText@@YAXPAVCDataExchange@@HPAFPBG@Z" is :- "void __cdecl DDP_EndText(class CDataExchange *,int,short *,unsigned short const *)" 
?DDP_EndText@@YAXPAVCDataExchange@@HPAHPB_W@Z => Microsoft (R) C++ Name Undecorator Copyright (C) Microsoft Corporation. All rights reserved.  Undecoration of :- "?DDP_EndText@@YAXPAVCDataExchange@@HPAHPB_W@Z" is :- "void __cdecl DDP_EndText(class CDataExchange *,int,int *,wchar_t const *)" 
?DDP_EndText@@YAXPAVCDataExchange@@HPAHPBG@Z => Microsoft (R) C++ Name Undecorator Copyright (C) Microsoft Corporation. All rights reserved.  Undecoration of :- "?DDP_EndText@@YAXPAVCDataExchange@@HPAHPBG@Z" is :- "void __cdecl DDP_EndText(class CDataExchange *,int,int *,unsigned short const *)" 
?DDP_EndText@@YAXPAVCDataExchange@@HPAIPB_W@Z => Microsoft (R) C++ Name Undecorator Copyright (C) Microsoft Corporation. All rights reserved.  Undecoration of :- "?DDP_EndText@@YAXPAVCDataExchange@@HPAIPB_W@Z" is :- "void __cdecl DDP_EndText(class CDataExchange *,int,unsigned int *,wchar_t const *)" 
?DDP_EndText@@YAXPAVCDataExchange@@HPAIPBG@Z => Microsoft (R) C++ Name Undecorator Copyright (C) Microsoft Corporation. All rights reserved.  Undecoration of :- "?DDP_EndText@@YAXPAVCDataExchange@@HPAIPBG@Z" is :- "void __cdecl DDP_EndText(class CDataExchange *,int,unsigned int *,unsigned short const *)" 
?DDP_EndText@@YAXPAVCDataExchange@@HPAJPB_W@Z => Microsoft (R) C++ Name Undecorator Copyright (C) Microsoft Corporation. All rights reserved.  Undecoration of :- "?DDP_EndText@@YAXPAVCDataExchange@@HPAJPB_W@Z" is :- "void __cdecl DDP_EndText(class CDataExchange *,int,long *,wchar_t const *)" 
?DDP_EndText@@YAXPAVCDataExchange@@HPAJPBG@Z => Microsoft (R) C++ Name Undecorator Copyright (C) Microsoft Corporation. All rights reserved.  Undecoration of :- "?DDP_EndText@@YAXPAVCDataExchange@@HPAJPBG@Z" is :- "void __cdecl DDP_EndText(class CDataExchange *,int,long *,unsigned short const *)" 
?DDP_EndText@@YAXPAVCDataExchange@@HPAKPB_W@Z => Microsoft (R) C++ Name Undecorator Copyright (C) Microsoft Corporation. All rights reserved.  Undecoration of :- "?DDP_EndText@@YAXPAVCDataExchange@@HPAKPB_W@Z" is :- "void __cdecl DDP_EndText(class CDataExchange *,int,unsigned long *,wchar_t const *)" 
?DDP_EndText@@YAXPAVCDataExchange@@HPAKPBG@Z => Microsoft (R) C++ Name Undecorator Copyright (C) Microsoft Corporation. All rights reserved.  Undecoration of :- "?DDP_EndText@@YAXPAVCDataExchange@@HPAKPBG@Z" is :- "void __cdecl DDP_EndText(class CDataExchange *,int,unsigned long *,unsigned short const *)" 
?DDP_EndText@@YAXPAVCDataExchange@@HPAMPB_W@Z => Microsoft (R) C++ Name Undecorator Copyright (C) Microsoft Corporation. All rights reserved.  Undecoration of :- "?DDP_EndText@@YAXPAVCDataExchange@@HPAMPB_W@Z" is :- "void __cdecl DDP_EndText(class CDataExchange *,int,float *,wchar_t const *)" 
?DDP_EndText@@YAXPAVCDataExchange@@HPAMPBG@Z => Microsoft (R) C++ Name Undecorator Copyright (C) Microsoft Corporation. All rights reserved.  Undecoration of :- "?DDP_EndText@@YAXPAVCDataExchange@@HPAMPBG@Z" is :- "void __cdecl DDP_EndText(class CDataExchange *,int,float *,unsigned short const *)" 
?DDP_EndText@@YAXPAVCDataExchange@@HPANPB_W@Z => Microsoft (R) C++ Name Undecorator Copyright (C) Microsoft Corporation. All rights reserved.  Undecoration of :- "?DDP_EndText@@YAXPAVCDataExchange@@HPANPB_W@Z" is :- "void __cdecl DDP_EndText(class CDataExchange *,int,double *,wchar_t const *)" 
?DDP_EndText@@YAXPAVCDataExchange@@HPANPBG@Z => Microsoft (R) C++ Name Undecorator Copyright (C) Microsoft Corporation. All rights reserved.  Undecoration of :- "?DDP_EndText@@YAXPAVCDataExchange@@HPANPBG@Z" is :- "void __cdecl DDP_EndText(class CDataExchange *,int,double *,unsigned short const *)" 
?DDP_EndText@@YAXPAVCDataExchange@@HPAV?$CStringT@_WV?$StrTraitMFC_DLL@_WV?$ChTraitsCRT@_W@ATL@@@@@ATL@@PB_W@Z => Microsoft (R) C++ Name Undecorator Copyright (C) Microsoft Corporation. All rights reserved.  Undecoration of :- "?DDP_EndText@@YAXPAVCDataExchange@@HPAV?$CStringT@_WV?$StrTraitMFC_DLL@_WV?$ChTraitsCRT@_W@ATL@@@@@ATL@@PB_W@Z" is :- "void __cdecl DDP_EndText(class CDataExchange *,int,class ATL::CStringT<wchar_t,class StrTraitMFC_DLL<wchar_t,class ATL::ChTraitsCRT<wchar_t> > > *,wchar_t const *)" 
?DDP_EndText@@YAXPAVCDataExchange@@HPAV?$CStringT@GV?$StrTraitMFC_DLL@GV?$ChTraitsCRT@G@ATL@@@@@ATL@@PBG@Z => Microsoft (R) C++ Name Undecorator Copyright (C) Microsoft Corporation. All rights reserved.  Undecoration of :- "?DDP_EndText@@YAXPAVCDataExchange@@HPAV?$CStringT@GV?$StrTraitMFC_DLL@GV?$ChTraitsCRT@G@ATL@@@@@ATL@@PBG@Z" is :- "void __cdecl DDP_EndText(class CDataExchange *,int,class ATL::CStringT<unsigned short,class StrTraitMFC_DLL<unsigned short,class ATL::ChTraitsCRT<unsigned short> > > *,unsigned short const *)" 
?DDP_Radio@@YAXPAVCDataExchange@@HAAHPB_W@Z => Microsoft (R) C++ Name Undecorator Copyright (C) Microsoft Corporation. All rights reserved.  Undecoration of :- "?DDP_Radio@@YAXPAVCDataExchange@@HAAHPB_W@Z" is :- "void __cdecl DDP_Radio(class CDataExchange *,int,int &,wchar_t const *)" 
?DDP_Radio@@YAXPAVCDataExchange@@HAAHPBG@Z => Microsoft (R) C++ Name Undecorator Copyright (C) Microsoft Corporation. All rights reserved.  Undecoration of :- "?DDP_Radio@@YAXPAVCDataExchange@@HAAHPBG@Z" is :- "void __cdecl DDP_Radio(class CDataExchange *,int,int &,unsigned short const *)" 
?DDP_Text@@YAXPAVCDataExchange@@HAAEPB_W@Z => Microsoft (R) C++ Name Undecorator Copyright (C) Microsoft Corporation. All rights reserved.  Undecoration of :- "?DDP_Text@@YAXPAVCDataExchange@@HAAEPB_W@Z" is :- "void __cdecl DDP_Text(class CDataExchange *,int,unsigned char &,wchar_t const *)" 
?DDP_Text@@YAXPAVCDataExchange@@HAAEPBG@Z => Microsoft (R) C++ Name Undecorator Copyright (C) Microsoft Corporation. All rights reserved.  Undecoration of :- "?DDP_Text@@YAXPAVCDataExchange@@HAAEPBG@Z" is :- "void __cdecl DDP_Text(class CDataExchange *,int,unsigned char &,unsigned short const *)" 
?DDP_Text@@YAXPAVCDataExchange@@HAAFPB_W@Z => Microsoft (R) C++ Name Undecorator Copyright (C) Microsoft Corporation. All rights reserved.  Undecoration of :- "?DDP_Text@@YAXPAVCDataExchange@@HAAFPB_W@Z" is :- "void __cdecl DDP_Text(class CDataExchange *,int,short &,wchar_t const *)" 
?DDP_Text@@YAXPAVCDataExchange@@HAAFPBG@Z => Microsoft (R) C++ Name Undecorator Copyright (C) Microsoft Corporation. All rights reserved.  Undecoration of :- "?DDP_Text@@YAXPAVCDataExchange@@HAAFPBG@Z" is :- "void __cdecl DDP_Text(class CDataExchange *,int,short &,unsigned short const *)" 
?DDP_Text@@YAXPAVCDataExchange@@HAAHPB_W@Z => Microsoft (R) C++ Name Undecorator Copyright (C) Microsoft Corporation. All rights reserved.  Undecoration of :- "?DDP_Text@@YAXPAVCDataExchange@@HAAHPB_W@Z" is :- "void __cdecl DDP_Text(class CDataExchange *,int,int &,wchar_t const *)" 
?DDP_Text@@YAXPAVCDataExchange@@HAAHPBG@Z => Microsoft (R) C++ Name Undecorator Copyright (C) Microsoft Corporation. All rights reserved.  Undecoration of :- "?DDP_Text@@YAXPAVCDataExchange@@HAAHPBG@Z" is :- "void __cdecl DDP_Text(class CDataExchange *,int,int &,unsigned short const *)" 
?DDP_Text@@YAXPAVCDataExchange@@HAAIPB_W@Z => Microsoft (R) C++ Name Undecorator Copyright (C) Microsoft Corporation. All rights reserved.  Undecoration of :- "?DDP_Text@@YAXPAVCDataExchange@@HAAIPB_W@Z" is :- "void __cdecl DDP_Text(class CDataExchange *,int,unsigned int &,wchar_t const *)" 
?DDP_Text@@YAXPAVCDataExchange@@HAAIPBG@Z => Microsoft (R) C++ Name Undecorator Copyright (C) Microsoft Corporation. All rights reserved.  Undecoration of :- "?DDP_Text@@YAXPAVCDataExchange@@HAAIPBG@Z" is :- "void __cdecl DDP_Text(class CDataExchange *,int,unsigned int &,unsigned short const *)" 
?DDP_Text@@YAXPAVCDataExchange@@HAAJPB_W@Z => Microsoft (R) C++ Name Undecorator Copyright (C) Microsoft Corporation. All rights reserved.  Undecoration of :- "?DDP_Text@@YAXPAVCDataExchange@@HAAJPB_W@Z" is :- "void __cdecl DDP_Text(class CDataExchange *,int,long &,wchar_t const *)" 
?DDP_Text@@YAXPAVCDataExchange@@HAAJPBG@Z => Microsoft (R) C++ Name Undecorator Copyright (C) Microsoft Corporation. All rights reserved.  Undecoration of :- "?DDP_Text@@YAXPAVCDataExchange@@HAAJPBG@Z" is :- "void __cdecl DDP_Text(class CDataExchange *,int,long &,unsigned short const *)" 
?DDP_Text@@YAXPAVCDataExchange@@HAAKPB_W@Z => Microsoft (R) C++ Name Undecorator Copyright (C) Microsoft Corporation. All rights reserved.  Undecoration of :- "?DDP_Text@@YAXPAVCDataExchange@@HAAKPB_W@Z" is :- "void __cdecl DDP_Text(class CDataExchange *,int,unsigned long &,wchar_t const *)" 
?DDP_Text@@YAXPAVCDataExchange@@HAAKPBG@Z => Microsoft (R) C++ Name Undecorator Copyright (C) Microsoft Corporation. All rights reserved.  Undecoration of :- "?DDP_Text@@YAXPAVCDataExchange@@HAAKPBG@Z" is :- "void __cdecl DDP_Text(class CDataExchange *,int,unsigned long &,unsigned short const *)" 
?DDP_Text@@YAXPAVCDataExchange@@HAAMPB_W@Z => Microsoft (R) C++ Name Undecorator Copyright (C) Microsoft Corporation. All rights reserved.  Undecoration of :- "?DDP_Text@@YAXPAVCDataExchange@@HAAMPB_W@Z" is :- "void __cdecl DDP_Text(class CDataExchange *,int,float &,wchar_t const *)" 
?DDP_Text@@YAXPAVCDataExchange@@HAAMPBG@Z => Microsoft (R) C++ Name Undecorator Copyright (C) Microsoft Corporation. All rights reserved.  Undecoration of :- "?DDP_Text@@YAXPAVCDataExchange@@HAAMPBG@Z" is :- "void __cdecl DDP_Text(class CDataExchange *,int,float &,unsigned short const *)" 
?DDP_Text@@YAXPAVCDataExchange@@HAANPB_W@Z => Microsoft (R) C++ Name Undecorator Copyright (C) Microsoft Corporation. All rights reserved.  Undecoration of :- "?DDP_Text@@YAXPAVCDataExchange@@HAANPB_W@Z" is :- "void __cdecl DDP_Text(class CDataExchange *,int,double &,wchar_t const *)" 
?DDP_Text@@YAXPAVCDataExchange@@HAANPBG@Z => Microsoft (R) C++ Name Undecorator Copyright (C) Microsoft Corporation. All rights reserved.  Undecoration of :- "?DDP_Text@@YAXPAVCDataExchange@@HAANPBG@Z" is :- "void __cdecl DDP_Text(class CDataExchange *,int,double &,unsigned short const *)" 
?DDP_Text@@YAXPAVCDataExchange@@HAAV?$CStringT@_WV?$StrTraitMFC_DLL@_WV?$ChTraitsCRT@_W@ATL@@@@@ATL@@PB_W@Z => Microsoft (R) C++ Name Undecorator Copyright (C) Microsoft Corporation. All rights reserved.  Undecoration of :- "?DDP_Text@@YAXPAVCDataExchange@@HAAV?$CStringT@_WV?$StrTraitMFC_DLL@_WV?$ChTraitsCRT@_W@ATL@@@@@ATL@@PB_W@Z" is :- "void __cdecl DDP_Text(class CDataExchange *,int,class ATL::CStringT<wchar_t,class StrTraitMFC_DLL<wchar_t,class ATL::ChTraitsCRT<wchar_t> > > &,wchar_t const *)" 
?DDP_Text@@YAXPAVCDataExchange@@HAAV?$CStringT@GV?$StrTraitMFC_DLL@GV?$ChTraitsCRT@G@ATL@@@@@ATL@@PBG@Z => Microsoft (R) C++ Name Undecorator Copyright (C) Microsoft Corporation. All rights reserved.  Undecoration of :- "?DDP_Text@@YAXPAVCDataExchange@@HAAV?$CStringT@GV?$StrTraitMFC_DLL@GV?$ChTraitsCRT@G@ATL@@@@@ATL@@PBG@Z" is :- "void __cdecl DDP_Text(class CDataExchange *,int,class ATL::CStringT<unsigned short,class StrTraitMFC_DLL<unsigned short,class ATL::ChTraitsCRT<unsigned short> > > &,unsigned short const *)" 
?DDV_MaxChars@@YAXPAVCDataExchange@@ABV?$CStringT@_WV?$StrTraitMFC_DLL@_WV?$ChTraitsCRT@_W@ATL@@@@@ATL@@H@Z => Microsoft (R) C++ Name Undecorator Copyright (C) Microsoft Corporation. All rights reserved.  Undecoration of :- "?DDV_MaxChars@@YAXPAVCDataExchange@@ABV?$CStringT@_WV?$StrTraitMFC_DLL@_WV?$ChTraitsCRT@_W@ATL@@@@@ATL@@H@Z" is :- "void __cdecl DDV_MaxChars(class CDataExchange *,class ATL::CStringT<wchar_t,class StrTraitMFC_DLL<wchar_t,class ATL::ChTraitsCRT<wchar_t> > > const &,int)" 
?DDV_MaxChars@@YAXPAVCDataExchange@@ABV?$CStringT@GV?$StrTraitMFC_DLL@GV?$ChTraitsCRT@G@ATL@@@@@ATL@@H@Z => Microsoft (R) C++ Name Undecorator Copyright (C) Microsoft Corporation. All rights reserved.  Undecoration of :- "?DDV_MaxChars@@YAXPAVCDataExchange@@ABV?$CStringT@GV?$StrTraitMFC_DLL@GV?$ChTraitsCRT@G@ATL@@@@@ATL@@H@Z" is :- "void __cdecl DDV_MaxChars(class CDataExchange *,class ATL::CStringT<unsigned short,class StrTraitMFC_DLL<unsigned short,class ATL::ChTraitsCRT<unsigned short> > > const &,int)" 
?DDX_CBString@@YAXPAVCDataExchange@@HAAV?$CStringT@_WV?$StrTraitMFC_DLL@_WV?$ChTraitsCRT@_W@ATL@@@@@ATL@@@Z => Microsoft (R) C++ Name Undecorator Copyright (C) Microsoft Corporation. All rights reserved.  Undecoration of :- "?DDX_CBString@@YAXPAVCDataExchange@@HAAV?$CStringT@_WV?$StrTraitMFC_DLL@_WV?$ChTraitsCRT@_W@ATL@@@@@ATL@@@Z" is :- "void __cdecl DDX_CBString(class CDataExchange *,int,class ATL::CStringT<wchar_t,class StrTraitMFC_DLL<wchar_t,class ATL::ChTraitsCRT<wchar_t> > > &)" 
?DDX_CBString@@YAXPAVCDataExchange@@HAAV?$CStringT@GV?$StrTraitMFC_DLL@GV?$ChTraitsCRT@G@ATL@@@@@ATL@@@Z => Microsoft (R) C++ Name Undecorator Copyright (C) Microsoft Corporation. All rights reserved.  Undecoration of :- "?DDX_CBString@@YAXPAVCDataExchange@@HAAV?$CStringT@GV?$StrTraitMFC_DLL@GV?$ChTraitsCRT@G@ATL@@@@@ATL@@@Z" is :- "void __cdecl DDX_CBString(class CDataExchange *,int,class ATL::CStringT<unsigned short,class StrTraitMFC_DLL<unsigned short,class ATL::ChTraitsCRT<unsigned short> > > &)" 
?DDX_CBStringExact@@YAXPAVCDataExchange@@HAAV?$CStringT@_WV?$StrTraitMFC_DLL@_WV?$ChTraitsCRT@_W@ATL@@@@@ATL@@@Z => Microsoft (R) C++ Name Undecorator Copyright (C) Microsoft Corporation. All rights reserved.  Undecoration of :- "?DDX_CBStringExact@@YAXPAVCDataExchange@@HAAV?$CStringT@_WV?$StrTraitMFC_DLL@_WV?$ChTraitsCRT@_W@ATL@@@@@ATL@@@Z" is :- "void __cdecl DDX_CBStringExact(class CDataExchange *,int,class ATL::CStringT<wchar_t,class StrTraitMFC_DLL<wchar_t,class ATL::ChTraitsCRT<wchar_t> > > &)" 
?DDX_CBStringExact@@YAXPAVCDataExchange@@HAAV?$CStringT@GV?$StrTraitMFC_DLL@GV?$ChTraitsCRT@G@ATL@@@@@ATL@@@Z => Microsoft (R) C++ Name Undecorator Copyright (C) Microsoft Corporation. All rights reserved.  Undecoration of :- "?DDX_CBStringExact@@YAXPAVCDataExchange@@HAAV?$CStringT@GV?$StrTraitMFC_DLL@GV?$ChTraitsCRT@G@ATL@@@@@ATL@@@Z" is :- "void __cdecl DDX_CBStringExact(class CDataExchange *,int,class ATL::CStringT<unsigned short,class StrTraitMFC_DLL<unsigned short,class ATL::ChTraitsCRT<unsigned short> > > &)" 
?DDX_DateTimeCtrl@@YAXPAVCDataExchange@@HAAV?$CStringT@_WV?$StrTraitMFC_DLL@_WV?$ChTraitsCRT@_W@ATL@@@@@ATL@@@Z => Microsoft (R) C++ Name Undecorator Copyright (C) Microsoft Corporation. All rights reserved.  Undecoration of :- "?DDX_DateTimeCtrl@@YAXPAVCDataExchange@@HAAV?$CStringT@_WV?$StrTraitMFC_DLL@_WV?$ChTraitsCRT@_W@ATL@@@@@ATL@@@Z" is :- "void __cdecl DDX_DateTimeCtrl(class CDataExchange *,int,class ATL::CStringT<wchar_t,class StrTraitMFC_DLL<wchar_t,class ATL::ChTraitsCRT<wchar_t> > > &)" 
?DDX_DateTimeCtrl@@YAXPAVCDataExchange@@HAAV?$CStringT@GV?$StrTraitMFC_DLL@GV?$ChTraitsCRT@G@ATL@@@@@ATL@@@Z => Microsoft (R) C++ Name Undecorator Copyright (C) Microsoft Corporation. All rights reserved.  Undecoration of :- "?DDX_DateTimeCtrl@@YAXPAVCDataExchange@@HAAV?$CStringT@GV?$StrTraitMFC_DLL@GV?$ChTraitsCRT@G@ATL@@@@@ATL@@@Z" is :- "void __cdecl DDX_DateTimeCtrl(class CDataExchange *,int,class ATL::CStringT<unsigned short,class StrTraitMFC_DLL<unsigned short,class ATL::ChTraitsCRT<unsigned short> > > &)" 
?DDX_DHtml_AxControl@CDHtmlDialog@@IAAXPB_W0AAUtagVARIANT@@H@Z => Microsoft (R) C++ Name Undecorator Copyright (C) Microsoft Corporation. All rights reserved.  Undecoration of :- "?DDX_DHtml_AxControl@CDHtmlDialog@@IAAXPB_W0AAUtagVARIANT@@H@Z" is :- "protected: void __cdecl CDHtmlDialog::DDX_DHtml_AxControl(wchar_t const *,wchar_t const *,struct tagVARIANT &,int)" 
?DDX_DHtml_AxControl@CDHtmlDialog@@IAAXPB_WJAAUtagVARIANT@@H@Z => Microsoft (R) C++ Name Undecorator Copyright (C) Microsoft Corporation. All rights reserved.  Undecoration of :- "?DDX_DHtml_AxControl@CDHtmlDialog@@IAAXPB_WJAAUtagVARIANT@@H@Z" is :- "protected: void __cdecl CDHtmlDialog::DDX_DHtml_AxControl(wchar_t const *,long,struct tagVARIANT &,int)" 
?DDX_DHtml_AxControl@CDHtmlDialog@@IAAXPBG0AAUtagVARIANT@@H@Z => Microsoft (R) C++ Name Undecorator Copyright (C) Microsoft Corporation. All rights reserved.  Undecoration of :- "?DDX_DHtml_AxControl@CDHtmlDialog@@IAAXPBG0AAUtagVARIANT@@H@Z" is :- "protected: void __cdecl CDHtmlDialog::DDX_DHtml_AxControl(unsigned short const *,unsigned short const *,struct tagVARIANT &,int)" 
?DDX_DHtml_AxControl@CDHtmlDialog@@IAAXPBGJAAUtagVARIANT@@H@Z => Microsoft (R) C++ Name Undecorator Copyright (C) Microsoft Corporation. All rights reserved.  Undecoration of :- "?DDX_DHtml_AxControl@CDHtmlDialog@@IAAXPBGJAAUtagVARIANT@@H@Z" is :- "protected: void __cdecl CDHtmlDialog::DDX_DHtml_AxControl(unsigned short const *,long,struct tagVARIANT &,int)" 
?DDX_DHtml_AxControl@CDHtmlDialog@@QAAXPAVCDataExchange@@PB_W1AAUtagVARIANT@@@Z => Microsoft (R) C++ Name Undecorator Copyright (C) Microsoft Corporation. All rights reserved.  Undecoration of :- "?DDX_DHtml_AxControl@CDHtmlDialog@@QAAXPAVCDataExchange@@PB_W1AAUtagVARIANT@@@Z" is :- "public: void __cdecl CDHtmlDialog::DDX_DHtml_AxControl(class CDataExchange *,wchar_t const *,wchar_t const *,struct tagVARIANT &)" 
?DDX_DHtml_AxControl@CDHtmlDialog@@QAAXPAVCDataExchange@@PB_WJAAUtagVARIANT@@@Z => Microsoft (R) C++ Name Undecorator Copyright (C) Microsoft Corporation. All rights reserved.  Undecoration of :- "?DDX_DHtml_AxControl@CDHtmlDialog@@QAAXPAVCDataExchange@@PB_WJAAUtagVARIANT@@@Z" is :- "public: void __cdecl CDHtmlDialog::DDX_DHtml_AxControl(class CDataExchange *,wchar_t const *,long,struct tagVARIANT &)" 
?DDX_DHtml_AxControl@CDHtmlDialog@@QAAXPAVCDataExchange@@PBG1AAUtagVARIANT@@@Z => Microsoft (R) C++ Name Undecorator Copyright (C) Microsoft Corporation. All rights reserved.  Undecoration of :- "?DDX_DHtml_AxControl@CDHtmlDialog@@QAAXPAVCDataExchange@@PBG1AAUtagVARIANT@@@Z" is :- "public: void __cdecl CDHtmlDialog::DDX_DHtml_AxControl(class CDataExchange *,unsigned short const *,unsigned short const *,struct tagVARIANT &)" 
?DDX_DHtml_AxControl@CDHtmlDialog@@QAAXPAVCDataExchange@@PBGJAAUtagVARIANT@@@Z => Microsoft (R) C++ Name Undecorator Copyright (C) Microsoft Corporation. All rights reserved.  Undecoration of :- "?DDX_DHtml_AxControl@CDHtmlDialog@@QAAXPAVCDataExchange@@PBGJAAUtagVARIANT@@@Z" is :- "public: void __cdecl CDHtmlDialog::DDX_DHtml_AxControl(class CDataExchange *,unsigned short const *,long,struct tagVARIANT &)" 
?DDX_DHtml_CheckBox@CDHtmlDialog@@IAAXPB_WAAHH@Z => Microsoft (R) C++ Name Undecorator Copyright (C) Microsoft Corporation. All rights reserved.  Undecoration of :- "?DDX_DHtml_CheckBox@CDHtmlDialog@@IAAXPB_WAAHH@Z" is :- "protected: void __cdecl CDHtmlDialog::DDX_DHtml_CheckBox(wchar_t const *,int &,int)" 
?DDX_DHtml_CheckBox@CDHtmlDialog@@IAAXPBGAAHH@Z => Microsoft (R) C++ Name Undecorator Copyright (C) Microsoft Corporation. All rights reserved.  Undecoration of :- "?DDX_DHtml_CheckBox@CDHtmlDialog@@IAAXPBGAAHH@Z" is :- "protected: void __cdecl CDHtmlDialog::DDX_DHtml_CheckBox(unsigned short const *,int &,int)" 
?DDX_DHtml_CheckBox@CDHtmlDialog@@QAAXPAVCDataExchange@@PB_WAAH@Z => Microsoft (R) C++ Name Undecorator Copyright (C) Microsoft Corporation. All rights reserved.  Undecoration of :- "?DDX_DHtml_CheckBox@CDHtmlDialog@@QAAXPAVCDataExchange@@PB_WAAH@Z" is :- "public: void __cdecl CDHtmlDialog::DDX_DHtml_CheckBox(class CDataExchange *,wchar_t const *,int &)" 
?DDX_DHtml_CheckBox@CDHtmlDialog@@QAAXPAVCDataExchange@@PBGAAH@Z => Microsoft (R) C++ Name Undecorator Copyright (C) Microsoft Corporation. All rights reserved.  Undecoration of :- "?DDX_DHtml_CheckBox@CDHtmlDialog@@QAAXPAVCDataExchange@@PBGAAH@Z" is :- "public: void __cdecl CDHtmlDialog::DDX_DHtml_CheckBox(class CDataExchange *,unsigned short const *,int &)" 
?DDX_DHtml_ElementText@CDHtmlDialog@@IAAXPB_WJAAFH@Z => Microsoft (R) C++ Name Undecorator Copyright (C) Microsoft Corporation. All rights reserved.  Undecoration of :- "?DDX_DHtml_ElementText@CDHtmlDialog@@IAAXPB_WJAAFH@Z" is :- "protected: void __cdecl CDHtmlDialog::DDX_DHtml_ElementText(wchar_t const *,long,short &,int)" 
?DDX_DHtml_ElementText@CDHtmlDialog@@IAAXPB_WJAAHH@Z => Microsoft (R) C++ Name Undecorator Copyright (C) Microsoft Corporation. All rights reserved.  Undecoration of :- "?DDX_DHtml_ElementText@CDHtmlDialog@@IAAXPB_WJAAHH@Z" is :- "protected: void __cdecl CDHtmlDialog::DDX_DHtml_ElementText(wchar_t const *,long,int &,int)" 
?DDX_DHtml_ElementText@CDHtmlDialog@@IAAXPB_WJAAJH@Z => Microsoft (R) C++ Name Undecorator Copyright (C) Microsoft Corporation. All rights reserved.  Undecoration of :- "?DDX_DHtml_ElementText@CDHtmlDialog@@IAAXPB_WJAAJH@Z" is :- "protected: void __cdecl CDHtmlDialog::DDX_DHtml_ElementText(wchar_t const *,long,long &,int)" 
?DDX_DHtml_ElementText@CDHtmlDialog@@IAAXPB_WJAAKH@Z => Microsoft (R) C++ Name Undecorator Copyright (C) Microsoft Corporation. All rights reserved.  Undecoration of :- "?DDX_DHtml_ElementText@CDHtmlDialog@@IAAXPB_WJAAKH@Z" is :- "protected: void __cdecl CDHtmlDialog::DDX_DHtml_ElementText(wchar_t const *,long,unsigned long &,int)" 
?DDX_DHtml_ElementText@CDHtmlDialog@@IAAXPB_WJAAMH@Z => Microsoft (R) C++ Name Undecorator Copyright (C) Microsoft Corporation. All rights reserved.  Undecoration of :- "?DDX_DHtml_ElementText@CDHtmlDialog@@IAAXPB_WJAAMH@Z" is :- "protected: void __cdecl CDHtmlDialog::DDX_DHtml_ElementText(wchar_t const *,long,float &,int)" 
?DDX_DHtml_ElementText@CDHtmlDialog@@IAAXPB_WJAANH@Z => Microsoft (R) C++ Name Undecorator Copyright (C) Microsoft Corporation. All rights reserved.  Undecoration of :- "?DDX_DHtml_ElementText@CDHtmlDialog@@IAAXPB_WJAANH@Z" is :- "protected: void __cdecl CDHtmlDialog::DDX_DHtml_ElementText(wchar_t const *,long,double &,int)" 
?DDX_DHtml_ElementText@CDHtmlDialog@@IAAXPB_WJAAV?$CStringT@_WV?$StrTraitMFC_DLL@_WV?$ChTraitsCRT@_W@ATL@@@@@ATL@@H@Z => Microsoft (R) C++ Name Undecorator Copyright (C) Microsoft Corporation. All rights reserved.  Undecoration of :- "?DDX_DHtml_ElementText@CDHtmlDialog@@IAAXPB_WJAAV?$CStringT@_WV?$StrTraitMFC_DLL@_WV?$ChTraitsCRT@_W@ATL@@@@@ATL@@H@Z" is :- "protected: void __cdecl CDHtmlDialog::DDX_DHtml_ElementText(wchar_t const *,long,class ATL::CStringT<wchar_t,class StrTraitMFC_DLL<wchar_t,class ATL::ChTraitsCRT<wchar_t> > > &,int)" 
?DDX_DHtml_ElementText@CDHtmlDialog@@IAAXPBGJAAFH@Z => Microsoft (R) C++ Name Undecorator Copyright (C) Microsoft Corporation. All rights reserved.  Undecoration of :- "?DDX_DHtml_ElementText@CDHtmlDialog@@IAAXPBGJAAFH@Z" is :- "protected: void __cdecl CDHtmlDialog::DDX_DHtml_ElementText(unsigned short const *,long,short &,int)" 
?DDX_DHtml_ElementText@CDHtmlDialog@@IAAXPBGJAAHH@Z => Microsoft (R) C++ Name Undecorator Copyright (C) Microsoft Corporation. All rights reserved.  Undecoration of :- "?DDX_DHtml_ElementText@CDHtmlDialog@@IAAXPBGJAAHH@Z" is :- "protected: void __cdecl CDHtmlDialog::DDX_DHtml_ElementText(unsigned short const *,long,int &,int)" 
?DDX_DHtml_ElementText@CDHtmlDialog@@IAAXPBGJAAJH@Z => Microsoft (R) C++ Name Undecorator Copyright (C) Microsoft Corporation. All rights reserved.  Undecoration of :- "?DDX_DHtml_ElementText@CDHtmlDialog@@IAAXPBGJAAJH@Z" is :- "protected: void __cdecl CDHtmlDialog::DDX_DHtml_ElementText(unsigned short const *,long,long &,int)" 
?DDX_DHtml_ElementText@CDHtmlDialog@@IAAXPBGJAAKH@Z => Microsoft (R) C++ Name Undecorator Copyright (C) Microsoft Corporation. All rights reserved.  Undecoration of :- "?DDX_DHtml_ElementText@CDHtmlDialog@@IAAXPBGJAAKH@Z" is :- "protected: void __cdecl CDHtmlDialog::DDX_DHtml_ElementText(unsigned short const *,long,unsigned long &,int)" 
?DDX_DHtml_ElementText@CDHtmlDialog@@IAAXPBGJAAMH@Z => Microsoft (R) C++ Name Undecorator Copyright (C) Microsoft Corporation. All rights reserved.  Undecoration of :- "?DDX_DHtml_ElementText@CDHtmlDialog@@IAAXPBGJAAMH@Z" is :- "protected: void __cdecl CDHtmlDialog::DDX_DHtml_ElementText(unsigned short const *,long,float &,int)" 
?DDX_DHtml_ElementText@CDHtmlDialog@@IAAXPBGJAANH@Z => Microsoft (R) C++ Name Undecorator Copyright (C) Microsoft Corporation. All rights reserved.  Undecoration of :- "?DDX_DHtml_ElementText@CDHtmlDialog@@IAAXPBGJAANH@Z" is :- "protected: void __cdecl CDHtmlDialog::DDX_DHtml_ElementText(unsigned short const *,long,double &,int)" 
?DDX_DHtml_ElementText@CDHtmlDialog@@IAAXPBGJAAV?$CStringT@GV?$StrTraitMFC_DLL@GV?$ChTraitsCRT@G@ATL@@@@@ATL@@H@Z => Microsoft (R) C++ Name Undecorator Copyright (C) Microsoft Corporation. All rights reserved.  Undecoration of :- "?DDX_DHtml_ElementText@CDHtmlDialog@@IAAXPBGJAAV?$CStringT@GV?$StrTraitMFC_DLL@GV?$ChTraitsCRT@G@ATL@@@@@ATL@@H@Z" is :- "protected: void __cdecl CDHtmlDialog::DDX_DHtml_ElementText(unsigned short const *,long,class ATL::CStringT<unsigned short,class StrTraitMFC_DLL<unsigned short,class ATL::ChTraitsCRT<unsigned short> > > &,int)" 
?DDX_DHtml_ElementText@CDHtmlDialog@@QAAXPAVCDataExchange@@PB_WJAAF@Z => Microsoft (R) C++ Name Undecorator Copyright (C) Microsoft Corporation. All rights reserved.  Undecoration of :- "?DDX_DHtml_ElementText@CDHtmlDialog@@QAAXPAVCDataExchange@@PB_WJAAF@Z" is :- "public: void __cdecl CDHtmlDialog::DDX_DHtml_ElementText(class CDataExchange *,wchar_t const *,long,short &)" 
?DDX_DHtml_ElementText@CDHtmlDialog@@QAAXPAVCDataExchange@@PB_WJAAH@Z => Microsoft (R) C++ Name Undecorator Copyright (C) Microsoft Corporation. All rights reserved.  Undecoration of :- "?DDX_DHtml_ElementText@CDHtmlDialog@@QAAXPAVCDataExchange@@PB_WJAAH@Z" is :- "public: void __cdecl CDHtmlDialog::DDX_DHtml_ElementText(class CDataExchange *,wchar_t const *,long,int &)" 
?DDX_DHtml_ElementText@CDHtmlDialog@@QAAXPAVCDataExchange@@PB_WJAAJ@Z => Microsoft (R) C++ Name Undecorator Copyright (C) Microsoft Corporation. All rights reserved.  Undecoration of :- "?DDX_DHtml_ElementText@CDHtmlDialog@@QAAXPAVCDataExchange@@PB_WJAAJ@Z" is :- "public: void __cdecl CDHtmlDialog::DDX_DHtml_ElementText(class CDataExchange *,wchar_t const *,long,long &)" 
?DDX_DHtml_ElementText@CDHtmlDialog@@QAAXPAVCDataExchange@@PB_WJAAK@Z => Microsoft (R) C++ Name Undecorator Copyright (C) Microsoft Corporation. All rights reserved.  Undecoration of :- "?DDX_DHtml_ElementText@CDHtmlDialog@@QAAXPAVCDataExchange@@PB_WJAAK@Z" is :- "public: void __cdecl CDHtmlDialog::DDX_DHtml_ElementText(class CDataExchange *,wchar_t const *,long,unsigned long &)" 
?DDX_DHtml_ElementText@CDHtmlDialog@@QAAXPAVCDataExchange@@PB_WJAAM@Z => Microsoft (R) C++ Name Undecorator Copyright (C) Microsoft Corporation. All rights reserved.  Undecoration of :- "?DDX_DHtml_ElementText@CDHtmlDialog@@QAAXPAVCDataExchange@@PB_WJAAM@Z" is :- "public: void __cdecl CDHtmlDialog::DDX_DHtml_ElementText(class CDataExchange *,wchar_t const *,long,float &)" 
?DDX_DHtml_ElementText@CDHtmlDialog@@QAAXPAVCDataExchange@@PB_WJAAN@Z => Microsoft (R) C++ Name Undecorator Copyright (C) Microsoft Corporation. All rights reserved.  Undecoration of :- "?DDX_DHtml_ElementText@CDHtmlDialog@@QAAXPAVCDataExchange@@PB_WJAAN@Z" is :- "public: void __cdecl CDHtmlDialog::DDX_DHtml_ElementText(class CDataExchange *,wchar_t const *,long,double &)" 
?DDX_DHtml_ElementText@CDHtmlDialog@@QAAXPAVCDataExchange@@PB_WJAAV?$CStringT@_WV?$StrTraitMFC_DLL@_WV?$ChTraitsCRT@_W@ATL@@@@@ATL@@@Z => Microsoft (R) C++ Name Undecorator Copyright (C) Microsoft Corporation. All rights reserved.  Undecoration of :- "?DDX_DHtml_ElementText@CDHtmlDialog@@QAAXPAVCDataExchange@@PB_WJAAV?$CStringT@_WV?$StrTraitMFC_DLL@_WV?$ChTraitsCRT@_W@ATL@@@@@ATL@@@Z" is :- "public: void __cdecl CDHtmlDialog::DDX_DHtml_ElementText(class CDataExchange *,wchar_t const *,long,class ATL::CStringT<wchar_t,class StrTraitMFC_DLL<wchar_t,class ATL::ChTraitsCRT<wchar_t> > > &)" 
?DDX_DHtml_ElementText@CDHtmlDialog@@QAAXPAVCDataExchange@@PBGJAAF@Z => Microsoft (R) C++ Name Undecorator Copyright (C) Microsoft Corporation. All rights reserved.  Undecoration of :- "?DDX_DHtml_ElementText@CDHtmlDialog@@QAAXPAVCDataExchange@@PBGJAAF@Z" is :- "public: void __cdecl CDHtmlDialog::DDX_DHtml_ElementText(class CDataExchange *,unsigned short const *,long,short &)" 
?DDX_DHtml_ElementText@CDHtmlDialog@@QAAXPAVCDataExchange@@PBGJAAH@Z => Microsoft (R) C++ Name Undecorator Copyright (C) Microsoft Corporation. All rights reserved.  Undecoration of :- "?DDX_DHtml_ElementText@CDHtmlDialog@@QAAXPAVCDataExchange@@PBGJAAH@Z" is :- "public: void __cdecl CDHtmlDialog::DDX_DHtml_ElementText(class CDataExchange *,unsigned short const *,long,int &)" 
?DDX_DHtml_ElementText@CDHtmlDialog@@QAAXPAVCDataExchange@@PBGJAAJ@Z => Microsoft (R) C++ Name Undecorator Copyright (C) Microsoft Corporation. All rights reserved.  Undecoration of :- "?DDX_DHtml_ElementText@CDHtmlDialog@@QAAXPAVCDataExchange@@PBGJAAJ@Z" is :- "public: void __cdecl CDHtmlDialog::DDX_DHtml_ElementText(class CDataExchange *,unsigned short const *,long,long &)" 
?DDX_DHtml_ElementText@CDHtmlDialog@@QAAXPAVCDataExchange@@PBGJAAK@Z => Microsoft (R) C++ Name Undecorator Copyright (C) Microsoft Corporation. All rights reserved.  Undecoration of :- "?DDX_DHtml_ElementText@CDHtmlDialog@@QAAXPAVCDataExchange@@PBGJAAK@Z" is :- "public: void __cdecl CDHtmlDialog::DDX_DHtml_ElementText(class CDataExchange *,unsigned short const *,long,unsigned long &)" 
?DDX_DHtml_ElementText@CDHtmlDialog@@QAAXPAVCDataExchange@@PBGJAAM@Z => Microsoft (R) C++ Name Undecorator Copyright (C) Microsoft Corporation. All rights reserved.  Undecoration of :- "?DDX_DHtml_ElementText@CDHtmlDialog@@QAAXPAVCDataExchange@@PBGJAAM@Z" is :- "public: void __cdecl CDHtmlDialog::DDX_DHtml_ElementText(class CDataExchange *,unsigned short const *,long,float &)" 
?DDX_DHtml_ElementText@CDHtmlDialog@@QAAXPAVCDataExchange@@PBGJAAN@Z => Microsoft (R) C++ Name Undecorator Copyright (C) Microsoft Corporation. All rights reserved.  Undecoration of :- "?DDX_DHtml_ElementText@CDHtmlDialog@@QAAXPAVCDataExchange@@PBGJAAN@Z" is :- "public: void __cdecl CDHtmlDialog::DDX_DHtml_ElementText(class CDataExchange *,unsigned short const *,long,double &)" 
?DDX_DHtml_ElementText@CDHtmlDialog@@QAAXPAVCDataExchange@@PBGJAAV?$CStringT@GV?$StrTraitMFC_DLL@GV?$ChTraitsCRT@G@ATL@@@@@ATL@@@Z => Microsoft (R) C++ Name Undecorator Copyright (C) Microsoft Corporation. All rights reserved.  Undecoration of :- "?DDX_DHtml_ElementText@CDHtmlDialog@@QAAXPAVCDataExchange@@PBGJAAV?$CStringT@GV?$StrTraitMFC_DLL@GV?$ChTraitsCRT@G@ATL@@@@@ATL@@@Z" is :- "public: void __cdecl CDHtmlDialog::DDX_DHtml_ElementText(class CDataExchange *,unsigned short const *,long,class ATL::CStringT<unsigned short,class StrTraitMFC_DLL<unsigned short,class ATL::ChTraitsCRT<unsigned short> > > &)" 
?DDX_DHtml_ElementTextFloatFormat@CDHtmlDialog@@IAAXPB_WJPAXNHH@Z => Microsoft (R) C++ Name Undecorator Copyright (C) Microsoft Corporation. All rights reserved.  Undecoration of :- "?DDX_DHtml_ElementTextFloatFormat@CDHtmlDialog@@IAAXPB_WJPAXNHH@Z" is :- "protected: void __cdecl CDHtmlDialog::DDX_DHtml_ElementTextFloatFormat(wchar_t const *,long,void *,double,int,int)" 
?DDX_DHtml_ElementTextFloatFormat@CDHtmlDialog@@IAAXPBGJPAXNHH@Z => Microsoft (R) C++ Name Undecorator Copyright (C) Microsoft Corporation. All rights reserved.  Undecoration of :- "?DDX_DHtml_ElementTextFloatFormat@CDHtmlDialog@@IAAXPBGJPAXNHH@Z" is :- "protected: void __cdecl CDHtmlDialog::DDX_DHtml_ElementTextFloatFormat(unsigned short const *,long,void *,double,int,int)" 
?DDX_DHtml_ElementTextWithFormat@CDHtmlDialog@@IAAXPB_WJ0IHZZ => Microsoft (R) C++ Name Undecorator Copyright (C) Microsoft Corporation. All rights reserved.  Undecoration of :- "?DDX_DHtml_ElementTextWithFormat@CDHtmlDialog@@IAAXPB_WJ0IHZZ" is :- "protected: void __cdecl CDHtmlDialog::DDX_DHtml_ElementTextWithFormat(wchar_t const *,long,wchar_t const *,unsigned int,int,...)" 
?DDX_DHtml_ElementTextWithFormat@CDHtmlDialog@@IAAXPBGJ0IHZZ => Microsoft (R) C++ Name Undecorator Copyright (C) Microsoft Corporation. All rights reserved.  Undecoration of :- "?DDX_DHtml_ElementTextWithFormat@CDHtmlDialog@@IAAXPBGJ0IHZZ" is :- "protected: void __cdecl CDHtmlDialog::DDX_DHtml_ElementTextWithFormat(unsigned short const *,long,unsigned short const *,unsigned int,int,...)" 
?DDX_DHtml_Radio@CDHtmlDialog@@IAAXPB_WAAJH@Z => Microsoft (R) C++ Name Undecorator Copyright (C) Microsoft Corporation. All rights reserved.  Undecoration of :- "?DDX_DHtml_Radio@CDHtmlDialog@@IAAXPB_WAAJH@Z" is :- "protected: void __cdecl CDHtmlDialog::DDX_DHtml_Radio(wchar_t const *,long &,int)" 
?DDX_DHtml_Radio@CDHtmlDialog@@IAAXPBGAAJH@Z => Microsoft (R) C++ Name Undecorator Copyright (C) Microsoft Corporation. All rights reserved.  Undecoration of :- "?DDX_DHtml_Radio@CDHtmlDialog@@IAAXPBGAAJH@Z" is :- "protected: void __cdecl CDHtmlDialog::DDX_DHtml_Radio(unsigned short const *,long &,int)" 
?DDX_DHtml_Radio@CDHtmlDialog@@QAAXPAVCDataExchange@@PB_WAAJ@Z => Microsoft (R) C++ Name Undecorator Copyright (C) Microsoft Corporation. All rights reserved.  Undecoration of :- "?DDX_DHtml_Radio@CDHtmlDialog@@QAAXPAVCDataExchange@@PB_WAAJ@Z" is :- "public: void __cdecl CDHtmlDialog::DDX_DHtml_Radio(class CDataExchange *,wchar_t const *,long &)" 
?DDX_DHtml_Radio@CDHtmlDialog@@QAAXPAVCDataExchange@@PBGAAJ@Z => Microsoft (R) C++ Name Undecorator Copyright (C) Microsoft Corporation. All rights reserved.  Undecoration of :- "?DDX_DHtml_Radio@CDHtmlDialog@@QAAXPAVCDataExchange@@PBGAAJ@Z" is :- "public: void __cdecl CDHtmlDialog::DDX_DHtml_Radio(class CDataExchange *,unsigned short const *,long &)" 
?DDX_DHtml_SelectIndex@CDHtmlDialog@@IAAXPB_WAAJH@Z => Microsoft (R) C++ Name Undecorator Copyright (C) Microsoft Corporation. All rights reserved.  Undecoration of :- "?DDX_DHtml_SelectIndex@CDHtmlDialog@@IAAXPB_WAAJH@Z" is :- "protected: void __cdecl CDHtmlDialog::DDX_DHtml_SelectIndex(wchar_t const *,long &,int)" 
?DDX_DHtml_SelectIndex@CDHtmlDialog@@IAAXPBGAAJH@Z => Microsoft (R) C++ Name Undecorator Copyright (C) Microsoft Corporation. All rights reserved.  Undecoration of :- "?DDX_DHtml_SelectIndex@CDHtmlDialog@@IAAXPBGAAJH@Z" is :- "protected: void __cdecl CDHtmlDialog::DDX_DHtml_SelectIndex(unsigned short const *,long &,int)" 
?DDX_DHtml_SelectIndex@CDHtmlDialog@@QAAXPAVCDataExchange@@PB_WAAJ@Z => Microsoft (R) C++ Name Undecorator Copyright (C) Microsoft Corporation. All rights reserved.  Undecoration of :- "?DDX_DHtml_SelectIndex@CDHtmlDialog@@QAAXPAVCDataExchange@@PB_WAAJ@Z" is :- "public: void __cdecl CDHtmlDialog::DDX_DHtml_SelectIndex(class CDataExchange *,wchar_t const *,long &)" 
?DDX_DHtml_SelectIndex@CDHtmlDialog@@QAAXPAVCDataExchange@@PBGAAJ@Z => Microsoft (R) C++ Name Undecorator Copyright (C) Microsoft Corporation. All rights reserved.  Undecoration of :- "?DDX_DHtml_SelectIndex@CDHtmlDialog@@QAAXPAVCDataExchange@@PBGAAJ@Z" is :- "public: void __cdecl CDHtmlDialog::DDX_DHtml_SelectIndex(class CDataExchange *,unsigned short const *,long &)" 
?DDX_DHtml_SelectString@CDHtmlDialog@@IAAXPB_WAAV?$CStringT@_WV?$StrTraitMFC_DLL@_WV?$ChTraitsCRT@_W@ATL@@@@@ATL@@H@Z => Microsoft (R) C++ Name Undecorator Copyright (C) Microsoft Corporation. All rights reserved.  Undecoration of :- "?DDX_DHtml_SelectString@CDHtmlDialog@@IAAXPB_WAAV?$CStringT@_WV?$StrTraitMFC_DLL@_WV?$ChTraitsCRT@_W@ATL@@@@@ATL@@H@Z" is :- "protected: void __cdecl CDHtmlDialog::DDX_DHtml_SelectString(wchar_t const *,class ATL::CStringT<wchar_t,class StrTraitMFC_DLL<wchar_t,class ATL::ChTraitsCRT<wchar_t> > > &,int)" 
?DDX_DHtml_SelectString@CDHtmlDialog@@IAAXPBGAAV?$CStringT@GV?$StrTraitMFC_DLL@GV?$ChTraitsCRT@G@ATL@@@@@ATL@@H@Z => Microsoft (R) C++ Name Undecorator Copyright (C) Microsoft Corporation. All rights reserved.  Undecoration of :- "?DDX_DHtml_SelectString@CDHtmlDialog@@IAAXPBGAAV?$CStringT@GV?$StrTraitMFC_DLL@GV?$ChTraitsCRT@G@ATL@@@@@ATL@@H@Z" is :- "protected: void __cdecl CDHtmlDialog::DDX_DHtml_SelectString(unsigned short const *,class ATL::CStringT<unsigned short,class StrTraitMFC_DLL<unsigned short,class ATL::ChTraitsCRT<unsigned short> > > &,int)" 
?DDX_DHtml_SelectString@CDHtmlDialog@@QAAXPAVCDataExchange@@PB_WAAV?$CStringT@_WV?$StrTraitMFC_DLL@_WV?$ChTraitsCRT@_W@ATL@@@@@ATL@@@Z => Microsoft (R) C++ Name Undecorator Copyright (C) Microsoft Corporation. All rights reserved.  Undecoration of :- "?DDX_DHtml_SelectString@CDHtmlDialog@@QAAXPAVCDataExchange@@PB_WAAV?$CStringT@_WV?$StrTraitMFC_DLL@_WV?$ChTraitsCRT@_W@ATL@@@@@ATL@@@Z" is :- "public: void __cdecl CDHtmlDialog::DDX_DHtml_SelectString(class CDataExchange *,wchar_t const *,class ATL::CStringT<wchar_t,class StrTraitMFC_DLL<wchar_t,class ATL::ChTraitsCRT<wchar_t> > > &)" 
?DDX_DHtml_SelectString@CDHtmlDialog@@QAAXPAVCDataExchange@@PBGAAV?$CStringT@GV?$StrTraitMFC_DLL@GV?$ChTraitsCRT@G@ATL@@@@@ATL@@@Z => Microsoft (R) C++ Name Undecorator Copyright (C) Microsoft Corporation. All rights reserved.  Undecoration of :- "?DDX_DHtml_SelectString@CDHtmlDialog@@QAAXPAVCDataExchange@@PBGAAV?$CStringT@GV?$StrTraitMFC_DLL@GV?$ChTraitsCRT@G@ATL@@@@@ATL@@@Z" is :- "public: void __cdecl CDHtmlDialog::DDX_DHtml_SelectString(class CDataExchange *,unsigned short const *,class ATL::CStringT<unsigned short,class StrTraitMFC_DLL<unsigned short,class ATL::ChTraitsCRT<unsigned short> > > &)" 
?DDX_DHtml_SelectValue@CDHtmlDialog@@IAAXPB_WAAV?$CStringT@_WV?$StrTraitMFC_DLL@_WV?$ChTraitsCRT@_W@ATL@@@@@ATL@@H@Z => Microsoft (R) C++ Name Undecorator Copyright (C) Microsoft Corporation. All rights reserved.  Undecoration of :- "?DDX_DHtml_SelectValue@CDHtmlDialog@@IAAXPB_WAAV?$CStringT@_WV?$StrTraitMFC_DLL@_WV?$ChTraitsCRT@_W@ATL@@@@@ATL@@H@Z" is :- "protected: void __cdecl CDHtmlDialog::DDX_DHtml_SelectValue(wchar_t const *,class ATL::CStringT<wchar_t,class StrTraitMFC_DLL<wchar_t,class ATL::ChTraitsCRT<wchar_t> > > &,int)" 
?DDX_DHtml_SelectValue@CDHtmlDialog@@IAAXPBGAAV?$CStringT@GV?$StrTraitMFC_DLL@GV?$ChTraitsCRT@G@ATL@@@@@ATL@@H@Z => Microsoft (R) C++ Name Undecorator Copyright (C) Microsoft Corporation. All rights reserved.  Undecoration of :- "?DDX_DHtml_SelectValue@CDHtmlDialog@@IAAXPBGAAV?$CStringT@GV?$StrTraitMFC_DLL@GV?$ChTraitsCRT@G@ATL@@@@@ATL@@H@Z" is :- "protected: void __cdecl CDHtmlDialog::DDX_DHtml_SelectValue(unsigned short const *,class ATL::CStringT<unsigned short,class StrTraitMFC_DLL<unsigned short,class ATL::ChTraitsCRT<unsigned short> > > &,int)" 
?DDX_DHtml_SelectValue@CDHtmlDialog@@QAAXPAVCDataExchange@@PB_WAAV?$CStringT@_WV?$StrTraitMFC_DLL@_WV?$ChTraitsCRT@_W@ATL@@@@@ATL@@@Z => Microsoft (R) C++ Name Undecorator Copyright (C) Microsoft Corporation. All rights reserved.  Undecoration of :- "?DDX_DHtml_SelectValue@CDHtmlDialog@@QAAXPAVCDataExchange@@PB_WAAV?$CStringT@_WV?$StrTraitMFC_DLL@_WV?$ChTraitsCRT@_W@ATL@@@@@ATL@@@Z" is :- "public: void __cdecl CDHtmlDialog::DDX_DHtml_SelectValue(class CDataExchange *,wchar_t const *,class ATL::CStringT<wchar_t,class StrTraitMFC_DLL<wchar_t,class ATL::ChTraitsCRT<wchar_t> > > &)" 
?DDX_DHtml_SelectValue@CDHtmlDialog@@QAAXPAVCDataExchange@@PBGAAV?$CStringT@GV?$StrTraitMFC_DLL@GV?$ChTraitsCRT@G@ATL@@@@@ATL@@@Z => Microsoft (R) C++ Name Undecorator Copyright (C) Microsoft Corporation. All rights reserved.  Undecoration of :- "?DDX_DHtml_SelectValue@CDHtmlDialog@@QAAXPAVCDataExchange@@PBGAAV?$CStringT@GV?$StrTraitMFC_DLL@GV?$ChTraitsCRT@G@ATL@@@@@ATL@@@Z" is :- "public: void __cdecl CDHtmlDialog::DDX_DHtml_SelectValue(class CDataExchange *,unsigned short const *,class ATL::CStringT<unsigned short,class StrTraitMFC_DLL<unsigned short,class ATL::ChTraitsCRT<unsigned short> > > &)" 
?DDX_FieldCBString@@YAXPAVCDataExchange@@HAAV?$CStringT@_WV?$StrTraitMFC_DLL@_WV?$ChTraitsCRT@_W@ATL@@@@@ATL@@PAVCRecordset@@@Z => Microsoft (R) C++ Name Undecorator Copyright (C) Microsoft Corporation. All rights reserved.  Undecoration of :- "?DDX_FieldCBString@@YAXPAVCDataExchange@@HAAV?$CStringT@_WV?$StrTraitMFC_DLL@_WV?$ChTraitsCRT@_W@ATL@@@@@ATL@@PAVCRecordset@@@Z" is :- "void __cdecl DDX_FieldCBString(class CDataExchange *,int,class ATL::CStringT<wchar_t,class StrTraitMFC_DLL<wchar_t,class ATL::ChTraitsCRT<wchar_t> > > &,class CRecordset *)" 
?DDX_FieldCBString@@YAXPAVCDataExchange@@HAAV?$CStringT@GV?$StrTraitMFC_DLL@GV?$ChTraitsCRT@G@ATL@@@@@ATL@@PAVCRecordset@@@Z => Microsoft (R) C++ Name Undecorator Copyright (C) Microsoft Corporation. All rights reserved.  Undecoration of :- "?DDX_FieldCBString@@YAXPAVCDataExchange@@HAAV?$CStringT@GV?$StrTraitMFC_DLL@GV?$ChTraitsCRT@G@ATL@@@@@ATL@@PAVCRecordset@@@Z" is :- "void __cdecl DDX_FieldCBString(class CDataExchange *,int,class ATL::CStringT<unsigned short,class StrTraitMFC_DLL<unsigned short,class ATL::ChTraitsCRT<unsigned short> > > &,class CRecordset *)" 
?DDX_FieldCBStringExact@@YAXPAVCDataExchange@@HAAV?$CStringT@_WV?$StrTraitMFC_DLL@_WV?$ChTraitsCRT@_W@ATL@@@@@ATL@@PAVCRecordset@@@Z => Microsoft (R) C++ Name Undecorator Copyright (C) Microsoft Corporation. All rights reserved.  Undecoration of :- "?DDX_FieldCBStringExact@@YAXPAVCDataExchange@@HAAV?$CStringT@_WV?$StrTraitMFC_DLL@_WV?$ChTraitsCRT@_W@ATL@@@@@ATL@@PAVCRecordset@@@Z" is :- "void __cdecl DDX_FieldCBStringExact(class CDataExchange *,int,class ATL::CStringT<wchar_t,class StrTraitMFC_DLL<wchar_t,class ATL::ChTraitsCRT<wchar_t> > > &,class CRecordset *)" 
?DDX_FieldCBStringExact@@YAXPAVCDataExchange@@HAAV?$CStringT@GV?$StrTraitMFC_DLL@GV?$ChTraitsCRT@G@ATL@@@@@ATL@@PAVCRecordset@@@Z => Microsoft (R) C++ Name Undecorator Copyright (C) Microsoft Corporation. All rights reserved.  Undecoration of :- "?DDX_FieldCBStringExact@@YAXPAVCDataExchange@@HAAV?$CStringT@GV?$StrTraitMFC_DLL@GV?$ChTraitsCRT@G@ATL@@@@@ATL@@PAVCRecordset@@@Z" is :- "void __cdecl DDX_FieldCBStringExact(class CDataExchange *,int,class ATL::CStringT<unsigned short,class StrTraitMFC_DLL<unsigned short,class ATL::ChTraitsCRT<unsigned short> > > &,class CRecordset *)" 
?DDX_FieldLBString@@YAXPAVCDataExchange@@HAAV?$CStringT@_WV?$StrTraitMFC_DLL@_WV?$ChTraitsCRT@_W@ATL@@@@@ATL@@PAVCRecordset@@@Z => Microsoft (R) C++ Name Undecorator Copyright (C) Microsoft Corporation. All rights reserved.  Undecoration of :- "?DDX_FieldLBString@@YAXPAVCDataExchange@@HAAV?$CStringT@_WV?$StrTraitMFC_DLL@_WV?$ChTraitsCRT@_W@ATL@@@@@ATL@@PAVCRecordset@@@Z" is :- "void __cdecl DDX_FieldLBString(class CDataExchange *,int,class ATL::CStringT<wchar_t,class StrTraitMFC_DLL<wchar_t,class ATL::ChTraitsCRT<wchar_t> > > &,class CRecordset *)" 
?DDX_FieldLBString@@YAXPAVCDataExchange@@HAAV?$CStringT@GV?$StrTraitMFC_DLL@GV?$ChTraitsCRT@G@ATL@@@@@ATL@@PAVCRecordset@@@Z => Microsoft (R) C++ Name Undecorator Copyright (C) Microsoft Corporation. All rights reserved.  Undecoration of :- "?DDX_FieldLBString@@YAXPAVCDataExchange@@HAAV?$CStringT@GV?$StrTraitMFC_DLL@GV?$ChTraitsCRT@G@ATL@@@@@ATL@@PAVCRecordset@@@Z" is :- "void __cdecl DDX_FieldLBString(class CDataExchange *,int,class ATL::CStringT<unsigned short,class StrTraitMFC_DLL<unsigned short,class ATL::ChTraitsCRT<unsigned short> > > &,class CRecordset *)" 
?DDX_FieldLBStringExact@@YAXPAVCDataExchange@@HAAV?$CStringT@_WV?$StrTraitMFC_DLL@_WV?$ChTraitsCRT@_W@ATL@@@@@ATL@@PAVCRecordset@@@Z => Microsoft (R) C++ Name Undecorator Copyright (C) Microsoft Corporation. All rights reserved.  Undecoration of :- "?DDX_FieldLBStringExact@@YAXPAVCDataExchange@@HAAV?$CStringT@_WV?$StrTraitMFC_DLL@_WV?$ChTraitsCRT@_W@ATL@@@@@ATL@@PAVCRecordset@@@Z" is :- "void __cdecl DDX_FieldLBStringExact(class CDataExchange *,int,class ATL::CStringT<wchar_t,class StrTraitMFC_DLL<wchar_t,class ATL::ChTraitsCRT<wchar_t> > > &,class CRecordset *)" 
?DDX_FieldLBStringExact@@YAXPAVCDataExchange@@HAAV?$CStringT@GV?$StrTraitMFC_DLL@GV?$ChTraitsCRT@G@ATL@@@@@ATL@@PAVCRecordset@@@Z => Microsoft (R) C++ Name Undecorator Copyright (C) Microsoft Corporation. All rights reserved.  Undecoration of :- "?DDX_FieldLBStringExact@@YAXPAVCDataExchange@@HAAV?$CStringT@GV?$StrTraitMFC_DLL@GV?$ChTraitsCRT@G@ATL@@@@@ATL@@PAVCRecordset@@@Z" is :- "void __cdecl DDX_FieldLBStringExact(class CDataExchange *,int,class ATL::CStringT<unsigned short,class StrTraitMFC_DLL<unsigned short,class ATL::ChTraitsCRT<unsigned short> > > &,class CRecordset *)" 
?DDX_FieldText@@YAXPAVCDataExchange@@HAAV?$CStringT@_WV?$StrTraitMFC_DLL@_WV?$ChTraitsCRT@_W@ATL@@@@@ATL@@PAVCRecordset@@@Z => Microsoft (R) C++ Name Undecorator Copyright (C) Microsoft Corporation. All rights reserved.  Undecoration of :- "?DDX_FieldText@@YAXPAVCDataExchange@@HAAV?$CStringT@_WV?$StrTraitMFC_DLL@_WV?$ChTraitsCRT@_W@ATL@@@@@ATL@@PAVCRecordset@@@Z" is :- "void __cdecl DDX_FieldText(class CDataExchange *,int,class ATL::CStringT<wchar_t,class StrTraitMFC_DLL<wchar_t,class ATL::ChTraitsCRT<wchar_t> > > &,class CRecordset *)" 
?DDX_FieldText@@YAXPAVCDataExchange@@HAAV?$CStringT@GV?$StrTraitMFC_DLL@GV?$ChTraitsCRT@G@ATL@@@@@ATL@@PAVCRecordset@@@Z => Microsoft (R) C++ Name Undecorator Copyright (C) Microsoft Corporation. All rights reserved.  Undecoration of :- "?DDX_FieldText@@YAXPAVCDataExchange@@HAAV?$CStringT@GV?$StrTraitMFC_DLL@GV?$ChTraitsCRT@G@ATL@@@@@ATL@@PAVCRecordset@@@Z" is :- "void __cdecl DDX_FieldText(class CDataExchange *,int,class ATL::CStringT<unsigned short,class StrTraitMFC_DLL<unsigned short,class ATL::ChTraitsCRT<unsigned short> > > &,class CRecordset *)" 
?DDX_FieldText@@YAXPAVCDataExchange@@HPA_WHPAVCRecordset@@@Z => Microsoft (R) C++ Name Undecorator Copyright (C) Microsoft Corporation. All rights reserved.  Undecoration of :- "?DDX_FieldText@@YAXPAVCDataExchange@@HPA_WHPAVCRecordset@@@Z" is :- "void __cdecl DDX_FieldText(class CDataExchange *,int,wchar_t *,int,class CRecordset *)" 
?DDX_FieldText@@YAXPAVCDataExchange@@HPAGHPAVCRecordset@@@Z => Microsoft (R) C++ Name Undecorator Copyright (C) Microsoft Corporation. All rights reserved.  Undecoration of :- "?DDX_FieldText@@YAXPAVCDataExchange@@HPAGHPAVCRecordset@@@Z" is :- "void __cdecl DDX_FieldText(class CDataExchange *,int,unsigned short *,int,class CRecordset *)" 
?DDX_LBString@@YAXPAVCDataExchange@@HAAV?$CStringT@_WV?$StrTraitMFC_DLL@_WV?$ChTraitsCRT@_W@ATL@@@@@ATL@@@Z => Microsoft (R) C++ Name Undecorator Copyright (C) Microsoft Corporation. All rights reserved.  Undecoration of :- "?DDX_LBString@@YAXPAVCDataExchange@@HAAV?$CStringT@_WV?$StrTraitMFC_DLL@_WV?$ChTraitsCRT@_W@ATL@@@@@ATL@@@Z" is :- "void __cdecl DDX_LBString(class CDataExchange *,int,class ATL::CStringT<wchar_t,class StrTraitMFC_DLL<wchar_t,class ATL::ChTraitsCRT<wchar_t> > > &)" 
?DDX_LBString@@YAXPAVCDataExchange@@HAAV?$CStringT@GV?$StrTraitMFC_DLL@GV?$ChTraitsCRT@G@ATL@@@@@ATL@@@Z => Microsoft (R) C++ Name Undecorator Copyright (C) Microsoft Corporation. All rights reserved.  Undecoration of :- "?DDX_LBString@@YAXPAVCDataExchange@@HAAV?$CStringT@GV?$StrTraitMFC_DLL@GV?$ChTraitsCRT@G@ATL@@@@@ATL@@@Z" is :- "void __cdecl DDX_LBString(class CDataExchange *,int,class ATL::CStringT<unsigned short,class StrTraitMFC_DLL<unsigned short,class ATL::ChTraitsCRT<unsigned short> > > &)" 
?DDX_LBStringExact@@YAXPAVCDataExchange@@HAAV?$CStringT@_WV?$StrTraitMFC_DLL@_WV?$ChTraitsCRT@_W@ATL@@@@@ATL@@@Z => Microsoft (R) C++ Name Undecorator Copyright (C) Microsoft Corporation. All rights reserved.  Undecoration of :- "?DDX_LBStringExact@@YAXPAVCDataExchange@@HAAV?$CStringT@_WV?$StrTraitMFC_DLL@_WV?$ChTraitsCRT@_W@ATL@@@@@ATL@@@Z" is :- "void __cdecl DDX_LBStringExact(class CDataExchange *,int,class ATL::CStringT<wchar_t,class StrTraitMFC_DLL<wchar_t,class ATL::ChTraitsCRT<wchar_t> > > &)" 
?DDX_LBStringExact@@YAXPAVCDataExchange@@HAAV?$CStringT@GV?$StrTraitMFC_DLL@GV?$ChTraitsCRT@G@ATL@@@@@ATL@@@Z => Microsoft (R) C++ Name Undecorator Copyright (C) Microsoft Corporation. All rights reserved.  Undecoration of :- "?DDX_LBStringExact@@YAXPAVCDataExchange@@HAAV?$CStringT@GV?$StrTraitMFC_DLL@GV?$ChTraitsCRT@G@ATL@@@@@ATL@@@Z" is :- "void __cdecl DDX_LBStringExact(class CDataExchange *,int,class ATL::CStringT<unsigned short,class StrTraitMFC_DLL<unsigned short,class ATL::ChTraitsCRT<unsigned short> > > &)" 
?DDX_OCText@@YAXPAVCDataExchange@@HJAAV?$CStringT@_WV?$StrTraitMFC_DLL@_WV?$ChTraitsCRT@_W@ATL@@@@@ATL@@@Z => Microsoft (R) C++ Name Undecorator Copyright (C) Microsoft Corporation. All rights reserved.  Undecoration of :- "?DDX_OCText@@YAXPAVCDataExchange@@HJAAV?$CStringT@_WV?$StrTraitMFC_DLL@_WV?$ChTraitsCRT@_W@ATL@@@@@ATL@@@Z" is :- "void __cdecl DDX_OCText(class CDataExchange *,int,long,class ATL::CStringT<wchar_t,class StrTraitMFC_DLL<wchar_t,class ATL::ChTraitsCRT<wchar_t> > > &)" 
?DDX_OCText@@YAXPAVCDataExchange@@HJAAV?$CStringT@GV?$StrTraitMFC_DLL@GV?$ChTraitsCRT@G@ATL@@@@@ATL@@@Z => Microsoft (R) C++ Name Undecorator Copyright (C) Microsoft Corporation. All rights reserved.  Undecoration of :- "?DDX_OCText@@YAXPAVCDataExchange@@HJAAV?$CStringT@GV?$StrTraitMFC_DLL@GV?$ChTraitsCRT@G@ATL@@@@@ATL@@@Z" is :- "void __cdecl DDX_OCText(class CDataExchange *,int,long,class ATL::CStringT<unsigned short,class StrTraitMFC_DLL<unsigned short,class ATL::ChTraitsCRT<unsigned short> > > &)" 
?DDX_OCTextRO@@YAXPAVCDataExchange@@HJAAV?$CStringT@_WV?$StrTraitMFC_DLL@_WV?$ChTraitsCRT@_W@ATL@@@@@ATL@@@Z => Microsoft (R) C++ Name Undecorator Copyright (C) Microsoft Corporation. All rights reserved.  Undecoration of :- "?DDX_OCTextRO@@YAXPAVCDataExchange@@HJAAV?$CStringT@_WV?$StrTraitMFC_DLL@_WV?$ChTraitsCRT@_W@ATL@@@@@ATL@@@Z" is :- "void __cdecl DDX_OCTextRO(class CDataExchange *,int,long,class ATL::CStringT<wchar_t,class StrTraitMFC_DLL<wchar_t,class ATL::ChTraitsCRT<wchar_t> > > &)" 
?DDX_OCTextRO@@YAXPAVCDataExchange@@HJAAV?$CStringT@GV?$StrTraitMFC_DLL@GV?$ChTraitsCRT@G@ATL@@@@@ATL@@@Z => Microsoft (R) C++ Name Undecorator Copyright (C) Microsoft Corporation. All rights reserved.  Undecoration of :- "?DDX_OCTextRO@@YAXPAVCDataExchange@@HJAAV?$CStringT@GV?$StrTraitMFC_DLL@GV?$ChTraitsCRT@G@ATL@@@@@ATL@@@Z" is :- "void __cdecl DDX_OCTextRO(class CDataExchange *,int,long,class ATL::CStringT<unsigned short,class StrTraitMFC_DLL<unsigned short,class ATL::ChTraitsCRT<unsigned short> > > &)" 
?DDX_Text@@YAXPAVCDataExchange@@HAAV?$CStringT@_WV?$StrTraitMFC_DLL@_WV?$ChTraitsCRT@_W@ATL@@@@@ATL@@@Z => Microsoft (R) C++ Name Undecorator Copyright (C) Microsoft Corporation. All rights reserved.  Undecoration of :- "?DDX_Text@@YAXPAVCDataExchange@@HAAV?$CStringT@_WV?$StrTraitMFC_DLL@_WV?$ChTraitsCRT@_W@ATL@@@@@ATL@@@Z" is :- "void __cdecl DDX_Text(class CDataExchange *,int,class ATL::CStringT<wchar_t,class StrTraitMFC_DLL<wchar_t,class ATL::ChTraitsCRT<wchar_t> > > &)" 
?DDX_Text@@YAXPAVCDataExchange@@HAAV?$CStringT@GV?$StrTraitMFC_DLL@GV?$ChTraitsCRT@G@ATL@@@@@ATL@@@Z => Microsoft (R) C++ Name Undecorator Copyright (C) Microsoft Corporation. All rights reserved.  Undecoration of :- "?DDX_Text@@YAXPAVCDataExchange@@HAAV?$CStringT@GV?$StrTraitMFC_DLL@GV?$ChTraitsCRT@G@ATL@@@@@ATL@@@Z" is :- "void __cdecl DDX_Text(class CDataExchange *,int,class ATL::CStringT<unsigned short,class StrTraitMFC_DLL<unsigned short,class ATL::ChTraitsCRT<unsigned short> > > &)" 
?DDX_Text@@YAXPAVCDataExchange@@HPA_WH@Z => Microsoft (R) C++ Name Undecorator Copyright (C) Microsoft Corporation. All rights reserved.  Undecoration of :- "?DDX_Text@@YAXPAVCDataExchange@@HPA_WH@Z" is :- "void __cdecl DDX_Text(class CDataExchange *,int,wchar_t *,int)" 
?DDX_Text@@YAXPAVCDataExchange@@HPAGH@Z => Microsoft (R) C++ Name Undecorator Copyright (C) Microsoft Corporation. All rights reserved.  Undecoration of :- "?DDX_Text@@YAXPAVCDataExchange@@HPAGH@Z" is :- "void __cdecl DDX_Text(class CDataExchange *,int,unsigned short *,int)" 
?DecimalFromString@CGlobalUtils@@QAAHAAUtagDEC@@PB_W@Z => Microsoft (R) C++ Name Undecorator Copyright (C) Microsoft Corporation. All rights reserved.  Undecoration of :- "?DecimalFromString@CGlobalUtils@@QAAHAAUtagDEC@@PB_W@Z" is :- "public: int __cdecl CGlobalUtils::DecimalFromString(struct tagDEC &,wchar_t const *)" 
?DecimalFromString@CGlobalUtils@@QAAHAAUtagDEC@@PBG@Z => Microsoft (R) C++ Name Undecorator Copyright (C) Microsoft Corporation. All rights reserved.  Undecoration of :- "?DecimalFromString@CGlobalUtils@@QAAHAAUtagDEC@@PBG@Z" is :- "public: int __cdecl CGlobalUtils::DecimalFromString(struct tagDEC &,unsigned short const *)" 
?Default@CFieldExchange@@QAAXPB_WPAXPAJHKK@Z => Microsoft (R) C++ Name Undecorator Copyright (C) Microsoft Corporation. All rights reserved.  Undecoration of :- "?Default@CFieldExchange@@QAAXPB_WPAXPAJHKK@Z" is :- "public: void __cdecl CFieldExchange::Default(wchar_t const *,void *,long *,int,unsigned long,unsigned long)" 
?Default@CFieldExchange@@QAAXPBGPAXPAJHKK@Z => Microsoft (R) C++ Name Undecorator Copyright (C) Microsoft Corporation. All rights reserved.  Undecoration of :- "?Default@CFieldExchange@@QAAXPBGPAXPAJHKK@Z" is :- "public: void __cdecl CFieldExchange::Default(unsigned short const *,void *,long *,int,unsigned long,unsigned long)" 
?Delete@?$CStringT@_WV?$StrTraitMFC_DLL@_WV?$ChTraitsCRT@_W@ATL@@@@@ATL@@QAAHHH@Z => Microsoft (R) C++ Name Undecorator Copyright (C) Microsoft Corporation. All rights reserved.  Undecoration of :- "?Delete@?$CStringT@_WV?$StrTraitMFC_DLL@_WV?$ChTraitsCRT@_W@ATL@@@@@ATL@@QAAHHH@Z" is :- "public: int __cdecl ATL::CStringT<wchar_t,class StrTraitMFC_DLL<wchar_t,class ATL::ChTraitsCRT<wchar_t> > >::Delete(int,int)" 
?Delete@?$CStringT@GV?$StrTraitMFC_DLL@GV?$ChTraitsCRT@G@ATL@@@@@ATL@@QAAHHH@Z => Microsoft (R) C++ Name Undecorator Copyright (C) Microsoft Corporation. All rights reserved.  Undecoration of :- "?Delete@?$CStringT@GV?$StrTraitMFC_DLL@GV?$ChTraitsCRT@G@ATL@@@@@ATL@@QAAHHH@Z" is :- "public: int __cdecl ATL::CStringT<unsigned short,class StrTraitMFC_DLL<unsigned short,class ATL::ChTraitsCRT<unsigned short> > >::Delete(int,int)" 
?DeleteAutosavedFile@CDataRecoveryHandler@@UAAHABV?$CStringT@_WV?$StrTraitMFC_DLL@_WV?$ChTraitsCRT@_W@ATL@@@@@ATL@@@Z => Microsoft (R) C++ Name Undecorator Copyright (C) Microsoft Corporation. All rights reserved.  Undecoration of :- "?DeleteAutosavedFile@CDataRecoveryHandler@@UAAHABV?$CStringT@_WV?$StrTraitMFC_DLL@_WV?$ChTraitsCRT@_W@ATL@@@@@ATL@@@Z" is :- "public: virtual int __cdecl CDataRecoveryHandler::DeleteAutosavedFile(class ATL::CStringT<wchar_t,class StrTraitMFC_DLL<wchar_t,class ATL::ChTraitsCRT<wchar_t> > > const &)" 
?DeleteAutosavedFile@CDataRecoveryHandler@@UAAHABV?$CStringT@GV?$StrTraitMFC_DLL@GV?$ChTraitsCRT@G@ATL@@@@@ATL@@@Z => Microsoft (R) C++ Name Undecorator Copyright (C) Microsoft Corporation. All rights reserved.  Undecoration of :- "?DeleteAutosavedFile@CDataRecoveryHandler@@UAAHABV?$CStringT@GV?$StrTraitMFC_DLL@GV?$ChTraitsCRT@G@ATL@@@@@ATL@@@Z" is :- "public: virtual int __cdecl CDataRecoveryHandler::DeleteAutosavedFile(class ATL::CStringT<unsigned short,class StrTraitMFC_DLL<unsigned short,class ATL::ChTraitsCRT<unsigned short> > > const &)" 
?DeleteItem@CMFCRibbonComboBox@@QAAHPB_W@Z => Microsoft (R) C++ Name Undecorator Copyright (C) Microsoft Corporation. All rights reserved.  Undecoration of :- "?DeleteItem@CMFCRibbonComboBox@@QAAHPB_W@Z" is :- "public: int __cdecl CMFCRibbonComboBox::DeleteItem(wchar_t const *)" 
?DeleteItem@CMFCRibbonComboBox@@QAAHPBG@Z => Microsoft (R) C++ Name Undecorator Copyright (C) Microsoft Corporation. All rights reserved.  Undecoration of :- "?DeleteItem@CMFCRibbonComboBox@@QAAHPBG@Z" is :- "public: int __cdecl CMFCRibbonComboBox::DeleteItem(unsigned short const *)" 
?DeleteItem@CMFCToolBarComboBoxButton@@QAAHPB_W@Z => Microsoft (R) C++ Name Undecorator Copyright (C) Microsoft Corporation. All rights reserved.  Undecoration of :- "?DeleteItem@CMFCToolBarComboBoxButton@@QAAHPB_W@Z" is :- "public: int __cdecl CMFCToolBarComboBoxButton::DeleteItem(wchar_t const *)" 
?DeleteItem@CMFCToolBarComboBoxButton@@QAAHPBG@Z => Microsoft (R) C++ Name Undecorator Copyright (C) Microsoft Corporation. All rights reserved.  Undecoration of :- "?DeleteItem@CMFCToolBarComboBoxButton@@QAAHPBG@Z" is :- "public: int __cdecl CMFCToolBarComboBoxButton::DeleteItem(unsigned short const *)" 
?DeleteKey@CSettingsStore@@UAAHPB_WH@Z => Microsoft (R) C++ Name Undecorator Copyright (C) Microsoft Corporation. All rights reserved.  Undecoration of :- "?DeleteKey@CSettingsStore@@UAAHPB_WH@Z" is :- "public: virtual int __cdecl CSettingsStore::DeleteKey(wchar_t const *,int)" 
?DeleteKey@CSettingsStore@@UAAHPBGH@Z => Microsoft (R) C++ Name Undecorator Copyright (C) Microsoft Corporation. All rights reserved.  Undecoration of :- "?DeleteKey@CSettingsStore@@UAAHPBGH@Z" is :- "public: virtual int __cdecl CSettingsStore::DeleteKey(unsigned short const *,int)" 
?DeleteValue@CSettingsStore@@UAAHPB_W@Z => Microsoft (R) C++ Name Undecorator Copyright (C) Microsoft Corporation. All rights reserved.  Undecoration of :- "?DeleteValue@CSettingsStore@@UAAHPB_W@Z" is :- "public: virtual int __cdecl CSettingsStore::DeleteValue(wchar_t const *)" 
?DeleteValue@CSettingsStore@@UAAHPBG@Z => Microsoft (R) C++ Name Undecorator Copyright (C) Microsoft Corporation. All rights reserved.  Undecoration of :- "?DeleteValue@CSettingsStore@@UAAHPBG@Z" is :- "public: virtual int __cdecl CSettingsStore::DeleteValue(unsigned short const *)" 
?DelRegTree@CWinApp@@QAAJPAUHKEY__@@ABV?$CStringT@_WV?$StrTraitMFC_DLL@_WV?$ChTraitsCRT@_W@ATL@@@@@ATL@@PAVCAtlTransactionManager@4@@Z => Microsoft (R) C++ Name Undecorator Copyright (C) Microsoft Corporation. All rights reserved.  Undecoration of :- "?DelRegTree@CWinApp@@QAAJPAUHKEY__@@ABV?$CStringT@_WV?$StrTraitMFC_DLL@_WV?$ChTraitsCRT@_W@ATL@@@@@ATL@@PAVCAtlTransactionManager@4@@Z" is :- "public: long __cdecl CWinApp::DelRegTree(struct HKEY__ *,class ATL::CStringT<wchar_t,class StrTraitMFC_DLL<wchar_t,class ATL::ChTraitsCRT<wchar_t> > > const &,class ATL::CAtlTransactionManager *)" 
?DelRegTree@CWinApp@@QAAJPAUHKEY__@@ABV?$CStringT@GV?$StrTraitMFC_DLL@GV?$ChTraitsCRT@G@ATL@@@@@ATL@@PAVCAtlTransactionManager@4@@Z => Microsoft (R) C++ Name Undecorator Copyright (C) Microsoft Corporation. All rights reserved.  Undecoration of :- "?DelRegTree@CWinApp@@QAAJPAUHKEY__@@ABV?$CStringT@GV?$StrTraitMFC_DLL@GV?$ChTraitsCRT@G@ATL@@@@@ATL@@PAVCAtlTransactionManager@4@@Z" is :- "public: long __cdecl CWinApp::DelRegTree(struct HKEY__ *,class ATL::CStringT<unsigned short,class StrTraitMFC_DLL<unsigned short,class ATL::ChTraitsCRT<unsigned short> > > const &,class ATL::CAtlTransactionManager *)" 
?DevModeChange@CWinApp@@QAAXPA_W@Z => Microsoft (R) C++ Name Undecorator Copyright (C) Microsoft Corporation. All rights reserved.  Undecoration of :- "?DevModeChange@CWinApp@@QAAXPA_W@Z" is :- "public: void __cdecl CWinApp::DevModeChange(wchar_t *)" 
?DevModeChange@CWinApp@@QAAXPAG@Z => Microsoft (R) C++ Name Undecorator Copyright (C) Microsoft Corporation. All rights reserved.  Undecoration of :- "?DevModeChange@CWinApp@@QAAXPAG@Z" is :- "public: void __cdecl CWinApp::DevModeChange(unsigned short *)" 
?DisplayError@COleControl@@UAAXJPB_W00I@Z => Microsoft (R) C++ Name Undecorator Copyright (C) Microsoft Corporation. All rights reserved.  Undecoration of :- "?DisplayError@COleControl@@UAAXJPB_W00I@Z" is :- "public: virtual void __cdecl COleControl::DisplayError(long,wchar_t const *,wchar_t const *,wchar_t const *,unsigned int)" 
?DisplayError@COleControl@@UAAXJPBG00I@Z => Microsoft (R) C++ Name Undecorator Copyright (C) Microsoft Corporation. All rights reserved.  Undecoration of :- "?DisplayError@COleControl@@UAAXJPBG00I@Z" is :- "public: virtual void __cdecl COleControl::DisplayError(long,unsigned short const *,unsigned short const *,unsigned short const *,unsigned int)" 
?DisplayFolder@CMFCShellListCtrl@@UAAJPB_W@Z => Microsoft (R) C++ Name Undecorator Copyright (C) Microsoft Corporation. All rights reserved.  Undecoration of :- "?DisplayFolder@CMFCShellListCtrl@@UAAJPB_W@Z" is :- "public: virtual long __cdecl CMFCShellListCtrl::DisplayFolder(wchar_t const *)" 
?DisplayFolder@CMFCShellListCtrl@@UAAJPBG@Z => Microsoft (R) C++ Name Undecorator Copyright (C) Microsoft Corporation. All rights reserved.  Undecoration of :- "?DisplayFolder@CMFCShellListCtrl@@UAAJPBG@Z" is :- "public: virtual long __cdecl CMFCShellListCtrl::DisplayFolder(unsigned short const *)" 
?DoMessageBox@CWinApp@@UAAHPB_WII@Z => Microsoft (R) C++ Name Undecorator Copyright (C) Microsoft Corporation. All rights reserved.  Undecoration of :- "?DoMessageBox@CWinApp@@UAAHPB_WII@Z" is :- "public: virtual int __cdecl CWinApp::DoMessageBox(wchar_t const *,unsigned int,unsigned int)" 
?DoMessageBox@CWinApp@@UAAHPBGII@Z => Microsoft (R) C++ Name Undecorator Copyright (C) Microsoft Corporation. All rights reserved.  Undecoration of :- "?DoMessageBox@CWinApp@@UAAHPBGII@Z" is :- "public: virtual int __cdecl CWinApp::DoMessageBox(unsigned short const *,unsigned int,unsigned int)" 
?DoPromptFileName@CDocManager@@UAAHAAV?$CStringT@_WV?$StrTraitMFC_DLL@_WV?$ChTraitsCRT@_W@ATL@@@@@ATL@@IKHPAVCDocTemplate@@@Z => Microsoft (R) C++ Name Undecorator Copyright (C) Microsoft Corporation. All rights reserved.  Undecoration of :- "?DoPromptFileName@CDocManager@@UAAHAAV?$CStringT@_WV?$StrTraitMFC_DLL@_WV?$ChTraitsCRT@_W@ATL@@@@@ATL@@IKHPAVCDocTemplate@@@Z" is :- "public: virtual int __cdecl CDocManager::DoPromptFileName(class ATL::CStringT<wchar_t,class StrTraitMFC_DLL<wchar_t,class ATL::ChTraitsCRT<wchar_t> > > &,unsigned int,unsigned long,int,class CDocTemplate *)" 
?DoPromptFileName@CDocManager@@UAAHAAV?$CStringT@GV?$StrTraitMFC_DLL@GV?$ChTraitsCRT@G@ATL@@@@@ATL@@IKHPAVCDocTemplate@@@Z => Microsoft (R) C++ Name Undecorator Copyright (C) Microsoft Corporation. All rights reserved.  Undecoration of :- "?DoPromptFileName@CDocManager@@UAAHAAV?$CStringT@GV?$StrTraitMFC_DLL@GV?$ChTraitsCRT@G@ATL@@@@@ATL@@IKHPAVCDocTemplate@@@Z" is :- "public: virtual int __cdecl CDocManager::DoPromptFileName(class ATL::CStringT<unsigned short,class StrTraitMFC_DLL<unsigned short,class ATL::ChTraitsCRT<unsigned short> > > &,unsigned int,unsigned long,int,class CDocTemplate *)" 
?DoPromptFileName@CWinApp@@QAAHAAV?$CStringT@_WV?$StrTraitMFC_DLL@_WV?$ChTraitsCRT@_W@ATL@@@@@ATL@@IKHPAVCDocTemplate@@@Z => Microsoft (R) C++ Name Undecorator Copyright (C) Microsoft Corporation. All rights reserved.  Undecoration of :- "?DoPromptFileName@CWinApp@@QAAHAAV?$CStringT@_WV?$StrTraitMFC_DLL@_WV?$ChTraitsCRT@_W@ATL@@@@@ATL@@IKHPAVCDocTemplate@@@Z" is :- "public: int __cdecl CWinApp::DoPromptFileName(class ATL::CStringT<wchar_t,class StrTraitMFC_DLL<wchar_t,class ATL::ChTraitsCRT<wchar_t> > > &,unsigned int,unsigned long,int,class CDocTemplate *)" 
?DoPromptFileName@CWinApp@@QAAHAAV?$CStringT@GV?$StrTraitMFC_DLL@GV?$ChTraitsCRT@G@ATL@@@@@ATL@@IKHPAVCDocTemplate@@@Z => Microsoft (R) C++ Name Undecorator Copyright (C) Microsoft Corporation. All rights reserved.  Undecoration of :- "?DoPromptFileName@CWinApp@@QAAHAAV?$CStringT@GV?$StrTraitMFC_DLL@GV?$ChTraitsCRT@G@ATL@@@@@ATL@@IKHPAVCDocTemplate@@@Z" is :- "public: int __cdecl CWinApp::DoPromptFileName(class ATL::CStringT<unsigned short,class StrTraitMFC_DLL<unsigned short,class ATL::ChTraitsCRT<unsigned short> > > &,unsigned int,unsigned long,int,class CDocTemplate *)" 
?DoSave@CDocument@@UAAHPB_WH@Z => Microsoft (R) C++ Name Undecorator Copyright (C) Microsoft Corporation. All rights reserved.  Undecoration of :- "?DoSave@CDocument@@UAAHPB_WH@Z" is :- "public: virtual int __cdecl CDocument::DoSave(wchar_t const *,int)" 
?DoSave@CDocument@@UAAHPBGH@Z => Microsoft (R) C++ Name Undecorator Copyright (C) Microsoft Corporation. All rights reserved.  Undecoration of :- "?DoSave@CDocument@@UAAHPBGH@Z" is :- "public: virtual int __cdecl CDocument::DoSave(unsigned short const *,int)" 
?DoSave@COleDocument@@UAAHPB_WH@Z => Microsoft (R) C++ Name Undecorator Copyright (C) Microsoft Corporation. All rights reserved.  Undecoration of :- "?DoSave@COleDocument@@UAAHPB_WH@Z" is :- "public: virtual int __cdecl COleDocument::DoSave(wchar_t const *,int)" 
?DoSave@COleDocument@@UAAHPBGH@Z => Microsoft (R) C++ Name Undecorator Copyright (C) Microsoft Corporation. All rights reserved.  Undecoration of :- "?DoSave@COleDocument@@UAAHPBGH@Z" is :- "public: virtual int __cdecl COleDocument::DoSave(unsigned short const *,int)" 
?DrawNcCaption@CMFCVisualManagerOffice2007@@IAAXPAVCDC@@VCRect@@KKABV?$CStringT@_WV?$StrTraitMFC_DLL@_WV?$ChTraitsCRT@_W@ATL@@@@@ATL@@2PAUHICON__@@HHHABVCObList@@@Z => Microsoft (R) C++ Name Undecorator Copyright (C) Microsoft Corporation. All rights reserved.  Undecoration of :- "?DrawNcCaption@CMFCVisualManagerOffice2007@@IAAXPAVCDC@@VCRect@@KKABV?$CStringT@_WV?$StrTraitMFC_DLL@_WV?$ChTraitsCRT@_W@ATL@@@@@ATL@@2PAUHICON__@@HHHABVCObList@@@Z" is :- "protected: void __cdecl CMFCVisualManagerOffice2007::DrawNcCaption(class CDC *,class CRect,unsigned long,unsigned long,class ATL::CStringT<wchar_t,class StrTraitMFC_DLL<wchar_t,class ATL::ChTraitsCRT<wchar_t> > > const &,class ATL::CStringT<wchar_t,class StrTraitMFC_DLL<wchar_t,class ATL::ChTraitsCRT<wchar_t> > > const &,struct HICON__ *,int,int,int,class CObList const &)" 
?DrawNcCaption@CMFCVisualManagerOffice2007@@IAAXPAVCDC@@VCRect@@KKABV?$CStringT@GV?$StrTraitMFC_DLL@GV?$ChTraitsCRT@G@ATL@@@@@ATL@@2PAUHICON__@@HHHABVCObList@@@Z => Microsoft (R) C++ Name Undecorator Copyright (C) Microsoft Corporation. All rights reserved.  Undecoration of :- "?DrawNcCaption@CMFCVisualManagerOffice2007@@IAAXPAVCDC@@VCRect@@KKABV?$CStringT@GV?$StrTraitMFC_DLL@GV?$ChTraitsCRT@G@ATL@@@@@ATL@@2PAUHICON__@@HHHABVCObList@@@Z" is :- "protected: void __cdecl CMFCVisualManagerOffice2007::DrawNcCaption(class CDC *,class CRect,unsigned long,unsigned long,class ATL::CStringT<unsigned short,class StrTraitMFC_DLL<unsigned short,class ATL::ChTraitsCRT<unsigned short> > > const &,class ATL::CStringT<unsigned short,class StrTraitMFC_DLL<unsigned short,class ATL::ChTraitsCRT<unsigned short> > > const &,struct HICON__ *,int,int,int,class CObList const &)" 
?DrawNcText@CMFCVisualManagerOffice2007@@IAAXPAVCDC@@AAVCRect@@ABV?$CStringT@_WV?$StrTraitMFC_DLL@_WV?$ChTraitsCRT@_W@ATL@@@@@ATL@@2HHHHHHK@Z => Microsoft (R) C++ Name Undecorator Copyright (C) Microsoft Corporation. All rights reserved.  Undecoration of :- "?DrawNcText@CMFCVisualManagerOffice2007@@IAAXPAVCDC@@AAVCRect@@ABV?$CStringT@_WV?$StrTraitMFC_DLL@_WV?$ChTraitsCRT@_W@ATL@@@@@ATL@@2HHHHHHK@Z" is :- "protected: void __cdecl CMFCVisualManagerOffice2007::DrawNcText(class CDC *,class CRect &,class ATL::CStringT<wchar_t,class StrTraitMFC_DLL<wchar_t,class ATL::ChTraitsCRT<wchar_t> > > const &,class ATL::CStringT<wchar_t,class StrTraitMFC_DLL<wchar_t,class ATL::ChTraitsCRT<wchar_t> > > const &,int,int,int,int,int,int,unsigned long)" 
?DrawNcText@CMFCVisualManagerOffice2007@@IAAXPAVCDC@@AAVCRect@@ABV?$CStringT@GV?$StrTraitMFC_DLL@GV?$ChTraitsCRT@G@ATL@@@@@ATL@@2HHHHHHK@Z => Microsoft (R) C++ Name Undecorator Copyright (C) Microsoft Corporation. All rights reserved.  Undecoration of :- "?DrawNcText@CMFCVisualManagerOffice2007@@IAAXPAVCDC@@AAVCRect@@ABV?$CStringT@GV?$StrTraitMFC_DLL@GV?$ChTraitsCRT@G@ATL@@@@@ATL@@2HHHHHHK@Z" is :- "protected: void __cdecl CMFCVisualManagerOffice2007::DrawNcText(class CDC *,class CRect &,class ATL::CStringT<unsigned short,class StrTraitMFC_DLL<unsigned short,class ATL::ChTraitsCRT<unsigned short> > > const &,class ATL::CStringT<unsigned short,class StrTraitMFC_DLL<unsigned short,class ATL::ChTraitsCRT<unsigned short> > > const &,int,int,int,int,int,int,unsigned long)" 
?DrawNcText@CMFCVisualManagerWindows7@@UAAXPAVCDC@@AAVCRect@@ABV?$CStringT@_WV?$StrTraitMFC_DLL@_WV?$ChTraitsCRT@_W@ATL@@@@@ATL@@HHHHHK@Z => Microsoft (R) C++ Name Undecorator Copyright (C) Microsoft Corporation. All rights reserved.  Undecoration of :- "?DrawNcText@CMFCVisualManagerWindows7@@UAAXPAVCDC@@AAVCRect@@ABV?$CStringT@_WV?$StrTraitMFC_DLL@_WV?$ChTraitsCRT@_W@ATL@@@@@ATL@@HHHHHK@Z" is :- "public: virtual void __cdecl CMFCVisualManagerWindows7::DrawNcText(class CDC *,class CRect &,class ATL::CStringT<wchar_t,class StrTraitMFC_DLL<wchar_t,class ATL::ChTraitsCRT<wchar_t> > > const &,int,int,int,int,int,unsigned long)" 
?DrawNcText@CMFCVisualManagerWindows7@@UAAXPAVCDC@@AAVCRect@@ABV?$CStringT@GV?$StrTraitMFC_DLL@GV?$ChTraitsCRT@G@ATL@@@@@ATL@@HHHHHK@Z => Microsoft (R) C++ Name Undecorator Copyright (C) Microsoft Corporation. All rights reserved.  Undecoration of :- "?DrawNcText@CMFCVisualManagerWindows7@@UAAXPAVCDC@@AAVCRect@@ABV?$CStringT@GV?$StrTraitMFC_DLL@GV?$ChTraitsCRT@G@ATL@@@@@ATL@@HHHHHK@Z" is :- "public: virtual void __cdecl CMFCVisualManagerWindows7::DrawNcText(class CDC *,class CRect &,class ATL::CStringT<unsigned short,class StrTraitMFC_DLL<unsigned short,class ATL::ChTraitsCRT<unsigned short> > > const &,int,int,int,int,int,unsigned long)" 
?DrawRibbonText@CMFCRibbonButton@@UAAHPAVCDC@@ABV?$CStringT@_WV?$StrTraitMFC_DLL@_WV?$ChTraitsCRT@_W@ATL@@@@@ATL@@VCRect@@IK@Z => Microsoft (R) C++ Name Undecorator Copyright (C) Microsoft Corporation. All rights reserved.  Undecoration of :- "?DrawRibbonText@CMFCRibbonButton@@UAAHPAVCDC@@ABV?$CStringT@_WV?$StrTraitMFC_DLL@_WV?$ChTraitsCRT@_W@ATL@@@@@ATL@@VCRect@@IK@Z" is :- "public: virtual int __cdecl CMFCRibbonButton::DrawRibbonText(class CDC *,class ATL::CStringT<wchar_t,class StrTraitMFC_DLL<wchar_t,class ATL::ChTraitsCRT<wchar_t> > > const &,class CRect,unsigned int,unsigned long)" 
?DrawRibbonText@CMFCRibbonButton@@UAAHPAVCDC@@ABV?$CStringT@GV?$StrTraitMFC_DLL@GV?$ChTraitsCRT@G@ATL@@@@@ATL@@VCRect@@IK@Z => Microsoft (R) C++ Name Undecorator Copyright (C) Microsoft Corporation. All rights reserved.  Undecoration of :- "?DrawRibbonText@CMFCRibbonButton@@UAAHPAVCDC@@ABV?$CStringT@GV?$StrTraitMFC_DLL@GV?$ChTraitsCRT@G@ATL@@@@@ATL@@VCRect@@IK@Z" is :- "public: virtual int __cdecl CMFCRibbonButton::DrawRibbonText(class CDC *,class ATL::CStringT<unsigned short,class StrTraitMFC_DLL<unsigned short,class ATL::ChTraitsCRT<unsigned short> > > const &,class CRect,unsigned int,unsigned long)" 
?DrawRibbonText@CMFCRibbonStatusBarPane@@MAAHPAVCDC@@ABV?$CStringT@_WV?$StrTraitMFC_DLL@_WV?$ChTraitsCRT@_W@ATL@@@@@ATL@@VCRect@@IK@Z => Microsoft (R) C++ Name Undecorator Copyright (C) Microsoft Corporation. All rights reserved.  Undecoration of :- "?DrawRibbonText@CMFCRibbonStatusBarPane@@MAAHPAVCDC@@ABV?$CStringT@_WV?$StrTraitMFC_DLL@_WV?$ChTraitsCRT@_W@ATL@@@@@ATL@@VCRect@@IK@Z" is :- "protected: virtual int __cdecl CMFCRibbonStatusBarPane::DrawRibbonText(class CDC *,class ATL::CStringT<wchar_t,class StrTraitMFC_DLL<wchar_t,class ATL::ChTraitsCRT<wchar_t> > > const &,class CRect,unsigned int,unsigned long)" 
?DrawRibbonText@CMFCRibbonStatusBarPane@@MAAHPAVCDC@@ABV?$CStringT@GV?$StrTraitMFC_DLL@GV?$ChTraitsCRT@G@ATL@@@@@ATL@@VCRect@@IK@Z => Microsoft (R) C++ Name Undecorator Copyright (C) Microsoft Corporation. All rights reserved.  Undecoration of :- "?DrawRibbonText@CMFCRibbonStatusBarPane@@MAAHPAVCDC@@ABV?$CStringT@GV?$StrTraitMFC_DLL@GV?$ChTraitsCRT@G@ATL@@@@@ATL@@VCRect@@IK@Z" is :- "protected: virtual int __cdecl CMFCRibbonStatusBarPane::DrawRibbonText(class CDC *,class ATL::CStringT<unsigned short,class StrTraitMFC_DLL<unsigned short,class ATL::ChTraitsCRT<unsigned short> > > const &,class CRect,unsigned int,unsigned long)" 
?DrawTextExW@CMetaFileDC@@UAAHPA_WHPAUtagRECT@@IPAUtagDRAWTEXTPARAMS@@@Z => Microsoft (R) C++ Name Undecorator Copyright (C) Microsoft Corporation. All rights reserved.  Undecoration of :- "?DrawTextExW@CMetaFileDC@@UAAHPA_WHPAUtagRECT@@IPAUtagDRAWTEXTPARAMS@@@Z" is :- "public: virtual int __cdecl CMetaFileDC::DrawTextExW(wchar_t *,int,struct tagRECT *,unsigned int,struct tagDRAWTEXTPARAMS *)" 
?DrawTextExW@CMetaFileDC@@UAAHPAGHPAUtagRECT@@IPAUtagDRAWTEXTPARAMS@@@Z => Microsoft (R) C++ Name Undecorator Copyright (C) Microsoft Corporation. All rights reserved.  Undecoration of :- "?DrawTextExW@CMetaFileDC@@UAAHPAGHPAUtagRECT@@IPAUtagDRAWTEXTPARAMS@@@Z" is :- "public: virtual int __cdecl CMetaFileDC::DrawTextExW(unsigned short *,int,struct tagRECT *,unsigned int,struct tagDRAWTEXTPARAMS *)" 
?DrawTextExW@CPreviewDC@@UAAHPA_WHPAUtagRECT@@IPAUtagDRAWTEXTPARAMS@@@Z => Microsoft (R) C++ Name Undecorator Copyright (C) Microsoft Corporation. All rights reserved.  Undecoration of :- "?DrawTextExW@CPreviewDC@@UAAHPA_WHPAUtagRECT@@IPAUtagDRAWTEXTPARAMS@@@Z" is :- "public: virtual int __cdecl CPreviewDC::DrawTextExW(wchar_t *,int,struct tagRECT *,unsigned int,struct tagDRAWTEXTPARAMS *)" 
?DrawTextExW@CPreviewDC@@UAAHPAGHPAUtagRECT@@IPAUtagDRAWTEXTPARAMS@@@Z => Microsoft (R) C++ Name Undecorator Copyright (C) Microsoft Corporation. All rights reserved.  Undecoration of :- "?DrawTextExW@CPreviewDC@@UAAHPAGHPAUtagRECT@@IPAUtagDRAWTEXTPARAMS@@@Z" is :- "public: virtual int __cdecl CPreviewDC::DrawTextExW(unsigned short *,int,struct tagRECT *,unsigned int,struct tagDRAWTEXTPARAMS *)" 
?DrawTextOnGlass@AFX_GLOBAL_DATA@@QAAHPAXPAVCDC@@HHV?$CStringT@_WV?$StrTraitMFC_DLL@_WV?$ChTraitsCRT@_W@ATL@@@@@ATL@@VCRect@@KHK@Z => Microsoft (R) C++ Name Undecorator Copyright (C) Microsoft Corporation. All rights reserved.  Undecoration of :- "?DrawTextOnGlass@AFX_GLOBAL_DATA@@QAAHPAXPAVCDC@@HHV?$CStringT@_WV?$StrTraitMFC_DLL@_WV?$ChTraitsCRT@_W@ATL@@@@@ATL@@VCRect@@KHK@Z" is :- "public: int __cdecl AFX_GLOBAL_DATA::DrawTextOnGlass(void *,class CDC *,int,int,class ATL::CStringT<wchar_t,class StrTraitMFC_DLL<wchar_t,class ATL::ChTraitsCRT<wchar_t> > >,class CRect,unsigned long,int,unsigned long)" 
?DrawTextOnGlass@AFX_GLOBAL_DATA@@QAAHPAXPAVCDC@@HHV?$CStringT@GV?$StrTraitMFC_DLL@GV?$ChTraitsCRT@G@ATL@@@@@ATL@@VCRect@@KHK@Z => Microsoft (R) C++ Name Undecorator Copyright (C) Microsoft Corporation. All rights reserved.  Undecoration of :- "?DrawTextOnGlass@AFX_GLOBAL_DATA@@QAAHPAXPAVCDC@@HHV?$CStringT@GV?$StrTraitMFC_DLL@GV?$ChTraitsCRT@G@ATL@@@@@ATL@@VCRect@@KHK@Z" is :- "public: int __cdecl AFX_GLOBAL_DATA::DrawTextOnGlass(void *,class CDC *,int,int,class ATL::CStringT<unsigned short,class StrTraitMFC_DLL<unsigned short,class ATL::ChTraitsCRT<unsigned short> > >,class CRect,unsigned long,int,unsigned long)" 
?DrawTextOnGlass@CMFCVisualManager@@UAAHPAVCDC@@V?$CStringT@_WV?$StrTraitMFC_DLL@_WV?$ChTraitsCRT@_W@ATL@@@@@ATL@@VCRect@@KHK@Z => Microsoft (R) C++ Name Undecorator Copyright (C) Microsoft Corporation. All rights reserved.  Undecoration of :- "?DrawTextOnGlass@CMFCVisualManager@@UAAHPAVCDC@@V?$CStringT@_WV?$StrTraitMFC_DLL@_WV?$ChTraitsCRT@_W@ATL@@@@@ATL@@VCRect@@KHK@Z" is :- "public: virtual int __cdecl CMFCVisualManager::DrawTextOnGlass(class CDC *,class ATL::CStringT<wchar_t,class StrTraitMFC_DLL<wchar_t,class ATL::ChTraitsCRT<wchar_t> > >,class CRect,unsigned long,int,unsigned long)" 
?DrawTextOnGlass@CMFCVisualManager@@UAAHPAVCDC@@V?$CStringT@GV?$StrTraitMFC_DLL@GV?$ChTraitsCRT@G@ATL@@@@@ATL@@VCRect@@KHK@Z => Microsoft (R) C++ Name Undecorator Copyright (C) Microsoft Corporation. All rights reserved.  Undecoration of :- "?DrawTextOnGlass@CMFCVisualManager@@UAAHPAVCDC@@V?$CStringT@GV?$StrTraitMFC_DLL@GV?$ChTraitsCRT@G@ATL@@@@@ATL@@VCRect@@KHK@Z" is :- "public: virtual int __cdecl CMFCVisualManager::DrawTextOnGlass(class CDC *,class ATL::CStringT<unsigned short,class StrTraitMFC_DLL<unsigned short,class ATL::ChTraitsCRT<unsigned short> > >,class CRect,unsigned long,int,unsigned long)" 
?DrawTextW@CMetaFileDC@@UAAHPB_WHPAUtagRECT@@I@Z => Microsoft (R) C++ Name Undecorator Copyright (C) Microsoft Corporation. All rights reserved.  Undecoration of :- "?DrawTextW@CMetaFileDC@@UAAHPB_WHPAUtagRECT@@I@Z" is :- "public: virtual int __cdecl CMetaFileDC::DrawTextW(wchar_t const *,int,struct tagRECT *,unsigned int)" 
?DrawTextW@CMetaFileDC@@UAAHPBGHPAUtagRECT@@I@Z => Microsoft (R) C++ Name Undecorator Copyright (C) Microsoft Corporation. All rights reserved.  Undecoration of :- "?DrawTextW@CMetaFileDC@@UAAHPBGHPAUtagRECT@@I@Z" is :- "public: virtual int __cdecl CMetaFileDC::DrawTextW(unsigned short const *,int,struct tagRECT *,unsigned int)" 
?DrawTextW@CPreviewDC@@UAAHPB_WHPAUtagRECT@@I@Z => Microsoft (R) C++ Name Undecorator Copyright (C) Microsoft Corporation. All rights reserved.  Undecoration of :- "?DrawTextW@CPreviewDC@@UAAHPB_WHPAUtagRECT@@I@Z" is :- "public: virtual int __cdecl CPreviewDC::DrawTextW(wchar_t const *,int,struct tagRECT *,unsigned int)" 
?DrawTextW@CPreviewDC@@UAAHPBGHPAUtagRECT@@I@Z => Microsoft (R) C++ Name Undecorator Copyright (C) Microsoft Corporation. All rights reserved.  Undecoration of :- "?DrawTextW@CPreviewDC@@UAAHPBGHPAUtagRECT@@I@Z" is :- "public: virtual int __cdecl CPreviewDC::DrawTextW(unsigned short const *,int,struct tagRECT *,unsigned int)" 
?DrawTextW@CRenderTarget@@QAAXABV?$CStringT@_WV?$StrTraitMFC_DLL@_WV?$ChTraitsCRT@_W@ATL@@@@@ATL@@ABVCD2DRectF@@PAVCD2DBrush@@PAVCD2DTextFormat@@W4D2D1_DRAW_TEXT_OPTIONS@@W4DWRITE_MEASURING_MODE@@@Z => Microsoft (R) C++ Name Undecorator Copyright (C) Microsoft Corporation. All rights reserved.  Undecoration of :- "?DrawTextW@CRenderTarget@@QAAXABV?$CStringT@_WV?$StrTraitMFC_DLL@_WV?$ChTraitsCRT@_W@ATL@@@@@ATL@@ABVCD2DRectF@@PAVCD2DBrush@@PAVCD2DTextFormat@@W4D2D1_DRAW_TEXT_OPTIONS@@W4DWRITE_MEASURING_MODE@@@Z" is :- "public: void __cdecl CRenderTarget::DrawTextW(class ATL::CStringT<wchar_t,class StrTraitMFC_DLL<wchar_t,class ATL::ChTraitsCRT<wchar_t> > > const &,class CD2DRectF const &,class CD2DBrush *,class CD2DTextFormat *,enum D2D1_DRAW_TEXT_OPTIONS,enum DWRITE_MEASURING_MODE)" 
?DrawTextW@CRenderTarget@@QAAXABV?$CStringT@GV?$StrTraitMFC_DLL@GV?$ChTraitsCRT@G@ATL@@@@@ATL@@ABVCD2DRectF@@PAVCD2DBrush@@PAVCD2DTextFormat@@W4D2D1_DRAW_TEXT_OPTIONS@@W4DWRITE_MEASURING_MODE@@@Z => Microsoft (R) C++ Name Undecorator Copyright (C) Microsoft Corporation. All rights reserved.  Undecoration of :- "?DrawTextW@CRenderTarget@@QAAXABV?$CStringT@GV?$StrTraitMFC_DLL@GV?$ChTraitsCRT@G@ATL@@@@@ATL@@ABVCD2DRectF@@PAVCD2DBrush@@PAVCD2DTextFormat@@W4D2D1_DRAW_TEXT_OPTIONS@@W4DWRITE_MEASURING_MODE@@@Z" is :- "public: void __cdecl CRenderTarget::DrawTextW(class ATL::CStringT<unsigned short,class StrTraitMFC_DLL<unsigned short,class ATL::ChTraitsCRT<unsigned short> > > const &,class CD2DRectF const &,class CD2DBrush *,class CD2DTextFormat *,enum D2D1_DRAW_TEXT_OPTIONS,enum DWRITE_MEASURING_MODE)" 
?ElementNameFromType@CMFCRibbonInfo@@SAPB_WW4XElementType@1@@Z => Microsoft (R) C++ Name Undecorator Copyright (C) Microsoft Corporation. All rights reserved.  Undecoration of :- "?ElementNameFromType@CMFCRibbonInfo@@SAPB_WW4XElementType@1@@Z" is :- "public: static wchar_t const * __cdecl CMFCRibbonInfo::ElementNameFromType(enum CMFCRibbonInfo::XElementType)" 
?ElementNameFromType@CMFCRibbonInfo@@SAPBGW4XElementType@1@@Z => Microsoft (R) C++ Name Undecorator Copyright (C) Microsoft Corporation. All rights reserved.  Undecoration of :- "?ElementNameFromType@CMFCRibbonInfo@@SAPBGW4XElementType@1@@Z" is :- "public: static unsigned short const * __cdecl CMFCRibbonInfo::ElementNameFromType(enum CMFCRibbonInfo::XElementType)" 
?ElementTypeFromName@CMFCRibbonInfo@@SA?AW4XElementType@1@ABV?$CStringT@_WV?$StrTraitMFC_DLL@_WV?$ChTraitsCRT@_W@ATL@@@@@ATL@@@Z => Microsoft (R) C++ Name Undecorator Copyright (C) Microsoft Corporation. All rights reserved.  Undecoration of :- "?ElementTypeFromName@CMFCRibbonInfo@@SA?AW4XElementType@1@ABV?$CStringT@_WV?$StrTraitMFC_DLL@_WV?$ChTraitsCRT@_W@ATL@@@@@ATL@@@Z" is :- "public: static enum CMFCRibbonInfo::XElementType __cdecl CMFCRibbonInfo::ElementTypeFromName(class ATL::CStringT<wchar_t,class StrTraitMFC_DLL<wchar_t,class ATL::ChTraitsCRT<wchar_t> > > const &)" 
?ElementTypeFromName@CMFCRibbonInfo@@SA?AW4XElementType@1@ABV?$CStringT@GV?$StrTraitMFC_DLL@GV?$ChTraitsCRT@G@ATL@@@@@ATL@@@Z => Microsoft (R) C++ Name Undecorator Copyright (C) Microsoft Corporation. All rights reserved.  Undecoration of :- "?ElementTypeFromName@CMFCRibbonInfo@@SA?AW4XElementType@1@ABV?$CStringT@GV?$StrTraitMFC_DLL@GV?$ChTraitsCRT@G@ATL@@@@@ATL@@@Z" is :- "public: static enum CMFCRibbonInfo::XElementType __cdecl CMFCRibbonInfo::ElementTypeFromName(class ATL::CStringT<unsigned short,class StrTraitMFC_DLL<unsigned short,class ATL::ChTraitsCRT<unsigned short> > > const &)" 
?Empty@?$CSimpleStringT@_W$00@ATL@@QAAXXZ => Microsoft (R) C++ Name Undecorator Copyright (C) Microsoft Corporation. All rights reserved.  Undecoration of :- "?Empty@?$CSimpleStringT@_W$00@ATL@@QAAXXZ" is :- "public: void __cdecl ATL::CSimpleStringT<wchar_t,1>::Empty(void)" 
?Empty@?$CSimpleStringT@G$00@ATL@@QAAXXZ => Microsoft (R) C++ Name Undecorator Copyright (C) Microsoft Corporation. All rights reserved.  Undecoration of :- "?Empty@?$CSimpleStringT@G$00@ATL@@QAAXXZ" is :- "public: void __cdecl ATL::CSimpleStringT<unsigned short,1>::Empty(void)" 
?EnableAutomaticButton@CMFCColorBar@@QAAXPB_WKH@Z => Microsoft (R) C++ Name Undecorator Copyright (C) Microsoft Corporation. All rights reserved.  Undecoration of :- "?EnableAutomaticButton@CMFCColorBar@@QAAXPB_WKH@Z" is :- "public: void __cdecl CMFCColorBar::EnableAutomaticButton(wchar_t const *,unsigned long,int)" 
?EnableAutomaticButton@CMFCColorBar@@QAAXPBGKH@Z => Microsoft (R) C++ Name Undecorator Copyright (C) Microsoft Corporation. All rights reserved.  Undecoration of :- "?EnableAutomaticButton@CMFCColorBar@@QAAXPBGKH@Z" is :- "public: void __cdecl CMFCColorBar::EnableAutomaticButton(unsigned short const *,unsigned long,int)" 
?EnableAutomaticButton@CMFCColorButton@@QAAXPB_WKH@Z => Microsoft (R) C++ Name Undecorator Copyright (C) Microsoft Corporation. All rights reserved.  Undecoration of :- "?EnableAutomaticButton@CMFCColorButton@@QAAXPB_WKH@Z" is :- "public: void __cdecl CMFCColorButton::EnableAutomaticButton(wchar_t const *,unsigned long,int)" 
?EnableAutomaticButton@CMFCColorButton@@QAAXPBGKH@Z => Microsoft (R) C++ Name Undecorator Copyright (C) Microsoft Corporation. All rights reserved.  Undecoration of :- "?EnableAutomaticButton@CMFCColorButton@@QAAXPBGKH@Z" is :- "public: void __cdecl CMFCColorButton::EnableAutomaticButton(unsigned short const *,unsigned long,int)" 
?EnableAutomaticButton@CMFCColorMenuButton@@QAAXPB_WKH@Z => Microsoft (R) C++ Name Undecorator Copyright (C) Microsoft Corporation. All rights reserved.  Undecoration of :- "?EnableAutomaticButton@CMFCColorMenuButton@@QAAXPB_WKH@Z" is :- "public: void __cdecl CMFCColorMenuButton::EnableAutomaticButton(wchar_t const *,unsigned long,int)" 
?EnableAutomaticButton@CMFCColorMenuButton@@QAAXPBGKH@Z => Microsoft (R) C++ Name Undecorator Copyright (C) Microsoft Corporation. All rights reserved.  Undecoration of :- "?EnableAutomaticButton@CMFCColorMenuButton@@QAAXPBGKH@Z" is :- "public: void __cdecl CMFCColorMenuButton::EnableAutomaticButton(unsigned short const *,unsigned long,int)" 
?EnableAutomaticButton@CMFCPropertyGridColorProperty@@QAAXPB_WKH@Z => Microsoft (R) C++ Name Undecorator Copyright (C) Microsoft Corporation. All rights reserved.  Undecoration of :- "?EnableAutomaticButton@CMFCPropertyGridColorProperty@@QAAXPB_WKH@Z" is :- "public: void __cdecl CMFCPropertyGridColorProperty::EnableAutomaticButton(wchar_t const *,unsigned long,int)" 
?EnableAutomaticButton@CMFCPropertyGridColorProperty@@QAAXPBGKH@Z => Microsoft (R) C++ Name Undecorator Copyright (C) Microsoft Corporation. All rights reserved.  Undecoration of :- "?EnableAutomaticButton@CMFCPropertyGridColorProperty@@QAAXPBGKH@Z" is :- "public: void __cdecl CMFCPropertyGridColorProperty::EnableAutomaticButton(unsigned short const *,unsigned long,int)" 
?EnableAutomaticButton@CMFCRibbonColorButton@@QAAXPB_WKH0HH@Z => Microsoft (R) C++ Name Undecorator Copyright (C) Microsoft Corporation. All rights reserved.  Undecoration of :- "?EnableAutomaticButton@CMFCRibbonColorButton@@QAAXPB_WKH0HH@Z" is :- "public: void __cdecl CMFCRibbonColorButton::EnableAutomaticButton(wchar_t const *,unsigned long,int,wchar_t const *,int,int)" 
?EnableAutomaticButton@CMFCRibbonColorButton@@QAAXPBGKH0HH@Z => Microsoft (R) C++ Name Undecorator Copyright (C) Microsoft Corporation. All rights reserved.  Undecoration of :- "?EnableAutomaticButton@CMFCRibbonColorButton@@QAAXPBGKH0HH@Z" is :- "public: void __cdecl CMFCRibbonColorButton::EnableAutomaticButton(unsigned short const *,unsigned long,int,unsigned short const *,int,int)" 
?EnableCustomizeButton@CMFCToolBar@@QAAXHHABV?$CStringT@_WV?$StrTraitMFC_DLL@_WV?$ChTraitsCRT@_W@ATL@@@@@ATL@@H@Z => Microsoft (R) C++ Name Undecorator Copyright (C) Microsoft Corporation. All rights reserved.  Undecoration of :- "?EnableCustomizeButton@CMFCToolBar@@QAAXHHABV?$CStringT@_WV?$StrTraitMFC_DLL@_WV?$ChTraitsCRT@_W@ATL@@@@@ATL@@H@Z" is :- "public: void __cdecl CMFCToolBar::EnableCustomizeButton(int,int,class ATL::CStringT<wchar_t,class StrTraitMFC_DLL<wchar_t,class ATL::ChTraitsCRT<wchar_t> > > const &,int)" 
?EnableCustomizeButton@CMFCToolBar@@QAAXHHABV?$CStringT@GV?$StrTraitMFC_DLL@GV?$ChTraitsCRT@G@ATL@@@@@ATL@@H@Z => Microsoft (R) C++ Name Undecorator Copyright (C) Microsoft Corporation. All rights reserved.  Undecoration of :- "?EnableCustomizeButton@CMFCToolBar@@QAAXHHABV?$CStringT@GV?$StrTraitMFC_DLL@GV?$ChTraitsCRT@G@ATL@@@@@ATL@@H@Z" is :- "public: void __cdecl CMFCToolBar::EnableCustomizeButton(int,int,class ATL::CStringT<unsigned short,class StrTraitMFC_DLL<unsigned short,class ATL::ChTraitsCRT<unsigned short> > > const &,int)" 
?EnableDocumentColors@CMFCColorMenuButton@@QAAXPB_WH@Z => Microsoft (R) C++ Name Undecorator Copyright (C) Microsoft Corporation. All rights reserved.  Undecoration of :- "?EnableDocumentColors@CMFCColorMenuButton@@QAAXPB_WH@Z" is :- "public: void __cdecl CMFCColorMenuButton::EnableDocumentColors(wchar_t const *,int)" 
?EnableDocumentColors@CMFCColorMenuButton@@QAAXPBGH@Z => Microsoft (R) C++ Name Undecorator Copyright (C) Microsoft Corporation. All rights reserved.  Undecoration of :- "?EnableDocumentColors@CMFCColorMenuButton@@QAAXPBGH@Z" is :- "public: void __cdecl CMFCColorMenuButton::EnableDocumentColors(unsigned short const *,int)" 
?EnableFileBrowseButton@CMFCEditBrowseCtrl@@QAAXPB_W0K@Z => Microsoft (R) C++ Name Undecorator Copyright (C) Microsoft Corporation. All rights reserved.  Undecoration of :- "?EnableFileBrowseButton@CMFCEditBrowseCtrl@@QAAXPB_W0K@Z" is :- "public: void __cdecl CMFCEditBrowseCtrl::EnableFileBrowseButton(wchar_t const *,wchar_t const *,unsigned long)" 
?EnableFileBrowseButton@CMFCEditBrowseCtrl@@QAAXPBG0K@Z => Microsoft (R) C++ Name Undecorator Copyright (C) Microsoft Corporation. All rights reserved.  Undecoration of :- "?EnableFileBrowseButton@CMFCEditBrowseCtrl@@QAAXPBG0K@Z" is :- "public: void __cdecl CMFCEditBrowseCtrl::EnableFileBrowseButton(unsigned short const *,unsigned short const *,unsigned long)" 
?EnableFolderBrowseButton@CMFCEditBrowseCtrl@@QAAXPB_WI@Z => Microsoft (R) C++ Name Undecorator Copyright (C) Microsoft Corporation. All rights reserved.  Undecoration of :- "?EnableFolderBrowseButton@CMFCEditBrowseCtrl@@QAAXPB_WI@Z" is :- "public: void __cdecl CMFCEditBrowseCtrl::EnableFolderBrowseButton(wchar_t const *,unsigned int)" 
?EnableFolderBrowseButton@CMFCEditBrowseCtrl@@QAAXPBGI@Z => Microsoft (R) C++ Name Undecorator Copyright (C) Microsoft Corporation. All rights reserved.  Undecoration of :- "?EnableFolderBrowseButton@CMFCEditBrowseCtrl@@QAAXPBGI@Z" is :- "public: void __cdecl CMFCEditBrowseCtrl::EnableFolderBrowseButton(unsigned short const *,unsigned int)" 
?EnableHeaderCtrl@CMFCPropertyGridCtrl@@QAAXHPB_W0@Z => Microsoft (R) C++ Name Undecorator Copyright (C) Microsoft Corporation. All rights reserved.  Undecoration of :- "?EnableHeaderCtrl@CMFCPropertyGridCtrl@@QAAXHPB_W0@Z" is :- "public: void __cdecl CMFCPropertyGridCtrl::EnableHeaderCtrl(int,wchar_t const *,wchar_t const *)" 
?EnableHeaderCtrl@CMFCPropertyGridCtrl@@QAAXHPBG0@Z => Microsoft (R) C++ Name Undecorator Copyright (C) Microsoft Corporation. All rights reserved.  Undecoration of :- "?EnableHeaderCtrl@CMFCPropertyGridCtrl@@QAAXHPBG0@Z" is :- "public: void __cdecl CMFCPropertyGridCtrl::EnableHeaderCtrl(int,unsigned short const *,unsigned short const *)" 
?EnableHelpCombobox@CMFCMenuBar@@QAAXIPB_WH@Z => Microsoft (R) C++ Name Undecorator Copyright (C) Microsoft Corporation. All rights reserved.  Undecoration of :- "?EnableHelpCombobox@CMFCMenuBar@@QAAXIPB_WH@Z" is :- "public: void __cdecl CMFCMenuBar::EnableHelpCombobox(unsigned int,wchar_t const *,int)" 
?EnableHelpCombobox@CMFCMenuBar@@QAAXIPBGH@Z => Microsoft (R) C++ Name Undecorator Copyright (C) Microsoft Corporation. All rights reserved.  Undecoration of :- "?EnableHelpCombobox@CMFCMenuBar@@QAAXIPBGH@Z" is :- "public: void __cdecl CMFCMenuBar::EnableHelpCombobox(unsigned int,unsigned short const *,int)" 
?EnableLaunchButton@CMFCRibbonPanel@@QAAXIHPB_W@Z => Microsoft (R) C++ Name Undecorator Copyright (C) Microsoft Corporation. All rights reserved.  Undecoration of :- "?EnableLaunchButton@CMFCRibbonPanel@@QAAXIHPB_W@Z" is :- "public: void __cdecl CMFCRibbonPanel::EnableLaunchButton(unsigned int,int,wchar_t const *)" 
?EnableLaunchButton@CMFCRibbonPanel@@QAAXIHPBG@Z => Microsoft (R) C++ Name Undecorator Copyright (C) Microsoft Corporation. All rights reserved.  Undecoration of :- "?EnableLaunchButton@CMFCRibbonPanel@@QAAXIHPBG@Z" is :- "public: void __cdecl CMFCRibbonPanel::EnableLaunchButton(unsigned int,int,unsigned short const *)" 
?EnableMask@CMFCMaskedEdit@@QAAXPB_W0_W0@Z => Microsoft (R) C++ Name Undecorator Copyright (C) Microsoft Corporation. All rights reserved.  Undecoration of :- "?EnableMask@CMFCMaskedEdit@@QAAXPB_W0_W0@Z" is :- "public: void __cdecl CMFCMaskedEdit::EnableMask(wchar_t const *,wchar_t const *,wchar_t,wchar_t const *)" 
?EnableMask@CMFCMaskedEdit@@QAAXPBG0G0@Z => Microsoft (R) C++ Name Undecorator Copyright (C) Microsoft Corporation. All rights reserved.  Undecoration of :- "?EnableMask@CMFCMaskedEdit@@QAAXPBG0G0@Z" is :- "public: void __cdecl CMFCMaskedEdit::EnableMask(unsigned short const *,unsigned short const *,unsigned short,unsigned short const *)" 
?EnableOtherButton@CMFCColorBar@@QAAXPB_WHH@Z => Microsoft (R) C++ Name Undecorator Copyright (C) Microsoft Corporation. All rights reserved.  Undecoration of :- "?EnableOtherButton@CMFCColorBar@@QAAXPB_WHH@Z" is :- "public: void __cdecl CMFCColorBar::EnableOtherButton(wchar_t const *,int,int)" 
?EnableOtherButton@CMFCColorBar@@QAAXPBGHH@Z => Microsoft (R) C++ Name Undecorator Copyright (C) Microsoft Corporation. All rights reserved.  Undecoration of :- "?EnableOtherButton@CMFCColorBar@@QAAXPBGHH@Z" is :- "public: void __cdecl CMFCColorBar::EnableOtherButton(unsigned short const *,int,int)" 
?EnableOtherButton@CMFCColorButton@@QAAXPB_WHH@Z => Microsoft (R) C++ Name Undecorator Copyright (C) Microsoft Corporation. All rights reserved.  Undecoration of :- "?EnableOtherButton@CMFCColorButton@@QAAXPB_WHH@Z" is :- "public: void __cdecl CMFCColorButton::EnableOtherButton(wchar_t const *,int,int)" 
?EnableOtherButton@CMFCColorButton@@QAAXPBGHH@Z => Microsoft (R) C++ Name Undecorator Copyright (C) Microsoft Corporation. All rights reserved.  Undecoration of :- "?EnableOtherButton@CMFCColorButton@@QAAXPBGHH@Z" is :- "public: void __cdecl CMFCColorButton::EnableOtherButton(unsigned short const *,int,int)" 
?EnableOtherButton@CMFCColorMenuButton@@QAAXPB_WHH@Z => Microsoft (R) C++ Name Undecorator Copyright (C) Microsoft Corporation. All rights reserved.  Undecoration of :- "?EnableOtherButton@CMFCColorMenuButton@@QAAXPB_WHH@Z" is :- "public: void __cdecl CMFCColorMenuButton::EnableOtherButton(wchar_t const *,int,int)" 
?EnableOtherButton@CMFCColorMenuButton@@QAAXPBGHH@Z => Microsoft (R) C++ Name Undecorator Copyright (C) Microsoft Corporation. All rights reserved.  Undecoration of :- "?EnableOtherButton@CMFCColorMenuButton@@QAAXPBGHH@Z" is :- "public: void __cdecl CMFCColorMenuButton::EnableOtherButton(unsigned short const *,int,int)" 
?EnableOtherButton@CMFCPropertyGridColorProperty@@QAAXPB_WHH@Z => Microsoft (R) C++ Name Undecorator Copyright (C) Microsoft Corporation. All rights reserved.  Undecoration of :- "?EnableOtherButton@CMFCPropertyGridColorProperty@@QAAXPB_WHH@Z" is :- "public: void __cdecl CMFCPropertyGridColorProperty::EnableOtherButton(wchar_t const *,int,int)" 
?EnableOtherButton@CMFCPropertyGridColorProperty@@QAAXPBGHH@Z => Microsoft (R) C++ Name Undecorator Copyright (C) Microsoft Corporation. All rights reserved.  Undecoration of :- "?EnableOtherButton@CMFCPropertyGridColorProperty@@QAAXPBGHH@Z" is :- "public: void __cdecl CMFCPropertyGridColorProperty::EnableOtherButton(unsigned short const *,int,int)" 
?EnableOtherButton@CMFCRibbonColorButton@@QAAXPB_W0@Z => Microsoft (R) C++ Name Undecorator Copyright (C) Microsoft Corporation. All rights reserved.  Undecoration of :- "?EnableOtherButton@CMFCRibbonColorButton@@QAAXPB_W0@Z" is :- "public: void __cdecl CMFCRibbonColorButton::EnableOtherButton(wchar_t const *,wchar_t const *)" 
?EnableOtherButton@CMFCRibbonColorButton@@QAAXPBG0@Z => Microsoft (R) C++ Name Undecorator Copyright (C) Microsoft Corporation. All rights reserved.  Undecoration of :- "?EnableOtherButton@CMFCRibbonColorButton@@QAAXPBG0@Z" is :- "public: void __cdecl CMFCRibbonColorButton::EnableOtherButton(unsigned short const *,unsigned short const *)" 
?EnablePaneContextMenu@CDockingManager@@QAAXHIABV?$CStringT@_WV?$StrTraitMFC_DLL@_WV?$ChTraitsCRT@_W@ATL@@@@@ATL@@H@Z => Microsoft (R) C++ Name Undecorator Copyright (C) Microsoft Corporation. All rights reserved.  Undecoration of :- "?EnablePaneContextMenu@CDockingManager@@QAAXHIABV?$CStringT@_WV?$StrTraitMFC_DLL@_WV?$ChTraitsCRT@_W@ATL@@@@@ATL@@H@Z" is :- "public: void __cdecl CDockingManager::EnablePaneContextMenu(int,unsigned int,class ATL::CStringT<wchar_t,class StrTraitMFC_DLL<wchar_t,class ATL::ChTraitsCRT<wchar_t> > > const &,int)" 
?EnablePaneContextMenu@CDockingManager@@QAAXHIABV?$CStringT@GV?$StrTraitMFC_DLL@GV?$ChTraitsCRT@G@ATL@@@@@ATL@@H@Z => Microsoft (R) C++ Name Undecorator Copyright (C) Microsoft Corporation. All rights reserved.  Undecoration of :- "?EnablePaneContextMenu@CDockingManager@@QAAXHIABV?$CStringT@GV?$StrTraitMFC_DLL@GV?$ChTraitsCRT@G@ATL@@@@@ATL@@H@Z" is :- "public: void __cdecl CDockingManager::EnablePaneContextMenu(int,unsigned int,class ATL::CStringT<unsigned short,class StrTraitMFC_DLL<unsigned short,class ATL::ChTraitsCRT<unsigned short> > > const &,int)" 
?EnableTearOffMenus@CWinAppEx@@QAAHPB_WII@Z => Microsoft (R) C++ Name Undecorator Copyright (C) Microsoft Corporation. All rights reserved.  Undecoration of :- "?EnableTearOffMenus@CWinAppEx@@QAAHPB_WII@Z" is :- "public: int __cdecl CWinAppEx::EnableTearOffMenus(wchar_t const *,unsigned int,unsigned int)" 
?EnableTearOffMenus@CWinAppEx@@QAAHPBGII@Z => Microsoft (R) C++ Name Undecorator Copyright (C) Microsoft Corporation. All rights reserved.  Undecoration of :- "?EnableTearOffMenus@CWinAppEx@@QAAHPBGII@Z" is :- "public: int __cdecl CWinAppEx::EnableTearOffMenus(unsigned short const *,unsigned int,unsigned int)" 
?EnableWindowsDialog@CMDIFrameWndEx@@QAAXIPB_WHH@Z => Microsoft (R) C++ Name Undecorator Copyright (C) Microsoft Corporation. All rights reserved.  Undecoration of :- "?EnableWindowsDialog@CMDIFrameWndEx@@QAAXIPB_WHH@Z" is :- "public: void __cdecl CMDIFrameWndEx::EnableWindowsDialog(unsigned int,wchar_t const *,int,int)" 
?EnableWindowsDialog@CMDIFrameWndEx@@QAAXIPBGHH@Z => Microsoft (R) C++ Name Undecorator Copyright (C) Microsoft Corporation. All rights reserved.  Undecoration of :- "?EnableWindowsDialog@CMDIFrameWndEx@@QAAXIPBGHH@Z" is :- "public: void __cdecl CMDIFrameWndEx::EnableWindowsDialog(unsigned int,unsigned short const *,int,int)" 
?ExchangeBlobProp@CArchivePropExchange@@UAAHPB_WPAPAXPAX@Z => Microsoft (R) C++ Name Undecorator Copyright (C) Microsoft Corporation. All rights reserved.  Undecoration of :- "?ExchangeBlobProp@CArchivePropExchange@@UAAHPB_WPAPAXPAX@Z" is :- "public: virtual int __cdecl CArchivePropExchange::ExchangeBlobProp(wchar_t const *,void * *,void *)" 
?ExchangeBlobProp@CArchivePropExchange@@UAAHPBGPAPAXPAX@Z => Microsoft (R) C++ Name Undecorator Copyright (C) Microsoft Corporation. All rights reserved.  Undecoration of :- "?ExchangeBlobProp@CArchivePropExchange@@UAAHPBGPAPAXPAX@Z" is :- "public: virtual int __cdecl CArchivePropExchange::ExchangeBlobProp(unsigned short const *,void * *,void *)" 
?ExchangeBlobProp@CAsyncPropExchange@@UAAHPB_WPAPAXPAX@Z => Microsoft (R) C++ Name Undecorator Copyright (C) Microsoft Corporation. All rights reserved.  Undecoration of :- "?ExchangeBlobProp@CAsyncPropExchange@@UAAHPB_WPAPAXPAX@Z" is :- "public: virtual int __cdecl CAsyncPropExchange::ExchangeBlobProp(wchar_t const *,void * *,void *)" 
?ExchangeBlobProp@CAsyncPropExchange@@UAAHPBGPAPAXPAX@Z => Microsoft (R) C++ Name Undecorator Copyright (C) Microsoft Corporation. All rights reserved.  Undecoration of :- "?ExchangeBlobProp@CAsyncPropExchange@@UAAHPBGPAPAXPAX@Z" is :- "public: virtual int __cdecl CAsyncPropExchange::ExchangeBlobProp(unsigned short const *,void * *,void *)" 
?ExchangeBlobProp@CPropbagPropExchange@@UAAHPB_WPAPAXPAX@Z => Microsoft (R) C++ Name Undecorator Copyright (C) Microsoft Corporation. All rights reserved.  Undecoration of :- "?ExchangeBlobProp@CPropbagPropExchange@@UAAHPB_WPAPAXPAX@Z" is :- "public: virtual int __cdecl CPropbagPropExchange::ExchangeBlobProp(wchar_t const *,void * *,void *)" 
?ExchangeBlobProp@CPropbagPropExchange@@UAAHPBGPAPAXPAX@Z => Microsoft (R) C++ Name Undecorator Copyright (C) Microsoft Corporation. All rights reserved.  Undecoration of :- "?ExchangeBlobProp@CPropbagPropExchange@@UAAHPBGPAPAXPAX@Z" is :- "public: virtual int __cdecl CPropbagPropExchange::ExchangeBlobProp(unsigned short const *,void * *,void *)" 
?ExchangeBlobProp@CPropsetPropExchange@@UAAHPB_WPAPAXPAX@Z => Microsoft (R) C++ Name Undecorator Copyright (C) Microsoft Corporation. All rights reserved.  Undecoration of :- "?ExchangeBlobProp@CPropsetPropExchange@@UAAHPB_WPAPAXPAX@Z" is :- "public: virtual int __cdecl CPropsetPropExchange::ExchangeBlobProp(wchar_t const *,void * *,void *)" 
?ExchangeBlobProp@CPropsetPropExchange@@UAAHPBGPAPAXPAX@Z => Microsoft (R) C++ Name Undecorator Copyright (C) Microsoft Corporation. All rights reserved.  Undecoration of :- "?ExchangeBlobProp@CPropsetPropExchange@@UAAHPBGPAPAXPAX@Z" is :- "public: virtual int __cdecl CPropsetPropExchange::ExchangeBlobProp(unsigned short const *,void * *,void *)" 
?ExchangeBlobProp@CResetPropExchange@@UAAHPB_WPAPAXPAX@Z => Microsoft (R) C++ Name Undecorator Copyright (C) Microsoft Corporation. All rights reserved.  Undecoration of :- "?ExchangeBlobProp@CResetPropExchange@@UAAHPB_WPAPAXPAX@Z" is :- "public: virtual int __cdecl CResetPropExchange::ExchangeBlobProp(wchar_t const *,void * *,void *)" 
?ExchangeBlobProp@CResetPropExchange@@UAAHPBGPAPAXPAX@Z => Microsoft (R) C++ Name Undecorator Copyright (C) Microsoft Corporation. All rights reserved.  Undecoration of :- "?ExchangeBlobProp@CResetPropExchange@@UAAHPBGPAPAXPAX@Z" is :- "public: virtual int __cdecl CResetPropExchange::ExchangeBlobProp(unsigned short const *,void * *,void *)" 
?ExchangeFontProp@CArchivePropExchange@@UAAHPB_WAAVCFontHolder@@PBUtagFONTDESC@@PAUIFontDisp@@@Z => Microsoft (R) C++ Name Undecorator Copyright (C) Microsoft Corporation. All rights reserved.  Undecoration of :- "?ExchangeFontProp@CArchivePropExchange@@UAAHPB_WAAVCFontHolder@@PBUtagFONTDESC@@PAUIFontDisp@@@Z" is :- "public: virtual int __cdecl CArchivePropExchange::ExchangeFontProp(wchar_t const *,class CFontHolder &,struct tagFONTDESC const *,struct IFontDisp *)" 
?ExchangeFontProp@CArchivePropExchange@@UAAHPBGAAVCFontHolder@@PBUtagFONTDESC@@PAUIFontDisp@@@Z => Microsoft (R) C++ Name Undecorator Copyright (C) Microsoft Corporation. All rights reserved.  Undecoration of :- "?ExchangeFontProp@CArchivePropExchange@@UAAHPBGAAVCFontHolder@@PBUtagFONTDESC@@PAUIFontDisp@@@Z" is :- "public: virtual int __cdecl CArchivePropExchange::ExchangeFontProp(unsigned short const *,class CFontHolder &,struct tagFONTDESC const *,struct IFontDisp *)" 
?ExchangeFontProp@CAsyncPropExchange@@UAAHPB_WAAVCFontHolder@@PBUtagFONTDESC@@PAUIFontDisp@@@Z => Microsoft (R) C++ Name Undecorator Copyright (C) Microsoft Corporation. All rights reserved.  Undecoration of :- "?ExchangeFontProp@CAsyncPropExchange@@UAAHPB_WAAVCFontHolder@@PBUtagFONTDESC@@PAUIFontDisp@@@Z" is :- "public: virtual int __cdecl CAsyncPropExchange::ExchangeFontProp(wchar_t const *,class CFontHolder &,struct tagFONTDESC const *,struct IFontDisp *)" 
?ExchangeFontProp@CAsyncPropExchange@@UAAHPBGAAVCFontHolder@@PBUtagFONTDESC@@PAUIFontDisp@@@Z => Microsoft (R) C++ Name Undecorator Copyright (C) Microsoft Corporation. All rights reserved.  Undecoration of :- "?ExchangeFontProp@CAsyncPropExchange@@UAAHPBGAAVCFontHolder@@PBUtagFONTDESC@@PAUIFontDisp@@@Z" is :- "public: virtual int __cdecl CAsyncPropExchange::ExchangeFontProp(unsigned short const *,class CFontHolder &,struct tagFONTDESC const *,struct IFontDisp *)" 
?ExchangeFontProp@CPropbagPropExchange@@UAAHPB_WAAVCFontHolder@@PBUtagFONTDESC@@PAUIFontDisp@@@Z => Microsoft (R) C++ Name Undecorator Copyright (C) Microsoft Corporation. All rights reserved.  Undecoration of :- "?ExchangeFontProp@CPropbagPropExchange@@UAAHPB_WAAVCFontHolder@@PBUtagFONTDESC@@PAUIFontDisp@@@Z" is :- "public: virtual int __cdecl CPropbagPropExchange::ExchangeFontProp(wchar_t const *,class CFontHolder &,struct tagFONTDESC const *,struct IFontDisp *)" 
?ExchangeFontProp@CPropbagPropExchange@@UAAHPBGAAVCFontHolder@@PBUtagFONTDESC@@PAUIFontDisp@@@Z => Microsoft (R) C++ Name Undecorator Copyright (C) Microsoft Corporation. All rights reserved.  Undecoration of :- "?ExchangeFontProp@CPropbagPropExchange@@UAAHPBGAAVCFontHolder@@PBUtagFONTDESC@@PAUIFontDisp@@@Z" is :- "public: virtual int __cdecl CPropbagPropExchange::ExchangeFontProp(unsigned short const *,class CFontHolder &,struct tagFONTDESC const *,struct IFontDisp *)" 
?ExchangeFontProp@CPropsetPropExchange@@UAAHPB_WAAVCFontHolder@@PBUtagFONTDESC@@PAUIFontDisp@@@Z => Microsoft (R) C++ Name Undecorator Copyright (C) Microsoft Corporation. All rights reserved.  Undecoration of :- "?ExchangeFontProp@CPropsetPropExchange@@UAAHPB_WAAVCFontHolder@@PBUtagFONTDESC@@PAUIFontDisp@@@Z" is :- "public: virtual int __cdecl CPropsetPropExchange::ExchangeFontProp(wchar_t const *,class CFontHolder &,struct tagFONTDESC const *,struct IFontDisp *)" 
?ExchangeFontProp@CPropsetPropExchange@@UAAHPBGAAVCFontHolder@@PBUtagFONTDESC@@PAUIFontDisp@@@Z => Microsoft (R) C++ Name Undecorator Copyright (C) Microsoft Corporation. All rights reserved.  Undecoration of :- "?ExchangeFontProp@CPropsetPropExchange@@UAAHPBGAAVCFontHolder@@PBUtagFONTDESC@@PAUIFontDisp@@@Z" is :- "public: virtual int __cdecl CPropsetPropExchange::ExchangeFontProp(unsigned short const *,class CFontHolder &,struct tagFONTDESC const *,struct IFontDisp *)" 
?ExchangeFontProp@CResetPropExchange@@UAAHPB_WAAVCFontHolder@@PBUtagFONTDESC@@PAUIFontDisp@@@Z => Microsoft (R) C++ Name Undecorator Copyright (C) Microsoft Corporation. All rights reserved.  Undecoration of :- "?ExchangeFontProp@CResetPropExchange@@UAAHPB_WAAVCFontHolder@@PBUtagFONTDESC@@PAUIFontDisp@@@Z" is :- "public: virtual int __cdecl CResetPropExchange::ExchangeFontProp(wchar_t const *,class CFontHolder &,struct tagFONTDESC const *,struct IFontDisp *)" 
?ExchangeFontProp@CResetPropExchange@@UAAHPBGAAVCFontHolder@@PBUtagFONTDESC@@PAUIFontDisp@@@Z => Microsoft (R) C++ Name Undecorator Copyright (C) Microsoft Corporation. All rights reserved.  Undecoration of :- "?ExchangeFontProp@CResetPropExchange@@UAAHPBGAAVCFontHolder@@PBUtagFONTDESC@@PAUIFontDisp@@@Z" is :- "public: virtual int __cdecl CResetPropExchange::ExchangeFontProp(unsigned short const *,class CFontHolder &,struct tagFONTDESC const *,struct IFontDisp *)" 
?ExchangePersistentProp@CArchivePropExchange@@UAAHPB_WPAPAUIUnknown@@ABU_GUID@@PAU2@@Z => Microsoft (R) C++ Name Undecorator Copyright (C) Microsoft Corporation. All rights reserved.  Undecoration of :- "?ExchangePersistentProp@CArchivePropExchange@@UAAHPB_WPAPAUIUnknown@@ABU_GUID@@PAU2@@Z" is :- "public: virtual int __cdecl CArchivePropExchange::ExchangePersistentProp(wchar_t const *,struct IUnknown * *,struct _GUID const &,struct IUnknown *)" 
?ExchangePersistentProp@CArchivePropExchange@@UAAHPBGPAPAUIUnknown@@ABU_GUID@@PAU2@@Z => Microsoft (R) C++ Name Undecorator Copyright (C) Microsoft Corporation. All rights reserved.  Undecoration of :- "?ExchangePersistentProp@CArchivePropExchange@@UAAHPBGPAPAUIUnknown@@ABU_GUID@@PAU2@@Z" is :- "public: virtual int __cdecl CArchivePropExchange::ExchangePersistentProp(unsigned short const *,struct IUnknown * *,struct _GUID const &,struct IUnknown *)" 
?ExchangePersistentProp@CAsyncPropExchange@@UAAHPB_WPAPAUIUnknown@@ABU_GUID@@PAU2@@Z => Microsoft (R) C++ Name Undecorator Copyright (C) Microsoft Corporation. All rights reserved.  Undecoration of :- "?ExchangePersistentProp@CAsyncPropExchange@@UAAHPB_WPAPAUIUnknown@@ABU_GUID@@PAU2@@Z" is :- "public: virtual int __cdecl CAsyncPropExchange::ExchangePersistentProp(wchar_t const *,struct IUnknown * *,struct _GUID const &,struct IUnknown *)" 
?ExchangePersistentProp@CAsyncPropExchange@@UAAHPBGPAPAUIUnknown@@ABU_GUID@@PAU2@@Z => Microsoft (R) C++ Name Undecorator Copyright (C) Microsoft Corporation. All rights reserved.  Undecoration of :- "?ExchangePersistentProp@CAsyncPropExchange@@UAAHPBGPAPAUIUnknown@@ABU_GUID@@PAU2@@Z" is :- "public: virtual int __cdecl CAsyncPropExchange::ExchangePersistentProp(unsigned short const *,struct IUnknown * *,struct _GUID const &,struct IUnknown *)" 
?ExchangePersistentProp@CPropbagPropExchange@@UAAHPB_WPAPAUIUnknown@@ABU_GUID@@PAU2@@Z => Microsoft (R) C++ Name Undecorator Copyright (C) Microsoft Corporation. All rights reserved.  Undecoration of :- "?ExchangePersistentProp@CPropbagPropExchange@@UAAHPB_WPAPAUIUnknown@@ABU_GUID@@PAU2@@Z" is :- "public: virtual int __cdecl CPropbagPropExchange::ExchangePersistentProp(wchar_t const *,struct IUnknown * *,struct _GUID const &,struct IUnknown *)" 
?ExchangePersistentProp@CPropbagPropExchange@@UAAHPBGPAPAUIUnknown@@ABU_GUID@@PAU2@@Z => Microsoft (R) C++ Name Undecorator Copyright (C) Microsoft Corporation. All rights reserved.  Undecoration of :- "?ExchangePersistentProp@CPropbagPropExchange@@UAAHPBGPAPAUIUnknown@@ABU_GUID@@PAU2@@Z" is :- "public: virtual int __cdecl CPropbagPropExchange::ExchangePersistentProp(unsigned short const *,struct IUnknown * *,struct _GUID const &,struct IUnknown *)" 
?ExchangePersistentProp@CPropsetPropExchange@@UAAHPB_WPAPAUIUnknown@@ABU_GUID@@PAU2@@Z => Microsoft (R) C++ Name Undecorator Copyright (C) Microsoft Corporation. All rights reserved.  Undecoration of :- "?ExchangePersistentProp@CPropsetPropExchange@@UAAHPB_WPAPAUIUnknown@@ABU_GUID@@PAU2@@Z" is :- "public: virtual int __cdecl CPropsetPropExchange::ExchangePersistentProp(wchar_t const *,struct IUnknown * *,struct _GUID const &,struct IUnknown *)" 
?ExchangePersistentProp@CPropsetPropExchange@@UAAHPBGPAPAUIUnknown@@ABU_GUID@@PAU2@@Z => Microsoft (R) C++ Name Undecorator Copyright (C) Microsoft Corporation. All rights reserved.  Undecoration of :- "?ExchangePersistentProp@CPropsetPropExchange@@UAAHPBGPAPAUIUnknown@@ABU_GUID@@PAU2@@Z" is :- "public: virtual int __cdecl CPropsetPropExchange::ExchangePersistentProp(unsigned short const *,struct IUnknown * *,struct _GUID const &,struct IUnknown *)" 
?ExchangePersistentProp@CResetPropExchange@@UAAHPB_WPAPAUIUnknown@@ABU_GUID@@PAU2@@Z => Microsoft (R) C++ Name Undecorator Copyright (C) Microsoft Corporation. All rights reserved.  Undecoration of :- "?ExchangePersistentProp@CResetPropExchange@@UAAHPB_WPAPAUIUnknown@@ABU_GUID@@PAU2@@Z" is :- "public: virtual int __cdecl CResetPropExchange::ExchangePersistentProp(wchar_t const *,struct IUnknown * *,struct _GUID const &,struct IUnknown *)" 
?ExchangePersistentProp@CResetPropExchange@@UAAHPBGPAPAUIUnknown@@ABU_GUID@@PAU2@@Z => Microsoft (R) C++ Name Undecorator Copyright (C) Microsoft Corporation. All rights reserved.  Undecoration of :- "?ExchangePersistentProp@CResetPropExchange@@UAAHPBGPAPAUIUnknown@@ABU_GUID@@PAU2@@Z" is :- "public: virtual int __cdecl CResetPropExchange::ExchangePersistentProp(unsigned short const *,struct IUnknown * *,struct _GUID const &,struct IUnknown *)" 
?ExchangeProp@CArchivePropExchange@@UAAHPB_WGPAXPBX@Z => Microsoft (R) C++ Name Undecorator Copyright (C) Microsoft Corporation. All rights reserved.  Undecoration of :- "?ExchangeProp@CArchivePropExchange@@UAAHPB_WGPAXPBX@Z" is :- "public: virtual int __cdecl CArchivePropExchange::ExchangeProp(wchar_t const *,unsigned short,void *,void const *)" 
?ExchangeProp@CArchivePropExchange@@UAAHPBGGPAXPBX@Z => Microsoft (R) C++ Name Undecorator Copyright (C) Microsoft Corporation. All rights reserved.  Undecoration of :- "?ExchangeProp@CArchivePropExchange@@UAAHPBGGPAXPBX@Z" is :- "public: virtual int __cdecl CArchivePropExchange::ExchangeProp(unsigned short const *,unsigned short,void *,void const *)" 
?ExchangeProp@CAsyncPropExchange@@UAAHPB_WGPAXPBX@Z => Microsoft (R) C++ Name Undecorator Copyright (C) Microsoft Corporation. All rights reserved.  Undecoration of :- "?ExchangeProp@CAsyncPropExchange@@UAAHPB_WGPAXPBX@Z" is :- "public: virtual int __cdecl CAsyncPropExchange::ExchangeProp(wchar_t const *,unsigned short,void *,void const *)" 
?ExchangeProp@CAsyncPropExchange@@UAAHPBGGPAXPBX@Z => Microsoft (R) C++ Name Undecorator Copyright (C) Microsoft Corporation. All rights reserved.  Undecoration of :- "?ExchangeProp@CAsyncPropExchange@@UAAHPBGGPAXPBX@Z" is :- "public: virtual int __cdecl CAsyncPropExchange::ExchangeProp(unsigned short const *,unsigned short,void *,void const *)" 
?ExchangeProp@CPropbagPropExchange@@UAAHPB_WGPAXPBX@Z => Microsoft (R) C++ Name Undecorator Copyright (C) Microsoft Corporation. All rights reserved.  Undecoration of :- "?ExchangeProp@CPropbagPropExchange@@UAAHPB_WGPAXPBX@Z" is :- "public: virtual int __cdecl CPropbagPropExchange::ExchangeProp(wchar_t const *,unsigned short,void *,void const *)" 
?ExchangeProp@CPropbagPropExchange@@UAAHPBGGPAXPBX@Z => Microsoft (R) C++ Name Undecorator Copyright (C) Microsoft Corporation. All rights reserved.  Undecoration of :- "?ExchangeProp@CPropbagPropExchange@@UAAHPBGGPAXPBX@Z" is :- "public: virtual int __cdecl CPropbagPropExchange::ExchangeProp(unsigned short const *,unsigned short,void *,void const *)" 
?ExchangeProp@CPropsetPropExchange@@UAAHPB_WGPAXPBX@Z => Microsoft (R) C++ Name Undecorator Copyright (C) Microsoft Corporation. All rights reserved.  Undecoration of :- "?ExchangeProp@CPropsetPropExchange@@UAAHPB_WGPAXPBX@Z" is :- "public: virtual int __cdecl CPropsetPropExchange::ExchangeProp(wchar_t const *,unsigned short,void *,void const *)" 
?ExchangeProp@CPropsetPropExchange@@UAAHPBGGPAXPBX@Z => Microsoft (R) C++ Name Undecorator Copyright (C) Microsoft Corporation. All rights reserved.  Undecoration of :- "?ExchangeProp@CPropsetPropExchange@@UAAHPBGGPAXPBX@Z" is :- "public: virtual int __cdecl CPropsetPropExchange::ExchangeProp(unsigned short const *,unsigned short,void *,void const *)" 
?ExchangeProp@CResetPropExchange@@UAAHPB_WGPAXPBX@Z => Microsoft (R) C++ Name Undecorator Copyright (C) Microsoft Corporation. All rights reserved.  Undecoration of :- "?ExchangeProp@CResetPropExchange@@UAAHPB_WGPAXPBX@Z" is :- "public: virtual int __cdecl CResetPropExchange::ExchangeProp(wchar_t const *,unsigned short,void *,void const *)" 
?ExchangeProp@CResetPropExchange@@UAAHPBGGPAXPBX@Z => Microsoft (R) C++ Name Undecorator Copyright (C) Microsoft Corporation. All rights reserved.  Undecoration of :- "?ExchangeProp@CResetPropExchange@@UAAHPBGGPAXPBX@Z" is :- "public: virtual int __cdecl CResetPropExchange::ExchangeProp(unsigned short const *,unsigned short,void *,void const *)" 
?ExcludeTag@AFX_GLOBAL_DATA@@QAAHAAV?$CStringT@_WV?$StrTraitMFC_DLL@_WV?$ChTraitsCRT@_W@ATL@@@@@ATL@@PB_W0H@Z => Microsoft (R) C++ Name Undecorator Copyright (C) Microsoft Corporation. All rights reserved.  Undecoration of :- "?ExcludeTag@AFX_GLOBAL_DATA@@QAAHAAV?$CStringT@_WV?$StrTraitMFC_DLL@_WV?$ChTraitsCRT@_W@ATL@@@@@ATL@@PB_W0H@Z" is :- "public: int __cdecl AFX_GLOBAL_DATA::ExcludeTag(class ATL::CStringT<wchar_t,class StrTraitMFC_DLL<wchar_t,class ATL::ChTraitsCRT<wchar_t> > > &,wchar_t const *,class ATL::CStringT<wchar_t,class StrTraitMFC_DLL<wchar_t,class ATL::ChTraitsCRT<wchar_t> > > &,int)" 
?ExcludeTag@AFX_GLOBAL_DATA@@QAAHAAV?$CStringT@GV?$StrTraitMFC_DLL@GV?$ChTraitsCRT@G@ATL@@@@@ATL@@PBG0H@Z => Microsoft (R) C++ Name Undecorator Copyright (C) Microsoft Corporation. All rights reserved.  Undecoration of :- "?ExcludeTag@AFX_GLOBAL_DATA@@QAAHAAV?$CStringT@GV?$StrTraitMFC_DLL@GV?$ChTraitsCRT@G@ATL@@@@@ATL@@PBG0H@Z" is :- "public: int __cdecl AFX_GLOBAL_DATA::ExcludeTag(class ATL::CStringT<unsigned short,class StrTraitMFC_DLL<unsigned short,class ATL::ChTraitsCRT<unsigned short> > > &,unsigned short const *,class ATL::CStringT<unsigned short,class StrTraitMFC_DLL<unsigned short,class ATL::ChTraitsCRT<unsigned short> > > &,int)" 
?ExcludeTag@CTagManager@@QAAHPB_WAAV?$CStringT@_WV?$StrTraitMFC_DLL@_WV?$ChTraitsCRT@_W@ATL@@@@@ATL@@H@Z => Microsoft (R) C++ Name Undecorator Copyright (C) Microsoft Corporation. All rights reserved.  Undecoration of :- "?ExcludeTag@CTagManager@@QAAHPB_WAAV?$CStringT@_WV?$StrTraitMFC_DLL@_WV?$ChTraitsCRT@_W@ATL@@@@@ATL@@H@Z" is :- "public: int __cdecl CTagManager::ExcludeTag(wchar_t const *,class ATL::CStringT<wchar_t,class StrTraitMFC_DLL<wchar_t,class ATL::ChTraitsCRT<wchar_t> > > &,int)" 
?ExcludeTag@CTagManager@@QAAHPBGAAV?$CStringT@GV?$StrTraitMFC_DLL@GV?$ChTraitsCRT@G@ATL@@@@@ATL@@H@Z => Microsoft (R) C++ Name Undecorator Copyright (C) Microsoft Corporation. All rights reserved.  Undecoration of :- "?ExcludeTag@CTagManager@@QAAHPBGAAV?$CStringT@GV?$StrTraitMFC_DLL@GV?$ChTraitsCRT@G@ATL@@@@@ATL@@H@Z" is :- "public: int __cdecl CTagManager::ExcludeTag(unsigned short const *,class ATL::CStringT<unsigned short,class StrTraitMFC_DLL<unsigned short,class ATL::ChTraitsCRT<unsigned short> > > &,int)" 
?ExecuteDlgInit@CWnd@@QAAHPB_W@Z => Microsoft (R) C++ Name Undecorator Copyright (C) Microsoft Corporation. All rights reserved.  Undecoration of :- "?ExecuteDlgInit@CWnd@@QAAHPB_W@Z" is :- "public: int __cdecl CWnd::ExecuteDlgInit(wchar_t const *)" 
?ExecuteDlgInit@CWnd@@QAAHPBG@Z => Microsoft (R) C++ Name Undecorator Copyright (C) Microsoft Corporation. All rights reserved.  Undecoration of :- "?ExecuteDlgInit@CWnd@@QAAHPBG@Z" is :- "public: int __cdecl CWnd::ExecuteDlgInit(unsigned short const *)" 
?ExecuteSQL@CDatabase@@QAAXPB_W@Z => Microsoft (R) C++ Name Undecorator Copyright (C) Microsoft Corporation. All rights reserved.  Undecoration of :- "?ExecuteSQL@CDatabase@@QAAXPB_W@Z" is :- "public: void __cdecl CDatabase::ExecuteSQL(wchar_t const *)" 
?ExecuteSQL@CDatabase@@QAAXPBG@Z => Microsoft (R) C++ Name Undecorator Copyright (C) Microsoft Corporation. All rights reserved.  Undecoration of :- "?ExecuteSQL@CDatabase@@QAAXPBG@Z" is :- "public: void __cdecl CDatabase::ExecuteSQL(unsigned short const *)" 
?ExtTextOutW@CMetaFileDC@@UAAHHHIPBUtagRECT@@PB_WIPAH@Z => Microsoft (R) C++ Name Undecorator Copyright (C) Microsoft Corporation. All rights reserved.  Undecoration of :- "?ExtTextOutW@CMetaFileDC@@UAAHHHIPBUtagRECT@@PB_WIPAH@Z" is :- "public: virtual int __cdecl CMetaFileDC::ExtTextOutW(int,int,unsigned int,struct tagRECT const *,wchar_t const *,unsigned int,int *)" 
?ExtTextOutW@CMetaFileDC@@UAAHHHIPBUtagRECT@@PBGIPAH@Z => Microsoft (R) C++ Name Undecorator Copyright (C) Microsoft Corporation. All rights reserved.  Undecoration of :- "?ExtTextOutW@CMetaFileDC@@UAAHHHIPBUtagRECT@@PBGIPAH@Z" is :- "public: virtual int __cdecl CMetaFileDC::ExtTextOutW(int,int,unsigned int,struct tagRECT const *,unsigned short const *,unsigned int,int *)" 
?ExtTextOutW@CPreviewDC@@UAAHHHIPBUtagRECT@@PB_WIPAH@Z => Microsoft (R) C++ Name Undecorator Copyright (C) Microsoft Corporation. All rights reserved.  Undecoration of :- "?ExtTextOutW@CPreviewDC@@UAAHHHIPBUtagRECT@@PB_WIPAH@Z" is :- "public: virtual int __cdecl CPreviewDC::ExtTextOutW(int,int,unsigned int,struct tagRECT const *,wchar_t const *,unsigned int,int *)" 
?ExtTextOutW@CPreviewDC@@UAAHHHIPBUtagRECT@@PBGIPAH@Z => Microsoft (R) C++ Name Undecorator Copyright (C) Microsoft Corporation. All rights reserved.  Undecoration of :- "?ExtTextOutW@CPreviewDC@@UAAHHHIPBUtagRECT@@PBGIPAH@Z" is :- "public: virtual int __cdecl CPreviewDC::ExtTextOutW(int,int,unsigned int,struct tagRECT const *,unsigned short const *,unsigned int,int *)" 
?Find@?$CStringT@_WV?$StrTraitMFC_DLL@_WV?$ChTraitsCRT@_W@ATL@@@@@ATL@@QBAH_WH@Z => Microsoft (R) C++ Name Undecorator Copyright (C) Microsoft Corporation. All rights reserved.  Undecoration of :- "?Find@?$CStringT@_WV?$StrTraitMFC_DLL@_WV?$ChTraitsCRT@_W@ATL@@@@@ATL@@QBAH_WH@Z" is :- "public: int __cdecl ATL::CStringT<wchar_t,class StrTraitMFC_DLL<wchar_t,class ATL::ChTraitsCRT<wchar_t> > >::Find(wchar_t,int)const " 
?Find@?$CStringT@_WV?$StrTraitMFC_DLL@_WV?$ChTraitsCRT@_W@ATL@@@@@ATL@@QBAHPB_WH@Z => Microsoft (R) C++ Name Undecorator Copyright (C) Microsoft Corporation. All rights reserved.  Undecoration of :- "?Find@?$CStringT@_WV?$StrTraitMFC_DLL@_WV?$ChTraitsCRT@_W@ATL@@@@@ATL@@QBAHPB_WH@Z" is :- "public: int __cdecl ATL::CStringT<wchar_t,class StrTraitMFC_DLL<wchar_t,class ATL::ChTraitsCRT<wchar_t> > >::Find(wchar_t const *,int)const " 
?Find@?$CStringT@GV?$StrTraitMFC_DLL@GV?$ChTraitsCRT@G@ATL@@@@@ATL@@QBAHGH@Z => Microsoft (R) C++ Name Undecorator Copyright (C) Microsoft Corporation. All rights reserved.  Undecoration of :- "?Find@?$CStringT@GV?$StrTraitMFC_DLL@GV?$ChTraitsCRT@G@ATL@@@@@ATL@@QBAHGH@Z" is :- "public: int __cdecl ATL::CStringT<unsigned short,class StrTraitMFC_DLL<unsigned short,class ATL::ChTraitsCRT<unsigned short> > >::Find(unsigned short,int)const " 
?Find@?$CStringT@GV?$StrTraitMFC_DLL@GV?$ChTraitsCRT@G@ATL@@@@@ATL@@QBAHPBGH@Z => Microsoft (R) C++ Name Undecorator Copyright (C) Microsoft Corporation. All rights reserved.  Undecoration of :- "?Find@?$CStringT@GV?$StrTraitMFC_DLL@GV?$ChTraitsCRT@G@ATL@@@@@ATL@@QBAHPBGH@Z" is :- "public: int __cdecl ATL::CStringT<unsigned short,class StrTraitMFC_DLL<unsigned short,class ATL::ChTraitsCRT<unsigned short> > >::Find(unsigned short const *,int)const " 
?Find@CStringList@@QBAPAU__POSITION@@PB_WPAU2@@Z => Microsoft (R) C++ Name Undecorator Copyright (C) Microsoft Corporation. All rights reserved.  Undecoration of :- "?Find@CStringList@@QBAPAU__POSITION@@PB_WPAU2@@Z" is :- "public: struct __POSITION * __cdecl CStringList::Find(wchar_t const *,struct __POSITION *)const " 
?Find@CStringList@@QBAPAU__POSITION@@PBGPAU2@@Z => Microsoft (R) C++ Name Undecorator Copyright (C) Microsoft Corporation. All rights reserved.  Undecoration of :- "?Find@CStringList@@QBAPAU__POSITION@@PBGPAU2@@Z" is :- "public: struct __POSITION * __cdecl CStringList::Find(unsigned short const *,struct __POSITION *)const " 
?FindDefaultAccelerator@CKeyboardManager@@SAHIAAV?$CStringT@_WV?$StrTraitMFC_DLL@_WV?$ChTraitsCRT@_W@ATL@@@@@ATL@@PAVCFrameWnd@@H@Z => Microsoft (R) C++ Name Undecorator Copyright (C) Microsoft Corporation. All rights reserved.  Undecoration of :- "?FindDefaultAccelerator@CKeyboardManager@@SAHIAAV?$CStringT@_WV?$StrTraitMFC_DLL@_WV?$ChTraitsCRT@_W@ATL@@@@@ATL@@PAVCFrameWnd@@H@Z" is :- "public: static int __cdecl CKeyboardManager::FindDefaultAccelerator(unsigned int,class ATL::CStringT<wchar_t,class StrTraitMFC_DLL<wchar_t,class ATL::ChTraitsCRT<wchar_t> > > &,class CFrameWnd *,int)" 
?FindDefaultAccelerator@CKeyboardManager@@SAHIAAV?$CStringT@GV?$StrTraitMFC_DLL@GV?$ChTraitsCRT@G@ATL@@@@@ATL@@PAVCFrameWnd@@H@Z => Microsoft (R) C++ Name Undecorator Copyright (C) Microsoft Corporation. All rights reserved.  Undecoration of :- "?FindDefaultAccelerator@CKeyboardManager@@SAHIAAV?$CStringT@GV?$StrTraitMFC_DLL@GV?$ChTraitsCRT@G@ATL@@@@@ATL@@PAVCFrameWnd@@H@Z" is :- "public: static int __cdecl CKeyboardManager::FindDefaultAccelerator(unsigned int,class ATL::CStringT<unsigned short,class StrTraitMFC_DLL<unsigned short,class ATL::ChTraitsCRT<unsigned short> > > &,class CFrameWnd *,int)" 
?FindFile@CFileFind@@UAAHPB_WK@Z => Microsoft (R) C++ Name Undecorator Copyright (C) Microsoft Corporation. All rights reserved.  Undecoration of :- "?FindFile@CFileFind@@UAAHPB_WK@Z" is :- "public: virtual int __cdecl CFileFind::FindFile(wchar_t const *,unsigned long)" 
?FindFile@CFileFind@@UAAHPBGK@Z => Microsoft (R) C++ Name Undecorator Copyright (C) Microsoft Corporation. All rights reserved.  Undecoration of :- "?FindFile@CFileFind@@UAAHPBGK@Z" is :- "public: virtual int __cdecl CFileFind::FindFile(unsigned short const *,unsigned long)" 
?FindFile@CFtpFileFind@@UAAHPB_WK@Z => Microsoft (R) C++ Name Undecorator Copyright (C) Microsoft Corporation. All rights reserved.  Undecoration of :- "?FindFile@CFtpFileFind@@UAAHPB_WK@Z" is :- "public: virtual int __cdecl CFtpFileFind::FindFile(wchar_t const *,unsigned long)" 
?FindFile@CFtpFileFind@@UAAHPBGK@Z => Microsoft (R) C++ Name Undecorator Copyright (C) Microsoft Corporation. All rights reserved.  Undecoration of :- "?FindFile@CFtpFileFind@@UAAHPBGK@Z" is :- "public: virtual int __cdecl CFtpFileFind::FindFile(unsigned short const *,unsigned long)" 
?FindFile@CGopherFileFind@@UAAHAAVCGopherLocator@@PB_WK@Z => Microsoft (R) C++ Name Undecorator Copyright (C) Microsoft Corporation. All rights reserved.  Undecoration of :- "?FindFile@CGopherFileFind@@UAAHAAVCGopherLocator@@PB_WK@Z" is :- "public: virtual int __cdecl CGopherFileFind::FindFile(class CGopherLocator &,wchar_t const *,unsigned long)" 
?FindFile@CGopherFileFind@@UAAHAAVCGopherLocator@@PBGK@Z => Microsoft (R) C++ Name Undecorator Copyright (C) Microsoft Corporation. All rights reserved.  Undecoration of :- "?FindFile@CGopherFileFind@@UAAHAAVCGopherLocator@@PBGK@Z" is :- "public: virtual int __cdecl CGopherFileFind::FindFile(class CGopherLocator &,unsigned short const *,unsigned long)" 
?FindFile@CGopherFileFind@@UAAHPB_WK@Z => Microsoft (R) C++ Name Undecorator Copyright (C) Microsoft Corporation. All rights reserved.  Undecoration of :- "?FindFile@CGopherFileFind@@UAAHPB_WK@Z" is :- "public: virtual int __cdecl CGopherFileFind::FindFile(wchar_t const *,unsigned long)" 
?FindFile@CGopherFileFind@@UAAHPBGK@Z => Microsoft (R) C++ Name Undecorator Copyright (C) Microsoft Corporation. All rights reserved.  Undecoration of :- "?FindFile@CGopherFileFind@@UAAHPBGK@Z" is :- "public: virtual int __cdecl CGopherFileFind::FindFile(unsigned short const *,unsigned long)" 
?FindItem@CMFCRibbonComboBox@@QBAHPB_W@Z => Microsoft (R) C++ Name Undecorator Copyright (C) Microsoft Corporation. All rights reserved.  Undecoration of :- "?FindItem@CMFCRibbonComboBox@@QBAHPB_W@Z" is :- "public: int __cdecl CMFCRibbonComboBox::FindItem(wchar_t const *)const " 
?FindItem@CMFCRibbonComboBox@@QBAHPBG@Z => Microsoft (R) C++ Name Undecorator Copyright (C) Microsoft Corporation. All rights reserved.  Undecoration of :- "?FindItem@CMFCRibbonComboBox@@QBAHPBG@Z" is :- "public: int __cdecl CMFCRibbonComboBox::FindItem(unsigned short const *)const " 
?FindItem@CMFCToolBarComboBoxButton@@QBAHPB_W@Z => Microsoft (R) C++ Name Undecorator Copyright (C) Microsoft Corporation. All rights reserved.  Undecoration of :- "?FindItem@CMFCToolBarComboBoxButton@@QBAHPB_W@Z" is :- "public: int __cdecl CMFCToolBarComboBoxButton::FindItem(wchar_t const *)const " 
?FindItem@CMFCToolBarComboBoxButton@@QBAHPBG@Z => Microsoft (R) C++ Name Undecorator Copyright (C) Microsoft Corporation. All rights reserved.  Undecoration of :- "?FindItem@CMFCToolBarComboBoxButton@@QBAHPBG@Z" is :- "public: int __cdecl CMFCToolBarComboBoxButton::FindItem(unsigned short const *)const " 
?FindMenuItemText@CMFCMenuBar@@KAHPAUHMENU__@@IAAV?$CStringT@_WV?$StrTraitMFC_DLL@_WV?$ChTraitsCRT@_W@ATL@@@@@ATL@@@Z => Microsoft (R) C++ Name Undecorator Copyright (C) Microsoft Corporation. All rights reserved.  Undecoration of :- "?FindMenuItemText@CMFCMenuBar@@KAHPAUHMENU__@@IAAV?$CStringT@_WV?$StrTraitMFC_DLL@_WV?$ChTraitsCRT@_W@ATL@@@@@ATL@@@Z" is :- "protected: static int __cdecl CMFCMenuBar::FindMenuItemText(struct HMENU__ *,unsigned int,class ATL::CStringT<wchar_t,class StrTraitMFC_DLL<wchar_t,class ATL::ChTraitsCRT<wchar_t> > > &)" 
?FindMenuItemText@CMFCMenuBar@@KAHPAUHMENU__@@IAAV?$CStringT@GV?$StrTraitMFC_DLL@GV?$ChTraitsCRT@G@ATL@@@@@ATL@@@Z => Microsoft (R) C++ Name Undecorator Copyright (C) Microsoft Corporation. All rights reserved.  Undecoration of :- "?FindMenuItemText@CMFCMenuBar@@KAHPAUHMENU__@@IAAV?$CStringT@GV?$StrTraitMFC_DLL@GV?$ChTraitsCRT@G@ATL@@@@@ATL@@@Z" is :- "protected: static int __cdecl CMFCMenuBar::FindMenuItemText(struct HMENU__ *,unsigned int,class ATL::CStringT<unsigned short,class StrTraitMFC_DLL<unsigned short,class ATL::ChTraitsCRT<unsigned short> > > &)" 
?FindOneOf@?$CStringT@_WV?$StrTraitMFC_DLL@_WV?$ChTraitsCRT@_W@ATL@@@@@ATL@@QBAHPB_W@Z => Microsoft (R) C++ Name Undecorator Copyright (C) Microsoft Corporation. All rights reserved.  Undecoration of :- "?FindOneOf@?$CStringT@_WV?$StrTraitMFC_DLL@_WV?$ChTraitsCRT@_W@ATL@@@@@ATL@@QBAHPB_W@Z" is :- "public: int __cdecl ATL::CStringT<wchar_t,class StrTraitMFC_DLL<wchar_t,class ATL::ChTraitsCRT<wchar_t> > >::FindOneOf(wchar_t const *)const " 
?FindOneOf@?$CStringT@GV?$StrTraitMFC_DLL@GV?$ChTraitsCRT@G@ATL@@@@@ATL@@QBAHPBG@Z => Microsoft (R) C++ Name Undecorator Copyright (C) Microsoft Corporation. All rights reserved.  Undecoration of :- "?FindOneOf@?$CStringT@GV?$StrTraitMFC_DLL@GV?$ChTraitsCRT@G@ATL@@@@@ATL@@QBAHPBG@Z" is :- "public: int __cdecl ATL::CStringT<unsigned short,class StrTraitMFC_DLL<unsigned short,class ATL::ChTraitsCRT<unsigned short> > >::FindOneOf(unsigned short const *)const " 
?FindSinkForObject@CDHtmlDialog@@IAAHPB_W@Z => Microsoft (R) C++ Name Undecorator Copyright (C) Microsoft Corporation. All rights reserved.  Undecoration of :- "?FindSinkForObject@CDHtmlDialog@@IAAHPB_W@Z" is :- "protected: int __cdecl CDHtmlDialog::FindSinkForObject(wchar_t const *)" 
?FindSinkForObject@CDHtmlDialog@@IAAHPBG@Z => Microsoft (R) C++ Name Undecorator Copyright (C) Microsoft Corporation. All rights reserved.  Undecoration of :- "?FindSinkForObject@CDHtmlDialog@@IAAHPBG@Z" is :- "protected: int __cdecl CDHtmlDialog::FindSinkForObject(unsigned short const *)" 
?FindSQLToken@CRecordset@@SAPB_WPB_W0@Z => Microsoft (R) C++ Name Undecorator Copyright (C) Microsoft Corporation. All rights reserved.  Undecoration of :- "?FindSQLToken@CRecordset@@SAPB_WPB_W0@Z" is :- "public: static wchar_t const * __cdecl CRecordset::FindSQLToken(wchar_t const *,wchar_t const *)" 
?FindSQLToken@CRecordset@@SAPBGPBG0@Z => Microsoft (R) C++ Name Undecorator Copyright (C) Microsoft Corporation. All rights reserved.  Undecoration of :- "?FindSQLToken@CRecordset@@SAPBGPBG0@Z" is :- "public: static unsigned short const * __cdecl CRecordset::FindSQLToken(unsigned short const *,unsigned short const *)" 
?FindTextSimple@CRichEditView@@QAAHPB_WHHH@Z => Microsoft (R) C++ Name Undecorator Copyright (C) Microsoft Corporation. All rights reserved.  Undecoration of :- "?FindTextSimple@CRichEditView@@QAAHPB_WHHH@Z" is :- "public: int __cdecl CRichEditView::FindTextSimple(wchar_t const *,int,int,int)" 
?FindTextSimple@CRichEditView@@QAAHPBGHHH@Z => Microsoft (R) C++ Name Undecorator Copyright (C) Microsoft Corporation. All rights reserved.  Undecoration of :- "?FindTextSimple@CRichEditView@@QAAHPBGHHH@Z" is :- "public: int __cdecl CRichEditView::FindTextSimple(unsigned short const *,int,int,int)" 
?FindTextW@CEditView@@QAAHPB_WHH@Z => Microsoft (R) C++ Name Undecorator Copyright (C) Microsoft Corporation. All rights reserved.  Undecoration of :- "?FindTextW@CEditView@@QAAHPB_WHH@Z" is :- "public: int __cdecl CEditView::FindTextW(wchar_t const *,int,int)" 
?FindTextW@CEditView@@QAAHPBGHH@Z => Microsoft (R) C++ Name Undecorator Copyright (C) Microsoft Corporation. All rights reserved.  Undecoration of :- "?FindTextW@CEditView@@QAAHPBGHH@Z" is :- "public: int __cdecl CEditView::FindTextW(unsigned short const *,int,int)" 
?FindTextW@CRichEditView@@QAAHPB_WHHH@Z => Microsoft (R) C++ Name Undecorator Copyright (C) Microsoft Corporation. All rights reserved.  Undecoration of :- "?FindTextW@CRichEditView@@QAAHPB_WHHH@Z" is :- "public: int __cdecl CRichEditView::FindTextW(wchar_t const *,int,int,int)" 
?FindTextW@CRichEditView@@QAAHPBGHHH@Z => Microsoft (R) C++ Name Undecorator Copyright (C) Microsoft Corporation. All rights reserved.  Undecoration of :- "?FindTextW@CRichEditView@@QAAHPBGHHH@Z" is :- "public: int __cdecl CRichEditView::FindTextW(unsigned short const *,int,int,int)" 
?FireError@COleControl@@QAAXJPB_WI@Z => Microsoft (R) C++ Name Undecorator Copyright (C) Microsoft Corporation. All rights reserved.  Undecoration of :- "?FireError@COleControl@@QAAXJPB_WI@Z" is :- "public: void __cdecl COleControl::FireError(long,wchar_t const *,unsigned int)" 
?FireError@COleControl@@QAAXJPBGI@Z => Microsoft (R) C++ Name Undecorator Copyright (C) Microsoft Corporation. All rights reserved.  Undecoration of :- "?FireError@COleControl@@QAAXJPBGI@Z" is :- "public: void __cdecl COleControl::FireError(long,unsigned short const *,unsigned int)" 
?Fork@?$CSimpleStringT@_W$00@ATL@@AAAXH@Z => Microsoft (R) C++ Name Undecorator Copyright (C) Microsoft Corporation. All rights reserved.  Undecoration of :- "?Fork@?$CSimpleStringT@_W$00@ATL@@AAAXH@Z" is :- "private: void __cdecl ATL::CSimpleStringT<wchar_t,1>::Fork(int)" 
?Fork@?$CSimpleStringT@G$00@ATL@@AAAXH@Z => Microsoft (R) C++ Name Undecorator Copyright (C) Microsoft Corporation. All rights reserved.  Undecoration of :- "?Fork@?$CSimpleStringT@G$00@ATL@@AAAXH@Z" is :- "private: void __cdecl ATL::CSimpleStringT<unsigned short,1>::Fork(int)" 
?Format@?$CStringT@_WV?$StrTraitMFC_DLL@_WV?$ChTraitsCRT@_W@ATL@@@@@ATL@@QAAXIZZ => Microsoft (R) C++ Name Undecorator Copyright (C) Microsoft Corporation. All rights reserved.  Undecoration of :- "?Format@?$CStringT@_WV?$StrTraitMFC_DLL@_WV?$ChTraitsCRT@_W@ATL@@@@@ATL@@QAAXIZZ" is :- "public: void __cdecl ATL::CStringT<wchar_t,class StrTraitMFC_DLL<wchar_t,class ATL::ChTraitsCRT<wchar_t> > >::Format(unsigned int,...)" 
?Format@?$CStringT@_WV?$StrTraitMFC_DLL@_WV?$ChTraitsCRT@_W@ATL@@@@@ATL@@QAAXPB_WZZ => Microsoft (R) C++ Name Undecorator Copyright (C) Microsoft Corporation. All rights reserved.  Undecoration of :- "?Format@?$CStringT@_WV?$StrTraitMFC_DLL@_WV?$ChTraitsCRT@_W@ATL@@@@@ATL@@QAAXPB_WZZ" is :- "public: void __cdecl ATL::CStringT<wchar_t,class StrTraitMFC_DLL<wchar_t,class ATL::ChTraitsCRT<wchar_t> > >::Format(wchar_t const *,...)" 
?Format@?$CStringT@GV?$StrTraitMFC_DLL@GV?$ChTraitsCRT@G@ATL@@@@@ATL@@QAAXIZZ => Microsoft (R) C++ Name Undecorator Copyright (C) Microsoft Corporation. All rights reserved.  Undecoration of :- "?Format@?$CStringT@GV?$StrTraitMFC_DLL@GV?$ChTraitsCRT@G@ATL@@@@@ATL@@QAAXIZZ" is :- "public: void __cdecl ATL::CStringT<unsigned short,class StrTraitMFC_DLL<unsigned short,class ATL::ChTraitsCRT<unsigned short> > >::Format(unsigned int,...)" 
?Format@?$CStringT@GV?$StrTraitMFC_DLL@GV?$ChTraitsCRT@G@ATL@@@@@ATL@@QAAXPBGZZ => Microsoft (R) C++ Name Undecorator Copyright (C) Microsoft Corporation. All rights reserved.  Undecoration of :- "?Format@?$CStringT@GV?$StrTraitMFC_DLL@GV?$ChTraitsCRT@G@ATL@@@@@ATL@@QAAXPBGZZ" is :- "public: void __cdecl ATL::CStringT<unsigned short,class StrTraitMFC_DLL<unsigned short,class ATL::ChTraitsCRT<unsigned short> > >::Format(unsigned short const *,...)" 
?Format@CMFCAcceleratorKey@@QBAXAAV?$CStringT@_WV?$StrTraitMFC_DLL@_WV?$ChTraitsCRT@_W@ATL@@@@@ATL@@@Z => Microsoft (R) C++ Name Undecorator Copyright (C) Microsoft Corporation. All rights reserved.  Undecoration of :- "?Format@CMFCAcceleratorKey@@QBAXAAV?$CStringT@_WV?$StrTraitMFC_DLL@_WV?$ChTraitsCRT@_W@ATL@@@@@ATL@@@Z" is :- "public: void __cdecl CMFCAcceleratorKey::Format(class ATL::CStringT<wchar_t,class StrTraitMFC_DLL<wchar_t,class ATL::ChTraitsCRT<wchar_t> > > &)const " 
?Format@CMFCAcceleratorKey@@QBAXAAV?$CStringT@GV?$StrTraitMFC_DLL@GV?$ChTraitsCRT@G@ATL@@@@@ATL@@@Z => Microsoft (R) C++ Name Undecorator Copyright (C) Microsoft Corporation. All rights reserved.  Undecoration of :- "?Format@CMFCAcceleratorKey@@QBAXAAV?$CStringT@GV?$StrTraitMFC_DLL@GV?$ChTraitsCRT@G@ATL@@@@@ATL@@@Z" is :- "public: void __cdecl CMFCAcceleratorKey::Format(class ATL::CStringT<unsigned short,class StrTraitMFC_DLL<unsigned short,class ATL::ChTraitsCRT<unsigned short> > > &)const " 
?Format@COleCurrency@@QBA?AV?$CStringT@_WV?$StrTraitMFC_DLL@_WV?$ChTraitsCRT@_W@ATL@@@@@ATL@@KK@Z => Microsoft (R) C++ Name Undecorator Copyright (C) Microsoft Corporation. All rights reserved.  Undecoration of :- "?Format@COleCurrency@@QBA?AV?$CStringT@_WV?$StrTraitMFC_DLL@_WV?$ChTraitsCRT@_W@ATL@@@@@ATL@@KK@Z" is :- "public: class ATL::CStringT<wchar_t,class StrTraitMFC_DLL<wchar_t,class ATL::ChTraitsCRT<wchar_t> > > __cdecl COleCurrency::Format(unsigned long,unsigned long)const " 
?Format@COleCurrency@@QBA?AV?$CStringT@GV?$StrTraitMFC_DLL@GV?$ChTraitsCRT@G@ATL@@@@@ATL@@KK@Z => Microsoft (R) C++ Name Undecorator Copyright (C) Microsoft Corporation. All rights reserved.  Undecoration of :- "?Format@COleCurrency@@QBA?AV?$CStringT@GV?$StrTraitMFC_DLL@GV?$ChTraitsCRT@G@ATL@@@@@ATL@@KK@Z" is :- "public: class ATL::CStringT<unsigned short,class StrTraitMFC_DLL<unsigned short,class ATL::ChTraitsCRT<unsigned short> > > __cdecl COleCurrency::Format(unsigned long,unsigned long)const " 
?FormatItem@CMFCKeyMapDialog@@MBA?AV?$CStringT@_WV?$StrTraitMFC_DLL@_WV?$ChTraitsCRT@_W@ATL@@@@@ATL@@H@Z => Microsoft (R) C++ Name Undecorator Copyright (C) Microsoft Corporation. All rights reserved.  Undecoration of :- "?FormatItem@CMFCKeyMapDialog@@MBA?AV?$CStringT@_WV?$StrTraitMFC_DLL@_WV?$ChTraitsCRT@_W@ATL@@@@@ATL@@H@Z" is :- "protected: virtual class ATL::CStringT<wchar_t,class StrTraitMFC_DLL<wchar_t,class ATL::ChTraitsCRT<wchar_t> > > __cdecl CMFCKeyMapDialog::FormatItem(int)const " 
?FormatItem@CMFCKeyMapDialog@@MBA?AV?$CStringT@GV?$StrTraitMFC_DLL@GV?$ChTraitsCRT@G@ATL@@@@@ATL@@H@Z => Microsoft (R) C++ Name Undecorator Copyright (C) Microsoft Corporation. All rights reserved.  Undecoration of :- "?FormatItem@CMFCKeyMapDialog@@MBA?AV?$CStringT@GV?$StrTraitMFC_DLL@GV?$ChTraitsCRT@G@ATL@@@@@ATL@@H@Z" is :- "protected: virtual class ATL::CStringT<unsigned short,class StrTraitMFC_DLL<unsigned short,class ATL::ChTraitsCRT<unsigned short> > > __cdecl CMFCKeyMapDialog::FormatItem(int)const " 
?FormatMessage@?$CStringT@_WV?$StrTraitMFC_DLL@_WV?$ChTraitsCRT@_W@ATL@@@@@ATL@@QAAXIZZ => Microsoft (R) C++ Name Undecorator Copyright (C) Microsoft Corporation. All rights reserved.  Undecoration of :- "?FormatMessage@?$CStringT@_WV?$StrTraitMFC_DLL@_WV?$ChTraitsCRT@_W@ATL@@@@@ATL@@QAAXIZZ" is :- "public: void __cdecl ATL::CStringT<wchar_t,class StrTraitMFC_DLL<wchar_t,class ATL::ChTraitsCRT<wchar_t> > >::FormatMessage(unsigned int,...)" 
?FormatMessage@?$CStringT@_WV?$StrTraitMFC_DLL@_WV?$ChTraitsCRT@_W@ATL@@@@@ATL@@QAAXPB_WZZ => Microsoft (R) C++ Name Undecorator Copyright (C) Microsoft Corporation. All rights reserved.  Undecoration of :- "?FormatMessage@?$CStringT@_WV?$StrTraitMFC_DLL@_WV?$ChTraitsCRT@_W@ATL@@@@@ATL@@QAAXPB_WZZ" is :- "public: void __cdecl ATL::CStringT<wchar_t,class StrTraitMFC_DLL<wchar_t,class ATL::ChTraitsCRT<wchar_t> > >::FormatMessage(wchar_t const *,...)" 
?FormatMessage@?$CStringT@GV?$StrTraitMFC_DLL@GV?$ChTraitsCRT@G@ATL@@@@@ATL@@QAAXIZZ => Microsoft (R) C++ Name Undecorator Copyright (C) Microsoft Corporation. All rights reserved.  Undecoration of :- "?FormatMessage@?$CStringT@GV?$StrTraitMFC_DLL@GV?$ChTraitsCRT@G@ATL@@@@@ATL@@QAAXIZZ" is :- "public: void __cdecl ATL::CStringT<unsigned short,class StrTraitMFC_DLL<unsigned short,class ATL::ChTraitsCRT<unsigned short> > >::FormatMessage(unsigned int,...)" 
?FormatMessage@?$CStringT@GV?$StrTraitMFC_DLL@GV?$ChTraitsCRT@G@ATL@@@@@ATL@@QAAXPBGZZ => Microsoft (R) C++ Name Undecorator Copyright (C) Microsoft Corporation. All rights reserved.  Undecoration of :- "?FormatMessage@?$CStringT@GV?$StrTraitMFC_DLL@GV?$ChTraitsCRT@G@ATL@@@@@ATL@@QAAXPBGZZ" is :- "public: void __cdecl ATL::CStringT<unsigned short,class StrTraitMFC_DLL<unsigned short,class ATL::ChTraitsCRT<unsigned short> > >::FormatMessage(unsigned short const *,...)" 
?FormatMessageV@?$CStringT@_WV?$StrTraitMFC_DLL@_WV?$ChTraitsCRT@_W@ATL@@@@@ATL@@QAAXPB_WPAPAD@Z => Microsoft (R) C++ Name Undecorator Copyright (C) Microsoft Corporation. All rights reserved.  Undecoration of :- "?FormatMessageV@?$CStringT@_WV?$StrTraitMFC_DLL@_WV?$ChTraitsCRT@_W@ATL@@@@@ATL@@QAAXPB_WPAPAD@Z" is :- "public: void __cdecl ATL::CStringT<wchar_t,class StrTraitMFC_DLL<wchar_t,class ATL::ChTraitsCRT<wchar_t> > >::FormatMessageV(wchar_t const *,char * *)" 
?FormatMessageV@?$CStringT@GV?$StrTraitMFC_DLL@GV?$ChTraitsCRT@G@ATL@@@@@ATL@@QAAXPBGPAPAD@Z => Microsoft (R) C++ Name Undecorator Copyright (C) Microsoft Corporation. All rights reserved.  Undecoration of :- "?FormatMessageV@?$CStringT@GV?$StrTraitMFC_DLL@GV?$ChTraitsCRT@G@ATL@@@@@ATL@@QAAXPBGPAPAD@Z" is :- "public: void __cdecl ATL::CStringT<unsigned short,class StrTraitMFC_DLL<unsigned short,class ATL::ChTraitsCRT<unsigned short> > >::FormatMessageV(unsigned short const *,char * *)" 
?FormatMessageW@?$CStringT@_WV?$StrTraitMFC_DLL@_WV?$ChTraitsCRT@_W@ATL@@@@@ATL@@QAAXIZZ => Microsoft (R) C++ Name Undecorator Copyright (C) Microsoft Corporation. All rights reserved.  Undecoration of :- "?FormatMessageW@?$CStringT@_WV?$StrTraitMFC_DLL@_WV?$ChTraitsCRT@_W@ATL@@@@@ATL@@QAAXIZZ" is :- "public: void __cdecl ATL::CStringT<wchar_t,class StrTraitMFC_DLL<wchar_t,class ATL::ChTraitsCRT<wchar_t> > >::FormatMessageW(unsigned int,...)" 
?FormatMessageW@?$CStringT@_WV?$StrTraitMFC_DLL@_WV?$ChTraitsCRT@_W@ATL@@@@@ATL@@QAAXPB_WZZ => Microsoft (R) C++ Name Undecorator Copyright (C) Microsoft Corporation. All rights reserved.  Undecoration of :- "?FormatMessageW@?$CStringT@_WV?$StrTraitMFC_DLL@_WV?$ChTraitsCRT@_W@ATL@@@@@ATL@@QAAXPB_WZZ" is :- "public: void __cdecl ATL::CStringT<wchar_t,class StrTraitMFC_DLL<wchar_t,class ATL::ChTraitsCRT<wchar_t> > >::FormatMessageW(wchar_t const *,...)" 
?FormatMessageW@?$CStringT@GV?$StrTraitMFC_DLL@GV?$ChTraitsCRT@G@ATL@@@@@ATL@@QAAXIZZ => Microsoft (R) C++ Name Undecorator Copyright (C) Microsoft Corporation. All rights reserved.  Undecoration of :- "?FormatMessageW@?$CStringT@GV?$StrTraitMFC_DLL@GV?$ChTraitsCRT@G@ATL@@@@@ATL@@QAAXIZZ" is :- "public: void __cdecl ATL::CStringT<unsigned short,class StrTraitMFC_DLL<unsigned short,class ATL::ChTraitsCRT<unsigned short> > >::FormatMessageW(unsigned int,...)" 
?FormatMessageW@?$CStringT@GV?$StrTraitMFC_DLL@GV?$ChTraitsCRT@G@ATL@@@@@ATL@@QAAXPBGZZ => Microsoft (R) C++ Name Undecorator Copyright (C) Microsoft Corporation. All rights reserved.  Undecoration of :- "?FormatMessageW@?$CStringT@GV?$StrTraitMFC_DLL@GV?$ChTraitsCRT@G@ATL@@@@@ATL@@QAAXPBGZZ" is :- "public: void __cdecl ATL::CStringT<unsigned short,class StrTraitMFC_DLL<unsigned short,class ATL::ChTraitsCRT<unsigned short> > >::FormatMessageW(unsigned short const *,...)" 
?FormatProperty@CMFCPropertyGridColorProperty@@UAA?AV?$CStringT@_WV?$StrTraitMFC_DLL@_WV?$ChTraitsCRT@_W@ATL@@@@@ATL@@XZ => Microsoft (R) C++ Name Undecorator Copyright (C) Microsoft Corporation. All rights reserved.  Undecoration of :- "?FormatProperty@CMFCPropertyGridColorProperty@@UAA?AV?$CStringT@_WV?$StrTraitMFC_DLL@_WV?$ChTraitsCRT@_W@ATL@@@@@ATL@@XZ" is :- "public: virtual class ATL::CStringT<wchar_t,class StrTraitMFC_DLL<wchar_t,class ATL::ChTraitsCRT<wchar_t> > > __cdecl CMFCPropertyGridColorProperty::FormatProperty(void)" 
?FormatProperty@CMFCPropertyGridColorProperty@@UAA?AV?$CStringT@GV?$StrTraitMFC_DLL@GV?$ChTraitsCRT@G@ATL@@@@@ATL@@XZ => Microsoft (R) C++ Name Undecorator Copyright (C) Microsoft Corporation. All rights reserved.  Undecoration of :- "?FormatProperty@CMFCPropertyGridColorProperty@@UAA?AV?$CStringT@GV?$StrTraitMFC_DLL@GV?$ChTraitsCRT@G@ATL@@@@@ATL@@XZ" is :- "public: virtual class ATL::CStringT<unsigned short,class StrTraitMFC_DLL<unsigned short,class ATL::ChTraitsCRT<unsigned short> > > __cdecl CMFCPropertyGridColorProperty::FormatProperty(void)" 
?FormatProperty@CMFCPropertyGridFontProperty@@UAA?AV?$CStringT@_WV?$StrTraitMFC_DLL@_WV?$ChTraitsCRT@_W@ATL@@@@@ATL@@XZ => Microsoft (R) C++ Name Undecorator Copyright (C) Microsoft Corporation. All rights reserved.  Undecoration of :- "?FormatProperty@CMFCPropertyGridFontProperty@@UAA?AV?$CStringT@_WV?$StrTraitMFC_DLL@_WV?$ChTraitsCRT@_W@ATL@@@@@ATL@@XZ" is :- "public: virtual class ATL::CStringT<wchar_t,class StrTraitMFC_DLL<wchar_t,class ATL::ChTraitsCRT<wchar_t> > > __cdecl CMFCPropertyGridFontProperty::FormatProperty(void)" 
?FormatProperty@CMFCPropertyGridFontProperty@@UAA?AV?$CStringT@GV?$StrTraitMFC_DLL@GV?$ChTraitsCRT@G@ATL@@@@@ATL@@XZ => Microsoft (R) C++ Name Undecorator Copyright (C) Microsoft Corporation. All rights reserved.  Undecoration of :- "?FormatProperty@CMFCPropertyGridFontProperty@@UAA?AV?$CStringT@GV?$StrTraitMFC_DLL@GV?$ChTraitsCRT@G@ATL@@@@@ATL@@XZ" is :- "public: virtual class ATL::CStringT<unsigned short,class StrTraitMFC_DLL<unsigned short,class ATL::ChTraitsCRT<unsigned short> > > __cdecl CMFCPropertyGridFontProperty::FormatProperty(void)" 
?FormatProperty@CMFCPropertyGridProperty@@UAA?AV?$CStringT@_WV?$StrTraitMFC_DLL@_WV?$ChTraitsCRT@_W@ATL@@@@@ATL@@XZ => Microsoft (R) C++ Name Undecorator Copyright (C) Microsoft Corporation. All rights reserved.  Undecoration of :- "?FormatProperty@CMFCPropertyGridProperty@@UAA?AV?$CStringT@_WV?$StrTraitMFC_DLL@_WV?$ChTraitsCRT@_W@ATL@@@@@ATL@@XZ" is :- "public: virtual class ATL::CStringT<wchar_t,class StrTraitMFC_DLL<wchar_t,class ATL::ChTraitsCRT<wchar_t> > > __cdecl CMFCPropertyGridProperty::FormatProperty(void)" 
?FormatProperty@CMFCPropertyGridProperty@@UAA?AV?$CStringT@GV?$StrTraitMFC_DLL@GV?$ChTraitsCRT@G@ATL@@@@@ATL@@XZ => Microsoft (R) C++ Name Undecorator Copyright (C) Microsoft Corporation. All rights reserved.  Undecoration of :- "?FormatProperty@CMFCPropertyGridProperty@@UAA?AV?$CStringT@GV?$StrTraitMFC_DLL@GV?$ChTraitsCRT@G@ATL@@@@@ATL@@XZ" is :- "public: virtual class ATL::CStringT<unsigned short,class StrTraitMFC_DLL<unsigned short,class ATL::ChTraitsCRT<unsigned short> > > __cdecl CMFCPropertyGridProperty::FormatProperty(void)" 
?FormatV@?$CStringT@_WV?$StrTraitMFC_DLL@_WV?$ChTraitsCRT@_W@ATL@@@@@ATL@@QAAXPB_WPAD@Z => Microsoft (R) C++ Name Undecorator Copyright (C) Microsoft Corporation. All rights reserved.  Undecoration of :- "?FormatV@?$CStringT@_WV?$StrTraitMFC_DLL@_WV?$ChTraitsCRT@_W@ATL@@@@@ATL@@QAAXPB_WPAD@Z" is :- "public: void __cdecl ATL::CStringT<wchar_t,class StrTraitMFC_DLL<wchar_t,class ATL::ChTraitsCRT<wchar_t> > >::FormatV(wchar_t const *,char *)" 
?FormatV@?$CStringT@GV?$StrTraitMFC_DLL@GV?$ChTraitsCRT@G@ATL@@@@@ATL@@QAAXPBGPAD@Z => Microsoft (R) C++ Name Undecorator Copyright (C) Microsoft Corporation. All rights reserved.  Undecoration of :- "?FormatV@?$CStringT@GV?$StrTraitMFC_DLL@GV?$ChTraitsCRT@G@ATL@@@@@ATL@@QAAXPBGPAD@Z" is :- "public: void __cdecl ATL::CStringT<unsigned short,class StrTraitMFC_DLL<unsigned short,class ATL::ChTraitsCRT<unsigned short> > >::FormatV(unsigned short const *,char *)" 
?FreeExtra@?$CSimpleStringT@_W$00@ATL@@QAAXXZ => Microsoft (R) C++ Name Undecorator Copyright (C) Microsoft Corporation. All rights reserved.  Undecoration of :- "?FreeExtra@?$CSimpleStringT@_W$00@ATL@@QAAXXZ" is :- "public: void __cdecl ATL::CSimpleStringT<wchar_t,1>::FreeExtra(void)" 
?FreeExtra@?$CSimpleStringT@G$00@ATL@@QAAXXZ => Microsoft (R) C++ Name Undecorator Copyright (C) Microsoft Corporation. All rights reserved.  Undecoration of :- "?FreeExtra@?$CSimpleStringT@G$00@ATL@@QAAXXZ" is :- "public: void __cdecl ATL::CSimpleStringT<unsigned short,1>::FreeExtra(void)" 
?FromName@CRuntimeClass@@SAPAU1@PB_W@Z => Microsoft (R) C++ Name Undecorator Copyright (C) Microsoft Corporation. All rights reserved.  Undecoration of :- "?FromName@CRuntimeClass@@SAPAU1@PB_W@Z" is :- "public: static struct CRuntimeClass * __cdecl CRuntimeClass::FromName(wchar_t const *)" 
?FromName@CRuntimeClass@@SAPAU1@PBG@Z => Microsoft (R) C++ Name Undecorator Copyright (C) Microsoft Corporation. All rights reserved.  Undecoration of :- "?FromName@CRuntimeClass@@SAPAU1@PBG@Z" is :- "public: static struct CRuntimeClass * __cdecl CRuntimeClass::FromName(unsigned short const *)" 
?GenerateAutosaveFileName@CDataRecoveryHandler@@UBA?AV?$CStringT@_WV?$StrTraitMFC_DLL@_WV?$ChTraitsCRT@_W@ATL@@@@@ATL@@ABV23@@Z => Microsoft (R) C++ Name Undecorator Copyright (C) Microsoft Corporation. All rights reserved.  Undecoration of :- "?GenerateAutosaveFileName@CDataRecoveryHandler@@UBA?AV?$CStringT@_WV?$StrTraitMFC_DLL@_WV?$ChTraitsCRT@_W@ATL@@@@@ATL@@ABV23@@Z" is :- "public: virtual class ATL::CStringT<wchar_t,class StrTraitMFC_DLL<wchar_t,class ATL::ChTraitsCRT<wchar_t> > > __cdecl CDataRecoveryHandler::GenerateAutosaveFileName(class ATL::CStringT<wchar_t,class StrTraitMFC_DLL<wchar_t,class ATL::ChTraitsCRT<wchar_t> > > const &)const " 
?GenerateAutosaveFileName@CDataRecoveryHandler@@UBA?AV?$CStringT@GV?$StrTraitMFC_DLL@GV?$ChTraitsCRT@G@ATL@@@@@ATL@@ABV23@@Z => Microsoft (R) C++ Name Undecorator Copyright (C) Microsoft Corporation. All rights reserved.  Undecoration of :- "?GenerateAutosaveFileName@CDataRecoveryHandler@@UBA?AV?$CStringT@GV?$StrTraitMFC_DLL@GV?$ChTraitsCRT@G@ATL@@@@@ATL@@ABV23@@Z" is :- "public: virtual class ATL::CStringT<unsigned short,class StrTraitMFC_DLL<unsigned short,class ATL::ChTraitsCRT<unsigned short> > > __cdecl CDataRecoveryHandler::GenerateAutosaveFileName(class ATL::CStringT<unsigned short,class StrTraitMFC_DLL<unsigned short,class ATL::ChTraitsCRT<unsigned short> > > const &)const " 
?get_accDefaultAction@CBasePane@@UAAJUtagVARIANT@@PAPA_W@Z => Microsoft (R) C++ Name Undecorator Copyright (C) Microsoft Corporation. All rights reserved.  Undecoration of :- "?get_accDefaultAction@CBasePane@@UAAJUtagVARIANT@@PAPA_W@Z" is :- "public: virtual long __cdecl CBasePane::get_accDefaultAction(struct tagVARIANT,wchar_t * *)" 
?get_accDefaultAction@CBasePane@@UAAJUtagVARIANT@@PAPAG@Z => Microsoft (R) C++ Name Undecorator Copyright (C) Microsoft Corporation. All rights reserved.  Undecoration of :- "?get_accDefaultAction@CBasePane@@UAAJUtagVARIANT@@PAPAG@Z" is :- "public: virtual long __cdecl CBasePane::get_accDefaultAction(struct tagVARIANT,unsigned short * *)" 
?get_accDefaultAction@CCheckListBox@@MAAJUtagVARIANT@@PAPA_W@Z => Microsoft (R) C++ Name Undecorator Copyright (C) Microsoft Corporation. All rights reserved.  Undecoration of :- "?get_accDefaultAction@CCheckListBox@@MAAJUtagVARIANT@@PAPA_W@Z" is :- "protected: virtual long __cdecl CCheckListBox::get_accDefaultAction(struct tagVARIANT,wchar_t * *)" 
?get_accDefaultAction@CCheckListBox@@MAAJUtagVARIANT@@PAPAG@Z => Microsoft (R) C++ Name Undecorator Copyright (C) Microsoft Corporation. All rights reserved.  Undecoration of :- "?get_accDefaultAction@CCheckListBox@@MAAJUtagVARIANT@@PAPAG@Z" is :- "protected: virtual long __cdecl CCheckListBox::get_accDefaultAction(struct tagVARIANT,unsigned short * *)" 
?get_accDefaultAction@CMFCBaseAccessibleObject@@UAAJUtagVARIANT@@PAPA_W@Z => Microsoft (R) C++ Name Undecorator Copyright (C) Microsoft Corporation. All rights reserved.  Undecoration of :- "?get_accDefaultAction@CMFCBaseAccessibleObject@@UAAJUtagVARIANT@@PAPA_W@Z" is :- "public: virtual long __cdecl CMFCBaseAccessibleObject::get_accDefaultAction(struct tagVARIANT,wchar_t * *)" 
?get_accDefaultAction@CMFCBaseAccessibleObject@@UAAJUtagVARIANT@@PAPAG@Z => Microsoft (R) C++ Name Undecorator Copyright (C) Microsoft Corporation. All rights reserved.  Undecoration of :- "?get_accDefaultAction@CMFCBaseAccessibleObject@@UAAJUtagVARIANT@@PAPAG@Z" is :- "public: virtual long __cdecl CMFCBaseAccessibleObject::get_accDefaultAction(struct tagVARIANT,unsigned short * *)" 
?get_accDefaultAction@CMFCBaseTabCtrl@@MAAJUtagVARIANT@@PAPA_W@Z => Microsoft (R) C++ Name Undecorator Copyright (C) Microsoft Corporation. All rights reserved.  Undecoration of :- "?get_accDefaultAction@CMFCBaseTabCtrl@@MAAJUtagVARIANT@@PAPA_W@Z" is :- "protected: virtual long __cdecl CMFCBaseTabCtrl::get_accDefaultAction(struct tagVARIANT,wchar_t * *)" 
?get_accDefaultAction@CMFCBaseTabCtrl@@MAAJUtagVARIANT@@PAPAG@Z => Microsoft (R) C++ Name Undecorator Copyright (C) Microsoft Corporation. All rights reserved.  Undecoration of :- "?get_accDefaultAction@CMFCBaseTabCtrl@@MAAJUtagVARIANT@@PAPAG@Z" is :- "protected: virtual long __cdecl CMFCBaseTabCtrl::get_accDefaultAction(struct tagVARIANT,unsigned short * *)" 
?get_accDefaultAction@CMFCPropertyGridCtrl@@UAAJUtagVARIANT@@PAPA_W@Z => Microsoft (R) C++ Name Undecorator Copyright (C) Microsoft Corporation. All rights reserved.  Undecoration of :- "?get_accDefaultAction@CMFCPropertyGridCtrl@@UAAJUtagVARIANT@@PAPA_W@Z" is :- "public: virtual long __cdecl CMFCPropertyGridCtrl::get_accDefaultAction(struct tagVARIANT,wchar_t * *)" 
?get_accDefaultAction@CMFCPropertyGridCtrl@@UAAJUtagVARIANT@@PAPAG@Z => Microsoft (R) C++ Name Undecorator Copyright (C) Microsoft Corporation. All rights reserved.  Undecoration of :- "?get_accDefaultAction@CMFCPropertyGridCtrl@@UAAJUtagVARIANT@@PAPAG@Z" is :- "public: virtual long __cdecl CMFCPropertyGridCtrl::get_accDefaultAction(struct tagVARIANT,unsigned short * *)" 
?get_accDefaultAction@CMFCRibbonTab@@UAAJUtagVARIANT@@PAPA_W@Z => Microsoft (R) C++ Name Undecorator Copyright (C) Microsoft Corporation. All rights reserved.  Undecoration of :- "?get_accDefaultAction@CMFCRibbonTab@@UAAJUtagVARIANT@@PAPA_W@Z" is :- "public: virtual long __cdecl CMFCRibbonTab::get_accDefaultAction(struct tagVARIANT,wchar_t * *)" 
?get_accDefaultAction@CMFCRibbonTab@@UAAJUtagVARIANT@@PAPAG@Z => Microsoft (R) C++ Name Undecorator Copyright (C) Microsoft Corporation. All rights reserved.  Undecoration of :- "?get_accDefaultAction@CMFCRibbonTab@@UAAJUtagVARIANT@@PAPAG@Z" is :- "public: virtual long __cdecl CMFCRibbonTab::get_accDefaultAction(struct tagVARIANT,unsigned short * *)" 
?get_accDefaultAction@CMFCRibbonTabsGroup@@MAAJUtagVARIANT@@PAPA_W@Z => Microsoft (R) C++ Name Undecorator Copyright (C) Microsoft Corporation. All rights reserved.  Undecoration of :- "?get_accDefaultAction@CMFCRibbonTabsGroup@@MAAJUtagVARIANT@@PAPA_W@Z" is :- "protected: virtual long __cdecl CMFCRibbonTabsGroup::get_accDefaultAction(struct tagVARIANT,wchar_t * *)" 
?get_accDefaultAction@CMFCRibbonTabsGroup@@MAAJUtagVARIANT@@PAPAG@Z => Microsoft (R) C++ Name Undecorator Copyright (C) Microsoft Corporation. All rights reserved.  Undecoration of :- "?get_accDefaultAction@CMFCRibbonTabsGroup@@MAAJUtagVARIANT@@PAPAG@Z" is :- "protected: virtual long __cdecl CMFCRibbonTabsGroup::get_accDefaultAction(struct tagVARIANT,unsigned short * *)" 
?get_accDefaultAction@CWnd@@UAAJUtagVARIANT@@PAPA_W@Z => Microsoft (R) C++ Name Undecorator Copyright (C) Microsoft Corporation. All rights reserved.  Undecoration of :- "?get_accDefaultAction@CWnd@@UAAJUtagVARIANT@@PAPA_W@Z" is :- "public: virtual long __cdecl CWnd::get_accDefaultAction(struct tagVARIANT,wchar_t * *)" 
?get_accDefaultAction@CWnd@@UAAJUtagVARIANT@@PAPAG@Z => Microsoft (R) C++ Name Undecorator Copyright (C) Microsoft Corporation. All rights reserved.  Undecoration of :- "?get_accDefaultAction@CWnd@@UAAJUtagVARIANT@@PAPAG@Z" is :- "public: virtual long __cdecl CWnd::get_accDefaultAction(struct tagVARIANT,unsigned short * *)" 
?get_accDefaultAction@XAccessible@CMFCBaseAccessibleObject@@UAAJUtagVARIANT@@PAPA_W@Z => Microsoft (R) C++ Name Undecorator Copyright (C) Microsoft Corporation. All rights reserved.  Undecoration of :- "?get_accDefaultAction@XAccessible@CMFCBaseAccessibleObject@@UAAJUtagVARIANT@@PAPA_W@Z" is :- "public: virtual long __cdecl CMFCBaseAccessibleObject::XAccessible::get_accDefaultAction(struct tagVARIANT,wchar_t * *)" 
?get_accDefaultAction@XAccessible@CMFCBaseAccessibleObject@@UAAJUtagVARIANT@@PAPAG@Z => Microsoft (R) C++ Name Undecorator Copyright (C) Microsoft Corporation. All rights reserved.  Undecoration of :- "?get_accDefaultAction@XAccessible@CMFCBaseAccessibleObject@@UAAJUtagVARIANT@@PAPAG@Z" is :- "public: virtual long __cdecl CMFCBaseAccessibleObject::XAccessible::get_accDefaultAction(struct tagVARIANT,unsigned short * *)" 
?get_accDefaultAction@XAccessible@CWnd@@UAAJUtagVARIANT@@PAPA_W@Z => Microsoft (R) C++ Name Undecorator Copyright (C) Microsoft Corporation. All rights reserved.  Undecoration of :- "?get_accDefaultAction@XAccessible@CWnd@@UAAJUtagVARIANT@@PAPA_W@Z" is :- "public: virtual long __cdecl CWnd::XAccessible::get_accDefaultAction(struct tagVARIANT,wchar_t * *)" 
?get_accDefaultAction@XAccessible@CWnd@@UAAJUtagVARIANT@@PAPAG@Z => Microsoft (R) C++ Name Undecorator Copyright (C) Microsoft Corporation. All rights reserved.  Undecoration of :- "?get_accDefaultAction@XAccessible@CWnd@@UAAJUtagVARIANT@@PAPAG@Z" is :- "public: virtual long __cdecl CWnd::XAccessible::get_accDefaultAction(struct tagVARIANT,unsigned short * *)" 
?get_accDescription@CBasePane@@UAAJUtagVARIANT@@PAPA_W@Z => Microsoft (R) C++ Name Undecorator Copyright (C) Microsoft Corporation. All rights reserved.  Undecoration of :- "?get_accDescription@CBasePane@@UAAJUtagVARIANT@@PAPA_W@Z" is :- "public: virtual long __cdecl CBasePane::get_accDescription(struct tagVARIANT,wchar_t * *)" 
?get_accDescription@CBasePane@@UAAJUtagVARIANT@@PAPAG@Z => Microsoft (R) C++ Name Undecorator Copyright (C) Microsoft Corporation. All rights reserved.  Undecoration of :- "?get_accDescription@CBasePane@@UAAJUtagVARIANT@@PAPAG@Z" is :- "public: virtual long __cdecl CBasePane::get_accDescription(struct tagVARIANT,unsigned short * *)" 
?get_accDescription@CMFCBaseAccessibleObject@@UAAJUtagVARIANT@@PAPA_W@Z => Microsoft (R) C++ Name Undecorator Copyright (C) Microsoft Corporation. All rights reserved.  Undecoration of :- "?get_accDescription@CMFCBaseAccessibleObject@@UAAJUtagVARIANT@@PAPA_W@Z" is :- "public: virtual long __cdecl CMFCBaseAccessibleObject::get_accDescription(struct tagVARIANT,wchar_t * *)" 
?get_accDescription@CMFCBaseAccessibleObject@@UAAJUtagVARIANT@@PAPAG@Z => Microsoft (R) C++ Name Undecorator Copyright (C) Microsoft Corporation. All rights reserved.  Undecoration of :- "?get_accDescription@CMFCBaseAccessibleObject@@UAAJUtagVARIANT@@PAPAG@Z" is :- "public: virtual long __cdecl CMFCBaseAccessibleObject::get_accDescription(struct tagVARIANT,unsigned short * *)" 
?get_accDescription@CMFCPropertyGridCtrl@@UAAJUtagVARIANT@@PAPA_W@Z => Microsoft (R) C++ Name Undecorator Copyright (C) Microsoft Corporation. All rights reserved.  Undecoration of :- "?get_accDescription@CMFCPropertyGridCtrl@@UAAJUtagVARIANT@@PAPA_W@Z" is :- "public: virtual long __cdecl CMFCPropertyGridCtrl::get_accDescription(struct tagVARIANT,wchar_t * *)" 
?get_accDescription@CMFCPropertyGridCtrl@@UAAJUtagVARIANT@@PAPAG@Z => Microsoft (R) C++ Name Undecorator Copyright (C) Microsoft Corporation. All rights reserved.  Undecoration of :- "?get_accDescription@CMFCPropertyGridCtrl@@UAAJUtagVARIANT@@PAPAG@Z" is :- "public: virtual long __cdecl CMFCPropertyGridCtrl::get_accDescription(struct tagVARIANT,unsigned short * *)" 
?get_accDescription@CWnd@@UAAJUtagVARIANT@@PAPA_W@Z => Microsoft (R) C++ Name Undecorator Copyright (C) Microsoft Corporation. All rights reserved.  Undecoration of :- "?get_accDescription@CWnd@@UAAJUtagVARIANT@@PAPA_W@Z" is :- "public: virtual long __cdecl CWnd::get_accDescription(struct tagVARIANT,wchar_t * *)" 
?get_accDescription@CWnd@@UAAJUtagVARIANT@@PAPAG@Z => Microsoft (R) C++ Name Undecorator Copyright (C) Microsoft Corporation. All rights reserved.  Undecoration of :- "?get_accDescription@CWnd@@UAAJUtagVARIANT@@PAPAG@Z" is :- "public: virtual long __cdecl CWnd::get_accDescription(struct tagVARIANT,unsigned short * *)" 
?get_accDescription@XAccessible@CMFCBaseAccessibleObject@@UAAJUtagVARIANT@@PAPA_W@Z => Microsoft (R) C++ Name Undecorator Copyright (C) Microsoft Corporation. All rights reserved.  Undecoration of :- "?get_accDescription@XAccessible@CMFCBaseAccessibleObject@@UAAJUtagVARIANT@@PAPA_W@Z" is :- "public: virtual long __cdecl CMFCBaseAccessibleObject::XAccessible::get_accDescription(struct tagVARIANT,wchar_t * *)" 
?get_accDescription@XAccessible@CMFCBaseAccessibleObject@@UAAJUtagVARIANT@@PAPAG@Z => Microsoft (R) C++ Name Undecorator Copyright (C) Microsoft Corporation. All rights reserved.  Undecoration of :- "?get_accDescription@XAccessible@CMFCBaseAccessibleObject@@UAAJUtagVARIANT@@PAPAG@Z" is :- "public: virtual long __cdecl CMFCBaseAccessibleObject::XAccessible::get_accDescription(struct tagVARIANT,unsigned short * *)" 
?get_accDescription@XAccessible@CWnd@@UAAJUtagVARIANT@@PAPA_W@Z => Microsoft (R) C++ Name Undecorator Copyright (C) Microsoft Corporation. All rights reserved.  Undecoration of :- "?get_accDescription@XAccessible@CWnd@@UAAJUtagVARIANT@@PAPA_W@Z" is :- "public: virtual long __cdecl CWnd::XAccessible::get_accDescription(struct tagVARIANT,wchar_t * *)" 
?get_accDescription@XAccessible@CWnd@@UAAJUtagVARIANT@@PAPAG@Z => Microsoft (R) C++ Name Undecorator Copyright (C) Microsoft Corporation. All rights reserved.  Undecoration of :- "?get_accDescription@XAccessible@CWnd@@UAAJUtagVARIANT@@PAPAG@Z" is :- "public: virtual long __cdecl CWnd::XAccessible::get_accDescription(struct tagVARIANT,unsigned short * *)" 
?get_accHelp@CBasePane@@UAAJUtagVARIANT@@PAPA_W@Z => Microsoft (R) C++ Name Undecorator Copyright (C) Microsoft Corporation. All rights reserved.  Undecoration of :- "?get_accHelp@CBasePane@@UAAJUtagVARIANT@@PAPA_W@Z" is :- "public: virtual long __cdecl CBasePane::get_accHelp(struct tagVARIANT,wchar_t * *)" 
?get_accHelp@CBasePane@@UAAJUtagVARIANT@@PAPAG@Z => Microsoft (R) C++ Name Undecorator Copyright (C) Microsoft Corporation. All rights reserved.  Undecoration of :- "?get_accHelp@CBasePane@@UAAJUtagVARIANT@@PAPAG@Z" is :- "public: virtual long __cdecl CBasePane::get_accHelp(struct tagVARIANT,unsigned short * *)" 
?get_accHelp@CMFCBaseAccessibleObject@@UAAJUtagVARIANT@@PAPA_W@Z => Microsoft (R) C++ Name Undecorator Copyright (C) Microsoft Corporation. All rights reserved.  Undecoration of :- "?get_accHelp@CMFCBaseAccessibleObject@@UAAJUtagVARIANT@@PAPA_W@Z" is :- "public: virtual long __cdecl CMFCBaseAccessibleObject::get_accHelp(struct tagVARIANT,wchar_t * *)" 
?get_accHelp@CMFCBaseAccessibleObject@@UAAJUtagVARIANT@@PAPAG@Z => Microsoft (R) C++ Name Undecorator Copyright (C) Microsoft Corporation. All rights reserved.  Undecoration of :- "?get_accHelp@CMFCBaseAccessibleObject@@UAAJUtagVARIANT@@PAPAG@Z" is :- "public: virtual long __cdecl CMFCBaseAccessibleObject::get_accHelp(struct tagVARIANT,unsigned short * *)" 
