?_AfxDeleteRegKey@@YAHPB_W@Z
?_AfxDeleteRegKey@@YAHPBG@Z
??$HashKey@PB_W@@YAIPB_W@Z
??$HashKey@PBG@@YAIPBG@Z
??$SerializeElements@V?$CStringT@_WV?$StrTraitMFC_DLL@_WV?$ChTraitsCRT@_W@ATL@@@@@ATL@@@@YAXAAVCArchive@@PAV?$CStringT@_WV?$StrTraitMFC_DLL@_WV?$ChTraitsCRT@_W@ATL@@@@@ATL@@H@Z
??$SerializeElements@V?$CStringT@GV?$StrTraitMFC_DLL@GV?$ChTraitsCRT@G@ATL@@@@@ATL@@@@YAXAAVCArchive@@PAV?$CStringT@GV?$StrTraitMFC_DLL@GV?$ChTraitsCRT@G@ATL@@@@@ATL@@H@Z
??0?$CSimpleStringT@_W$00@ATL@@QAA@ABV?$CSimpleStringT@_W$0A@@1@@Z
??0?$CSimpleStringT@_W$00@ATL@@QAA@ABV01@@Z
??0?$CSimpleStringT@_W$00@ATL@@QAA@PAUIAtlStringMgr@1@@Z
??0?$CSimpleStringT@_W$00@ATL@@QAA@PB_WHPAUIAtlStringMgr@1@@Z
??0?$CSimpleStringT@_W$00@ATL@@QAA@PB_WPAUIAtlStringMgr@1@@Z
??0?$CSimpleStringT@G$00@ATL@@QAA@ABV?$CSimpleStringT@G$0A@@1@@Z
??0?$CSimpleStringT@G$00@ATL@@QAA@ABV01@@Z
??0?$CSimpleStringT@G$00@ATL@@QAA@PAUIAtlStringMgr@1@@Z
??0?$CSimpleStringT@G$00@ATL@@QAA@PBGHPAUIAtlStringMgr@1@@Z
??0?$CSimpleStringT@G$00@ATL@@QAA@PBGPAUIAtlStringMgr@1@@Z
??0?$CStringT@_WV?$StrTraitMFC_DLL@_WV?$ChTraitsCRT@_W@ATL@@@@@ATL@@QAA@_WH@Z
??0?$CStringT@_WV?$StrTraitMFC_DLL@_WV?$ChTraitsCRT@_W@ATL@@@@@ATL@@QAA@ABUtagVARIANT@@@Z
??0?$CStringT@_WV?$StrTraitMFC_DLL@_WV?$ChTraitsCRT@_W@ATL@@@@@ATL@@QAA@ABUtagVARIANT@@PAUIAtlStringMgr@1@@Z
??0?$CStringT@_WV?$StrTraitMFC_DLL@_WV?$ChTraitsCRT@_W@ATL@@@@@ATL@@QAA@ABV01@@Z
??0?$CStringT@_WV?$StrTraitMFC_DLL@_WV?$ChTraitsCRT@_W@ATL@@@@@ATL@@QAA@DH@Z
??0?$CStringT@_WV?$StrTraitMFC_DLL@_WV?$ChTraitsCRT@_W@ATL@@@@@ATL@@QAA@PA_W@Z
??0?$CStringT@_WV?$StrTraitMFC_DLL@_WV?$ChTraitsCRT@_W@ATL@@@@@ATL@@QAA@PAD@Z
??0?$CStringT@_WV?$StrTraitMFC_DLL@_WV?$ChTraitsCRT@_W@ATL@@@@@ATL@@QAA@PAE@Z
??0?$CStringT@_WV?$StrTraitMFC_DLL@_WV?$ChTraitsCRT@_W@ATL@@@@@ATL@@QAA@PAUIAtlStringMgr@1@@Z
??0?$CStringT@_WV?$StrTraitMFC_DLL@_WV?$ChTraitsCRT@_W@ATL@@@@@ATL@@QAA@PB_W@Z
??0?$CStringT@_WV?$StrTraitMFC_DLL@_WV?$ChTraitsCRT@_W@ATL@@@@@ATL@@QAA@PB_WH@Z
??0?$CStringT@_WV?$StrTraitMFC_DLL@_WV?$ChTraitsCRT@_W@ATL@@@@@ATL@@QAA@PB_WHPAUIAtlStringMgr@1@@Z
??0?$CStringT@_WV?$StrTraitMFC_DLL@_WV?$ChTraitsCRT@_W@ATL@@@@@ATL@@QAA@PB_WPAUIAtlStringMgr@1@@Z
??0?$CStringT@_WV?$StrTraitMFC_DLL@_WV?$ChTraitsCRT@_W@ATL@@@@@ATL@@QAA@PBD@Z
??0?$CStringT@_WV?$StrTraitMFC_DLL@_WV?$ChTraitsCRT@_W@ATL@@@@@ATL@@QAA@PBDH@Z
??0?$CStringT@_WV?$StrTraitMFC_DLL@_WV?$ChTraitsCRT@_W@ATL@@@@@ATL@@QAA@PBDHPAUIAtlStringMgr@1@@Z
??0?$CStringT@_WV?$StrTraitMFC_DLL@_WV?$ChTraitsCRT@_W@ATL@@@@@ATL@@QAA@PBDPAUIAtlStringMgr@1@@Z
??0?$CStringT@_WV?$StrTraitMFC_DLL@_WV?$ChTraitsCRT@_W@ATL@@@@@ATL@@QAA@PBE@Z
??0?$CStringT@_WV?$StrTraitMFC_DLL@_WV?$ChTraitsCRT@_W@ATL@@@@@ATL@@QAA@PBEPAUIAtlStringMgr@1@@Z
??0?$CStringT@_WV?$StrTraitMFC_DLL@_WV?$ChTraitsCRT@_W@ATL@@@@@ATL@@QAA@XZ
??0?$CStringT@DV?$StrTraitMFC_DLL@DV?$ChTraitsCRT@D@ATL@@@@@ATL@@QAA@_WH@Z
??0?$CStringT@DV?$StrTraitMFC_DLL@DV?$ChTraitsCRT@D@ATL@@@@@ATL@@QAA@GH@Z
??0?$CStringT@DV?$StrTraitMFC_DLL@DV?$ChTraitsCRT@D@ATL@@@@@ATL@@QAA@PA_W@Z
??0?$CStringT@DV?$StrTraitMFC_DLL@DV?$ChTraitsCRT@D@ATL@@@@@ATL@@QAA@PAG@Z
??0?$CStringT@DV?$StrTraitMFC_DLL@DV?$ChTraitsCRT@D@ATL@@@@@ATL@@QAA@PB_W@Z
??0?$CStringT@DV?$StrTraitMFC_DLL@DV?$ChTraitsCRT@D@ATL@@@@@ATL@@QAA@PB_WH@Z
??0?$CStringT@DV?$StrTraitMFC_DLL@DV?$ChTraitsCRT@D@ATL@@@@@ATL@@QAA@PB_WHPAUIAtlStringMgr@1@@Z
??0?$CStringT@DV?$StrTraitMFC_DLL@DV?$ChTraitsCRT@D@ATL@@@@@ATL@@QAA@PB_WPAUIAtlStringMgr@1@@Z
??0?$CStringT@DV?$StrTraitMFC_DLL@DV?$ChTraitsCRT@D@ATL@@@@@ATL@@QAA@PBG@Z
??0?$CStringT@DV?$StrTraitMFC_DLL@DV?$ChTraitsCRT@D@ATL@@@@@ATL@@QAA@PBGH@Z
??0?$CStringT@DV?$StrTraitMFC_DLL@DV?$ChTraitsCRT@D@ATL@@@@@ATL@@QAA@PBGHPAUIAtlStringMgr@1@@Z
??0?$CStringT@DV?$StrTraitMFC_DLL@DV?$ChTraitsCRT@D@ATL@@@@@ATL@@QAA@PBGPAUIAtlStringMgr@1@@Z
??0?$CStringT@GV?$StrTraitMFC_DLL@GV?$ChTraitsCRT@G@ATL@@@@@ATL@@QAA@ABUtagVARIANT@@@Z
??0?$CStringT@GV?$StrTraitMFC_DLL@GV?$ChTraitsCRT@G@ATL@@@@@ATL@@QAA@ABUtagVARIANT@@PAUIAtlStringMgr@1@@Z
??0?$CStringT@GV?$StrTraitMFC_DLL@GV?$ChTraitsCRT@G@ATL@@@@@ATL@@QAA@ABV01@@Z
??0?$CStringT@GV?$StrTraitMFC_DLL@GV?$ChTraitsCRT@G@ATL@@@@@ATL@@QAA@DH@Z
??0?$CStringT@GV?$StrTraitMFC_DLL@GV?$ChTraitsCRT@G@ATL@@@@@ATL@@QAA@GH@Z
??0?$CStringT@GV?$StrTraitMFC_DLL@GV?$ChTraitsCRT@G@ATL@@@@@ATL@@QAA@PAD@Z
??0?$CStringT@GV?$StrTraitMFC_DLL@GV?$ChTraitsCRT@G@ATL@@@@@ATL@@QAA@PAE@Z
??0?$CStringT@GV?$StrTraitMFC_DLL@GV?$ChTraitsCRT@G@ATL@@@@@ATL@@QAA@PAG@Z
??0?$CStringT@GV?$StrTraitMFC_DLL@GV?$ChTraitsCRT@G@ATL@@@@@ATL@@QAA@PAUIAtlStringMgr@1@@Z
??0?$CStringT@GV?$StrTraitMFC_DLL@GV?$ChTraitsCRT@G@ATL@@@@@ATL@@QAA@PBD@Z
??0?$CStringT@GV?$StrTraitMFC_DLL@GV?$ChTraitsCRT@G@ATL@@@@@ATL@@QAA@PBDH@Z
??0?$CStringT@GV?$StrTraitMFC_DLL@GV?$ChTraitsCRT@G@ATL@@@@@ATL@@QAA@PBDHPAUIAtlStringMgr@1@@Z
??0?$CStringT@GV?$StrTraitMFC_DLL@GV?$ChTraitsCRT@G@ATL@@@@@ATL@@QAA@PBDPAUIAtlStringMgr@1@@Z
??0?$CStringT@GV?$StrTraitMFC_DLL@GV?$ChTraitsCRT@G@ATL@@@@@ATL@@QAA@PBE@Z
??0?$CStringT@GV?$StrTraitMFC_DLL@GV?$ChTraitsCRT@G@ATL@@@@@ATL@@QAA@PBEPAUIAtlStringMgr@1@@Z
??0?$CStringT@GV?$StrTraitMFC_DLL@GV?$ChTraitsCRT@G@ATL@@@@@ATL@@QAA@PBG@Z
??0?$CStringT@GV?$StrTraitMFC_DLL@GV?$ChTraitsCRT@G@ATL@@@@@ATL@@QAA@PBGH@Z
??0?$CStringT@GV?$StrTraitMFC_DLL@GV?$ChTraitsCRT@G@ATL@@@@@ATL@@QAA@PBGHPAUIAtlStringMgr@1@@Z
??0?$CStringT@GV?$StrTraitMFC_DLL@GV?$ChTraitsCRT@G@ATL@@@@@ATL@@QAA@PBGPAUIAtlStringMgr@1@@Z
??0?$CStringT@GV?$StrTraitMFC_DLL@GV?$ChTraitsCRT@G@ATL@@@@@ATL@@QAA@XZ
??0AFX_DDPDATA@@QAA@PAXHH0IPB_W@Z
??0AFX_DDPDATA@@QAA@PAXHH0IPBG@Z
??0CAppDestinations@@QAA@PB_W@Z
??0CAppDestinations@@QAA@PBG@Z
??0CCtrlView@@QAA@PB_WK@Z
??0CCtrlView@@QAA@PBGK@Z
??0CD2DBitmap@@QAA@PAVCRenderTarget@@IPB_WVCD2DSizeU@@H@Z
??0CD2DBitmap@@QAA@PAVCRenderTarget@@IPBGVCD2DSizeU@@H@Z
??0CD2DBitmap@@QAA@PAVCRenderTarget@@PB_WVCD2DSizeU@@H@Z
??0CD2DBitmap@@QAA@PAVCRenderTarget@@PBGVCD2DSizeU@@H@Z
??0CD2DBitmapBrush@@QAA@PAVCRenderTarget@@IPB_WVCD2DSizeU@@PAUD2D1_BITMAP_BRUSH_PROPERTIES@@PAVCD2DBrushProperties@@H@Z
??0CD2DBitmapBrush@@QAA@PAVCRenderTarget@@IPBGVCD2DSizeU@@PAUD2D1_BITMAP_BRUSH_PROPERTIES@@PAVCD2DBrushProperties@@H@Z
??0CD2DBitmapBrush@@QAA@PAVCRenderTarget@@PB_WVCD2DSizeU@@PAUD2D1_BITMAP_BRUSH_PROPERTIES@@PAVCD2DBrushProperties@@H@Z
??0CD2DBitmapBrush@@QAA@PAVCRenderTarget@@PBGVCD2DSizeU@@PAUD2D1_BITMAP_BRUSH_PROPERTIES@@PAVCD2DBrushProperties@@H@Z
??0CD2DTextFormat@@QAA@PAVCRenderTarget@@ABV?$CStringT@_WV?$StrTraitMFC_DLL@_WV?$ChTraitsCRT@_W@ATL@@@@@ATL@@MW4DWRITE_FONT_WEIGHT@@W4DWRITE_FONT_STYLE@@W4DWRITE_FONT_STRETCH@@1PAUIDWriteFontCollection@@H@Z
??0CD2DTextFormat@@QAA@PAVCRenderTarget@@ABV?$CStringT@GV?$StrTraitMFC_DLL@GV?$ChTraitsCRT@G@ATL@@@@@ATL@@MW4DWRITE_FONT_WEIGHT@@W4DWRITE_FONT_STYLE@@W4DWRITE_FONT_STRETCH@@1PAUIDWriteFontCollection@@H@Z
??0CD2DTextLayout@@QAA@PAVCRenderTarget@@ABV?$CStringT@_WV?$StrTraitMFC_DLL@_WV?$ChTraitsCRT@_W@ATL@@@@@ATL@@AAVCD2DTextFormat@@ABVCD2DSizeF@@H@Z
??0CD2DTextLayout@@QAA@PAVCRenderTarget@@ABV?$CStringT@GV?$StrTraitMFC_DLL@GV?$ChTraitsCRT@G@ATL@@@@@ATL@@AAVCD2DTextFormat@@ABVCD2DSizeF@@H@Z
??0CDHtmlControlSink@@QAA@PAUIUnknown@@PAVCDHtmlSinkHandler@@PB_WK@Z
??0CDHtmlControlSink@@QAA@PAUIUnknown@@PAVCDHtmlSinkHandler@@PBGK@Z
??0CDHtmlDialog@@QAA@PB_W0PAVCWnd@@@Z
??0CDHtmlDialog@@QAA@PBG0PAVCWnd@@@Z
??0CDialog@@QAA@PB_WPAVCWnd@@@Z
??0CDialog@@QAA@PBGPAVCWnd@@@Z
??0CDialogEx@@QAA@PB_WPAVCWnd@@@Z
??0CDialogEx@@QAA@PBGPAVCWnd@@@Z
??0CEvent@@QAA@HHPB_WPAU_SECURITY_ATTRIBUTES@@@Z
??0CEvent@@QAA@HHPBGPAU_SECURITY_ATTRIBUTES@@@Z
??0CFile@@QAA@PB_WI@Z
??0CFile@@QAA@PB_WIPAVCAtlTransactionManager@ATL@@@Z
??0CFile@@QAA@PBGI@Z
??0CFile@@QAA@PBGIPAVCAtlTransactionManager@ATL@@@Z
??0CFileDialog@@QAA@HPB_W0K0PAVCWnd@@KH@Z
??0CFileDialog@@QAA@HPBG0K0PAVCWnd@@KH@Z
??0CFolderPickerDialog@@QAA@PB_WKPAVCWnd@@KH@Z
??0CFolderPickerDialog@@QAA@PBGKPAVCWnd@@KH@Z
??0CFormView@@IAA@PB_W@Z
??0CFormView@@IAA@PBG@Z
??0CFtpConnection@@QAA@PAVCInternetSession@@PAXPB_WK@Z
??0CFtpConnection@@QAA@PAVCInternetSession@@PAXPBGK@Z
??0CFtpConnection@@QAA@PAVCInternetSession@@PB_W11KGH@Z
??0CFtpConnection@@QAA@PAVCInternetSession@@PBG11KGH@Z
??0CGopherConnection@@QAA@PAVCInternetSession@@PAXPB_WK@Z
??0CGopherConnection@@QAA@PAVCInternetSession@@PAXPBGK@Z
??0CGopherConnection@@QAA@PAVCInternetSession@@PB_W11KG@Z
??0CGopherConnection@@QAA@PAVCInternetSession@@PBG11KG@Z
??0CGopherFile@@IAA@PAX0PB_WKK@Z
??0CGopherFile@@IAA@PAX0PBGKK@Z
??0CGopherLocator@@AAA@PB_WK@Z
??0CGopherLocator@@AAA@PBGK@Z
??0CHttpConnection@@QAA@PAVCInternetSession@@PAXPB_WK@Z
??0CHttpConnection@@QAA@PAVCInternetSession@@PAXPBGK@Z
??0CHttpConnection@@QAA@PAVCInternetSession@@PB_WG11K@Z
??0CHttpConnection@@QAA@PAVCInternetSession@@PB_WKG11K@Z
??0CHttpConnection@@QAA@PAVCInternetSession@@PBGG11K@Z
??0CHttpConnection@@QAA@PAVCInternetSession@@PBGKG11K@Z
??0CHttpFile@@IAA@PAX0PB_W11K@Z
??0CHttpFile@@IAA@PAX0PBG11K@Z
??0CHttpFile@@IAA@PAXPB_W1PAVCHttpConnection@@@Z
??0CHttpFile@@IAA@PAXPBG1PAVCHttpConnection@@@Z
??0CInternetConnection@@QAA@PAVCInternetSession@@PB_WGK@Z
??0CInternetConnection@@QAA@PAVCInternetSession@@PBGGK@Z
??0CInternetFile@@IAA@PAX0PB_W1KH@Z
??0CInternetFile@@IAA@PAX0PBG1KH@Z
??0CInternetFile@@IAA@PAXPB_WPAVCInternetConnection@@H@Z
??0CInternetFile@@IAA@PAXPBGPAVCInternetConnection@@H@Z
??0CInternetSession@@QAA@PB_WKK00K@Z
??0CInternetSession@@QAA@PBGKK00K@Z
??0CMFCColorBar@@IAA@ABV?$CArray@KK@@KPB_W11AAV?$CList@KK@@HHHKIPAVCMFCColorButton@@@Z
??0CMFCColorBar@@IAA@ABV?$CArray@KK@@KPB_W11AAV?$CList@KK@@HKIPAVCMFCRibbonColorButton@@@Z
??0CMFCColorBar@@IAA@ABV?$CArray@KK@@KPBG11AAV?$CList@KK@@HHHKIPAVCMFCColorButton@@@Z
??0CMFCColorBar@@IAA@ABV?$CArray@KK@@KPBG11AAV?$CList@KK@@HKIPAVCMFCRibbonColorButton@@@Z
??0CMFCColorMenuButton@@QAA@IPB_WPAVCPalette@@@Z
??0CMFCColorMenuButton@@QAA@IPBGPAVCPalette@@@Z
??0CMFCColorPropertySheet@@QAA@PB_WPAVCWnd@@I@Z
??0CMFCColorPropertySheet@@QAA@PBGPAVCWnd@@I@Z
??0CMFCControlRendererInfo@@QAA@PB_WABVCRect@@111@Z
??0CMFCControlRendererInfo@@QAA@PB_WKABVCRect@@111H@Z
??0CMFCControlRendererInfo@@QAA@PBGABVCRect@@111@Z
??0CMFCControlRendererInfo@@QAA@PBGKABVCRect@@111H@Z
??0CMFCCustomizeButton@@QAA@HABV?$CStringT@_WV?$StrTraitMFC_DLL@_WV?$ChTraitsCRT@_W@ATL@@@@@ATL@@@Z
??0CMFCCustomizeButton@@QAA@HABV?$CStringT@GV?$StrTraitMFC_DLL@GV?$ChTraitsCRT@G@ATL@@@@@ATL@@@Z
??0CMFCCustomizeMenuButton@@QAA@IPAUHMENU__@@HPB_WH@Z
??0CMFCCustomizeMenuButton@@QAA@IPAUHMENU__@@HPBGH@Z
??0CMFCDropDownToolbarButton@@QAA@PB_WPAVCMFCDropDownToolBar@@@Z
??0CMFCDropDownToolbarButton@@QAA@PBGPAVCMFCDropDownToolBar@@@Z
??0CMFCPopupMenu@@IAA@PAVCMFCToolBarsMenuPropertyPage@@PB_W@Z
??0CMFCPopupMenu@@IAA@PAVCMFCToolBarsMenuPropertyPage@@PBG@Z
??0CMFCPropertyGridColorProperty@@QAA@ABV?$CStringT@_WV?$StrTraitMFC_DLL@_WV?$ChTraitsCRT@_W@ATL@@@@@ATL@@ABKPAVCPalette@@PB_WK@Z
??0CMFCPropertyGridColorProperty@@QAA@ABV?$CStringT@GV?$StrTraitMFC_DLL@GV?$ChTraitsCRT@G@ATL@@@@@ATL@@ABKPAVCPalette@@PBGK@Z
??0CMFCPropertyGridFileProperty@@QAA@ABV?$CStringT@_WV?$StrTraitMFC_DLL@_WV?$ChTraitsCRT@_W@ATL@@@@@ATL@@0KPB_W@Z
??0CMFCPropertyGridFileProperty@@QAA@ABV?$CStringT@_WV?$StrTraitMFC_DLL@_WV?$ChTraitsCRT@_W@ATL@@@@@ATL@@H0PB_WK11K@Z
??0CMFCPropertyGridFileProperty@@QAA@ABV?$CStringT@GV?$StrTraitMFC_DLL@GV?$ChTraitsCRT@G@ATL@@@@@ATL@@0KPBG@Z
??0CMFCPropertyGridFileProperty@@QAA@ABV?$CStringT@GV?$StrTraitMFC_DLL@GV?$ChTraitsCRT@G@ATL@@@@@ATL@@H0PBGK11K@Z
??0CMFCPropertyGridFontProperty@@QAA@ABV?$CStringT@_WV?$StrTraitMFC_DLL@_WV?$ChTraitsCRT@_W@ATL@@@@@ATL@@AAUtagLOGFONTW@@KPB_WKK@Z
??0CMFCPropertyGridFontProperty@@QAA@ABV?$CStringT@GV?$StrTraitMFC_DLL@GV?$ChTraitsCRT@G@ATL@@@@@ATL@@AAUtagLOGFONTW@@KPBGKK@Z
??0CMFCPropertyGridProperty@@QAA@ABV?$CStringT@_WV?$StrTraitMFC_DLL@_WV?$ChTraitsCRT@_W@ATL@@@@@ATL@@ABVCOleVariant@@PB_WK222@Z
??0CMFCPropertyGridProperty@@QAA@ABV?$CStringT@_WV?$StrTraitMFC_DLL@_WV?$ChTraitsCRT@_W@ATL@@@@@ATL@@KH@Z
??0CMFCPropertyGridProperty@@QAA@ABV?$CStringT@GV?$StrTraitMFC_DLL@GV?$ChTraitsCRT@G@ATL@@@@@ATL@@ABVCOleVariant@@PBGK222@Z
??0CMFCPropertyGridProperty@@QAA@ABV?$CStringT@GV?$StrTraitMFC_DLL@GV?$ChTraitsCRT@G@ATL@@@@@ATL@@KH@Z
??0CMFCPropertyPage@@QAA@PB_WI@Z
??0CMFCPropertyPage@@QAA@PBGI@Z
??0CMFCPropertySheet@@QAA@PB_WPAVCWnd@@I@Z
??0CMFCPropertySheet@@QAA@PBGPAVCWnd@@I@Z
??0CMFCPropertySheetCategoryInfo@@QAA@PB_WHHPBV0@AAVCMFCPropertySheet@@@Z
??0CMFCPropertySheetCategoryInfo@@QAA@PBGHHPBV0@AAVCMFCPropertySheet@@@Z
??0CMFCRibbonButton@@QAA@IPB_WHHH@Z
??0CMFCRibbonButton@@QAA@IPB_WPAUHICON__@@H1HH@Z
??0CMFCRibbonButton@@QAA@IPBGHHH@Z
??0CMFCRibbonButton@@QAA@IPBGPAUHICON__@@H1HH@Z
??0CMFCRibbonCategory@@IAA@PAVCMFCRibbonBar@@PB_WIIVCSize@@2@Z
??0CMFCRibbonCategory@@IAA@PAVCMFCRibbonBar@@PBGIIVCSize@@2@Z
??0CMFCRibbonCheckBox@@QAA@IPB_W@Z
??0CMFCRibbonCheckBox@@QAA@IPBG@Z
??0CMFCRibbonColorButton@@QAA@IPB_WHHHK@Z
??0CMFCRibbonColorButton@@QAA@IPB_WHK@Z
??0CMFCRibbonColorButton@@QAA@IPBGHHHK@Z
??0CMFCRibbonColorButton@@QAA@IPBGHK@Z
??0CMFCRibbonComboBox@@QAA@IHHPB_WH@Z
??0CMFCRibbonComboBox@@QAA@IHHPBGH@Z
??0CMFCRibbonContextCaption@@IAA@PB_WIW4AFX_RibbonCategoryColor@@@Z
??0CMFCRibbonContextCaption@@IAA@PBGIW4AFX_RibbonCategoryColor@@@Z
??0CMFCRibbonEdit@@QAA@IHPB_WH@Z
??0CMFCRibbonEdit@@QAA@IHPBGH@Z
??0CMFCRibbonGallery@@QAA@IPB_WHHAAVCMFCToolBarImages@@@Z
??0CMFCRibbonGallery@@QAA@IPB_WHHIH@Z
??0CMFCRibbonGallery@@QAA@IPB_WHHVCSize@@HH@Z
??0CMFCRibbonGallery@@QAA@IPBGHHAAVCMFCToolBarImages@@@Z
??0CMFCRibbonGallery@@QAA@IPBGHHIH@Z
??0CMFCRibbonGallery@@QAA@IPBGHHVCSize@@HH@Z
??0CMFCRibbonGalleryMenuButton@@QAA@IHPB_WAAVCMFCToolBarImages@@@Z
??0CMFCRibbonGalleryMenuButton@@QAA@IHPB_WIH@Z
??0CMFCRibbonGalleryMenuButton@@QAA@IHPBGAAVCMFCToolBarImages@@@Z
??0CMFCRibbonGalleryMenuButton@@QAA@IHPBGIH@Z
??0CMFCRibbonLabel@@QAA@PB_WH@Z
??0CMFCRibbonLabel@@QAA@PBGH@Z
??0CMFCRibbonLinkCtrl@@QAA@IPB_W0@Z
??0CMFCRibbonLinkCtrl@@QAA@IPBG0@Z
??0CMFCRibbonMainPanelButton@@QAA@IPB_WH@Z
??0CMFCRibbonMainPanelButton@@QAA@IPB_WPAUHICON__@@@Z
??0CMFCRibbonMainPanelButton@@QAA@IPBGH@Z
??0CMFCRibbonMainPanelButton@@QAA@IPBGPAUHICON__@@@Z
??0CMFCRibbonPanel@@IAA@PB_WPAUHICON__@@@Z
??0CMFCRibbonPanel@@IAA@PBGPAUHICON__@@@Z
??0CMFCRibbonStatusBarPane@@QAA@IPB_WHPAUHICON__@@0H@Z
??0CMFCRibbonStatusBarPane@@QAA@IPB_WIHKPAUHICON__@@HH@Z
??0CMFCRibbonStatusBarPane@@QAA@IPB_WPAUHBITMAP__@@HKPAUHICON__@@HH@Z
??0CMFCRibbonStatusBarPane@@QAA@IPBGHPAUHICON__@@0H@Z
??0CMFCRibbonStatusBarPane@@QAA@IPBGIHKPAUHICON__@@HH@Z
??0CMFCRibbonStatusBarPane@@QAA@IPBGPAUHBITMAP__@@HKPAUHICON__@@HH@Z
??0CMFCRibbonUndoButton@@QAA@IPB_WHH@Z
??0CMFCRibbonUndoButton@@QAA@IPB_WPAUHICON__@@@Z
??0CMFCRibbonUndoButton@@QAA@IPBGHH@Z
??0CMFCRibbonUndoButton@@QAA@IPBGPAUHICON__@@@Z
??0CMFCToolBarButton@@QAA@IHPB_WHH@Z
??0CMFCToolBarButton@@QAA@IHPBGHH@Z
??0CMFCToolBarMenuButton@@QAA@IPAUHMENU__@@HPB_WH@Z
??0CMFCToolBarMenuButton@@QAA@IPAUHMENU__@@HPBGH@Z
??0CMultiPageDHtmlDialog@@QAA@PB_W0PAVCWnd@@@Z
??0CMultiPageDHtmlDialog@@QAA@PBG0PAVCWnd@@@Z
??0CMutex@@QAA@HPB_WPAU_SECURITY_ATTRIBUTES@@@Z
??0CMutex@@QAA@HPBGPAU_SECURITY_ATTRIBUTES@@@Z
??0COleDispatchException@@QAA@PB_WIG@Z
??0COleDispatchException@@QAA@PBGIG@Z
??0COleObjectFactory@@QAA@ABU_GUID@@PAUCRuntimeClass@@HHPB_W@Z
??0COleObjectFactory@@QAA@ABU_GUID@@PAUCRuntimeClass@@HHPBG@Z
??0COleObjectFactory@@QAA@ABU_GUID@@PAUCRuntimeClass@@HPB_W@Z
??0COleObjectFactory@@QAA@ABU_GUID@@PAUCRuntimeClass@@HPBG@Z
??0COleVariant@@QAA@PB_WG@Z
??0COleVariant@@QAA@PBGG@Z
??0CPropertyPage@@QAA@PB_WIIIK@Z
??0CPropertyPage@@QAA@PB_WIK@Z
??0CPropertyPage@@QAA@PBGIIIK@Z
??0CPropertyPage@@QAA@PBGIK@Z
??0CPropertySheet@@QAA@PB_WPAVCWnd@@I@Z
??0CPropertySheet@@QAA@PB_WPAVCWnd@@IPAUHBITMAP__@@PAUHPALETTE__@@2@Z
??0CPropertySheet@@QAA@PBGPAVCWnd@@I@Z
??0CPropertySheet@@QAA@PBGPAVCWnd@@IPAUHBITMAP__@@PAUHPALETTE__@@2@Z
??0CRecentFileList@@QAA@IPB_W0HH@Z
??0CRecentFileList@@QAA@IPBG0HH@Z
??0CRecordView@@IAA@PB_W@Z
??0CRecordView@@IAA@PBG@Z
??0CSemaphore@@QAA@JJPB_WPAU_SECURITY_ATTRIBUTES@@@Z
??0CSemaphore@@QAA@JJPBGPAU_SECURITY_ATTRIBUTES@@@Z
??0CStdioFile@@QAA@PB_WI@Z
??0CStdioFile@@QAA@PB_WIPAVCAtlTransactionManager@ATL@@@Z
??0CStdioFile@@QAA@PBGI@Z
??0CStdioFile@@QAA@PBGIPAVCAtlTransactionManager@ATL@@@Z
??0CSyncObject@@QAA@PB_W@Z
??0CSyncObject@@QAA@PBG@Z
??0CTagManager@@QAA@PB_W@Z
??0CTagManager@@QAA@PBG@Z
??0CTaskDialog@@QAA@ABV?$CStringT@_WV?$StrTraitMFC_DLL@_WV?$ChTraitsCRT@_W@ATL@@@@@ATL@@00HH0@Z
??0CTaskDialog@@QAA@ABV?$CStringT@_WV?$StrTraitMFC_DLL@_WV?$ChTraitsCRT@_W@ATL@@@@@ATL@@00HHHH0@Z
??0CTaskDialog@@QAA@ABV?$CStringT@GV?$StrTraitMFC_DLL@GV?$ChTraitsCRT@G@ATL@@@@@ATL@@00HH0@Z
??0CTaskDialog@@QAA@ABV?$CStringT@GV?$StrTraitMFC_DLL@GV?$ChTraitsCRT@G@ATL@@@@@ATL@@00HHHH0@Z
??0CWinApp@@QAA@PB_W@Z
??0CWinApp@@QAA@PBG@Z
??1?$CSimpleStringT@_W$00@ATL@@QAA@XZ
??1?$CSimpleStringT@G$00@ATL@@QAA@XZ
??1?$CStringT@_WV?$StrTraitMFC_DLL@_WV?$ChTraitsCRT@_W@ATL@@@@@ATL@@QAA@XZ
??1?$CStringT@GV?$StrTraitMFC_DLL@GV?$ChTraitsCRT@G@ATL@@@@@ATL@@QAA@XZ
??4?$CSimpleStringT@_W$00@ATL@@QAAAAV01@ABV?$CSimpleStringT@_W$0A@@1@@Z
??4?$CSimpleStringT@_W$00@ATL@@QAAAAV01@ABV01@@Z
??4?$CSimpleStringT@_W$00@ATL@@QAAAAV01@PB_W@Z
??4?$CSimpleStringT@G$00@ATL@@QAAAAV01@ABV?$CSimpleStringT@G$0A@@1@@Z
??4?$CSimpleStringT@G$00@ATL@@QAAAAV01@ABV01@@Z
??4?$CSimpleStringT@G$00@ATL@@QAAAAV01@PBG@Z
??4?$CStringT@_WV?$StrTraitMFC_DLL@_WV?$ChTraitsCRT@_W@ATL@@@@@ATL@@QAAAAV01@_W@Z
??4?$CStringT@_WV?$StrTraitMFC_DLL@_WV?$ChTraitsCRT@_W@ATL@@@@@ATL@@QAAAAV01@ABUtagVARIANT@@@Z
??4?$CStringT@_WV?$StrTraitMFC_DLL@_WV?$ChTraitsCRT@_W@ATL@@@@@ATL@@QAAAAV01@ABV01@@Z
??4?$CStringT@_WV?$StrTraitMFC_DLL@_WV?$ChTraitsCRT@_W@ATL@@@@@ATL@@QAAAAV01@D@Z
??4?$CStringT@_WV?$StrTraitMFC_DLL@_WV?$ChTraitsCRT@_W@ATL@@@@@ATL@@QAAAAV01@PB_W@Z
??4?$CStringT@_WV?$StrTraitMFC_DLL@_WV?$ChTraitsCRT@_W@ATL@@@@@ATL@@QAAAAV01@PBD@Z
??4?$CStringT@_WV?$StrTraitMFC_DLL@_WV?$ChTraitsCRT@_W@ATL@@@@@ATL@@QAAAAV01@PBE@Z
??4?$CStringT@DV?$StrTraitMFC_DLL@DV?$ChTraitsCRT@D@ATL@@@@@ATL@@QAAAAV01@_W@Z
??4?$CStringT@DV?$StrTraitMFC_DLL@DV?$ChTraitsCRT@D@ATL@@@@@ATL@@QAAAAV01@G@Z
??4?$CStringT@DV?$StrTraitMFC_DLL@DV?$ChTraitsCRT@D@ATL@@@@@ATL@@QAAAAV01@PB_W@Z
??4?$CStringT@DV?$StrTraitMFC_DLL@DV?$ChTraitsCRT@D@ATL@@@@@ATL@@QAAAAV01@PBG@Z
??4?$CStringT@GV?$StrTraitMFC_DLL@GV?$ChTraitsCRT@G@ATL@@@@@ATL@@QAAAAV01@ABUtagVARIANT@@@Z
??4?$CStringT@GV?$StrTraitMFC_DLL@GV?$ChTraitsCRT@G@ATL@@@@@ATL@@QAAAAV01@ABV01@@Z
??4?$CStringT@GV?$StrTraitMFC_DLL@GV?$ChTraitsCRT@G@ATL@@@@@ATL@@QAAAAV01@D@Z
??4?$CStringT@GV?$StrTraitMFC_DLL@GV?$ChTraitsCRT@G@ATL@@@@@ATL@@QAAAAV01@G@Z
??4?$CStringT@GV?$StrTraitMFC_DLL@GV?$ChTraitsCRT@G@ATL@@@@@ATL@@QAAAAV01@PBD@Z
??4?$CStringT@GV?$StrTraitMFC_DLL@GV?$ChTraitsCRT@G@ATL@@@@@ATL@@QAAAAV01@PBE@Z
??4?$CStringT@GV?$StrTraitMFC_DLL@GV?$ChTraitsCRT@G@ATL@@@@@ATL@@QAAAAV01@PBG@Z
??4COleVariant@@QAAABV0@ABV?$CStringT@_WV?$StrTraitMFC_DLL@_WV?$ChTraitsCRT@_W@ATL@@@@@ATL@@@Z
??4COleVariant@@QAAABV0@ABV?$CStringT@GV?$StrTraitMFC_DLL@GV?$ChTraitsCRT@G@ATL@@@@@ATL@@@Z
??4COleVariant@@QAAABV0@QB_W@Z
??4COleVariant@@QAAABV0@QBG@Z
??6CDumpContext@@QAAAAV0@PB_W@Z
??6CDumpContext@@QAAAAV0@PBG@Z
??A?$CSimpleStringT@_W$00@ATL@@QBA_WH@Z
??A?$CSimpleStringT@G$00@ATL@@QBAGH@Z
??ACMapStringToOb@@QAAAAPAVCObject@@PB_W@Z
??ACMapStringToOb@@QAAAAPAVCObject@@PBG@Z
??ACMapStringToPtr@@QAAAAPAXPB_W@Z
??ACMapStringToPtr@@QAAAAPAXPBG@Z
??ACMapStringToString@@QAAAAV?$CStringT@_WV?$StrTraitMFC_DLL@_WV?$ChTraitsCRT@_W@ATL@@@@@ATL@@PB_W@Z
??ACMapStringToString@@QAAAAV?$CStringT@GV?$StrTraitMFC_DLL@GV?$ChTraitsCRT@G@ATL@@@@@ATL@@PBG@Z
??B?$CSimpleStringT@_W$00@ATL@@QAAAAV?$CSimpleStringT@_W$0A@@1@XZ
??B?$CSimpleStringT@_W$00@ATL@@QBAPB_WXZ
??B?$CSimpleStringT@G$00@ATL@@QAAAAV?$CSimpleStringT@G$0A@@1@XZ
??B?$CSimpleStringT@G$00@ATL@@QBAPBGXZ
??B?$CStringT@_WV?$StrTraitMFC_DLL@_WV?$ChTraitsCRT@_W@ATL@@@@@ATL@@QAAAAV?$CSimpleStringT@_W$0A@@1@XZ
??B?$CStringT@GV?$StrTraitMFC_DLL@GV?$ChTraitsCRT@G@ATL@@@@@ATL@@QAAAAV?$CSimpleStringT@G$0A@@1@XZ
??Y?$CSimpleStringT@_W$00@ATL@@QAAAAV01@_W@Z
??Y?$CSimpleStringT@_W$00@ATL@@QAAAAV01@ABV01@@Z
??Y?$CSimpleStringT@_W$00@ATL@@QAAAAV01@D@Z
??Y?$CSimpleStringT@_W$00@ATL@@QAAAAV01@E@Z
??Y?$CSimpleStringT@_W$00@ATL@@QAAAAV01@PB_W@Z
??Y?$CSimpleStringT@D$00@ATL@@QAAAAV01@_W@Z
??Y?$CSimpleStringT@D$00@ATL@@QAAAAV01@G@Z
??Y?$CSimpleStringT@G$00@ATL@@QAAAAV01@ABV01@@Z
??Y?$CSimpleStringT@G$00@ATL@@QAAAAV01@D@Z
??Y?$CSimpleStringT@G$00@ATL@@QAAAAV01@E@Z
??Y?$CSimpleStringT@G$00@ATL@@QAAAAV01@G@Z
??Y?$CSimpleStringT@G$00@ATL@@QAAAAV01@PBG@Z
??Y?$CStringT@_WV?$StrTraitMFC_DLL@_WV?$ChTraitsCRT@_W@ATL@@@@@ATL@@QAAAAV01@_W@Z
??Y?$CStringT@_WV?$StrTraitMFC_DLL@_WV?$ChTraitsCRT@_W@ATL@@@@@ATL@@QAAAAV01@ABUtagVARIANT@@@Z
??Y?$CStringT@_WV?$StrTraitMFC_DLL@_WV?$ChTraitsCRT@_W@ATL@@@@@ATL@@QAAAAV01@ABV?$CSimpleStringT@_W$00@1@@Z
??Y?$CStringT@_WV?$StrTraitMFC_DLL@_WV?$ChTraitsCRT@_W@ATL@@@@@ATL@@QAAAAV01@D@Z
??Y?$CStringT@_WV?$StrTraitMFC_DLL@_WV?$ChTraitsCRT@_W@ATL@@@@@ATL@@QAAAAV01@E@Z
??Y?$CStringT@_WV?$StrTraitMFC_DLL@_WV?$ChTraitsCRT@_W@ATL@@@@@ATL@@QAAAAV01@PB_W@Z
??Y?$CStringT@_WV?$StrTraitMFC_DLL@_WV?$ChTraitsCRT@_W@ATL@@@@@ATL@@QAAAAV01@PBD@Z
??Y?$CStringT@DV?$StrTraitMFC_DLL@DV?$ChTraitsCRT@D@ATL@@@@@ATL@@QAAAAV01@_W@Z
??Y?$CStringT@DV?$StrTraitMFC_DLL@DV?$ChTraitsCRT@D@ATL@@@@@ATL@@QAAAAV01@G@Z
??Y?$CStringT@DV?$StrTraitMFC_DLL@DV?$ChTraitsCRT@D@ATL@@@@@ATL@@QAAAAV01@PB_W@Z
??Y?$CStringT@DV?$StrTraitMFC_DLL@DV?$ChTraitsCRT@D@ATL@@@@@ATL@@QAAAAV01@PBG@Z
??Y?$CStringT@GV?$StrTraitMFC_DLL@GV?$ChTraitsCRT@G@ATL@@@@@ATL@@QAAAAV01@ABUtagVARIANT@@@Z
??Y?$CStringT@GV?$StrTraitMFC_DLL@GV?$ChTraitsCRT@G@ATL@@@@@ATL@@QAAAAV01@ABV?$CSimpleStringT@G$00@1@@Z
??Y?$CStringT@GV?$StrTraitMFC_DLL@GV?$ChTraitsCRT@G@ATL@@@@@ATL@@QAAAAV01@D@Z
??Y?$CStringT@GV?$StrTraitMFC_DLL@GV?$ChTraitsCRT@G@ATL@@@@@ATL@@QAAAAV01@E@Z
??Y?$CStringT@GV?$StrTraitMFC_DLL@GV?$ChTraitsCRT@G@ATL@@@@@ATL@@QAAAAV01@G@Z
??Y?$CStringT@GV?$StrTraitMFC_DLL@GV?$ChTraitsCRT@G@ATL@@@@@ATL@@QAAAAV01@PBD@Z
??Y?$CStringT@GV?$StrTraitMFC_DLL@GV?$ChTraitsCRT@G@ATL@@@@@ATL@@QAAAAV01@PBG@Z
?ActivateAs@COleClientItem@@UAAHPB_WABU_GUID@@1@Z
?ActivateAs@COleClientItem@@UAAHPBGABU_GUID@@1@Z
?ActivateAs@CRichEditCntrItem@@UAAHPB_WABU_GUID@@1@Z
?ActivateAs@CRichEditCntrItem@@UAAHPBGABU_GUID@@1@Z
?Add@CRecentFileList@@QAAXPAUIShellItem@@PB_W@Z
?Add@CRecentFileList@@QAAXPAUIShellItem@@PBG@Z
?Add@CRecentFileList@@QAAXPAUIShellLinkW@@PB_W@Z
?Add@CRecentFileList@@QAAXPAUIShellLinkW@@PBG@Z
?Add@CRecentFileList@@QAAXPFAU_ITEMIDLIST@@PB_W@Z
?Add@CRecentFileList@@QAAXPFAU_ITEMIDLIST@@PBG@Z
?Add@CRecentFileList@@UAAXPB_W@Z
?Add@CRecentFileList@@UAAXPB_W0@Z
?Add@CRecentFileList@@UAAXPBG@Z
?Add@CRecentFileList@@UAAXPBG0@Z
?AddBar@CMFCReBar@@QAAHPAVCWnd@@KKPB_WK@Z
?AddBar@CMFCReBar@@QAAHPAVCWnd@@KKPBGK@Z
?AddBar@CMFCReBar@@QAAHPAVCWnd@@PB_WPAVCBitmap@@K@Z
?AddBar@CMFCReBar@@QAAHPAVCWnd@@PBGPAVCBitmap@@K@Z
?AddBar@CReBar@@QAAHPAVCWnd@@KKPB_WK@Z
?AddBar@CReBar@@QAAHPAVCWnd@@KKPBGK@Z
?AddBar@CReBar@@QAAHPAVCWnd@@PB_WPAVCBitmap@@K@Z
?AddBar@CReBar@@QAAHPAVCWnd@@PBGPAVCBitmap@@K@Z
?AddButton@CMFCOutlookBarPane@@QAAHIPB_WIH@Z
?AddButton@CMFCOutlookBarPane@@QAAHIPBGIH@Z
?AddButton@CMFCOutlookBarPane@@QAAHPAUHBITMAP__@@PB_WIH@Z
?AddButton@CMFCOutlookBarPane@@QAAHPAUHBITMAP__@@PBGIH@Z
?AddButton@CMFCOutlookBarPane@@QAAHPAUHICON__@@PB_WIHH@Z
?AddButton@CMFCOutlookBarPane@@QAAHPAUHICON__@@PBGIHH@Z
?AddButton@CMFCOutlookBarPane@@QAAHPB_W0IH@Z
?AddButton@CMFCOutlookBarPane@@QAAHPBG0IH@Z
?AddButton@CMFCToolBarsCustomizeDialog@@QAAXPB_WABVCMFCToolBarButton@@H@Z
?AddButton@CMFCToolBarsCustomizeDialog@@QAAXPBGABVCMFCToolBarButton@@H@Z
?AddButton@CVSListBoxBase@@QAAHIPB_WGEI@Z
?AddButton@CVSListBoxBase@@QAAHIPBGGEI@Z
?AddCategory@CMFCRibbonBar@@QAAPAVCMFCRibbonCategory@@PB_WIIVCSize@@1HPAUCRuntimeClass@@@Z
?AddCategory@CMFCRibbonBar@@QAAPAVCMFCRibbonCategory@@PBGIIVCSize@@1HPAUCRuntimeClass@@@Z
?AddCheckButton@CFileDialog@@QAAJKABV?$CStringT@_WV?$StrTraitMFC_DLL@_WV?$ChTraitsCRT@_W@ATL@@@@@ATL@@H@Z
?AddCheckButton@CFileDialog@@QAAJKABV?$CStringT@GV?$StrTraitMFC_DLL@GV?$ChTraitsCRT@G@ATL@@@@@ATL@@H@Z
?AddColorsGroup@CMFCRibbonColorButton@@QAAXPB_WABV?$CList@KK@@H@Z
?AddColorsGroup@CMFCRibbonColorButton@@QAAXPBGABV?$CList@KK@@H@Z
?AddCommandControl@CTaskDialog@@QAAXHABV?$CStringT@_WV?$StrTraitMFC_DLL@_WV?$ChTraitsCRT@_W@ATL@@@@@ATL@@HH@Z
?AddCommandControl@CTaskDialog@@QAAXHABV?$CStringT@GV?$StrTraitMFC_DLL@GV?$ChTraitsCRT@G@ATL@@@@@ATL@@HH@Z
?AddContextCategory@CMFCRibbonBar@@QAAPAVCMFCRibbonCategory@@PB_W0IW4AFX_RibbonCategoryColor@@IIVCSize@@2PAUCRuntimeClass@@@Z
?AddContextCategory@CMFCRibbonBar@@QAAPAVCMFCRibbonCategory@@PBG0IW4AFX_RibbonCategoryColor@@IIVCSize@@2PAUCRuntimeClass@@@Z
?AddControl@CMFCOutlookBarTabCtrl@@QAAXPAVCWnd@@PB_WHHK@Z
?AddControl@CMFCOutlookBarTabCtrl@@QAAXPAVCWnd@@PBGHHK@Z
?AddControlItem@CFileDialog@@QAAJKKABV?$CStringT@_WV?$StrTraitMFC_DLL@_WV?$ChTraitsCRT@_W@ATL@@@@@ATL@@@Z
?AddControlItem@CFileDialog@@QAAJKKABV?$CStringT@GV?$StrTraitMFC_DLL@GV?$ChTraitsCRT@G@ATL@@@@@ATL@@@Z
?AddCustomCategory@CMFCRibbonCustomizePropertyPage@@QAAXPB_WABV?$CList@II@@@Z
?AddCustomCategory@CMFCRibbonCustomizePropertyPage@@QAAXPBGABV?$CList@II@@@Z
?AddDestination@CJumpList@@QAAHPB_W0@Z
?AddDestination@CJumpList@@QAAHPB_WPAUIShellItem@@@Z
?AddDestination@CJumpList@@QAAHPB_WPAUIShellLinkW@@@Z
?AddDestination@CJumpList@@QAAHPBG0@Z
?AddDestination@CJumpList@@QAAHPBGPAUIShellItem@@@Z
?AddDestination@CJumpList@@QAAHPBGPAUIShellLinkW@@@Z
?AddEditBox@CFileDialog@@QAAJKABV?$CStringT@_WV?$StrTraitMFC_DLL@_WV?$ChTraitsCRT@_W@ATL@@@@@ATL@@@Z
?AddEditBox@CFileDialog@@QAAJKABV?$CStringT@GV?$StrTraitMFC_DLL@GV?$ChTraitsCRT@G@ATL@@@@@ATL@@@Z
?AddElement@CMFCRibbonStatusBar@@QAAXPAVCMFCRibbonBaseElement@@PB_WH@Z
?AddElement@CMFCRibbonStatusBar@@QAAXPAVCMFCRibbonBaseElement@@PBGH@Z
?AddExtendedElement@CMFCRibbonStatusBar@@QAAXPAVCMFCRibbonBaseElement@@PB_WH@Z
?AddExtendedElement@CMFCRibbonStatusBar@@QAAXPAVCMFCRibbonBaseElement@@PBGH@Z
?AddFont@CMFCToolBarFontComboBox@@MAAHPAUtagENUMLOGFONTW@@HPB_W@Z
?AddFont@CMFCToolBarFontComboBox@@MAAHPAUtagENUMLOGFONTW@@HPBG@Z
?AddFormat@COlePasteSpecialDialog@@QAAXABUtagFORMATETC@@PA_W1K@Z
?AddFormat@COlePasteSpecialDialog@@QAAXABUtagFORMATETC@@PAG1K@Z
?AddGroup@CMFCRibbonGallery@@QAAXPB_WAAVCMFCToolBarImages@@@Z
?AddGroup@CMFCRibbonGallery@@QAAXPB_WH@Z
?AddGroup@CMFCRibbonGallery@@QAAXPB_WIH@Z
?AddGroup@CMFCRibbonGallery@@QAAXPBGAAVCMFCToolBarImages@@@Z
?AddGroup@CMFCRibbonGallery@@QAAXPBGH@Z
?AddGroup@CMFCRibbonGallery@@QAAXPBGIH@Z
?AddGroup@CMFCTasksPane@@QAAHHPB_WHHPAUHICON__@@@Z
?AddGroup@CMFCTasksPane@@QAAHHPBGHHPAUHICON__@@@Z
?AddHead@CStringList@@QAAPAU__POSITION@@ABV?$CStringT@_WV?$StrTraitMFC_DLL@_WV?$ChTraitsCRT@_W@ATL@@@@@ATL@@@Z
?AddHead@CStringList@@QAAPAU__POSITION@@ABV?$CStringT@GV?$StrTraitMFC_DLL@GV?$ChTraitsCRT@G@ATL@@@@@ATL@@@Z
?AddHead@CStringList@@QAAPAU__POSITION@@PB_W@Z
?AddHead@CStringList@@QAAPAU__POSITION@@PBG@Z
?AddItem@CMFCRibbonComboBox@@UAAHPB_WK@Z
?AddItem@CMFCRibbonComboBox@@UAAHPBGK@Z
?AddItem@CMFCToolBarComboBoxButton@@UAAHPB_WK@Z
?AddItem@CMFCToolBarComboBoxButton@@UAAHPBGK@Z
?AddItem@CVSListBox@@UAAHABV?$CStringT@_WV?$StrTraitMFC_DLL@_WV?$ChTraitsCRT@_W@ATL@@@@@ATL@@KH@Z
?AddItem@CVSListBox@@UAAHABV?$CStringT@GV?$StrTraitMFC_DLL@GV?$ChTraitsCRT@G@ATL@@@@@ATL@@KH@Z
?AddMainCategory@CMFCRibbonBar@@QAAPAVCMFCRibbonMainPanel@@PB_WIIVCSize@@1PAUCRuntimeClass@@@Z
?AddMainCategory@CMFCRibbonBar@@QAAPAVCMFCRibbonMainPanel@@PBGIIVCSize@@1PAUCRuntimeClass@@@Z
?AddMenu@CContextMenuManager@@QAAHPB_WI@Z
?AddMenu@CContextMenuManager@@QAAHPBGI@Z
?AddMenu@CFileDialog@@QAAJKABV?$CStringT@_WV?$StrTraitMFC_DLL@_WV?$ChTraitsCRT@_W@ATL@@@@@ATL@@@Z
?AddMenu@CFileDialog@@QAAJKABV?$CStringT@GV?$StrTraitMFC_DLL@GV?$ChTraitsCRT@G@ATL@@@@@ATL@@@Z
?AddMenuCommands@CMFCToolBarsCustomizeDialog@@QAAXPBVCMenu@@HPB_W1@Z
?AddMenuCommands@CMFCToolBarsCustomizeDialog@@QAAXPBVCMenu@@HPBG1@Z
?AddOption@CMFCPropertyGridProperty@@QAAHPB_WH@Z
?AddOption@CMFCPropertyGridProperty@@QAAHPBGH@Z
?AddPage@CMFCTasksPane@@QAAHPB_W@Z
?AddPage@CMFCTasksPane@@QAAHPBG@Z
?AddPanel@CMFCRibbonCategory@@QAAPAVCMFCRibbonPanel@@PB_WPAUHICON__@@PAUCRuntimeClass@@@Z
?AddPanel@CMFCRibbonCategory@@QAAPAVCMFCRibbonPanel@@PBGPAUHICON__@@PAUCRuntimeClass@@@Z
?AddPlace@CFileDialog@@QAAXPB_WW4FDAP@@@Z
?AddPlace@CFileDialog@@QAAXPBGW4FDAP@@@Z
?AddPushButton@CFileDialog@@QAAJKABV?$CStringT@_WV?$StrTraitMFC_DLL@_WV?$ChTraitsCRT@_W@ATL@@@@@ATL@@@Z
?AddPushButton@CFileDialog@@QAAJKABV?$CStringT@GV?$StrTraitMFC_DLL@GV?$ChTraitsCRT@G@ATL@@@@@ATL@@@Z
?AddQATOnlyCategory@CMFCRibbonBar@@QAAPAVCMFCRibbonCategory@@PB_WIVCSize@@@Z
?AddQATOnlyCategory@CMFCRibbonBar@@QAAPAVCMFCRibbonCategory@@PBGIVCSize@@@Z
?AddRadioButton@CTaskDialog@@QAAXHABV?$CStringT@_WV?$StrTraitMFC_DLL@_WV?$ChTraitsCRT@_W@ATL@@@@@ATL@@H@Z
?AddRadioButton@CTaskDialog@@QAAXHABV?$CStringT@GV?$StrTraitMFC_DLL@GV?$ChTraitsCRT@G@ATL@@@@@ATL@@H@Z
?AddRecentFilesList@CMFCRibbonMainPanel@@QAAXPB_WH@Z
?AddRecentFilesList@CMFCRibbonMainPanel@@QAAXPBGH@Z
?AddRequestHeaders@CHttpFile@@QAAHAAV?$CStringT@_WV?$StrTraitMFC_DLL@_WV?$ChTraitsCRT@_W@ATL@@@@@ATL@@K@Z
?AddRequestHeaders@CHttpFile@@QAAHAAV?$CStringT@GV?$StrTraitMFC_DLL@GV?$ChTraitsCRT@G@ATL@@@@@ATL@@K@Z
?AddRequestHeaders@CHttpFile@@QAAHPB_WKH@Z
?AddRequestHeaders@CHttpFile@@QAAHPBGKH@Z
?AddSortedItem@CMFCToolBarComboBoxButton@@UAAHPB_WK@Z
?AddSortedItem@CMFCToolBarComboBoxButton@@UAAHPBGK@Z
?AddString@CMFCDropDownListBox@@QAAXPB_W@Z
?AddString@CMFCDropDownListBox@@QAAXPBG@Z
?AddTab@CMFCBaseTabCtrl@@UAAXPAVCWnd@@PB_WIH@Z
?AddTab@CMFCBaseTabCtrl@@UAAXPAVCWnd@@PBGIH@Z
?AddTail@CStringList@@QAAPAU__POSITION@@ABV?$CStringT@_WV?$StrTraitMFC_DLL@_WV?$ChTraitsCRT@_W@ATL@@@@@ATL@@@Z
?AddTail@CStringList@@QAAPAU__POSITION@@ABV?$CStringT@GV?$StrTraitMFC_DLL@GV?$ChTraitsCRT@G@ATL@@@@@ATL@@@Z
?AddTail@CStringList@@QAAPAU__POSITION@@PB_W@Z
?AddTail@CStringList@@QAAPAU__POSITION@@PBG@Z
?AddTask@CJumpList@@QAAHPB_W000H@Z
?AddTask@CJumpList@@QAAHPBG000H@Z
?AddTask@CMFCTasksPane@@QAAHHPB_WHIK@Z
?AddTask@CMFCTasksPane@@QAAHHPBGHIK@Z
?AddText@CFileDialog@@QAAJKABV?$CStringT@_WV?$StrTraitMFC_DLL@_WV?$ChTraitsCRT@_W@ATL@@@@@ATL@@@Z
?AddText@CFileDialog@@QAAJKABV?$CStringT@GV?$StrTraitMFC_DLL@GV?$ChTraitsCRT@G@ATL@@@@@ATL@@@Z
?AddTool@CToolTipCtrl@@QAAHPAVCWnd@@PB_WPBUtagRECT@@I@Z
?AddTool@CToolTipCtrl@@QAAHPAVCWnd@@PBGPBUtagRECT@@I@Z
?AddToolBar@CMFCToolBarsCustomizeDialog@@QAAHPB_WI@Z
?AddToolBar@CMFCToolBarsCustomizeDialog@@QAAHPBGI@Z
?AddToRecentFileList@CWinApp@@UAAXPB_W@Z
?AddToRecentFileList@CWinApp@@UAAXPBG@Z
?AddTreeCategory@CMFCPropertySheet@@QAAPAVCMFCPropertySheetCategoryInfo@@PB_WHHPBV2@@Z
?AddTreeCategory@CMFCPropertySheet@@QAAPAVCMFCPropertySheetCategoryInfo@@PBGHHPBV2@@Z
?AddUndoAction@CMFCRibbonUndoButton@@QAAXPB_W@Z
?AddUndoAction@CMFCRibbonUndoButton@@QAAXPBG@Z
?AddUserTools@CMFCToolBarsCustomizeDialog@@IAAXPB_W@Z
?AddUserTools@CMFCToolBarsCustomizeDialog@@IAAXPBG@Z
?AddView@CMouseManager@@QAAHHPB_WI@Z
?AddView@CMouseManager@@QAAHHPBGI@Z
?AddView@CTabView@@QAAHPAUCRuntimeClass@@ABV?$CStringT@_WV?$StrTraitMFC_DLL@_WV?$ChTraitsCRT@_W@ATL@@@@@ATL@@HPAUCCreateContext@@@Z
?AddView@CTabView@@QAAHPAUCRuntimeClass@@ABV?$CStringT@GV?$StrTraitMFC_DLL@GV?$ChTraitsCRT@G@ATL@@@@@ATL@@HPAUCCreateContext@@@Z
?AddVirtKeyStr@CMFCAcceleratorKey@@IBAXAAV?$CStringT@_WV?$StrTraitMFC_DLL@_WV?$ChTraitsCRT@_W@ATL@@@@@ATL@@IH@Z
?AddVirtKeyStr@CMFCAcceleratorKey@@IBAXAAV?$CStringT@GV?$StrTraitMFC_DLL@GV?$ChTraitsCRT@G@ATL@@@@@ATL@@IH@Z
?AfxA2WHelper@@YAPA_WPA_WPBDH@Z
?AfxA2WHelper@@YAPAGPAGPBDH@Z
?AfxBSTR2CString@@YAXPAV?$CStringT@_WV?$StrTraitMFC_DLL@_WV?$ChTraitsCRT@_W@ATL@@@@@ATL@@PA_W@Z
?AfxBSTR2CString@@YAXPAV?$CStringT@GV?$StrTraitMFC_DLL@GV?$ChTraitsCRT@G@ATL@@@@@ATL@@PAG@Z
?AfxComparePath@@YAHPB_W0@Z
?AfxComparePath@@YAHPBG0@Z
?AfxDelRegTreeHelper@@YAJPAUHKEY__@@ABV?$CStringT@_WV?$StrTraitMFC_DLL@_WV?$ChTraitsCRT@_W@ATL@@@@@ATL@@PAVCAtlTransactionManager@3@@Z
?AfxDelRegTreeHelper@@YAJPAUHKEY__@@ABV?$CStringT@GV?$StrTraitMFC_DLL@GV?$ChTraitsCRT@G@ATL@@@@@ATL@@PAVCAtlTransactionManager@3@@Z
?AfxDoRegisterMFCControlClass@@YAXPB_W0@Z
?AfxDoRegisterMFCControlClass@@YAXPBG0@Z
?AfxExtractSubString@@YAHAAV?$CStringT@_WV?$StrTraitMFC_DLL@_WV?$ChTraitsCRT@_W@ATL@@@@@ATL@@PB_WH_W@Z
?AfxExtractSubString@@YAHAAV?$CStringT@GV?$StrTraitMFC_DLL@GV?$ChTraitsCRT@G@ATL@@@@@ATL@@PBGHG@Z
?AfxFindResourceHandle@@YAPAUHINSTANCE__@@PB_W0@Z
?AfxFindResourceHandle@@YAPAUHINSTANCE__@@PBG0@Z
?AfxFormatString1@@YAXAAV?$CStringT@_WV?$StrTraitMFC_DLL@_WV?$ChTraitsCRT@_W@ATL@@@@@ATL@@IPB_W@Z
?AfxFormatString1@@YAXAAV?$CStringT@GV?$StrTraitMFC_DLL@GV?$ChTraitsCRT@G@ATL@@@@@ATL@@IPBG@Z
?AfxFormatString2@@YAXAAV?$CStringT@_WV?$StrTraitMFC_DLL@_WV?$ChTraitsCRT@_W@ATL@@@@@ATL@@IPB_W1@Z
?AfxFormatString2@@YAXAAV?$CStringT@GV?$StrTraitMFC_DLL@GV?$ChTraitsCRT@G@ATL@@@@@ATL@@IPBG1@Z
?AfxFormatStrings@@YAXAAV?$CStringT@_WV?$StrTraitMFC_DLL@_WV?$ChTraitsCRT@_W@ATL@@@@@ATL@@IPBQB_WH@Z
?AfxFormatStrings@@YAXAAV?$CStringT@_WV?$StrTraitMFC_DLL@_WV?$ChTraitsCRT@_W@ATL@@@@@ATL@@PB_WPBQB_WH@Z
?AfxFormatStrings@@YAXAAV?$CStringT@GV?$StrTraitMFC_DLL@GV?$ChTraitsCRT@G@ATL@@@@@ATL@@IPBQBGH@Z
?AfxFormatStrings@@YAXAAV?$CStringT@GV?$StrTraitMFC_DLL@GV?$ChTraitsCRT@G@ATL@@@@@ATL@@PBGPBQBGH@Z
?AfxFullPath@@YAHPA_WPB_W@Z
?AfxFullPath@@YAHPAGPBG@Z
?AfxGetClassIDFromString@@YAJPB_WPAU_GUID@@@Z
?AfxGetClassIDFromString@@YAJPBGPAU_GUID@@@Z
?AfxGetFileName@@YAIPB_WPA_WI@Z
?AfxGetFileName@@YAIPBGPAGI@Z
?AfxGetFileTitle@@YAIPB_WPA_WI@Z
?AfxGetFileTitle@@YAIPBGPAGI@Z
?AfxGetInProcServer@@YAHPB_WAAV?$CStringT@_WV?$StrTraitMFC_DLL@_WV?$ChTraitsCRT@_W@ATL@@@@@ATL@@@Z
?AfxGetInProcServer@@YAHPBGAAV?$CStringT@GV?$StrTraitMFC_DLL@GV?$ChTraitsCRT@G@ATL@@@@@ATL@@@Z
?AfxGetModuleFileName@@YAXPAUHINSTANCE__@@AAV?$CStringT@_WV?$StrTraitMFC_DLL@_WV?$ChTraitsCRT@_W@ATL@@@@@ATL@@@Z
?AfxGetModuleFileName@@YAXPAUHINSTANCE__@@AAV?$CStringT@GV?$StrTraitMFC_DLL@GV?$ChTraitsCRT@G@ATL@@@@@ATL@@@Z
?AfxGetModuleShortFileName@@YAXPAUHINSTANCE__@@AAV?$CStringT@_WV?$StrTraitMFC_DLL@_WV?$ChTraitsCRT@_W@ATL@@@@@ATL@@@Z
?AfxGetModuleShortFileName@@YAXPAUHINSTANCE__@@AAV?$CStringT@GV?$StrTraitMFC_DLL@GV?$ChTraitsCRT@G@ATL@@@@@ATL@@@Z
?AfxGetPropSheetFont@@YAHAAV?$CStringT@_WV?$StrTraitMFC_DLL@_WV?$ChTraitsCRT@_W@ATL@@@@@ATL@@AAGH@Z
?AfxGetPropSheetFont@@YAHAAV?$CStringT@GV?$StrTraitMFC_DLL@GV?$ChTraitsCRT@G@ATL@@@@@ATL@@AAGH@Z
?AFXGetRegPath@@YA?AV?$CStringT@_WV?$StrTraitMFC_DLL@_WV?$ChTraitsCRT@_W@ATL@@@@@ATL@@PB_W0@Z
?AFXGetRegPath@@YA?AV?$CStringT@GV?$StrTraitMFC_DLL@GV?$ChTraitsCRT@G@ATL@@@@@ATL@@PBG0@Z
?AfxGetRoot@@YAXPB_WAAV?$CStringT@_WV?$StrTraitMFC_DLL@_WV?$ChTraitsCRT@_W@ATL@@@@@ATL@@@Z
?AfxGetRoot@@YAXPBGAAV?$CStringT@GV?$StrTraitMFC_DLL@GV?$ChTraitsCRT@G@ATL@@@@@ATL@@@Z
?AfxHtmlHelp@@YAPAUHWND__@@PAU1@PB_WIK@Z
?AfxHtmlHelp@@YAPAUHWND__@@PAU1@PBGIK@Z
?AfxIsValidAtom@@YAHPB_W@Z
?AfxIsValidAtom@@YAHPBG@Z
?AfxIsValidString@@YAHPB_WH@Z
?AfxIsValidString@@YAHPBGH@Z
?AfxLoadLangResourceDLL@@YAPAUHINSTANCE__@@PB_W@Z
?AfxLoadLangResourceDLL@@YAPAUHINSTANCE__@@PB_W0@Z
?AfxLoadLangResourceDLL@@YAPAUHINSTANCE__@@PBG@Z
?AfxLoadLangResourceDLL@@YAPAUHINSTANCE__@@PBG0@Z
?AfxLoadLibrary@@YAPAUHINSTANCE__@@PB_W@Z
?AfxLoadLibrary@@YAPAUHINSTANCE__@@PBG@Z
?AfxLoadLibraryEx@@YAPAUHINSTANCE__@@PB_WPAXK@Z
?AfxLoadLibraryEx@@YAPAUHINSTANCE__@@PBGPAXK@Z
?AfxLoadString@@YAHIPA_WI@Z
?AfxLoadString@@YAHIPAGI@Z
?AfxMessageBox@@YAHPB_WII@Z
?AfxMessageBox@@YAHPBGII@Z
?AfxOleLockControl@@YAHPB_W@Z
?AfxOleLockControl@@YAHPBG@Z
?AfxOleRegisterControlClass@@YAHPAUHINSTANCE__@@ABU_GUID@@PB_WIIHK1GG@Z
?AfxOleRegisterControlClass@@YAHPAUHINSTANCE__@@ABU_GUID@@PBGIIHK1GG@Z
?AfxOleRegisterHelper@@YAHPBQB_W0HHPAUHKEY__@@@Z
?AfxOleRegisterHelper@@YAHPBQBG0HHPAUHKEY__@@@Z
?AfxOleRegisterServerClass@@YAHABU_GUID@@PB_W11W4OLE_APPTYPE@@PAPB_W3H1@Z
?AfxOleRegisterServerClass@@YAHABU_GUID@@PB_W11W4OLE_APPTYPE@@PAPB_W3H11@Z
?AfxOleRegisterServerClass@@YAHABU_GUID@@PBG11W4OLE_APPTYPE@@PAPBG3H1@Z
?AfxOleRegisterServerClass@@YAHABU_GUID@@PBG11W4OLE_APPTYPE@@PAPBG3H11@Z
?AfxOleRegisterTypeLib@@YAHPAUHINSTANCE__@@ABU_GUID@@PB_W2@Z
?AfxOleRegisterTypeLib@@YAHPAUHINSTANCE__@@ABU_GUID@@PBG2@Z
?AfxOleUnlockControl@@YAHPB_W@Z
?AfxOleUnlockControl@@YAHPBG@Z
?AfxOleUnregisterClass@@YAHABU_GUID@@PB_W@Z
?AfxOleUnregisterClass@@YAHABU_GUID@@PBG@Z
?AfxOleUnregisterHelper@@YAHPBQB_W0HPAUHKEY__@@@Z
?AfxOleUnregisterHelper@@YAHPBQBG0HPAUHKEY__@@@Z
?AfxOleUnregisterServerClass@@YAHABU_GUID@@PB_W11W4OLE_APPTYPE@@PAPB_W3@Z
?AfxOleUnregisterServerClass@@YAHABU_GUID@@PBG11W4OLE_APPTYPE@@PAPBG3@Z
?AfxParseURL@@YAHPB_WAAKAAV?$CStringT@_WV?$StrTraitMFC_DLL@_WV?$ChTraitsCRT@_W@ATL@@@@@ATL@@2AAG@Z
?AfxParseURL@@YAHPBGAAKAAV?$CStringT@GV?$StrTraitMFC_DLL@GV?$ChTraitsCRT@G@ATL@@@@@ATL@@2AAG@Z
?AfxParseURLEx@@YAHPB_WAAKAAV?$CStringT@_WV?$StrTraitMFC_DLL@_WV?$ChTraitsCRT@_W@ATL@@@@@ATL@@2AAG22K@Z
?AfxParseURLEx@@YAHPBGAAKAAV?$CStringT@GV?$StrTraitMFC_DLL@GV?$ChTraitsCRT@G@ATL@@@@@ATL@@2AAG22K@Z
?AfxRegCreateKey@@YAJPAUHKEY__@@PB_WPAPAU1@PAVCAtlTransactionManager@ATL@@@Z
?AfxRegCreateKey@@YAJPAUHKEY__@@PBGPAPAU1@PAVCAtlTransactionManager@ATL@@@Z
?AfxRegDeleteKey@@YAJPAUHKEY__@@PB_WPAVCAtlTransactionManager@ATL@@@Z
?AfxRegDeleteKey@@YAJPAUHKEY__@@PBGPAVCAtlTransactionManager@ATL@@@Z
?AfxRegisterPreviewHandler@@YAHPB_W00@Z
?AfxRegisterPreviewHandler@@YAHPBG00@Z
?AfxRegisterThumbnailHandler@@YAHPB_W0K@Z
?AfxRegisterThumbnailHandler@@YAHPBG0K@Z
?AfxRegisterWndClass@@YAPB_WIPAUHICON__@@PAUHBRUSH__@@0@Z
?AfxRegisterWndClass@@YAPBGIPAUHICON__@@PAUHBRUSH__@@0@Z
?AfxRegOpenKey@@YAJPAUHKEY__@@PB_WPAPAU1@PAVCAtlTransactionManager@ATL@@@Z
?AfxRegOpenKey@@YAJPAUHKEY__@@PBGPAPAU1@PAVCAtlTransactionManager@ATL@@@Z
?AfxRegOpenKeyEx@@YAJPAUHKEY__@@PB_WKKPAPAU1@PAVCAtlTransactionManager@ATL@@@Z
?AfxRegOpenKeyEx@@YAJPAUHKEY__@@PBGKKPAPAU1@PAVCAtlTransactionManager@ATL@@@Z
?AfxRegQueryValue@@YAJPAUHKEY__@@PB_WPA_WPAJ@Z
?AfxRegQueryValue@@YAJPAUHKEY__@@PBGPAGPAJ@Z
?AfxRegSetValue@@YAJPAUHKEY__@@PB_WK1K@Z
?AfxRegSetValue@@YAJPAUHKEY__@@PBGK1K@Z
?AfxResolveShortcut@@YAHPAVCWnd@@PB_WPA_WH@Z
?AfxResolveShortcut@@YAHPAVCWnd@@PBGPAGH@Z
?AfxRFXBulkDefault@@YAXPAVCFieldExchange@@PB_WPAXPAJHK@Z
?AfxRFXBulkDefault@@YAXPAVCFieldExchange@@PBGPAXPAJHK@Z
?AfxSetWindowText@@YAXPAUHWND__@@PB_W@Z
?AfxSetWindowText@@YAXPAUHWND__@@PBG@Z
?AfxStringFromCLSID@@YA?AV?$CStringT@_WV?$StrTraitMFC_DLL@_WV?$ChTraitsCRT@_W@ATL@@@@@ATL@@ABU_GUID@@@Z
?AfxStringFromCLSID@@YA?AV?$CStringT@GV?$StrTraitMFC_DLL@GV?$ChTraitsCRT@G@ATL@@@@@ATL@@ABU_GUID@@@Z
?AfxThrowArchiveException@@YAXHPB_W@Z
?AfxThrowArchiveException@@YAXHPBG@Z
?AfxThrowFileException@@YAXHJPB_W@Z
?AfxThrowFileException@@YAXHJPBG@Z
?AfxThrowOleDispatchException@@YAXGPB_WI@Z
?AfxThrowOleDispatchException@@YAXGPBGI@Z
?AfxUnRegisterPreviewHandler@@YAHPB_W@Z
?AfxUnRegisterPreviewHandler@@YAHPBG@Z
?AfxVerifyLicFile@@YAHPAUHINSTANCE__@@PB_W1I@Z
?AfxVerifyLicFile@@YAHPAUHINSTANCE__@@PBG1I@Z
?AfxW2AHelper@@YAPADPADPB_WH@Z
?AfxW2AHelper@@YAPADPADPBGH@Z
?AfxWinInit@@YAHPAUHINSTANCE__@@0PA_WH@Z
?AfxWinInit@@YAHPAUHINSTANCE__@@0PAGH@Z
?AfxWinMain@@YAHPAUHINSTANCE__@@0PA_WH@Z
?AfxWinMain@@YAHPAUHINSTANCE__@@0PAGH@Z
?AllocSysString@?$CStringT@_WV?$StrTraitMFC_DLL@_WV?$ChTraitsCRT@_W@ATL@@@@@ATL@@QBAPA_WXZ
?AllocSysString@?$CStringT@DV?$StrTraitMFC_DLL@DV?$ChTraitsCRT@D@ATL@@@@@ATL@@QBAPA_WXZ
?AllocSysString@?$CStringT@DV?$StrTraitMFC_DLL@DV?$ChTraitsCRT@D@ATL@@@@@ATL@@QBAPAGXZ
?AllocSysString@?$CStringT@GV?$StrTraitMFC_DLL@GV?$ChTraitsCRT@G@ATL@@@@@ATL@@QBAPAGXZ
?AmbientDisplayName@COleControl@@QAA?AV?$CStringT@_WV?$StrTraitMFC_DLL@_WV?$ChTraitsCRT@_W@ATL@@@@@ATL@@XZ
?AmbientDisplayName@COleControl@@QAA?AV?$CStringT@GV?$StrTraitMFC_DLL@GV?$ChTraitsCRT@G@ATL@@@@@ATL@@XZ
?AmbientScaleUnits@COleControl@@QAA?AV?$CStringT@_WV?$StrTraitMFC_DLL@_WV?$ChTraitsCRT@_W@ATL@@@@@ATL@@XZ
?AmbientScaleUnits@COleControl@@QAA?AV?$CStringT@GV?$StrTraitMFC_DLL@GV?$ChTraitsCRT@G@ATL@@@@@ATL@@XZ
?Append@?$CSimpleStringT@_W$00@ATL@@QAAXABV12@@Z
?Append@?$CSimpleStringT@_W$00@ATL@@QAAXPB_W@Z
?Append@?$CSimpleStringT@_W$00@ATL@@QAAXPB_WH@Z
?Append@?$CSimpleStringT@G$00@ATL@@QAAXABV12@@Z
?Append@?$CSimpleStringT@G$00@ATL@@QAAXPBG@Z
?Append@?$CSimpleStringT@G$00@ATL@@QAAXPBGH@Z
?AppendChar@?$CSimpleStringT@_W$00@ATL@@QAAX_W@Z
?AppendChar@?$CSimpleStringT@G$00@ATL@@QAAXG@Z
?AppendFormat@?$CStringT@_WV?$StrTraitMFC_DLL@_WV?$ChTraitsCRT@_W@ATL@@@@@ATL@@QAAXIZZ
?AppendFormat@?$CStringT@_WV?$StrTraitMFC_DLL@_WV?$ChTraitsCRT@_W@ATL@@@@@ATL@@QAAXPB_WZZ
?AppendFormat@?$CStringT@GV?$StrTraitMFC_DLL@GV?$ChTraitsCRT@G@ATL@@@@@ATL@@QAAXIZZ
?AppendFormat@?$CStringT@GV?$StrTraitMFC_DLL@GV?$ChTraitsCRT@G@ATL@@@@@ATL@@QAAXPBGZZ
?AppendFormatV@?$CStringT@_WV?$StrTraitMFC_DLL@_WV?$ChTraitsCRT@_W@ATL@@@@@ATL@@QAAXPB_WPAD@Z
?AppendFormatV@?$CStringT@GV?$StrTraitMFC_DLL@GV?$ChTraitsCRT@G@ATL@@@@@ATL@@QAAXPBGPAD@Z
?AppendNames@CRecordset@@QAAIPAV?$CStringT@_WV?$StrTraitMFC_DLL@_WV?$ChTraitsCRT@_W@ATL@@@@@ATL@@PB_W@Z
?AppendNames@CRecordset@@QAAIPAV?$CStringT@GV?$StrTraitMFC_DLL@GV?$ChTraitsCRT@G@ATL@@@@@ATL@@PBG@Z
?AppendNamesValues@CRecordset@@QAAIPAXPAV?$CStringT@_WV?$StrTraitMFC_DLL@_WV?$ChTraitsCRT@_W@ATL@@@@@ATL@@PB_W@Z
?AppendNamesValues@CRecordset@@QAAIPAXPAV?$CStringT@GV?$StrTraitMFC_DLL@GV?$ChTraitsCRT@G@ATL@@@@@ATL@@PBG@Z
?AppendValues@CRecordset@@QAAIPAXPAV?$CStringT@_WV?$StrTraitMFC_DLL@_WV?$ChTraitsCRT@_W@ATL@@@@@ATL@@PB_W@Z
?AppendValues@CRecordset@@QAAIPAXPAV?$CStringT@GV?$StrTraitMFC_DLL@GV?$ChTraitsCRT@G@ATL@@@@@ATL@@PBG@Z
?Attach@?$CSimpleStringT@_W$00@ATL@@AAAXPAUCStringData@2@@Z
?Attach@?$CSimpleStringT@G$00@ATL@@AAAXPAUCStringData@2@@Z
?Attach@CMonikerFile@@IAAHPB_WPAUIBindHost@@PAUIBindStatusCallback@@PAUIBindCtx@@PAVCFileException@@@Z
?Attach@CMonikerFile@@IAAHPBGPAUIBindHost@@PAUIBindStatusCallback@@PAUIBindCtx@@PAVCFileException@@@Z
?Bind@CAsyncSocket@@QAAHIPB_W@Z
?Bind@CAsyncSocket@@QAAHIPBG@Z
?BindDefaultProperty@COleControlSite@@UAAXJGPB_WPAVCWnd@@@Z
?BindDefaultProperty@COleControlSite@@UAAXJGPBGPAVCWnd@@@Z
?BindDefaultProperty@CWnd@@QAAXJGPB_WPAV1@@Z
?BindDefaultProperty@CWnd@@QAAXJGPBGPAV1@@Z
?BrowseForFolder@CShellManager@@QAAHAAV?$CStringT@_WV?$StrTraitMFC_DLL@_WV?$ChTraitsCRT@_W@ATL@@@@@ATL@@PAVCWnd@@PB_W2IPAH@Z
?BrowseForFolder@CShellManager@@QAAHAAV?$CStringT@GV?$StrTraitMFC_DLL@GV?$ChTraitsCRT@G@ATL@@@@@ATL@@PAVCWnd@@PBG2IPAH@Z
?Build@CMenuTearOffManager@@QAAXIAAV?$CStringT@_WV?$StrTraitMFC_DLL@_WV?$ChTraitsCRT@_W@ATL@@@@@ATL@@@Z
?Build@CMenuTearOffManager@@QAAXIAAV?$CStringT@GV?$StrTraitMFC_DLL@GV?$ChTraitsCRT@G@ATL@@@@@ATL@@@Z
?BuildSQL@CRecordset@@IAAXPB_W@Z
?BuildSQL@CRecordset@@IAAXPBG@Z
?CheckChar@CMFCMaskedEdit@@AAAH_WH@Z
?CheckChar@CMFCMaskedEdit@@AAAHGH@Z
?CheckImplicitLoad@?$CStringT@_WV?$StrTraitMFC_DLL@_WV?$ChTraitsCRT@_W@ATL@@@@@ATL@@AAA_NPBX@Z
?CheckImplicitLoad@?$CStringT@GV?$StrTraitMFC_DLL@GV?$ChTraitsCRT@G@ATL@@@@@ATL@@AAA_NPBX@Z
?CleanState@CWinAppEx@@UAAHPB_W@Z
?CleanState@CWinAppEx@@UAAHPBG@Z
?CloneData@?$CSimpleStringT@_W$00@ATL@@CAPAUCStringData@2@PAU32@@Z
?CloneData@?$CSimpleStringT@G$00@ATL@@CAPAUCStringData@2@PAU32@@Z
?Collate@?$CStringT@_WV?$StrTraitMFC_DLL@_WV?$ChTraitsCRT@_W@ATL@@@@@ATL@@QBAHPB_W@Z
?Collate@?$CStringT@GV?$StrTraitMFC_DLL@GV?$ChTraitsCRT@G@ATL@@@@@ATL@@QBAHPBG@Z
?CollateNoCase@?$CStringT@_WV?$StrTraitMFC_DLL@_WV?$ChTraitsCRT@_W@ATL@@@@@ATL@@QBAHPB_W@Z
?CollateNoCase@?$CStringT@GV?$StrTraitMFC_DLL@GV?$ChTraitsCRT@G@ATL@@@@@ATL@@QBAHPBG@Z
?Command@CFtpConnection@@QAAPAVCInternetFile@@PB_WW4CmdResponseType@1@KK@Z
?Command@CFtpConnection@@QAAPAVCInternetFile@@PBGW4CmdResponseType@1@KK@Z
?CommonConstruct@COleObjectFactory@@IAAXABU_GUID@@PAUCRuntimeClass@@HHPB_W@Z
?CommonConstruct@COleObjectFactory@@IAAXABU_GUID@@PAUCRuntimeClass@@HHPBG@Z
?CommonConstruct@CPropertyPage@@IAAXPB_WI@Z
?CommonConstruct@CPropertyPage@@IAAXPB_WIII@Z
?CommonConstruct@CPropertyPage@@IAAXPBGI@Z
?CommonConstruct@CPropertyPage@@IAAXPBGIII@Z
?CommonInit@CFile@@IAAXPB_WIPAVCAtlTransactionManager@ATL@@@Z
?CommonInit@CFile@@IAAXPBGIPAVCAtlTransactionManager@ATL@@@Z
?CommonInit@CMFCRibbonCategory@@IAAXPAVCMFCRibbonBar@@PB_WIIVCSize@@2@Z
?CommonInit@CMFCRibbonCategory@@IAAXPAVCMFCRibbonBar@@PBGIIVCSize@@2@Z
?CommonInit@CMFCRibbonPanel@@IAAXPB_WPAUHICON__@@@Z
?CommonInit@CMFCRibbonPanel@@IAAXPBGPAUHICON__@@@Z
?CommonInit@CStdioFile@@IAAXPB_WIPAVCAtlTransactionManager@ATL@@@Z
?CommonInit@CStdioFile@@IAAXPBGIPAVCAtlTransactionManager@ATL@@@Z
?Compare@?$CStringT@_WV?$StrTraitMFC_DLL@_WV?$ChTraitsCRT@_W@ATL@@@@@ATL@@QBAHPB_W@Z
?Compare@?$CStringT@GV?$StrTraitMFC_DLL@GV?$ChTraitsCRT@G@ATL@@@@@ATL@@QBAHPBG@Z
?Compare@CMFCToolBarComboBoxButton@@UAAHPB_W0@Z
?Compare@CMFCToolBarComboBoxButton@@UAAHPBG0@Z
?CompareNoCase@?$CStringT@_WV?$StrTraitMFC_DLL@_WV?$ChTraitsCRT@_W@ATL@@@@@ATL@@QBAHPB_W@Z
?CompareNoCase@?$CStringT@GV?$StrTraitMFC_DLL@GV?$ChTraitsCRT@G@ATL@@@@@ATL@@QBAHPBG@Z
?ComputeDeltas@CPreviewDC@@IAA?AVCSize@@AAHPB_WAAIHIPAHHPA_W30@Z
?ComputeDeltas@CPreviewDC@@IAA?AVCSize@@AAHPBGAAIHIPAHHPAG30@Z
?Concatenate@?$CSimpleStringT@_W$00@ATL@@KAXAAV12@PB_WH1H@Z
?Concatenate@?$CSimpleStringT@G$00@ATL@@KAXAAV12@PBGH1H@Z
?Connect@CAsyncSocket@@QAAHPB_WI@Z
?Connect@CAsyncSocket@@QAAHPBGI@Z
?Construct@?$CStringT@_WV?$StrTraitMFC_DLL@_WV?$ChTraitsCRT@_W@ATL@@@@@ATL@@SAXPAV12@@Z
?Construct@?$CStringT@GV?$StrTraitMFC_DLL@GV?$ChTraitsCRT@G@ATL@@@@@ATL@@SAXPAV12@@Z
?Construct@CPropertyPage@@QAAXPB_WI@Z
?Construct@CPropertyPage@@QAAXPB_WIII@Z
?Construct@CPropertyPage@@QAAXPBGI@Z
?Construct@CPropertyPage@@QAAXPBGIII@Z
?Construct@CPropertySheet@@QAAXPB_WPAVCWnd@@I@Z
?Construct@CPropertySheet@@QAAXPB_WPAVCWnd@@IPAUHBITMAP__@@PAUHPALETTE__@@2@Z
?Construct@CPropertySheet@@QAAXPBGPAVCWnd@@I@Z
?Construct@CPropertySheet@@QAAXPBGPAVCWnd@@IPAUHBITMAP__@@PAUHPALETTE__@@2@Z
?CopyChars@?$CSimpleStringT@_W$00@ATL@@SAXPA_WPB_WH@Z
?CopyChars@?$CSimpleStringT@G$00@ATL@@SAXPAGPBGH@Z
?CopyCharsOverlapped@?$CSimpleStringT@_W$00@ATL@@SAXPA_WPB_WH@Z
?CopyCharsOverlapped@?$CSimpleStringT@G$00@ATL@@SAXPAGPBGH@Z
?Create@CAsyncSocket@@QAAHIHJPB_W@Z
?Create@CAsyncSocket@@QAAHIHJPBG@Z
?Create@CButton@@UAAHPB_WKABUtagRECT@@PAVCWnd@@I@Z
?Create@CButton@@UAAHPBGKABUtagRECT@@PAVCWnd@@I@Z
?Create@CControlFrameWnd@@UAAHPB_W@Z
?Create@CControlFrameWnd@@UAAHPBG@Z
?Create@CDialog@@UAAHPB_WPAVCWnd@@@Z
?Create@CDialog@@UAAHPBGPAVCWnd@@@Z
?Create@CDialogBar@@UAAHPAVCWnd@@PB_WII@Z
?Create@CDialogBar@@UAAHPAVCWnd@@PBGII@Z
?Create@CDockablePane@@UAAHPB_WPAVCWnd@@ABUtagRECT@@HIKKKPAUCCreateContext@@@Z
?Create@CDockablePane@@UAAHPB_WPAVCWnd@@VCSize@@HIKKK@Z
?Create@CDockablePane@@UAAHPBGPAVCWnd@@ABUtagRECT@@HIKKKPAUCCreateContext@@@Z
?Create@CDockablePane@@UAAHPBGPAVCWnd@@VCSize@@HIKKK@Z
?Create@CFindReplaceDialog@@UAAHHPB_W0KPAVCWnd@@@Z
?Create@CFindReplaceDialog@@UAAHHPBG0KPAVCWnd@@@Z
?Create@CFormView@@MAAHPB_W0KABUtagRECT@@PAVCWnd@@IPAUCCreateContext@@@Z
?Create@CFormView@@MAAHPBG0KABUtagRECT@@PAVCWnd@@IPAUCCreateContext@@@Z
?Create@CFrameWnd@@UAAHPB_W0KABUtagRECT@@PAVCWnd@@0KPAUCCreateContext@@@Z
?Create@CFrameWnd@@UAAHPBG0KABUtagRECT@@PAVCWnd@@0KPAUCCreateContext@@@Z
?Create@CHtmlEditCtrl@@UAAHPB_WKABUtagRECT@@PAVCWnd@@HPAUCCreateContext@@@Z
?Create@CHtmlEditCtrl@@UAAHPBGKABUtagRECT@@PAVCWnd@@HPAUCCreateContext@@@Z
?Create@CHtmlEditView@@UAAHPB_W0KABUtagRECT@@PAVCWnd@@IPAUCCreateContext@@@Z
?Create@CHtmlEditView@@UAAHPBG0KABUtagRECT@@PAVCWnd@@IPAUCCreateContext@@@Z
?Create@CHtmlView@@UAAHPB_W0KABUtagRECT@@PAVCWnd@@IPAUCCreateContext@@@Z
?Create@CHtmlView@@UAAHPBG0KABUtagRECT@@PAVCWnd@@IPAUCCreateContext@@@Z
?Create@CImageList@@QAAHPB_WHHK@Z
?Create@CImageList@@QAAHPBGHHK@Z
?Create@CLinkCtrl@@UAAHPB_WKABUtagRECT@@PAVCWnd@@I@Z
?Create@CLinkCtrl@@UAAHPBGKABUtagRECT@@PAVCWnd@@I@Z
?Create@CMDIChildWnd@@UAAHPB_W0KABUtagRECT@@PAVCMDIFrameWnd@@PAUCCreateContext@@@Z
?Create@CMDIChildWnd@@UAAHPBG0KABUtagRECT@@PAVCMDIFrameWnd@@PAUCCreateContext@@@Z
?Create@CMFCAutoHideBar@@UAAHPB_WKABUtagRECT@@PAVCWnd@@IKPAUCCreateContext@@@Z
?Create@CMFCAutoHideBar@@UAAHPBGKABUtagRECT@@PAVCWnd@@IKPAUCCreateContext@@@Z
?Create@CMFCOutlookBar@@UAAHPB_WPAVCWnd@@ABUtagRECT@@IKKPAUCCreateContext@@@Z
?Create@CMFCOutlookBar@@UAAHPBGPAVCWnd@@ABUtagRECT@@IKKPAUCCreateContext@@@Z
?Create@CMiniFrameWnd@@UAAHPB_W0KABUtagRECT@@PAVCWnd@@I@Z
?Create@CMiniFrameWnd@@UAAHPBG0KABUtagRECT@@PAVCWnd@@I@Z
?Create@CPane@@UAAHPB_WKABUtagRECT@@PAVCWnd@@IKPAUCCreateContext@@@Z
?Create@CPane@@UAAHPBGKABUtagRECT@@PAVCWnd@@IKPAUCCreateContext@@@Z
?Create@CPaneDialog@@QAAHPB_WPAVCWnd@@H0IIKK@Z
?Create@CPaneDialog@@QAAHPB_WPAVCWnd@@HIII@Z
?Create@CPaneDialog@@QAAHPBGPAVCWnd@@H0IIKK@Z
?Create@CPaneDialog@@QAAHPBGPAVCWnd@@HIII@Z
?Create@CPaneFrameWnd@@UAAHPB_WKABUtagRECT@@PAVCWnd@@PAUCCreateContext@@@Z
?Create@CPaneFrameWnd@@UAAHPBGKABUtagRECT@@PAVCWnd@@PAUCCreateContext@@@Z
?Create@CSplitButton@@UAAHPB_WKABUtagRECT@@PAVCWnd@@I@Z
?Create@CSplitButton@@UAAHPBGKABUtagRECT@@PAVCWnd@@I@Z
?Create@CStatic@@UAAHPB_WKABUtagRECT@@PAVCWnd@@I@Z
?Create@CStatic@@UAAHPBGKABUtagRECT@@PAVCWnd@@I@Z
?Create@CWnd@@UAAHPB_W0KABUtagRECT@@PAV1@IPAUCCreateContext@@@Z
?Create@CWnd@@UAAHPBG0KABUtagRECT@@PAV1@IPAUCCreateContext@@@Z
?CreateControl@COleControlContainer@@QAAHPAVCWnd@@ABU_GUID@@PB_WKABUtagRECT@@IPAVCFile@@HPA_WPAPAVCOleControlSite@@@Z
?CreateControl@COleControlContainer@@QAAHPAVCWnd@@ABU_GUID@@PB_WKPBUtagPOINT@@PBUtagSIZE@@IPAVCFile@@HPA_WPAPAVCOleControlSite@@@Z
?CreateControl@COleControlContainer@@QAAHPAVCWnd@@ABU_GUID@@PBGKABUtagRECT@@IPAVCFile@@HPAGPAPAVCOleControlSite@@@Z
?CreateControl@COleControlContainer@@QAAHPAVCWnd@@ABU_GUID@@PBGKPBUtagPOINT@@PBUtagSIZE@@IPAVCFile@@HPAGPAPAVCOleControlSite@@@Z
?CreateControl@COleControlSite@@UAAJPAVCWnd@@ABU_GUID@@PB_WKABUtagRECT@@IPAVCFile@@HPA_W@Z
?CreateControl@COleControlSite@@UAAJPAVCWnd@@ABU_GUID@@PB_WKPBUtagPOINT@@PBUtagSIZE@@IPAVCFile@@HPA_W@Z
?CreateControl@COleControlSite@@UAAJPAVCWnd@@ABU_GUID@@PBGKABUtagRECT@@IPAVCFile@@HPAG@Z
?CreateControl@COleControlSite@@UAAJPAVCWnd@@ABU_GUID@@PBGKPBUtagPOINT@@PBUtagSIZE@@IPAVCFile@@HPAG@Z
?CreateControl@CWnd@@QAAHABU_GUID@@PB_WKABUtagRECT@@PAV1@IPAVCFile@@HPA_W@Z
?CreateControl@CWnd@@QAAHABU_GUID@@PB_WKPBUtagPOINT@@PBUtagSIZE@@PAV1@IPAVCFile@@HPA_W@Z
?CreateControl@CWnd@@QAAHABU_GUID@@PBGKABUtagRECT@@PAV1@IPAVCFile@@HPAG@Z
?CreateControl@CWnd@@QAAHABU_GUID@@PBGKPBUtagPOINT@@PBUtagSIZE@@PAV1@IPAVCFile@@HPAG@Z
?CreateControl@CWnd@@QAAHPB_W0KABUtagRECT@@PAV1@IPAVCFile@@HPA_W@Z
?CreateControl@CWnd@@QAAHPBG0KABUtagRECT@@PAV1@IPAVCFile@@HPAG@Z
?CreateControlCommon@COleControlContainer@@QAAHPAVCWnd@@ABU_GUID@@ABVCControlCreationInfo@@PB_WKPBUtagPOINT@@PBUtagSIZE@@IPAVCFile@@HPA_WPAPAVCOleControlSite@@@Z
?CreateControlCommon@COleControlContainer@@QAAHPAVCWnd@@ABU_GUID@@ABVCControlCreationInfo@@PBGKPBUtagPOINT@@PBUtagSIZE@@IPAVCFile@@HPAGPAPAVCOleControlSite@@@Z
?CreateControlCommon@COleControlSite@@MAAJPAVCWnd@@ABU_GUID@@ABVCControlCreationInfo@@PB_WKPBUtagPOINT@@PBUtagSIZE@@IPAVCFile@@HPA_W@Z
?CreateControlCommon@COleControlSite@@MAAJPAVCWnd@@ABU_GUID@@ABVCControlCreationInfo@@PBGKPBUtagPOINT@@PBUtagSIZE@@IPAVCFile@@HPAG@Z
?CreateCustomPage@CMFCOutlookBar@@QAAPAVCMFCOutlookBarPane@@PB_WHKH@Z
?CreateCustomPage@CMFCOutlookBar@@QAAPAVCMFCOutlookBarPane@@PBGHKH@Z
?CreateDirectoryW@CFtpConnection@@QAAHPB_W@Z
?CreateDirectoryW@CFtpConnection@@QAAHPBG@Z
?CreateDispatch@COleDispatchDriver@@QAAHPB_WPAVCOleException@@@Z
?CreateDispatch@COleDispatchDriver@@QAAHPBGPAVCOleException@@@Z
?CreateDlg@CWnd@@IAAHPB_WPAV1@@Z
?CreateDlg@CWnd@@IAAHPBGPAV1@@Z
?CreateDlgControl@CMFCControlContainer@@IAAPAVCWnd@@PB_W@Z
?CreateDlgControl@CMFCControlContainer@@IAAPAVCWnd@@PBG@Z
?CreateDlgControls@COccManager@@UAAHPAVCWnd@@PB_WPAU_AFX_OCC_DIALOG_INFO@@@Z
?CreateDlgControls@COccManager@@UAAHPAVCWnd@@PBGPAU_AFX_OCC_DIALOG_INFO@@@Z
?CreateDocumentWindow@CMDIFrameWndEx@@UAAPAVCMDIChildWndEx@@PB_WPAVCObject@@@Z
?CreateDocumentWindow@CMDIFrameWndEx@@UAAPAVCMDIChildWndEx@@PBGPAVCObject@@@Z
?CreateEx@CBasePane@@UAAHKPB_W0KABUtagRECT@@PAVCWnd@@IKPAUCCreateContext@@@Z
?CreateEx@CBasePane@@UAAHKPBG0KABUtagRECT@@PAVCWnd@@IKPAUCCreateContext@@@Z
?CreateEx@CDockablePane@@UAAHKPB_WPAVCWnd@@ABUtagRECT@@HIKKKPAUCCreateContext@@@Z
?CreateEx@CDockablePane@@UAAHKPBGPAVCWnd@@ABUtagRECT@@HIKKKPAUCCreateContext@@@Z
?CreateEx@CLinkCtrl@@UAAHPB_WKKABUtagRECT@@PAVCWnd@@I@Z
?CreateEx@CLinkCtrl@@UAAHPBGKKABUtagRECT@@PAVCWnd@@I@Z
?CreateEx@CMiniFrameWnd@@UAAHKPB_W0KABUtagRECT@@PAVCWnd@@I@Z
?CreateEx@CMiniFrameWnd@@UAAHKPBG0KABUtagRECT@@PAVCWnd@@I@Z
?CreateEx@CPane@@UAAHKPB_WKABUtagRECT@@PAVCWnd@@IKPAUCCreateContext@@@Z
?CreateEx@CPane@@UAAHKPBGKABUtagRECT@@PAVCWnd@@IKPAUCCreateContext@@@Z
?CreateEx@CPaneFrameWnd@@UAAHKPB_WKABUtagRECT@@PAVCWnd@@PAUCCreateContext@@@Z
?CreateEx@CPaneFrameWnd@@UAAHKPBGKABUtagRECT@@PAVCWnd@@PAUCCreateContext@@@Z
?CreateEx@CWnd@@UAAHKPB_W0KABUtagRECT@@PAV1@IPAX@Z
?CreateEx@CWnd@@UAAHKPB_W0KHHHHPAUHWND__@@PAUHMENU__@@PAX@Z
?CreateEx@CWnd@@UAAHKPBG0KABUtagRECT@@PAV1@IPAX@Z
?CreateEx@CWnd@@UAAHKPBG0KHHHHPAUHWND__@@PAUHMENU__@@PAX@Z
?CreateFromFile@COleClientItem@@QAAHPB_WABU_GUID@@W4tagOLERENDER@@GPAUtagFORMATETC@@@Z
?CreateFromFile@COleClientItem@@QAAHPBGABU_GUID@@W4tagOLERENDER@@GPAUtagFORMATETC@@@Z
?CreateInstanceLic@XClassFactory@COleObjectFactory@@UAAJPAUIUnknown@@0ABU_GUID@@PA_WPAPAX@Z
?CreateInstanceLic@XClassFactory@COleObjectFactory@@UAAJPAUIUnknown@@0ABU_GUID@@PAGPAPAX@Z
?CreateKey@CSettingsStore@@UAAHPB_W@Z
?CreateKey@CSettingsStore@@UAAHPBG@Z
?CreateLinkFromFile@COleClientItem@@QAAHPB_WW4tagOLERENDER@@GPAUtagFORMATETC@@@Z
?CreateLinkFromFile@COleClientItem@@QAAHPBGW4tagOLERENDER@@GPAUtagFORMATETC@@@Z
?CreateLocator@CGopherConnection@@QAA?AVCGopherLocator@@PB_W0K@Z
?CreateLocator@CGopherConnection@@QAA?AVCGopherLocator@@PBG0K@Z
?CreateLocator@CGopherConnection@@SA?AVCGopherLocator@@PB_W@Z
?CreateLocator@CGopherConnection@@SA?AVCGopherLocator@@PB_W00KG@Z
?CreateLocator@CGopherConnection@@SA?AVCGopherLocator@@PBG@Z
?CreateLocator@CGopherConnection@@SA?AVCGopherLocator@@PBG00KG@Z
?CreateNewToolBar@CFrameImpl@@IAAPBVCMFCToolBar@@PB_W@Z
?CreateNewToolBar@CFrameImpl@@IAAPBVCMFCToolBar@@PBG@Z
?CreateNewWindow@CMDIFrameWndEx@@UAAPAVCMDIChildWndEx@@PB_WPAVCObject@@@Z
?CreateNewWindow@CMDIFrameWndEx@@UAAPAVCMDIChildWndEx@@PBGPAVCObject@@@Z
?CreateObject@CRuntimeClass@@SAPAVCObject@@PB_W@Z
?CreateObject@CRuntimeClass@@SAPAVCObject@@PBG@Z
?CreateOrLoad@COleControlSite@@MAAJABU_GUID@@PAVCFile@@HPA_W@Z
?CreateOrLoad@COleControlSite@@MAAJABU_GUID@@PAVCFile@@HPAG@Z
?CreatePointFont@CFont@@QAAHHPB_WPAVCDC@@@Z
?CreatePointFont@CFont@@QAAHHPBGPAVCDC@@@Z
?CreateStream@COleStreamFile@@QAAHPAUIStorage@@PB_WKPAVCFileException@@@Z
?CreateStream@COleStreamFile@@QAAHPAUIStorage@@PBGKPAVCFileException@@@Z
?CreateTearOffBar@CMFCColorPopupMenu@@UAAPAVCPane@@PAVCFrameWnd@@IPB_W@Z
?CreateTearOffBar@CMFCColorPopupMenu@@UAAPAVCPane@@PAVCFrameWnd@@IPBG@Z
?CreateTearOffBar@CMFCPopupMenu@@MAAPAVCPane@@PAVCFrameWnd@@IPB_W@Z
?CreateTearOffBar@CMFCPopupMenu@@MAAPAVCPane@@PAVCFrameWnd@@IPBG@Z
?CreateWrapper@CMFCBaseTabCtrl@@MAAPAVCWnd@@PAV2@PB_WH@Z
?CreateWrapper@CMFCBaseTabCtrl@@MAAPAVCWnd@@PAV2@PBGH@Z
?CyFromString@CGlobalUtils@@QAAHAATtagCY@@PB_W@Z
?CyFromString@CGlobalUtils@@QAAHAATtagCY@@PBG@Z
?DDP_Check@@YAXPAVCDataExchange@@HAAHPB_W@Z
?DDP_Check@@YAXPAVCDataExchange@@HAAHPBG@Z
?DDP_EndCheck@@YAXPAVCDataExchange@@HPAHPB_W@Z
?DDP_EndCheck@@YAXPAVCDataExchange@@HPAHPBG@Z
?DDP_EndRadio@@YAXPAVCDataExchange@@HPAHPB_W@Z
?DDP_EndRadio@@YAXPAVCDataExchange@@HPAHPBG@Z
?DDP_EndText@@YAXPAVCDataExchange@@HPAEPB_W@Z
?DDP_EndText@@YAXPAVCDataExchange@@HPAEPBG@Z
?DDP_EndText@@YAXPAVCDataExchange@@HPAFPB_W@Z
?DDP_EndText@@YAXPAVCDataExchange@@HPAFPBG@Z
?DDP_EndText@@YAXPAVCDataExchange@@HPAHPB_W@Z
?DDP_EndText@@YAXPAVCDataExchange@@HPAHPBG@Z
?DDP_EndText@@YAXPAVCDataExchange@@HPAIPB_W@Z
?DDP_EndText@@YAXPAVCDataExchange@@HPAIPBG@Z
?DDP_EndText@@YAXPAVCDataExchange@@HPAJPB_W@Z
?DDP_EndText@@YAXPAVCDataExchange@@HPAJPBG@Z
?DDP_EndText@@YAXPAVCDataExchange@@HPAKPB_W@Z
?DDP_EndText@@YAXPAVCDataExchange@@HPAKPBG@Z
?DDP_EndText@@YAXPAVCDataExchange@@HPAMPB_W@Z
?DDP_EndText@@YAXPAVCDataExchange@@HPAMPBG@Z
?DDP_EndText@@YAXPAVCDataExchange@@HPANPB_W@Z
?DDP_EndText@@YAXPAVCDataExchange@@HPANPBG@Z
?DDP_EndText@@YAXPAVCDataExchange@@HPAV?$CStringT@_WV?$StrTraitMFC_DLL@_WV?$ChTraitsCRT@_W@ATL@@@@@ATL@@PB_W@Z
?DDP_EndText@@YAXPAVCDataExchange@@HPAV?$CStringT@GV?$StrTraitMFC_DLL@GV?$ChTraitsCRT@G@ATL@@@@@ATL@@PBG@Z
?DDP_Radio@@YAXPAVCDataExchange@@HAAHPB_W@Z
?DDP_Radio@@YAXPAVCDataExchange@@HAAHPBG@Z
?DDP_Text@@YAXPAVCDataExchange@@HAAEPB_W@Z
?DDP_Text@@YAXPAVCDataExchange@@HAAEPBG@Z
?DDP_Text@@YAXPAVCDataExchange@@HAAFPB_W@Z
?DDP_Text@@YAXPAVCDataExchange@@HAAFPBG@Z
?DDP_Text@@YAXPAVCDataExchange@@HAAHPB_W@Z
?DDP_Text@@YAXPAVCDataExchange@@HAAHPBG@Z
?DDP_Text@@YAXPAVCDataExchange@@HAAIPB_W@Z
?DDP_Text@@YAXPAVCDataExchange@@HAAIPBG@Z
?DDP_Text@@YAXPAVCDataExchange@@HAAJPB_W@Z
?DDP_Text@@YAXPAVCDataExchange@@HAAJPBG@Z
?DDP_Text@@YAXPAVCDataExchange@@HAAKPB_W@Z
?DDP_Text@@YAXPAVCDataExchange@@HAAKPBG@Z
?DDP_Text@@YAXPAVCDataExchange@@HAAMPB_W@Z
?DDP_Text@@YAXPAVCDataExchange@@HAAMPBG@Z
?DDP_Text@@YAXPAVCDataExchange@@HAANPB_W@Z
?DDP_Text@@YAXPAVCDataExchange@@HAANPBG@Z
?DDP_Text@@YAXPAVCDataExchange@@HAAV?$CStringT@_WV?$StrTraitMFC_DLL@_WV?$ChTraitsCRT@_W@ATL@@@@@ATL@@PB_W@Z
?DDP_Text@@YAXPAVCDataExchange@@HAAV?$CStringT@GV?$StrTraitMFC_DLL@GV?$ChTraitsCRT@G@ATL@@@@@ATL@@PBG@Z
?DDV_MaxChars@@YAXPAVCDataExchange@@ABV?$CStringT@_WV?$StrTraitMFC_DLL@_WV?$ChTraitsCRT@_W@ATL@@@@@ATL@@H@Z
?DDV_MaxChars@@YAXPAVCDataExchange@@ABV?$CStringT@GV?$StrTraitMFC_DLL@GV?$ChTraitsCRT@G@ATL@@@@@ATL@@H@Z
?DDX_CBString@@YAXPAVCDataExchange@@HAAV?$CStringT@_WV?$StrTraitMFC_DLL@_WV?$ChTraitsCRT@_W@ATL@@@@@ATL@@@Z
?DDX_CBString@@YAXPAVCDataExchange@@HAAV?$CStringT@GV?$StrTraitMFC_DLL@GV?$ChTraitsCRT@G@ATL@@@@@ATL@@@Z
?DDX_CBStringExact@@YAXPAVCDataExchange@@HAAV?$CStringT@_WV?$StrTraitMFC_DLL@_WV?$ChTraitsCRT@_W@ATL@@@@@ATL@@@Z
?DDX_CBStringExact@@YAXPAVCDataExchange@@HAAV?$CStringT@GV?$StrTraitMFC_DLL@GV?$ChTraitsCRT@G@ATL@@@@@ATL@@@Z
?DDX_DateTimeCtrl@@YAXPAVCDataExchange@@HAAV?$CStringT@_WV?$StrTraitMFC_DLL@_WV?$ChTraitsCRT@_W@ATL@@@@@ATL@@@Z
?DDX_DateTimeCtrl@@YAXPAVCDataExchange@@HAAV?$CStringT@GV?$StrTraitMFC_DLL@GV?$ChTraitsCRT@G@ATL@@@@@ATL@@@Z
?DDX_DHtml_AxControl@CDHtmlDialog@@IAAXPB_W0AAUtagVARIANT@@H@Z
?DDX_DHtml_AxControl@CDHtmlDialog@@IAAXPB_WJAAUtagVARIANT@@H@Z
?DDX_DHtml_AxControl@CDHtmlDialog@@IAAXPBG0AAUtagVARIANT@@H@Z
?DDX_DHtml_AxControl@CDHtmlDialog@@IAAXPBGJAAUtagVARIANT@@H@Z
?DDX_DHtml_AxControl@CDHtmlDialog@@QAAXPAVCDataExchange@@PB_W1AAUtagVARIANT@@@Z
?DDX_DHtml_AxControl@CDHtmlDialog@@QAAXPAVCDataExchange@@PB_WJAAUtagVARIANT@@@Z
?DDX_DHtml_AxControl@CDHtmlDialog@@QAAXPAVCDataExchange@@PBG1AAUtagVARIANT@@@Z
?DDX_DHtml_AxControl@CDHtmlDialog@@QAAXPAVCDataExchange@@PBGJAAUtagVARIANT@@@Z
?DDX_DHtml_CheckBox@CDHtmlDialog@@IAAXPB_WAAHH@Z
?DDX_DHtml_CheckBox@CDHtmlDialog@@IAAXPBGAAHH@Z
?DDX_DHtml_CheckBox@CDHtmlDialog@@QAAXPAVCDataExchange@@PB_WAAH@Z
?DDX_DHtml_CheckBox@CDHtmlDialog@@QAAXPAVCDataExchange@@PBGAAH@Z
?DDX_DHtml_ElementText@CDHtmlDialog@@IAAXPB_WJAAFH@Z
?DDX_DHtml_ElementText@CDHtmlDialog@@IAAXPB_WJAAHH@Z
?DDX_DHtml_ElementText@CDHtmlDialog@@IAAXPB_WJAAJH@Z
?DDX_DHtml_ElementText@CDHtmlDialog@@IAAXPB_WJAAKH@Z
?DDX_DHtml_ElementText@CDHtmlDialog@@IAAXPB_WJAAMH@Z
?DDX_DHtml_ElementText@CDHtmlDialog@@IAAXPB_WJAANH@Z
?DDX_DHtml_ElementText@CDHtmlDialog@@IAAXPB_WJAAV?$CStringT@_WV?$StrTraitMFC_DLL@_WV?$ChTraitsCRT@_W@ATL@@@@@ATL@@H@Z
?DDX_DHtml_ElementText@CDHtmlDialog@@IAAXPBGJAAFH@Z
?DDX_DHtml_ElementText@CDHtmlDialog@@IAAXPBGJAAHH@Z
?DDX_DHtml_ElementText@CDHtmlDialog@@IAAXPBGJAAJH@Z
?DDX_DHtml_ElementText@CDHtmlDialog@@IAAXPBGJAAKH@Z
?DDX_DHtml_ElementText@CDHtmlDialog@@IAAXPBGJAAMH@Z
?DDX_DHtml_ElementText@CDHtmlDialog@@IAAXPBGJAANH@Z
?DDX_DHtml_ElementText@CDHtmlDialog@@IAAXPBGJAAV?$CStringT@GV?$StrTraitMFC_DLL@GV?$ChTraitsCRT@G@ATL@@@@@ATL@@H@Z
?DDX_DHtml_ElementText@CDHtmlDialog@@QAAXPAVCDataExchange@@PB_WJAAF@Z
?DDX_DHtml_ElementText@CDHtmlDialog@@QAAXPAVCDataExchange@@PB_WJAAH@Z
?DDX_DHtml_ElementText@CDHtmlDialog@@QAAXPAVCDataExchange@@PB_WJAAJ@Z
?DDX_DHtml_ElementText@CDHtmlDialog@@QAAXPAVCDataExchange@@PB_WJAAK@Z
?DDX_DHtml_ElementText@CDHtmlDialog@@QAAXPAVCDataExchange@@PB_WJAAM@Z
?DDX_DHtml_ElementText@CDHtmlDialog@@QAAXPAVCDataExchange@@PB_WJAAN@Z
?DDX_DHtml_ElementText@CDHtmlDialog@@QAAXPAVCDataExchange@@PB_WJAAV?$CStringT@_WV?$StrTraitMFC_DLL@_WV?$ChTraitsCRT@_W@ATL@@@@@ATL@@@Z
?DDX_DHtml_ElementText@CDHtmlDialog@@QAAXPAVCDataExchange@@PBGJAAF@Z
?DDX_DHtml_ElementText@CDHtmlDialog@@QAAXPAVCDataExchange@@PBGJAAH@Z
?DDX_DHtml_ElementText@CDHtmlDialog@@QAAXPAVCDataExchange@@PBGJAAJ@Z
?DDX_DHtml_ElementText@CDHtmlDialog@@QAAXPAVCDataExchange@@PBGJAAK@Z
?DDX_DHtml_ElementText@CDHtmlDialog@@QAAXPAVCDataExchange@@PBGJAAM@Z
?DDX_DHtml_ElementText@CDHtmlDialog@@QAAXPAVCDataExchange@@PBGJAAN@Z
?DDX_DHtml_ElementText@CDHtmlDialog@@QAAXPAVCDataExchange@@PBGJAAV?$CStringT@GV?$StrTraitMFC_DLL@GV?$ChTraitsCRT@G@ATL@@@@@ATL@@@Z
?DDX_DHtml_ElementTextFloatFormat@CDHtmlDialog@@IAAXPB_WJPAXNHH@Z
?DDX_DHtml_ElementTextFloatFormat@CDHtmlDialog@@IAAXPBGJPAXNHH@Z
?DDX_DHtml_ElementTextWithFormat@CDHtmlDialog@@IAAXPB_WJ0IHZZ
?DDX_DHtml_ElementTextWithFormat@CDHtmlDialog@@IAAXPBGJ0IHZZ
?DDX_DHtml_Radio@CDHtmlDialog@@IAAXPB_WAAJH@Z
?DDX_DHtml_Radio@CDHtmlDialog@@IAAXPBGAAJH@Z
?DDX_DHtml_Radio@CDHtmlDialog@@QAAXPAVCDataExchange@@PB_WAAJ@Z
?DDX_DHtml_Radio@CDHtmlDialog@@QAAXPAVCDataExchange@@PBGAAJ@Z
?DDX_DHtml_SelectIndex@CDHtmlDialog@@IAAXPB_WAAJH@Z
?DDX_DHtml_SelectIndex@CDHtmlDialog@@IAAXPBGAAJH@Z
?DDX_DHtml_SelectIndex@CDHtmlDialog@@QAAXPAVCDataExchange@@PB_WAAJ@Z
?DDX_DHtml_SelectIndex@CDHtmlDialog@@QAAXPAVCDataExchange@@PBGAAJ@Z
?DDX_DHtml_SelectString@CDHtmlDialog@@IAAXPB_WAAV?$CStringT@_WV?$StrTraitMFC_DLL@_WV?$ChTraitsCRT@_W@ATL@@@@@ATL@@H@Z
?DDX_DHtml_SelectString@CDHtmlDialog@@IAAXPBGAAV?$CStringT@GV?$StrTraitMFC_DLL@GV?$ChTraitsCRT@G@ATL@@@@@ATL@@H@Z
?DDX_DHtml_SelectString@CDHtmlDialog@@QAAXPAVCDataExchange@@PB_WAAV?$CStringT@_WV?$StrTraitMFC_DLL@_WV?$ChTraitsCRT@_W@ATL@@@@@ATL@@@Z
?DDX_DHtml_SelectString@CDHtmlDialog@@QAAXPAVCDataExchange@@PBGAAV?$CStringT@GV?$StrTraitMFC_DLL@GV?$ChTraitsCRT@G@ATL@@@@@ATL@@@Z
?DDX_DHtml_SelectValue@CDHtmlDialog@@IAAXPB_WAAV?$CStringT@_WV?$StrTraitMFC_DLL@_WV?$ChTraitsCRT@_W@ATL@@@@@ATL@@H@Z
?DDX_DHtml_SelectValue@CDHtmlDialog@@IAAXPBGAAV?$CStringT@GV?$StrTraitMFC_DLL@GV?$ChTraitsCRT@G@ATL@@@@@ATL@@H@Z
?DDX_DHtml_SelectValue@CDHtmlDialog@@QAAXPAVCDataExchange@@PB_WAAV?$CStringT@_WV?$StrTraitMFC_DLL@_WV?$ChTraitsCRT@_W@ATL@@@@@ATL@@@Z
?DDX_DHtml_SelectValue@CDHtmlDialog@@QAAXPAVCDataExchange@@PBGAAV?$CStringT@GV?$StrTraitMFC_DLL@GV?$ChTraitsCRT@G@ATL@@@@@ATL@@@Z
?DDX_FieldCBString@@YAXPAVCDataExchange@@HAAV?$CStringT@_WV?$StrTraitMFC_DLL@_WV?$ChTraitsCRT@_W@ATL@@@@@ATL@@PAVCRecordset@@@Z
?DDX_FieldCBString@@YAXPAVCDataExchange@@HAAV?$CStringT@GV?$StrTraitMFC_DLL@GV?$ChTraitsCRT@G@ATL@@@@@ATL@@PAVCRecordset@@@Z
?DDX_FieldCBStringExact@@YAXPAVCDataExchange@@HAAV?$CStringT@_WV?$StrTraitMFC_DLL@_WV?$ChTraitsCRT@_W@ATL@@@@@ATL@@PAVCRecordset@@@Z
?DDX_FieldCBStringExact@@YAXPAVCDataExchange@@HAAV?$CStringT@GV?$StrTraitMFC_DLL@GV?$ChTraitsCRT@G@ATL@@@@@ATL@@PAVCRecordset@@@Z
?DDX_FieldLBString@@YAXPAVCDataExchange@@HAAV?$CStringT@_WV?$StrTraitMFC_DLL@_WV?$ChTraitsCRT@_W@ATL@@@@@ATL@@PAVCRecordset@@@Z
?DDX_FieldLBString@@YAXPAVCDataExchange@@HAAV?$CStringT@GV?$StrTraitMFC_DLL@GV?$ChTraitsCRT@G@ATL@@@@@ATL@@PAVCRecordset@@@Z
?DDX_FieldLBStringExact@@YAXPAVCDataExchange@@HAAV?$CStringT@_WV?$StrTraitMFC_DLL@_WV?$ChTraitsCRT@_W@ATL@@@@@ATL@@PAVCRecordset@@@Z
?DDX_FieldLBStringExact@@YAXPAVCDataExchange@@HAAV?$CStringT@GV?$StrTraitMFC_DLL@GV?$ChTraitsCRT@G@ATL@@@@@ATL@@PAVCRecordset@@@Z
?DDX_FieldText@@YAXPAVCDataExchange@@HAAV?$CStringT@_WV?$StrTraitMFC_DLL@_WV?$ChTraitsCRT@_W@ATL@@@@@ATL@@PAVCRecordset@@@Z
?DDX_FieldText@@YAXPAVCDataExchange@@HAAV?$CStringT@GV?$StrTraitMFC_DLL@GV?$ChTraitsCRT@G@ATL@@@@@ATL@@PAVCRecordset@@@Z
?DDX_FieldText@@YAXPAVCDataExchange@@HPA_WHPAVCRecordset@@@Z
?DDX_FieldText@@YAXPAVCDataExchange@@HPAGHPAVCRecordset@@@Z
?DDX_LBString@@YAXPAVCDataExchange@@HAAV?$CStringT@_WV?$StrTraitMFC_DLL@_WV?$ChTraitsCRT@_W@ATL@@@@@ATL@@@Z
?DDX_LBString@@YAXPAVCDataExchange@@HAAV?$CStringT@GV?$StrTraitMFC_DLL@GV?$ChTraitsCRT@G@ATL@@@@@ATL@@@Z
?DDX_LBStringExact@@YAXPAVCDataExchange@@HAAV?$CStringT@_WV?$StrTraitMFC_DLL@_WV?$ChTraitsCRT@_W@ATL@@@@@ATL@@@Z
?DDX_LBStringExact@@YAXPAVCDataExchange@@HAAV?$CStringT@GV?$StrTraitMFC_DLL@GV?$ChTraitsCRT@G@ATL@@@@@ATL@@@Z
?DDX_OCText@@YAXPAVCDataExchange@@HJAAV?$CStringT@_WV?$StrTraitMFC_DLL@_WV?$ChTraitsCRT@_W@ATL@@@@@ATL@@@Z
?DDX_OCText@@YAXPAVCDataExchange@@HJAAV?$CStringT@GV?$StrTraitMFC_DLL@GV?$ChTraitsCRT@G@ATL@@@@@ATL@@@Z
?DDX_OCTextRO@@YAXPAVCDataExchange@@HJAAV?$CStringT@_WV?$StrTraitMFC_DLL@_WV?$ChTraitsCRT@_W@ATL@@@@@ATL@@@Z
?DDX_OCTextRO@@YAXPAVCDataExchange@@HJAAV?$CStringT@GV?$StrTraitMFC_DLL@GV?$ChTraitsCRT@G@ATL@@@@@ATL@@@Z
?DDX_Text@@YAXPAVCDataExchange@@HAAV?$CStringT@_WV?$StrTraitMFC_DLL@_WV?$ChTraitsCRT@_W@ATL@@@@@ATL@@@Z
?DDX_Text@@YAXPAVCDataExchange@@HAAV?$CStringT@GV?$StrTraitMFC_DLL@GV?$ChTraitsCRT@G@ATL@@@@@ATL@@@Z
?DDX_Text@@YAXPAVCDataExchange@@HPA_WH@Z
?DDX_Text@@YAXPAVCDataExchange@@HPAGH@Z
?DecimalFromString@CGlobalUtils@@QAAHAAUtagDEC@@PB_W@Z
?DecimalFromString@CGlobalUtils@@QAAHAAUtagDEC@@PBG@Z
?Default@CFieldExchange@@QAAXPB_WPAXPAJHKK@Z
?Default@CFieldExchange@@QAAXPBGPAXPAJHKK@Z
?Delete@?$CStringT@_WV?$StrTraitMFC_DLL@_WV?$ChTraitsCRT@_W@ATL@@@@@ATL@@QAAHHH@Z
?Delete@?$CStringT@GV?$StrTraitMFC_DLL@GV?$ChTraitsCRT@G@ATL@@@@@ATL@@QAAHHH@Z
?DeleteAutosavedFile@CDataRecoveryHandler@@UAAHABV?$CStringT@_WV?$StrTraitMFC_DLL@_WV?$ChTraitsCRT@_W@ATL@@@@@ATL@@@Z
?DeleteAutosavedFile@CDataRecoveryHandler@@UAAHABV?$CStringT@GV?$StrTraitMFC_DLL@GV?$ChTraitsCRT@G@ATL@@@@@ATL@@@Z
?DeleteItem@CMFCRibbonComboBox@@QAAHPB_W@Z
?DeleteItem@CMFCRibbonComboBox@@QAAHPBG@Z
?DeleteItem@CMFCToolBarComboBoxButton@@QAAHPB_W@Z
?DeleteItem@CMFCToolBarComboBoxButton@@QAAHPBG@Z
?DeleteKey@CSettingsStore@@UAAHPB_WH@Z
?DeleteKey@CSettingsStore@@UAAHPBGH@Z
?DeleteValue@CSettingsStore@@UAAHPB_W@Z
?DeleteValue@CSettingsStore@@UAAHPBG@Z
?DelRegTree@CWinApp@@QAAJPAUHKEY__@@ABV?$CStringT@_WV?$StrTraitMFC_DLL@_WV?$ChTraitsCRT@_W@ATL@@@@@ATL@@PAVCAtlTransactionManager@4@@Z
?DelRegTree@CWinApp@@QAAJPAUHKEY__@@ABV?$CStringT@GV?$StrTraitMFC_DLL@GV?$ChTraitsCRT@G@ATL@@@@@ATL@@PAVCAtlTransactionManager@4@@Z
?DevModeChange@CWinApp@@QAAXPA_W@Z
?DevModeChange@CWinApp@@QAAXPAG@Z
?DisplayError@COleControl@@UAAXJPB_W00I@Z
?DisplayError@COleControl@@UAAXJPBG00I@Z
?DisplayFolder@CMFCShellListCtrl@@UAAJPB_W@Z
?DisplayFolder@CMFCShellListCtrl@@UAAJPBG@Z
?DoMessageBox@CWinApp@@UAAHPB_WII@Z
?DoMessageBox@CWinApp@@UAAHPBGII@Z
?DoPromptFileName@CDocManager@@UAAHAAV?$CStringT@_WV?$StrTraitMFC_DLL@_WV?$ChTraitsCRT@_W@ATL@@@@@ATL@@IKHPAVCDocTemplate@@@Z
?DoPromptFileName@CDocManager@@UAAHAAV?$CStringT@GV?$StrTraitMFC_DLL@GV?$ChTraitsCRT@G@ATL@@@@@ATL@@IKHPAVCDocTemplate@@@Z
?DoPromptFileName@CWinApp@@QAAHAAV?$CStringT@_WV?$StrTraitMFC_DLL@_WV?$ChTraitsCRT@_W@ATL@@@@@ATL@@IKHPAVCDocTemplate@@@Z
?DoPromptFileName@CWinApp@@QAAHAAV?$CStringT@GV?$StrTraitMFC_DLL@GV?$ChTraitsCRT@G@ATL@@@@@ATL@@IKHPAVCDocTemplate@@@Z
?DoSave@CDocument@@UAAHPB_WH@Z
?DoSave@CDocument@@UAAHPBGH@Z
?DoSave@COleDocument@@UAAHPB_WH@Z
?DoSave@COleDocument@@UAAHPBGH@Z
?DrawNcCaption@CMFCVisualManagerOffice2007@@IAAXPAVCDC@@VCRect@@KKABV?$CStringT@_WV?$StrTraitMFC_DLL@_WV?$ChTraitsCRT@_W@ATL@@@@@ATL@@2PAUHICON__@@HHHABVCObList@@@Z
?DrawNcCaption@CMFCVisualManagerOffice2007@@IAAXPAVCDC@@VCRect@@KKABV?$CStringT@GV?$StrTraitMFC_DLL@GV?$ChTraitsCRT@G@ATL@@@@@ATL@@2PAUHICON__@@HHHABVCObList@@@Z
?DrawNcText@CMFCVisualManagerOffice2007@@IAAXPAVCDC@@AAVCRect@@ABV?$CStringT@_WV?$StrTraitMFC_DLL@_WV?$ChTraitsCRT@_W@ATL@@@@@ATL@@2HHHHHHK@Z
?DrawNcText@CMFCVisualManagerOffice2007@@IAAXPAVCDC@@AAVCRect@@ABV?$CStringT@GV?$StrTraitMFC_DLL@GV?$ChTraitsCRT@G@ATL@@@@@ATL@@2HHHHHHK@Z
?DrawNcText@CMFCVisualManagerWindows7@@UAAXPAVCDC@@AAVCRect@@ABV?$CStringT@_WV?$StrTraitMFC_DLL@_WV?$ChTraitsCRT@_W@ATL@@@@@ATL@@HHHHHK@Z
?DrawNcText@CMFCVisualManagerWindows7@@UAAXPAVCDC@@AAVCRect@@ABV?$CStringT@GV?$StrTraitMFC_DLL@GV?$ChTraitsCRT@G@ATL@@@@@ATL@@HHHHHK@Z
?DrawRibbonText@CMFCRibbonButton@@UAAHPAVCDC@@ABV?$CStringT@_WV?$StrTraitMFC_DLL@_WV?$ChTraitsCRT@_W@ATL@@@@@ATL@@VCRect@@IK@Z
?DrawRibbonText@CMFCRibbonButton@@UAAHPAVCDC@@ABV?$CStringT@GV?$StrTraitMFC_DLL@GV?$ChTraitsCRT@G@ATL@@@@@ATL@@VCRect@@IK@Z
?DrawRibbonText@CMFCRibbonStatusBarPane@@MAAHPAVCDC@@ABV?$CStringT@_WV?$StrTraitMFC_DLL@_WV?$ChTraitsCRT@_W@ATL@@@@@ATL@@VCRect@@IK@Z
?DrawRibbonText@CMFCRibbonStatusBarPane@@MAAHPAVCDC@@ABV?$CStringT@GV?$StrTraitMFC_DLL@GV?$ChTraitsCRT@G@ATL@@@@@ATL@@VCRect@@IK@Z
?DrawTextExW@CMetaFileDC@@UAAHPA_WHPAUtagRECT@@IPAUtagDRAWTEXTPARAMS@@@Z
?DrawTextExW@CMetaFileDC@@UAAHPAGHPAUtagRECT@@IPAUtagDRAWTEXTPARAMS@@@Z
?DrawTextExW@CPreviewDC@@UAAHPA_WHPAUtagRECT@@IPAUtagDRAWTEXTPARAMS@@@Z
?DrawTextExW@CPreviewDC@@UAAHPAGHPAUtagRECT@@IPAUtagDRAWTEXTPARAMS@@@Z
?DrawTextOnGlass@AFX_GLOBAL_DATA@@QAAHPAXPAVCDC@@HHV?$CStringT@_WV?$StrTraitMFC_DLL@_WV?$ChTraitsCRT@_W@ATL@@@@@ATL@@VCRect@@KHK@Z
?DrawTextOnGlass@AFX_GLOBAL_DATA@@QAAHPAXPAVCDC@@HHV?$CStringT@GV?$StrTraitMFC_DLL@GV?$ChTraitsCRT@G@ATL@@@@@ATL@@VCRect@@KHK@Z
?DrawTextOnGlass@CMFCVisualManager@@UAAHPAVCDC@@V?$CStringT@_WV?$StrTraitMFC_DLL@_WV?$ChTraitsCRT@_W@ATL@@@@@ATL@@VCRect@@KHK@Z
?DrawTextOnGlass@CMFCVisualManager@@UAAHPAVCDC@@V?$CStringT@GV?$StrTraitMFC_DLL@GV?$ChTraitsCRT@G@ATL@@@@@ATL@@VCRect@@KHK@Z
?DrawTextW@CMetaFileDC@@UAAHPB_WHPAUtagRECT@@I@Z
?DrawTextW@CMetaFileDC@@UAAHPBGHPAUtagRECT@@I@Z
?DrawTextW@CPreviewDC@@UAAHPB_WHPAUtagRECT@@I@Z
?DrawTextW@CPreviewDC@@UAAHPBGHPAUtagRECT@@I@Z
?DrawTextW@CRenderTarget@@QAAXABV?$CStringT@_WV?$StrTraitMFC_DLL@_WV?$ChTraitsCRT@_W@ATL@@@@@ATL@@ABVCD2DRectF@@PAVCD2DBrush@@PAVCD2DTextFormat@@W4D2D1_DRAW_TEXT_OPTIONS@@W4DWRITE_MEASURING_MODE@@@Z
?DrawTextW@CRenderTarget@@QAAXABV?$CStringT@GV?$StrTraitMFC_DLL@GV?$ChTraitsCRT@G@ATL@@@@@ATL@@ABVCD2DRectF@@PAVCD2DBrush@@PAVCD2DTextFormat@@W4D2D1_DRAW_TEXT_OPTIONS@@W4DWRITE_MEASURING_MODE@@@Z
?ElementNameFromType@CMFCRibbonInfo@@SAPB_WW4XElementType@1@@Z
?ElementNameFromType@CMFCRibbonInfo@@SAPBGW4XElementType@1@@Z
?ElementTypeFromName@CMFCRibbonInfo@@SA?AW4XElementType@1@ABV?$CStringT@_WV?$StrTraitMFC_DLL@_WV?$ChTraitsCRT@_W@ATL@@@@@ATL@@@Z
?ElementTypeFromName@CMFCRibbonInfo@@SA?AW4XElementType@1@ABV?$CStringT@GV?$StrTraitMFC_DLL@GV?$ChTraitsCRT@G@ATL@@@@@ATL@@@Z
?Empty@?$CSimpleStringT@_W$00@ATL@@QAAXXZ
?Empty@?$CSimpleStringT@G$00@ATL@@QAAXXZ
?EnableAutomaticButton@CMFCColorBar@@QAAXPB_WKH@Z
?EnableAutomaticButton@CMFCColorBar@@QAAXPBGKH@Z
?EnableAutomaticButton@CMFCColorButton@@QAAXPB_WKH@Z
?EnableAutomaticButton@CMFCColorButton@@QAAXPBGKH@Z
?EnableAutomaticButton@CMFCColorMenuButton@@QAAXPB_WKH@Z
?EnableAutomaticButton@CMFCColorMenuButton@@QAAXPBGKH@Z
?EnableAutomaticButton@CMFCPropertyGridColorProperty@@QAAXPB_WKH@Z
?EnableAutomaticButton@CMFCPropertyGridColorProperty@@QAAXPBGKH@Z
?EnableAutomaticButton@CMFCRibbonColorButton@@QAAXPB_WKH0HH@Z
?EnableAutomaticButton@CMFCRibbonColorButton@@QAAXPBGKH0HH@Z
?EnableCustomizeButton@CMFCToolBar@@QAAXHHABV?$CStringT@_WV?$StrTraitMFC_DLL@_WV?$ChTraitsCRT@_W@ATL@@@@@ATL@@H@Z
?EnableCustomizeButton@CMFCToolBar@@QAAXHHABV?$CStringT@GV?$StrTraitMFC_DLL@GV?$ChTraitsCRT@G@ATL@@@@@ATL@@H@Z
?EnableDocumentColors@CMFCColorMenuButton@@QAAXPB_WH@Z
?EnableDocumentColors@CMFCColorMenuButton@@QAAXPBGH@Z
?EnableFileBrowseButton@CMFCEditBrowseCtrl@@QAAXPB_W0K@Z
?EnableFileBrowseButton@CMFCEditBrowseCtrl@@QAAXPBG0K@Z
?EnableFolderBrowseButton@CMFCEditBrowseCtrl@@QAAXPB_WI@Z
?EnableFolderBrowseButton@CMFCEditBrowseCtrl@@QAAXPBGI@Z
?EnableHeaderCtrl@CMFCPropertyGridCtrl@@QAAXHPB_W0@Z
?EnableHeaderCtrl@CMFCPropertyGridCtrl@@QAAXHPBG0@Z
?EnableHelpCombobox@CMFCMenuBar@@QAAXIPB_WH@Z
?EnableHelpCombobox@CMFCMenuBar@@QAAXIPBGH@Z
?EnableLaunchButton@CMFCRibbonPanel@@QAAXIHPB_W@Z
?EnableLaunchButton@CMFCRibbonPanel@@QAAXIHPBG@Z
?EnableMask@CMFCMaskedEdit@@QAAXPB_W0_W0@Z
?EnableMask@CMFCMaskedEdit@@QAAXPBG0G0@Z
?EnableOtherButton@CMFCColorBar@@QAAXPB_WHH@Z
?EnableOtherButton@CMFCColorBar@@QAAXPBGHH@Z
?EnableOtherButton@CMFCColorButton@@QAAXPB_WHH@Z
?EnableOtherButton@CMFCColorButton@@QAAXPBGHH@Z
?EnableOtherButton@CMFCColorMenuButton@@QAAXPB_WHH@Z
?EnableOtherButton@CMFCColorMenuButton@@QAAXPBGHH@Z
?EnableOtherButton@CMFCPropertyGridColorProperty@@QAAXPB_WHH@Z
?EnableOtherButton@CMFCPropertyGridColorProperty@@QAAXPBGHH@Z
?EnableOtherButton@CMFCRibbonColorButton@@QAAXPB_W0@Z
?EnableOtherButton@CMFCRibbonColorButton@@QAAXPBG0@Z
?EnablePaneContextMenu@CDockingManager@@QAAXHIABV?$CStringT@_WV?$StrTraitMFC_DLL@_WV?$ChTraitsCRT@_W@ATL@@@@@ATL@@H@Z
?EnablePaneContextMenu@CDockingManager@@QAAXHIABV?$CStringT@GV?$StrTraitMFC_DLL@GV?$ChTraitsCRT@G@ATL@@@@@ATL@@H@Z
?EnableTearOffMenus@CWinAppEx@@QAAHPB_WII@Z
?EnableTearOffMenus@CWinAppEx@@QAAHPBGII@Z
?EnableWindowsDialog@CMDIFrameWndEx@@QAAXIPB_WHH@Z
?EnableWindowsDialog@CMDIFrameWndEx@@QAAXIPBGHH@Z
?ExchangeBlobProp@CArchivePropExchange@@UAAHPB_WPAPAXPAX@Z
?ExchangeBlobProp@CArchivePropExchange@@UAAHPBGPAPAXPAX@Z
?ExchangeBlobProp@CAsyncPropExchange@@UAAHPB_WPAPAXPAX@Z
?ExchangeBlobProp@CAsyncPropExchange@@UAAHPBGPAPAXPAX@Z
?ExchangeBlobProp@CPropbagPropExchange@@UAAHPB_WPAPAXPAX@Z
?ExchangeBlobProp@CPropbagPropExchange@@UAAHPBGPAPAXPAX@Z
?ExchangeBlobProp@CPropsetPropExchange@@UAAHPB_WPAPAXPAX@Z
?ExchangeBlobProp@CPropsetPropExchange@@UAAHPBGPAPAXPAX@Z
?ExchangeBlobProp@CResetPropExchange@@UAAHPB_WPAPAXPAX@Z
?ExchangeBlobProp@CResetPropExchange@@UAAHPBGPAPAXPAX@Z
?ExchangeFontProp@CArchivePropExchange@@UAAHPB_WAAVCFontHolder@@PBUtagFONTDESC@@PAUIFontDisp@@@Z
?ExchangeFontProp@CArchivePropExchange@@UAAHPBGAAVCFontHolder@@PBUtagFONTDESC@@PAUIFontDisp@@@Z
?ExchangeFontProp@CAsyncPropExchange@@UAAHPB_WAAVCFontHolder@@PBUtagFONTDESC@@PAUIFontDisp@@@Z
?ExchangeFontProp@CAsyncPropExchange@@UAAHPBGAAVCFontHolder@@PBUtagFONTDESC@@PAUIFontDisp@@@Z
?ExchangeFontProp@CPropbagPropExchange@@UAAHPB_WAAVCFontHolder@@PBUtagFONTDESC@@PAUIFontDisp@@@Z
?ExchangeFontProp@CPropbagPropExchange@@UAAHPBGAAVCFontHolder@@PBUtagFONTDESC@@PAUIFontDisp@@@Z
?ExchangeFontProp@CPropsetPropExchange@@UAAHPB_WAAVCFontHolder@@PBUtagFONTDESC@@PAUIFontDisp@@@Z
?ExchangeFontProp@CPropsetPropExchange@@UAAHPBGAAVCFontHolder@@PBUtagFONTDESC@@PAUIFontDisp@@@Z
?ExchangeFontProp@CResetPropExchange@@UAAHPB_WAAVCFontHolder@@PBUtagFONTDESC@@PAUIFontDisp@@@Z
?ExchangeFontProp@CResetPropExchange@@UAAHPBGAAVCFontHolder@@PBUtagFONTDESC@@PAUIFontDisp@@@Z
?ExchangePersistentProp@CArchivePropExchange@@UAAHPB_WPAPAUIUnknown@@ABU_GUID@@PAU2@@Z
?ExchangePersistentProp@CArchivePropExchange@@UAAHPBGPAPAUIUnknown@@ABU_GUID@@PAU2@@Z
?ExchangePersistentProp@CAsyncPropExchange@@UAAHPB_WPAPAUIUnknown@@ABU_GUID@@PAU2@@Z
?ExchangePersistentProp@CAsyncPropExchange@@UAAHPBGPAPAUIUnknown@@ABU_GUID@@PAU2@@Z
?ExchangePersistentProp@CPropbagPropExchange@@UAAHPB_WPAPAUIUnknown@@ABU_GUID@@PAU2@@Z
?ExchangePersistentProp@CPropbagPropExchange@@UAAHPBGPAPAUIUnknown@@ABU_GUID@@PAU2@@Z
?ExchangePersistentProp@CPropsetPropExchange@@UAAHPB_WPAPAUIUnknown@@ABU_GUID@@PAU2@@Z
?ExchangePersistentProp@CPropsetPropExchange@@UAAHPBGPAPAUIUnknown@@ABU_GUID@@PAU2@@Z
?ExchangePersistentProp@CResetPropExchange@@UAAHPB_WPAPAUIUnknown@@ABU_GUID@@PAU2@@Z
?ExchangePersistentProp@CResetPropExchange@@UAAHPBGPAPAUIUnknown@@ABU_GUID@@PAU2@@Z
?ExchangeProp@CArchivePropExchange@@UAAHPB_WGPAXPBX@Z
?ExchangeProp@CArchivePropExchange@@UAAHPBGGPAXPBX@Z
?ExchangeProp@CAsyncPropExchange@@UAAHPB_WGPAXPBX@Z
?ExchangeProp@CAsyncPropExchange@@UAAHPBGGPAXPBX@Z
?ExchangeProp@CPropbagPropExchange@@UAAHPB_WGPAXPBX@Z
?ExchangeProp@CPropbagPropExchange@@UAAHPBGGPAXPBX@Z
?ExchangeProp@CPropsetPropExchange@@UAAHPB_WGPAXPBX@Z
?ExchangeProp@CPropsetPropExchange@@UAAHPBGGPAXPBX@Z
?ExchangeProp@CResetPropExchange@@UAAHPB_WGPAXPBX@Z
?ExchangeProp@CResetPropExchange@@UAAHPBGGPAXPBX@Z
?ExcludeTag@AFX_GLOBAL_DATA@@QAAHAAV?$CStringT@_WV?$StrTraitMFC_DLL@_WV?$ChTraitsCRT@_W@ATL@@@@@ATL@@PB_W0H@Z
?ExcludeTag@AFX_GLOBAL_DATA@@QAAHAAV?$CStringT@GV?$StrTraitMFC_DLL@GV?$ChTraitsCRT@G@ATL@@@@@ATL@@PBG0H@Z
?ExcludeTag@CTagManager@@QAAHPB_WAAV?$CStringT@_WV?$StrTraitMFC_DLL@_WV?$ChTraitsCRT@_W@ATL@@@@@ATL@@H@Z
?ExcludeTag@CTagManager@@QAAHPBGAAV?$CStringT@GV?$StrTraitMFC_DLL@GV?$ChTraitsCRT@G@ATL@@@@@ATL@@H@Z
?ExecuteDlgInit@CWnd@@QAAHPB_W@Z
?ExecuteDlgInit@CWnd@@QAAHPBG@Z
?ExecuteSQL@CDatabase@@QAAXPB_W@Z
?ExecuteSQL@CDatabase@@QAAXPBG@Z
?ExtTextOutW@CMetaFileDC@@UAAHHHIPBUtagRECT@@PB_WIPAH@Z
?ExtTextOutW@CMetaFileDC@@UAAHHHIPBUtagRECT@@PBGIPAH@Z
?ExtTextOutW@CPreviewDC@@UAAHHHIPBUtagRECT@@PB_WIPAH@Z
?ExtTextOutW@CPreviewDC@@UAAHHHIPBUtagRECT@@PBGIPAH@Z
?Find@?$CStringT@_WV?$StrTraitMFC_DLL@_WV?$ChTraitsCRT@_W@ATL@@@@@ATL@@QBAH_WH@Z
?Find@?$CStringT@_WV?$StrTraitMFC_DLL@_WV?$ChTraitsCRT@_W@ATL@@@@@ATL@@QBAHPB_WH@Z
?Find@?$CStringT@GV?$StrTraitMFC_DLL@GV?$ChTraitsCRT@G@ATL@@@@@ATL@@QBAHGH@Z
?Find@?$CStringT@GV?$StrTraitMFC_DLL@GV?$ChTraitsCRT@G@ATL@@@@@ATL@@QBAHPBGH@Z
?Find@CStringList@@QBAPAU__POSITION@@PB_WPAU2@@Z
?Find@CStringList@@QBAPAU__POSITION@@PBGPAU2@@Z
?FindDefaultAccelerator@CKeyboardManager@@SAHIAAV?$CStringT@_WV?$StrTraitMFC_DLL@_WV?$ChTraitsCRT@_W@ATL@@@@@ATL@@PAVCFrameWnd@@H@Z
?FindDefaultAccelerator@CKeyboardManager@@SAHIAAV?$CStringT@GV?$StrTraitMFC_DLL@GV?$ChTraitsCRT@G@ATL@@@@@ATL@@PAVCFrameWnd@@H@Z
?FindFile@CFileFind@@UAAHPB_WK@Z
?FindFile@CFileFind@@UAAHPBGK@Z
?FindFile@CFtpFileFind@@UAAHPB_WK@Z
?FindFile@CFtpFileFind@@UAAHPBGK@Z
?FindFile@CGopherFileFind@@UAAHAAVCGopherLocator@@PB_WK@Z
?FindFile@CGopherFileFind@@UAAHAAVCGopherLocator@@PBGK@Z
?FindFile@CGopherFileFind@@UAAHPB_WK@Z
?FindFile@CGopherFileFind@@UAAHPBGK@Z
?FindItem@CMFCRibbonComboBox@@QBAHPB_W@Z
?FindItem@CMFCRibbonComboBox@@QBAHPBG@Z
?FindItem@CMFCToolBarComboBoxButton@@QBAHPB_W@Z
?FindItem@CMFCToolBarComboBoxButton@@QBAHPBG@Z
?FindMenuItemText@CMFCMenuBar@@KAHPAUHMENU__@@IAAV?$CStringT@_WV?$StrTraitMFC_DLL@_WV?$ChTraitsCRT@_W@ATL@@@@@ATL@@@Z
?FindMenuItemText@CMFCMenuBar@@KAHPAUHMENU__@@IAAV?$CStringT@GV?$StrTraitMFC_DLL@GV?$ChTraitsCRT@G@ATL@@@@@ATL@@@Z
?FindOneOf@?$CStringT@_WV?$StrTraitMFC_DLL@_WV?$ChTraitsCRT@_W@ATL@@@@@ATL@@QBAHPB_W@Z
?FindOneOf@?$CStringT@GV?$StrTraitMFC_DLL@GV?$ChTraitsCRT@G@ATL@@@@@ATL@@QBAHPBG@Z
?FindSinkForObject@CDHtmlDialog@@IAAHPB_W@Z
?FindSinkForObject@CDHtmlDialog@@IAAHPBG@Z
?FindSQLToken@CRecordset@@SAPB_WPB_W0@Z
?FindSQLToken@CRecordset@@SAPBGPBG0@Z
?FindTextSimple@CRichEditView@@QAAHPB_WHHH@Z
?FindTextSimple@CRichEditView@@QAAHPBGHHH@Z
?FindTextW@CEditView@@QAAHPB_WHH@Z
?FindTextW@CEditView@@QAAHPBGHH@Z
?FindTextW@CRichEditView@@QAAHPB_WHHH@Z
?FindTextW@CRichEditView@@QAAHPBGHHH@Z
?FireError@COleControl@@QAAXJPB_WI@Z
?FireError@COleControl@@QAAXJPBGI@Z
?Fork@?$CSimpleStringT@_W$00@ATL@@AAAXH@Z
?Fork@?$CSimpleStringT@G$00@ATL@@AAAXH@Z
?Format@?$CStringT@_WV?$StrTraitMFC_DLL@_WV?$ChTraitsCRT@_W@ATL@@@@@ATL@@QAAXIZZ
?Format@?$CStringT@_WV?$StrTraitMFC_DLL@_WV?$ChTraitsCRT@_W@ATL@@@@@ATL@@QAAXPB_WZZ
?Format@?$CStringT@GV?$StrTraitMFC_DLL@GV?$ChTraitsCRT@G@ATL@@@@@ATL@@QAAXIZZ
?Format@?$CStringT@GV?$StrTraitMFC_DLL@GV?$ChTraitsCRT@G@ATL@@@@@ATL@@QAAXPBGZZ
?Format@CMFCAcceleratorKey@@QBAXAAV?$CStringT@_WV?$StrTraitMFC_DLL@_WV?$ChTraitsCRT@_W@ATL@@@@@ATL@@@Z
?Format@CMFCAcceleratorKey@@QBAXAAV?$CStringT@GV?$StrTraitMFC_DLL@GV?$ChTraitsCRT@G@ATL@@@@@ATL@@@Z
?Format@COleCurrency@@QBA?AV?$CStringT@_WV?$StrTraitMFC_DLL@_WV?$ChTraitsCRT@_W@ATL@@@@@ATL@@KK@Z
?Format@COleCurrency@@QBA?AV?$CStringT@GV?$StrTraitMFC_DLL@GV?$ChTraitsCRT@G@ATL@@@@@ATL@@KK@Z
?FormatItem@CMFCKeyMapDialog@@MBA?AV?$CStringT@_WV?$StrTraitMFC_DLL@_WV?$ChTraitsCRT@_W@ATL@@@@@ATL@@H@Z
?FormatItem@CMFCKeyMapDialog@@MBA?AV?$CStringT@GV?$StrTraitMFC_DLL@GV?$ChTraitsCRT@G@ATL@@@@@ATL@@H@Z
?FormatMessage@?$CStringT@_WV?$StrTraitMFC_DLL@_WV?$ChTraitsCRT@_W@ATL@@@@@ATL@@QAAXIZZ
?FormatMessage@?$CStringT@_WV?$StrTraitMFC_DLL@_WV?$ChTraitsCRT@_W@ATL@@@@@ATL@@QAAXPB_WZZ
?FormatMessage@?$CStringT@GV?$StrTraitMFC_DLL@GV?$ChTraitsCRT@G@ATL@@@@@ATL@@QAAXIZZ
?FormatMessage@?$CStringT@GV?$StrTraitMFC_DLL@GV?$ChTraitsCRT@G@ATL@@@@@ATL@@QAAXPBGZZ
?FormatMessageV@?$CStringT@_WV?$StrTraitMFC_DLL@_WV?$ChTraitsCRT@_W@ATL@@@@@ATL@@QAAXPB_WPAPAD@Z
?FormatMessageV@?$CStringT@GV?$StrTraitMFC_DLL@GV?$ChTraitsCRT@G@ATL@@@@@ATL@@QAAXPBGPAPAD@Z
?FormatMessageW@?$CStringT@_WV?$StrTraitMFC_DLL@_WV?$ChTraitsCRT@_W@ATL@@@@@ATL@@QAAXIZZ
?FormatMessageW@?$CStringT@_WV?$StrTraitMFC_DLL@_WV?$ChTraitsCRT@_W@ATL@@@@@ATL@@QAAXPB_WZZ
?FormatMessageW@?$CStringT@GV?$StrTraitMFC_DLL@GV?$ChTraitsCRT@G@ATL@@@@@ATL@@QAAXIZZ
?FormatMessageW@?$CStringT@GV?$StrTraitMFC_DLL@GV?$ChTraitsCRT@G@ATL@@@@@ATL@@QAAXPBGZZ
?FormatProperty@CMFCPropertyGridColorProperty@@UAA?AV?$CStringT@_WV?$StrTraitMFC_DLL@_WV?$ChTraitsCRT@_W@ATL@@@@@ATL@@XZ
?FormatProperty@CMFCPropertyGridColorProperty@@UAA?AV?$CStringT@GV?$StrTraitMFC_DLL@GV?$ChTraitsCRT@G@ATL@@@@@ATL@@XZ
?FormatProperty@CMFCPropertyGridFontProperty@@UAA?AV?$CStringT@_WV?$StrTraitMFC_DLL@_WV?$ChTraitsCRT@_W@ATL@@@@@ATL@@XZ
?FormatProperty@CMFCPropertyGridFontProperty@@UAA?AV?$CStringT@GV?$StrTraitMFC_DLL@GV?$ChTraitsCRT@G@ATL@@@@@ATL@@XZ
?FormatProperty@CMFCPropertyGridProperty@@UAA?AV?$CStringT@_WV?$StrTraitMFC_DLL@_WV?$ChTraitsCRT@_W@ATL@@@@@ATL@@XZ
?FormatProperty@CMFCPropertyGridProperty@@UAA?AV?$CStringT@GV?$StrTraitMFC_DLL@GV?$ChTraitsCRT@G@ATL@@@@@ATL@@XZ
?FormatV@?$CStringT@_WV?$StrTraitMFC_DLL@_WV?$ChTraitsCRT@_W@ATL@@@@@ATL@@QAAXPB_WPAD@Z
?FormatV@?$CStringT@GV?$StrTraitMFC_DLL@GV?$ChTraitsCRT@G@ATL@@@@@ATL@@QAAXPBGPAD@Z
?FreeExtra@?$CSimpleStringT@_W$00@ATL@@QAAXXZ
?FreeExtra@?$CSimpleStringT@G$00@ATL@@QAAXXZ
?FromName@CRuntimeClass@@SAPAU1@PB_W@Z
?FromName@CRuntimeClass@@SAPAU1@PBG@Z
?GenerateAutosaveFileName@CDataRecoveryHandler@@UBA?AV?$CStringT@_WV?$StrTraitMFC_DLL@_WV?$ChTraitsCRT@_W@ATL@@@@@ATL@@ABV23@@Z
?GenerateAutosaveFileName@CDataRecoveryHandler@@UBA?AV?$CStringT@GV?$StrTraitMFC_DLL@GV?$ChTraitsCRT@G@ATL@@@@@ATL@@ABV23@@Z
?get_accDefaultAction@CBasePane@@UAAJUtagVARIANT@@PAPA_W@Z
?get_accDefaultAction@CBasePane@@UAAJUtagVARIANT@@PAPAG@Z
?get_accDefaultAction@CCheckListBox@@MAAJUtagVARIANT@@PAPA_W@Z
?get_accDefaultAction@CCheckListBox@@MAAJUtagVARIANT@@PAPAG@Z
?get_accDefaultAction@CMFCBaseAccessibleObject@@UAAJUtagVARIANT@@PAPA_W@Z
?get_accDefaultAction@CMFCBaseAccessibleObject@@UAAJUtagVARIANT@@PAPAG@Z
?get_accDefaultAction@CMFCBaseTabCtrl@@MAAJUtagVARIANT@@PAPA_W@Z
?get_accDefaultAction@CMFCBaseTabCtrl@@MAAJUtagVARIANT@@PAPAG@Z
?get_accDefaultAction@CMFCPropertyGridCtrl@@UAAJUtagVARIANT@@PAPA_W@Z
?get_accDefaultAction@CMFCPropertyGridCtrl@@UAAJUtagVARIANT@@PAPAG@Z
?get_accDefaultAction@CMFCRibbonTab@@UAAJUtagVARIANT@@PAPA_W@Z
?get_accDefaultAction@CMFCRibbonTab@@UAAJUtagVARIANT@@PAPAG@Z
?get_accDefaultAction@CMFCRibbonTabsGroup@@MAAJUtagVARIANT@@PAPA_W@Z
?get_accDefaultAction@CMFCRibbonTabsGroup@@MAAJUtagVARIANT@@PAPAG@Z
?get_accDefaultAction@CWnd@@UAAJUtagVARIANT@@PAPA_W@Z
?get_accDefaultAction@CWnd@@UAAJUtagVARIANT@@PAPAG@Z
?get_accDefaultAction@XAccessible@CMFCBaseAccessibleObject@@UAAJUtagVARIANT@@PAPA_W@Z
?get_accDefaultAction@XAccessible@CMFCBaseAccessibleObject@@UAAJUtagVARIANT@@PAPAG@Z
?get_accDefaultAction@XAccessible@CWnd@@UAAJUtagVARIANT@@PAPA_W@Z
?get_accDefaultAction@XAccessible@CWnd@@UAAJUtagVARIANT@@PAPAG@Z
?get_accDescription@CBasePane@@UAAJUtagVARIANT@@PAPA_W@Z
?get_accDescription@CBasePane@@UAAJUtagVARIANT@@PAPAG@Z
?get_accDescription@CMFCBaseAccessibleObject@@UAAJUtagVARIANT@@PAPA_W@Z
?get_accDescription@CMFCBaseAccessibleObject@@UAAJUtagVARIANT@@PAPAG@Z
?get_accDescription@CMFCPropertyGridCtrl@@UAAJUtagVARIANT@@PAPA_W@Z
?get_accDescription@CMFCPropertyGridCtrl@@UAAJUtagVARIANT@@PAPAG@Z
?get_accDescription@CWnd@@UAAJUtagVARIANT@@PAPA_W@Z
?get_accDescription@CWnd@@UAAJUtagVARIANT@@PAPAG@Z
?get_accDescription@XAccessible@CMFCBaseAccessibleObject@@UAAJUtagVARIANT@@PAPA_W@Z
?get_accDescription@XAccessible@CMFCBaseAccessibleObject@@UAAJUtagVARIANT@@PAPAG@Z
?get_accDescription@XAccessible@CWnd@@UAAJUtagVARIANT@@PAPA_W@Z
?get_accDescription@XAccessible@CWnd@@UAAJUtagVARIANT@@PAPAG@Z
?get_accHelp@CBasePane@@UAAJUtagVARIANT@@PAPA_W@Z
?get_accHelp@CBasePane@@UAAJUtagVARIANT@@PAPAG@Z
?get_accHelp@CMFCBaseAccessibleObject@@UAAJUtagVARIANT@@PAPA_W@Z
?get_accHelp@CMFCBaseAccessibleObject@@UAAJUtagVARIANT@@PAPAG@Z
?get_accHelp@CMFCPropertyGridCtrl@@UAAJUtagVARIANT@@PAPA_W@Z
?get_accHelp@CMFCPropertyGridCtrl@@UAAJUtagVARIANT@@PAPAG@Z
?get_accHelp@CWnd@@UAAJUtagVARIANT@@PAPA_W@Z
?get_accHelp@CWnd@@UAAJUtagVARIANT@@PAPAG@Z
?get_accHelp@XAccessible@CMFCBaseAccessibleObject@@UAAJUtagVARIANT@@PAPA_W@Z
?get_accHelp@XAccessible@CMFCBaseAccessibleObject@@UAAJUtagVARIANT@@PAPAG@Z
?get_accHelp@XAccessible@CWnd@@UAAJUtagVARIANT@@PAPA_W@Z
?get_accHelp@XAccessible@CWnd@@UAAJUtagVARIANT@@PAPAG@Z
?get_accHelpTopic@CBasePane@@UAAJPAPA_WUtagVARIANT@@PAJ@Z
?get_accHelpTopic@CBasePane@@UAAJPAPAGUtagVARIANT@@PAJ@Z
?get_accHelpTopic@CMFCBaseAccessibleObject@@UAAJPAPA_WUtagVARIANT@@PAJ@Z
?get_accHelpTopic@CMFCBaseAccessibleObject@@UAAJPAPAGUtagVARIANT@@PAJ@Z
?get_accHelpTopic@CMFCPropertyGridCtrl@@UAAJPAPA_WUtagVARIANT@@PAJ@Z
?get_accHelpTopic@CMFCPropertyGridCtrl@@UAAJPAPAGUtagVARIANT@@PAJ@Z
?get_accHelpTopic@CWnd@@UAAJPAPA_WUtagVARIANT@@PAJ@Z
?get_accHelpTopic@CWnd@@UAAJPAPAGUtagVARIANT@@PAJ@Z
?get_accHelpTopic@XAccessible@CMFCBaseAccessibleObject@@UAAJPAPA_WUtagVARIANT@@PAJ@Z
?get_accHelpTopic@XAccessible@CMFCBaseAccessibleObject@@UAAJPAPAGUtagVARIANT@@PAJ@Z
?get_accHelpTopic@XAccessible@CWnd@@UAAJPAPA_WUtagVARIANT@@PAJ@Z
?get_accHelpTopic@XAccessible@CWnd@@UAAJPAPAGUtagVARIANT@@PAJ@Z
?get_accKeyboardShortcut@CBasePane@@UAAJUtagVARIANT@@PAPA_W@Z
?get_accKeyboardShortcut@CBasePane@@UAAJUtagVARIANT@@PAPAG@Z
?get_accKeyboardShortcut@CMFCBaseAccessibleObject@@UAAJUtagVARIANT@@PAPA_W@Z
?get_accKeyboardShortcut@CMFCBaseAccessibleObject@@UAAJUtagVARIANT@@PAPAG@Z
?get_accKeyboardShortcut@CMFCPropertyGridCtrl@@UAAJUtagVARIANT@@PAPA_W@Z
?get_accKeyboardShortcut@CMFCPropertyGridCtrl@@UAAJUtagVARIANT@@PAPAG@Z
?get_accKeyboardShortcut@CWnd@@UAAJUtagVARIANT@@PAPA_W@Z
?get_accKeyboardShortcut@CWnd@@UAAJUtagVARIANT@@PAPAG@Z
?get_accKeyboardShortcut@XAccessible@CMFCBaseAccessibleObject@@UAAJUtagVARIANT@@PAPA_W@Z
?get_accKeyboardShortcut@XAccessible@CMFCBaseAccessibleObject@@UAAJUtagVARIANT@@PAPAG@Z
?get_accKeyboardShortcut@XAccessible@CWnd@@UAAJUtagVARIANT@@PAPA_W@Z
?get_accKeyboardShortcut@XAccessible@CWnd@@UAAJUtagVARIANT@@PAPAG@Z
?get_accName@CBasePane@@UAAJUtagVARIANT@@PAPA_W@Z
?get_accName@CBasePane@@UAAJUtagVARIANT@@PAPAG@Z
?get_accName@CMFCBaseAccessibleObject@@UAAJUtagVARIANT@@PAPA_W@Z
?get_accName@CMFCBaseAccessibleObject@@UAAJUtagVARIANT@@PAPAG@Z
?get_accName@CMFCBaseTabCtrl@@MAAJUtagVARIANT@@PAPA_W@Z
?get_accName@CMFCBaseTabCtrl@@MAAJUtagVARIANT@@PAPAG@Z
?get_accName@CMFCPopupMenu@@MAAJUtagVARIANT@@PAPA_W@Z
?get_accName@CMFCPopupMenu@@MAAJUtagVARIANT@@PAPAG@Z
?get_accName@CMFCPropertyGridCtrl@@UAAJUtagVARIANT@@PAPA_W@Z
?get_accName@CMFCPropertyGridCtrl@@UAAJUtagVARIANT@@PAPAG@Z
?get_accName@CToolBar@@UAAJUtagVARIANT@@PAPA_W@Z
?get_accName@CToolBar@@UAAJUtagVARIANT@@PAPAG@Z
?get_accName@CWnd@@UAAJUtagVARIANT@@PAPA_W@Z
?get_accName@CWnd@@UAAJUtagVARIANT@@PAPAG@Z
?get_accName@XAccessible@CMFCBaseAccessibleObject@@UAAJUtagVARIANT@@PAPA_W@Z
?get_accName@XAccessible@CMFCBaseAccessibleObject@@UAAJUtagVARIANT@@PAPAG@Z
?get_accName@XAccessible@CWnd@@UAAJUtagVARIANT@@PAPA_W@Z
?get_accName@XAccessible@CWnd@@UAAJUtagVARIANT@@PAPAG@Z
?get_accValue@CBasePane@@UAAJUtagVARIANT@@PAPA_W@Z
?get_accValue@CBasePane@@UAAJUtagVARIANT@@PAPAG@Z
?get_accValue@CMFCBaseAccessibleObject@@UAAJUtagVARIANT@@PAPA_W@Z
?get_accValue@CMFCBaseAccessibleObject@@UAAJUtagVARIANT@@PAPAG@Z
?get_accValue@CMFCBaseTabCtrl@@MAAJUtagVARIANT@@PAPA_W@Z
?get_accValue@CMFCBaseTabCtrl@@MAAJUtagVARIANT@@PAPAG@Z
?get_accValue@CMFCPropertyGridCtrl@@UAAJUtagVARIANT@@PAPA_W@Z
?get_accValue@CMFCPropertyGridCtrl@@UAAJUtagVARIANT@@PAPAG@Z
?get_accValue@CWnd@@UAAJUtagVARIANT@@PAPA_W@Z
?get_accValue@CWnd@@UAAJUtagVARIANT@@PAPAG@Z
?get_accValue@XAccessible@CMFCBaseAccessibleObject@@UAAJUtagVARIANT@@PAPA_W@Z
?get_accValue@XAccessible@CMFCBaseAccessibleObject@@UAAJUtagVARIANT@@PAPAG@Z
?get_accValue@XAccessible@CWnd@@UAAJUtagVARIANT@@PAPA_W@Z
?get_accValue@XAccessible@CWnd@@UAAJUtagVARIANT@@PAPAG@Z
?GetAccessibleName@CWnd@@QAAJUtagVARIANT@@PAPA_W@Z
?GetAccessibleName@CWnd@@QAAJUtagVARIANT@@PAPAG@Z
?GetAllocLength@?$CSimpleStringT@_W$00@ATL@@QBAHXZ
?GetAllocLength@?$CSimpleStringT@G$00@ATL@@QBAHXZ
?GetAssocAt@CMapStringToOb@@IBAPAUCAssoc@1@PB_WAAI1@Z
?GetAssocAt@CMapStringToOb@@IBAPAUCAssoc@1@PBGAAI1@Z
?GetAssocAt@CMapStringToPtr@@IBAPAUCAssoc@1@PB_WAAI1@Z
?GetAssocAt@CMapStringToPtr@@IBAPAUCAssoc@1@PBGAAI1@Z
?GetAssocAt@CMapStringToString@@IBAPAVCAssoc@1@PB_WAAI1@Z
?GetAssocAt@CMapStringToString@@IBAPAVCAssoc@1@PBGAAI1@Z
?GetAt@?$CSimpleStringT@_W$00@ATL@@QBA_WH@Z
?GetAt@?$CSimpleStringT@G$00@ATL@@QBAGH@Z
?GetAttribute@CGopherConnection@@QAAHAAVCGopherLocator@@V?$CStringT@_WV?$StrTraitMFC_DLL@_WV?$ChTraitsCRT@_W@ATL@@@@@ATL@@AAV34@@Z
?GetAttribute@CGopherConnection@@QAAHAAVCGopherLocator@@V?$CStringT@GV?$StrTraitMFC_DLL@GV?$ChTraitsCRT@G@ATL@@@@@ATL@@AAV34@@Z
?GetBestTemplate@CDocManager@@UAAPAVCDocTemplate@@PB_W@Z
?GetBestTemplate@CDocManager@@UAAPAVCDocTemplate@@PBG@Z
?GetBinary@CWinAppEx@@QAAHPB_WPAPAEPAI@Z
?GetBinary@CWinAppEx@@QAAHPBGPAPAEPAI@Z
?GetBuffer@?$CSimpleStringT@_W$00@ATL@@QAAPA_WH@Z
?GetBuffer@?$CSimpleStringT@_W$00@ATL@@QAAPA_WXZ
?GetBuffer@?$CSimpleStringT@G$00@ATL@@QAAPAGH@Z
?GetBuffer@?$CSimpleStringT@G$00@ATL@@QAAPAGXZ
?GetBufferSetLength@?$CSimpleStringT@_W$00@ATL@@QAAPA_WH@Z
?GetBufferSetLength@?$CSimpleStringT@G$00@ATL@@QAAPAGH@Z
?GetButtonText@CMFCToolBar@@QBA?AV?$CStringT@_WV?$StrTraitMFC_DLL@_WV?$ChTraitsCRT@_W@ATL@@@@@ATL@@H@Z
?GetButtonText@CMFCToolBar@@QBA?AV?$CStringT@GV?$StrTraitMFC_DLL@GV?$ChTraitsCRT@G@ATL@@@@@ATL@@H@Z
?GetButtonText@CMFCToolBar@@QBAXHAAV?$CStringT@_WV?$StrTraitMFC_DLL@_WV?$ChTraitsCRT@_W@ATL@@@@@ATL@@@Z
?GetButtonText@CMFCToolBar@@QBAXHAAV?$CStringT@GV?$StrTraitMFC_DLL@GV?$ChTraitsCRT@G@ATL@@@@@ATL@@@Z
?GetButtonText@CToolBar@@QBA?AV?$CStringT@_WV?$StrTraitMFC_DLL@_WV?$ChTraitsCRT@_W@ATL@@@@@ATL@@H@Z
?GetButtonText@CToolBar@@QBA?AV?$CStringT@GV?$StrTraitMFC_DLL@GV?$ChTraitsCRT@G@ATL@@@@@ATL@@H@Z
?GetButtonText@CToolBar@@QBAXHAAV?$CStringT@_WV?$StrTraitMFC_DLL@_WV?$ChTraitsCRT@_W@ATL@@@@@ATL@@@Z
?GetButtonText@CToolBar@@QBAXHAAV?$CStringT@GV?$StrTraitMFC_DLL@GV?$ChTraitsCRT@G@ATL@@@@@ATL@@@Z
?GetCaptionText@CMultiPaneFrameWnd@@UAA?AV?$CStringT@_WV?$StrTraitMFC_DLL@_WV?$ChTraitsCRT@_W@ATL@@@@@ATL@@XZ
?GetCaptionText@CMultiPaneFrameWnd@@UAA?AV?$CStringT@GV?$StrTraitMFC_DLL@GV?$ChTraitsCRT@G@ATL@@@@@ATL@@XZ
?GetCaptionText@CPaneFrameWnd@@UAA?AV?$CStringT@_WV?$StrTraitMFC_DLL@_WV?$ChTraitsCRT@_W@ATL@@@@@ATL@@XZ
?GetCaptionText@CPaneFrameWnd@@UAA?AV?$CStringT@GV?$StrTraitMFC_DLL@GV?$ChTraitsCRT@G@ATL@@@@@ATL@@XZ
?GetCommandKeys@CMFCKeyMapDialog@@MBA?AV?$CStringT@_WV?$StrTraitMFC_DLL@_WV?$ChTraitsCRT@_W@ATL@@@@@ATL@@I@Z
?GetCommandKeys@CMFCKeyMapDialog@@MBA?AV?$CStringT@GV?$StrTraitMFC_DLL@GV?$ChTraitsCRT@G@ATL@@@@@ATL@@I@Z
?GetCommandName@CMFCToolBarsCustomizeDialog@@QBAPB_WI@Z
?GetCommandName@CMFCToolBarsCustomizeDialog@@QBAPBGI@Z
?GetConnect@CDatabase@@QBA?AV?$CStringT@_WV?$StrTraitMFC_DLL@_WV?$ChTraitsCRT@_W@ATL@@@@@ATL@@XZ
?GetConnect@CDatabase@@QBA?AV?$CStringT@GV?$StrTraitMFC_DLL@GV?$ChTraitsCRT@G@ATL@@@@@ATL@@XZ
?GetContentsAll@CMFCToolBarEditBoxButton@@SA?AV?$CStringT@_WV?$StrTraitMFC_DLL@_WV?$ChTraitsCRT@_W@ATL@@@@@ATL@@I@Z
?GetContentsAll@CMFCToolBarEditBoxButton@@SA?AV?$CStringT@GV?$StrTraitMFC_DLL@GV?$ChTraitsCRT@G@ATL@@@@@ATL@@I@Z
?GetContextName@CMFCRibbonBar@@QBAHIAAV?$CStringT@_WV?$StrTraitMFC_DLL@_WV?$ChTraitsCRT@_W@ATL@@@@@ATL@@@Z
?GetContextName@CMFCRibbonBar@@QBAHIAAV?$CStringT@GV?$StrTraitMFC_DLL@GV?$ChTraitsCRT@G@ATL@@@@@ATL@@@Z
?GetControlDispatch@CDHtmlDialog@@QAAJPB_WPAPAUIDispatch@@@Z
?GetControlDispatch@CDHtmlDialog@@QAAJPBGPAPAUIDispatch@@@Z
?GetControlProperty@CDHtmlDialog@@QAA?AUtagVARIANT@@PB_W0@Z
?GetControlProperty@CDHtmlDialog@@QAA?AUtagVARIANT@@PB_WJ@Z
?GetControlProperty@CDHtmlDialog@@QAA?AUtagVARIANT@@PBG0@Z
?GetControlProperty@CDHtmlDialog@@QAA?AUtagVARIANT@@PBGJ@Z
?GetCookie@CInternetSession@@SAHPB_W0AAV?$CStringT@_WV?$StrTraitMFC_DLL@_WV?$ChTraitsCRT@_W@ATL@@@@@ATL@@@Z
?GetCookie@CInternetSession@@SAHPB_W0PA_WK@Z
?GetCookie@CInternetSession@@SAHPBG0AAV?$CStringT@GV?$StrTraitMFC_DLL@GV?$ChTraitsCRT@G@ATL@@@@@ATL@@@Z
?GetCookie@CInternetSession@@SAHPBG0PAGK@Z
?GetCookieLength@CInternetSession@@SAKPB_W0@Z
?GetCookieLength@CInternetSession@@SAKPBG0@Z
?GetCountInCategory@CMFCToolBarsCustomizeDialog@@QBAHPB_WABVCObList@@@Z
?GetCountInCategory@CMFCToolBarsCustomizeDialog@@QBAHPBGABVCObList@@@Z
?GetCurFile@XPersistFile@COleLinkingDoc@@UAAJPAPA_W@Z
?GetCurFile@XPersistFile@COleLinkingDoc@@UAAJPAPAG@Z
?GetCurrentDirectoryAsURL@CFtpConnection@@QBAHAAV?$CStringT@_WV?$StrTraitMFC_DLL@_WV?$ChTraitsCRT@_W@ATL@@@@@ATL@@@Z
?GetCurrentDirectoryAsURL@CFtpConnection@@QBAHAAV?$CStringT@GV?$StrTraitMFC_DLL@GV?$ChTraitsCRT@G@ATL@@@@@ATL@@@Z
?GetCurrentDirectoryAsURL@CFtpConnection@@QBAHPA_WPAK@Z
?GetCurrentDirectoryAsURL@CFtpConnection@@QBAHPAGPAK@Z
?GetCurrentDirectoryW@CFtpConnection@@QBAHAAV?$CStringT@_WV?$StrTraitMFC_DLL@_WV?$ChTraitsCRT@_W@ATL@@@@@ATL@@@Z
?GetCurrentDirectoryW@CFtpConnection@@QBAHAAV?$CStringT@GV?$StrTraitMFC_DLL@GV?$ChTraitsCRT@G@ATL@@@@@ATL@@@Z
?GetCurrentDirectoryW@CFtpConnection@@QBAHPA_WPAK@Z
?GetCurrentDirectoryW@CFtpConnection@@QBAHPAGPAK@Z
?GetCurrentFolder@CMFCShellListCtrl@@QBAHAAV?$CStringT@_WV?$StrTraitMFC_DLL@_WV?$ChTraitsCRT@_W@ATL@@@@@ATL@@@Z
?GetCurrentFolder@CMFCShellListCtrl@@QBAHAAV?$CStringT@GV?$StrTraitMFC_DLL@GV?$ChTraitsCRT@G@ATL@@@@@ATL@@@Z
?GetCurrentFolderName@CMFCShellListCtrl@@QBAHAAV?$CStringT@_WV?$StrTraitMFC_DLL@_WV?$ChTraitsCRT@_W@ATL@@@@@ATL@@@Z
?GetCurrentFolderName@CMFCShellListCtrl@@QBAHAAV?$CStringT@GV?$StrTraitMFC_DLL@GV?$ChTraitsCRT@G@ATL@@@@@ATL@@@Z
?GetCurrentUrl@CDHtmlDialog@@QAAXAAV?$CStringT@_WV?$StrTraitMFC_DLL@_WV?$ChTraitsCRT@_W@ATL@@@@@ATL@@@Z
?GetCurrentUrl@CDHtmlDialog@@QAAXAAV?$CStringT@GV?$StrTraitMFC_DLL@GV?$ChTraitsCRT@G@ATL@@@@@ATL@@@Z
?GetData@?$CSimpleStringT@_W$00@ATL@@ABAPAUCStringData@2@XZ
?GetData@?$CSimpleStringT@G$00@ATL@@ABAPAUCStringData@2@XZ
?GetDatabaseName@CDatabase@@QBA?AV?$CStringT@_WV?$StrTraitMFC_DLL@_WV?$ChTraitsCRT@_W@ATL@@@@@ATL@@XZ
?GetDatabaseName@CDatabase@@QBA?AV?$CStringT@GV?$StrTraitMFC_DLL@GV?$ChTraitsCRT@G@ATL@@@@@ATL@@XZ
?GetDefaultConnect@CRecordset@@UAA?AV?$CStringT@_WV?$StrTraitMFC_DLL@_WV?$ChTraitsCRT@_W@ATL@@@@@ATL@@XZ
?GetDefaultConnect@CRecordset@@UAA?AV?$CStringT@GV?$StrTraitMFC_DLL@GV?$ChTraitsCRT@G@ATL@@@@@ATL@@XZ
?GetDefaultSQL@CRecordset@@UAA?AV?$CStringT@_WV?$StrTraitMFC_DLL@_WV?$ChTraitsCRT@_W@ATL@@@@@ATL@@XZ
?GetDefaultSQL@CRecordset@@UAA?AV?$CStringT@GV?$StrTraitMFC_DLL@GV?$ChTraitsCRT@G@ATL@@@@@ATL@@XZ
?GetDescription@CMFCRibbonBaseElement@@UBA?AV?$CStringT@_WV?$StrTraitMFC_DLL@_WV?$ChTraitsCRT@_W@ATL@@@@@ATL@@XZ
?GetDescription@CMFCRibbonBaseElement@@UBA?AV?$CStringT@GV?$StrTraitMFC_DLL@GV?$ChTraitsCRT@G@ATL@@@@@ATL@@XZ
?GetDescription@CMFCRibbonGalleryIcon@@MBA?AV?$CStringT@_WV?$StrTraitMFC_DLL@_WV?$ChTraitsCRT@_W@ATL@@@@@ATL@@XZ
?GetDescription@CMFCRibbonGalleryIcon@@MBA?AV?$CStringT@GV?$StrTraitMFC_DLL@GV?$ChTraitsCRT@G@ATL@@@@@ATL@@XZ
?GetDeviceName@CPageSetupDialog@@QBA?AV?$CStringT@_WV?$StrTraitMFC_DLL@_WV?$ChTraitsCRT@_W@ATL@@@@@ATL@@XZ
?GetDeviceName@CPageSetupDialog@@QBA?AV?$CStringT@GV?$StrTraitMFC_DLL@GV?$ChTraitsCRT@G@ATL@@@@@ATL@@XZ
?GetDeviceName@CPrintDialog@@QBA?AV?$CStringT@_WV?$StrTraitMFC_DLL@_WV?$ChTraitsCRT@_W@ATL@@@@@ATL@@XZ
?GetDeviceName@CPrintDialog@@QBA?AV?$CStringT@GV?$StrTraitMFC_DLL@GV?$ChTraitsCRT@G@ATL@@@@@ATL@@XZ
?GetDeviceName@CPrintDialogEx@@QBA?AV?$CStringT@_WV?$StrTraitMFC_DLL@_WV?$ChTraitsCRT@_W@ATL@@@@@ATL@@XZ
?GetDeviceName@CPrintDialogEx@@QBA?AV?$CStringT@GV?$StrTraitMFC_DLL@GV?$ChTraitsCRT@G@ATL@@@@@ATL@@XZ
?GetDisplayName@CRecentFileList@@UBAHAAV?$CStringT@_WV?$StrTraitMFC_DLL@_WV?$ChTraitsCRT@_W@ATL@@@@@ATL@@HPB_WHH@Z
?GetDisplayName@CRecentFileList@@UBAHAAV?$CStringT@GV?$StrTraitMFC_DLL@GV?$ChTraitsCRT@G@ATL@@@@@ATL@@HPBGHH@Z
?GetDisplayString@CFontHolder@@QAAHAAV?$CStringT@_WV?$StrTraitMFC_DLL@_WV?$ChTraitsCRT@_W@ATL@@@@@ATL@@@Z
?GetDisplayString@CFontHolder@@QAAHAAV?$CStringT@GV?$StrTraitMFC_DLL@GV?$ChTraitsCRT@G@ATL@@@@@ATL@@@Z
?GetDisplayString@CPictureHolder@@QAAHAAV?$CStringT@_WV?$StrTraitMFC_DLL@_WV?$ChTraitsCRT@_W@ATL@@@@@ATL@@@Z
?GetDisplayString@CPictureHolder@@QAAHAAV?$CStringT@GV?$StrTraitMFC_DLL@GV?$ChTraitsCRT@G@ATL@@@@@ATL@@@Z
?GetDisplayString@XPerPropertyBrowsing@COleControl@@UAAJJPAPA_W@Z
?GetDisplayString@XPerPropertyBrowsing@COleControl@@UAAJJPAPAG@Z
?GetDlgItemTextW@COleControlContainer@@UBAHHPA_WH@Z
?GetDlgItemTextW@COleControlContainer@@UBAHHPAGH@Z
?GetDlgItemTextW@CWnd@@QBAHHAAV?$CStringT@_WV?$StrTraitMFC_DLL@_WV?$ChTraitsCRT@_W@ATL@@@@@ATL@@@Z
?GetDlgItemTextW@CWnd@@QBAHHAAV?$CStringT@GV?$StrTraitMFC_DLL@GV?$ChTraitsCRT@G@ATL@@@@@ATL@@@Z
?GetDlgItemTextW@CWnd@@QBAHHPA_WH@Z
?GetDlgItemTextW@CWnd@@QBAHHPAGH@Z
?GetDocString@CDocTemplate@@UBAHAAV?$CStringT@_WV?$StrTraitMFC_DLL@_WV?$ChTraitsCRT@_W@ATL@@@@@ATL@@W4DocStringIndex@1@@Z
?GetDocString@CDocTemplate@@UBAHAAV?$CStringT@GV?$StrTraitMFC_DLL@GV?$ChTraitsCRT@G@ATL@@@@@ATL@@W4DocStringIndex@1@@Z
?GetDocumentListName@CDataRecoveryHandler@@UBA?AV?$CStringT@_WV?$StrTraitMFC_DLL@_WV?$ChTraitsCRT@_W@ATL@@@@@ATL@@PAVCDocument@@@Z
?GetDocumentListName@CDataRecoveryHandler@@UBA?AV?$CStringT@GV?$StrTraitMFC_DLL@GV?$ChTraitsCRT@G@ATL@@@@@ATL@@PAVCDocument@@@Z
?GetDocumentName@CMDIChildWndEx@@UAAPB_WPAPAVCObject@@@Z
?GetDocumentName@CMDIChildWndEx@@UAAPBGPAPAVCObject@@@Z
?GetDriverName@CPageSetupDialog@@QBA?AV?$CStringT@_WV?$StrTraitMFC_DLL@_WV?$ChTraitsCRT@_W@ATL@@@@@ATL@@XZ
?GetDriverName@CPageSetupDialog@@QBA?AV?$CStringT@GV?$StrTraitMFC_DLL@GV?$ChTraitsCRT@G@ATL@@@@@ATL@@XZ
?GetDriverName@CPrintDialog@@QBA?AV?$CStringT@_WV?$StrTraitMFC_DLL@_WV?$ChTraitsCRT@_W@ATL@@@@@ATL@@XZ
?GetDriverName@CPrintDialog@@QBA?AV?$CStringT@GV?$StrTraitMFC_DLL@GV?$ChTraitsCRT@G@ATL@@@@@ATL@@XZ
?GetDriverName@CPrintDialogEx@@QBA?AV?$CStringT@_WV?$StrTraitMFC_DLL@_WV?$ChTraitsCRT@_W@ATL@@@@@ATL@@XZ
?GetDriverName@CPrintDialogEx@@QBA?AV?$CStringT@GV?$StrTraitMFC_DLL@GV?$ChTraitsCRT@G@ATL@@@@@ATL@@XZ
?GetEditBoxText@CFileDialog@@QAAJKAAV?$CStringT@_WV?$StrTraitMFC_DLL@_WV?$ChTraitsCRT@_W@ATL@@@@@ATL@@@Z
?GetEditBoxText@CFileDialog@@QAAJKAAV?$CStringT@GV?$StrTraitMFC_DLL@GV?$ChTraitsCRT@G@ATL@@@@@ATL@@@Z
?GetElement@CDHtmlDialog@@QAAJPB_WPAPAUIDispatch@@PAH@Z
?GetElement@CDHtmlDialog@@QAAJPB_WPAPAUIHTMLElement@@@Z
?GetElement@CDHtmlDialog@@QAAJPBGPAPAUIDispatch@@PAH@Z
?GetElement@CDHtmlDialog@@QAAJPBGPAPAUIHTMLElement@@@Z
?GetElementHtml@CDHtmlDialog@@QAAPA_WPB_W@Z
?GetElementHtml@CDHtmlDialog@@QAAPAGPBG@Z
?GetElementInterface@CDHtmlDialog@@QAAJPB_WABU_GUID@@PAPAX@Z
?GetElementInterface@CDHtmlDialog@@QAAJPBGABU_GUID@@PAPAX@Z
?GetElementProperty@CDHtmlDialog@@QAA?AUtagVARIANT@@PB_WJ@Z
?GetElementProperty@CDHtmlDialog@@QAA?AUtagVARIANT@@PBGJ@Z
?GetElementText@CDHtmlDialog@@QAAPA_WPB_W@Z
?GetElementText@CDHtmlDialog@@QAAPAGPBG@Z
?GetEnvironmentVariable@?$CStringT@_WV?$StrTraitMFC_DLL@_WV?$ChTraitsCRT@_W@ATL@@@@@ATL@@QAAHPB_W@Z
?GetEnvironmentVariable@?$CStringT@GV?$StrTraitMFC_DLL@GV?$ChTraitsCRT@G@ATL@@@@@ATL@@QAAHPBG@Z
?GetEnvironmentVariableW@?$CStringT@_WV?$StrTraitMFC_DLL@_WV?$ChTraitsCRT@_W@ATL@@@@@ATL@@QAAHPB_W@Z
?GetEnvironmentVariableW@?$CStringT@GV?$StrTraitMFC_DLL@GV?$ChTraitsCRT@G@ATL@@@@@ATL@@QAAHPBG@Z
?GetErrorMessage@CArchiveException@@UBAHPA_WIPAI@Z
?GetErrorMessage@CArchiveException@@UBAHPAGIPAI@Z
?GetErrorMessage@CDBException@@UBAHPA_WIPAI@Z
?GetErrorMessage@CDBException@@UBAHPAGIPAI@Z
?GetErrorMessage@CException@@UAAHPA_WIPAI@Z
?GetErrorMessage@CException@@UAAHPAGIPAI@Z
?GetErrorMessage@CException@@UBAHPA_WIPAI@Z
?GetErrorMessage@CException@@UBAHPAGIPAI@Z
?GetErrorMessage@CFileException@@UBAHPA_WIPAI@Z
?GetErrorMessage@CFileException@@UBAHPAGIPAI@Z
?GetErrorMessage@CInternetException@@UBAHPA_WIPAI@Z
?GetErrorMessage@CInternetException@@UBAHPAGIPAI@Z
?GetErrorMessage@COleDispatchException@@UBAHPA_WIPAI@Z
?GetErrorMessage@COleDispatchException@@UBAHPAGIPAI@Z
?GetErrorMessage@COleException@@UBAHPA_WIPAI@Z
?GetErrorMessage@COleException@@UBAHPAGIPAI@Z
?GetErrorMessage@CSimpleException@@UBAHPA_WIPAI@Z
?GetErrorMessage@CSimpleException@@UBAHPAGIPAI@Z
?GetEventMapEntry@COleControl@@IBAPBUAFX_EVENTMAP_ENTRY@@PB_WPAJ@Z
?GetEventMapEntry@COleControl@@IBAPBUAFX_EVENTMAP_ENTRY@@PBGPAJ@Z
?GetEventMapForUrl@CMultiPageDHtmlDialog@@MAAPBUDHtmlEventMapEntry@@PB_W@Z
?GetEventMapForUrl@CMultiPageDHtmlDialog@@MAAPBUDHtmlEventMapEntry@@PBG@Z
?GetFieldIndexByName@CRecordset@@QAAFPB_W@Z
?GetFieldIndexByName@CRecordset@@QAAFPBG@Z
?GetFieldValue@CRecordset@@QAAXFAAV?$CStringT@_WV?$StrTraitMFC_DLL@_WV?$ChTraitsCRT@_W@ATL@@@@@ATL@@@Z
?GetFieldValue@CRecordset@@QAAXFAAV?$CStringT@GV?$StrTraitMFC_DLL@GV?$ChTraitsCRT@G@ATL@@@@@ATL@@@Z
?GetFieldValue@CRecordset@@QAAXPB_WAAV?$CStringT@_WV?$StrTraitMFC_DLL@_WV?$ChTraitsCRT@_W@ATL@@@@@ATL@@@Z
?GetFieldValue@CRecordset@@QAAXPB_WAAV?$CStringT@DV?$StrTraitMFC_DLL@DV?$ChTraitsCRT@D@ATL@@@@@ATL@@@Z
?GetFieldValue@CRecordset@@QAAXPB_WAAVCDBVariant@@F@Z
?GetFieldValue@CRecordset@@QAAXPBGAAV?$CStringT@DV?$StrTraitMFC_DLL@DV?$ChTraitsCRT@D@ATL@@@@@ATL@@@Z
?GetFieldValue@CRecordset@@QAAXPBGAAV?$CStringT@GV?$StrTraitMFC_DLL@GV?$ChTraitsCRT@G@ATL@@@@@ATL@@@Z
?GetFieldValue@CRecordset@@QAAXPBGAAVCDBVariant@@F@Z
?GetFile@CDocument@@UAAPAVCFile@@PB_WIPAVCFileException@@@Z
?GetFile@CDocument@@UAAPAVCFile@@PBGIPAVCFileException@@@Z
?GetFile@CFtpConnection@@QAAHPB_W0HKKK@Z
?GetFile@CFtpConnection@@QAAHPBG0HKKK@Z
?GetFileExt@CFileDialog@@QBA?AV?$CStringT@_WV?$StrTraitMFC_DLL@_WV?$ChTraitsCRT@_W@ATL@@@@@ATL@@XZ
?GetFileExt@CFileDialog@@QBA?AV?$CStringT@GV?$StrTraitMFC_DLL@GV?$ChTraitsCRT@G@ATL@@@@@ATL@@XZ
?GetFileName@CFile@@UBA?AV?$CStringT@_WV?$StrTraitMFC_DLL@_WV?$ChTraitsCRT@_W@ATL@@@@@ATL@@XZ
?GetFileName@CFile@@UBA?AV?$CStringT@GV?$StrTraitMFC_DLL@GV?$ChTraitsCRT@G@ATL@@@@@ATL@@XZ
?GetFileName@CFileDialog@@QBA?AV?$CStringT@_WV?$StrTraitMFC_DLL@_WV?$ChTraitsCRT@_W@ATL@@@@@ATL@@XZ
?GetFileName@CFileDialog@@QBA?AV?$CStringT@GV?$StrTraitMFC_DLL@GV?$ChTraitsCRT@G@ATL@@@@@ATL@@XZ
?GetFileName@CFileFind@@UBA?AV?$CStringT@_WV?$StrTraitMFC_DLL@_WV?$ChTraitsCRT@_W@ATL@@@@@ATL@@XZ
?GetFileName@CFileFind@@UBA?AV?$CStringT@GV?$StrTraitMFC_DLL@GV?$ChTraitsCRT@G@ATL@@@@@ATL@@XZ
?GetFileName@CGopherFileFind@@UBA?AV?$CStringT@_WV?$StrTraitMFC_DLL@_WV?$ChTraitsCRT@_W@ATL@@@@@ATL@@XZ
?GetFileName@CGopherFileFind@@UBA?AV?$CStringT@GV?$StrTraitMFC_DLL@GV?$ChTraitsCRT@G@ATL@@@@@ATL@@XZ
?GetFilePath@CFile@@UBA?AV?$CStringT@_WV?$StrTraitMFC_DLL@_WV?$ChTraitsCRT@_W@ATL@@@@@ATL@@XZ
?GetFilePath@CFile@@UBA?AV?$CStringT@GV?$StrTraitMFC_DLL@GV?$ChTraitsCRT@G@ATL@@@@@ATL@@XZ
?GetFilePath@CFileFind@@UBA?AV?$CStringT@_WV?$StrTraitMFC_DLL@_WV?$ChTraitsCRT@_W@ATL@@@@@ATL@@XZ
?GetFilePath@CFileFind@@UBA?AV?$CStringT@GV?$StrTraitMFC_DLL@GV?$ChTraitsCRT@G@ATL@@@@@ATL@@XZ
?GetFilePath@CGopherFileFind@@UBA?AV?$CStringT@_WV?$StrTraitMFC_DLL@_WV?$ChTraitsCRT@_W@ATL@@@@@ATL@@XZ
?GetFilePath@CGopherFileFind@@UBA?AV?$CStringT@GV?$StrTraitMFC_DLL@GV?$ChTraitsCRT@G@ATL@@@@@ATL@@XZ
?GetFileTitle@CFile@@UBA?AV?$CStringT@_WV?$StrTraitMFC_DLL@_WV?$ChTraitsCRT@_W@ATL@@@@@ATL@@XZ
?GetFileTitle@CFile@@UBA?AV?$CStringT@GV?$StrTraitMFC_DLL@GV?$ChTraitsCRT@G@ATL@@@@@ATL@@XZ
?GetFileTitle@CFileDialog@@QBA?AV?$CStringT@_WV?$StrTraitMFC_DLL@_WV?$ChTraitsCRT@_W@ATL@@@@@ATL@@XZ
?GetFileTitle@CFileDialog@@QBA?AV?$CStringT@GV?$StrTraitMFC_DLL@GV?$ChTraitsCRT@G@ATL@@@@@ATL@@XZ
?GetFileTitle@CFileFind@@UBA?AV?$CStringT@_WV?$StrTraitMFC_DLL@_WV?$ChTraitsCRT@_W@ATL@@@@@ATL@@XZ
?GetFileTitle@CFileFind@@UBA?AV?$CStringT@GV?$StrTraitMFC_DLL@GV?$ChTraitsCRT@G@ATL@@@@@ATL@@XZ
?GetFileTitle@CGopherFileFind@@UBA?AV?$CStringT@_WV?$StrTraitMFC_DLL@_WV?$ChTraitsCRT@_W@ATL@@@@@ATL@@XZ
?GetFileTitle@CGopherFileFind@@UBA?AV?$CStringT@GV?$StrTraitMFC_DLL@GV?$ChTraitsCRT@G@ATL@@@@@ATL@@XZ
?GetFileTypeString@COleServerDoc@@MAAHAAV?$CStringT@_WV?$StrTraitMFC_DLL@_WV?$ChTraitsCRT@_W@ATL@@@@@ATL@@@Z
?GetFileTypeString@COleServerDoc@@MAAHAAV?$CStringT@GV?$StrTraitMFC_DLL@GV?$ChTraitsCRT@G@ATL@@@@@ATL@@@Z
?GetFileURL@CFileFind@@UBA?AV?$CStringT@_WV?$StrTraitMFC_DLL@_WV?$ChTraitsCRT@_W@ATL@@@@@ATL@@XZ
?GetFileURL@CFileFind@@UBA?AV?$CStringT@GV?$StrTraitMFC_DLL@GV?$ChTraitsCRT@G@ATL@@@@@ATL@@XZ
?GetFileURL@CFtpFileFind@@UBA?AV?$CStringT@_WV?$StrTraitMFC_DLL@_WV?$ChTraitsCRT@_W@ATL@@@@@ATL@@XZ
?GetFileURL@CFtpFileFind@@UBA?AV?$CStringT@GV?$StrTraitMFC_DLL@GV?$ChTraitsCRT@G@ATL@@@@@ATL@@XZ
?GetFileURL@CGopherFileFind@@UBA?AV?$CStringT@_WV?$StrTraitMFC_DLL@_WV?$ChTraitsCRT@_W@ATL@@@@@ATL@@XZ
?GetFileURL@CGopherFileFind@@UBA?AV?$CStringT@GV?$StrTraitMFC_DLL@GV?$ChTraitsCRT@G@ATL@@@@@ATL@@XZ
?GetFileURL@CHttpFile@@UBA?AV?$CStringT@_WV?$StrTraitMFC_DLL@_WV?$ChTraitsCRT@_W@ATL@@@@@ATL@@XZ
?GetFileURL@CHttpFile@@UBA?AV?$CStringT@GV?$StrTraitMFC_DLL@GV?$ChTraitsCRT@G@ATL@@@@@ATL@@XZ
?GetFolderPath@CFileDialog@@QBA?AV?$CStringT@_WV?$StrTraitMFC_DLL@_WV?$ChTraitsCRT@_W@ATL@@@@@ATL@@XZ
?GetFolderPath@CFileDialog@@QBA?AV?$CStringT@GV?$StrTraitMFC_DLL@GV?$ChTraitsCRT@G@ATL@@@@@ATL@@XZ
?GetFont@CDialogTemplate@@QBAHAAV?$CStringT@_WV?$StrTraitMFC_DLL@_WV?$ChTraitsCRT@_W@ATL@@@@@ATL@@AAG@Z
?GetFont@CDialogTemplate@@QBAHAAV?$CStringT@GV?$StrTraitMFC_DLL@GV?$ChTraitsCRT@G@ATL@@@@@ATL@@AAG@Z
?GetFont@CDialogTemplate@@SAHPBUDLGTEMPLATE@@AAV?$CStringT@_WV?$StrTraitMFC_DLL@_WV?$ChTraitsCRT@_W@ATL@@@@@ATL@@AAG@Z
?GetFont@CDialogTemplate@@SAHPBUDLGTEMPLATE@@AAV?$CStringT@GV?$StrTraitMFC_DLL@GV?$ChTraitsCRT@G@ATL@@@@@ATL@@AAG@Z
?GetFontFamilyName@CD2DTextFormat@@QBA?AV?$CStringT@_WV?$StrTraitMFC_DLL@_WV?$ChTraitsCRT@_W@ATL@@@@@ATL@@XZ
?GetFontFamilyName@CD2DTextFormat@@QBA?AV?$CStringT@GV?$StrTraitMFC_DLL@GV?$ChTraitsCRT@G@ATL@@@@@ATL@@XZ
?GetFontFamilyName@CD2DTextLayout@@QBA?AV?$CStringT@_WV?$StrTraitMFC_DLL@_WV?$ChTraitsCRT@_W@ATL@@@@@ATL@@IPAUDWRITE_TEXT_RANGE@@@Z
?GetFontFamilyName@CD2DTextLayout@@QBA?AV?$CStringT@GV?$StrTraitMFC_DLL@GV?$ChTraitsCRT@G@ATL@@@@@ATL@@IPAUDWRITE_TEXT_RANGE@@@Z
?GetFontsCount@CMFCRibbonFontComboBox@@IAAHPB_WABVCObList@@@Z
?GetFontsCount@CMFCRibbonFontComboBox@@IAAHPBGABVCObList@@@Z
?GetFontsCount@CMFCToolBarFontComboBox@@KAHPB_W@Z
?GetFontsCount@CMFCToolBarFontComboBox@@KAHPBG@Z
?GetFrameText@CMDIChildWndEx@@UBA?AV?$CStringT@_WV?$StrTraitMFC_DLL@_WV?$ChTraitsCRT@_W@ATL@@@@@ATL@@XZ
?GetFrameText@CMDIChildWndEx@@UBA?AV?$CStringT@GV?$StrTraitMFC_DLL@GV?$ChTraitsCRT@G@ATL@@@@@ATL@@XZ
?GetFtpConnection@CInternetSession@@QAAPAVCFtpConnection@@PB_W00GH@Z
?GetFtpConnection@CInternetSession@@QAAPAVCFtpConnection@@PBG00GH@Z
?GetFullName@CHtmlView@@QBA?AV?$CStringT@_WV?$StrTraitMFC_DLL@_WV?$ChTraitsCRT@_W@ATL@@@@@ATL@@XZ
?GetFullName@CHtmlView@@QBA?AV?$CStringT@GV?$StrTraitMFC_DLL@GV?$ChTraitsCRT@G@ATL@@@@@ATL@@XZ
?GetGopherConnection@CInternetSession@@QAAPAVCGopherConnection@@PB_W00G@Z
?GetGopherConnection@CInternetSession@@QAAPAVCGopherConnection@@PBG00G@Z
?GetGroupName@CMFCRibbonGallery@@QBAPB_WH@Z
?GetGroupName@CMFCRibbonGallery@@QBAPBGH@Z
?GetHotKeyName@CHotKeyCtrl@@QBA?AV?$CStringT@_WV?$StrTraitMFC_DLL@_WV?$ChTraitsCRT@_W@ATL@@@@@ATL@@XZ
?GetHotKeyName@CHotKeyCtrl@@QBA?AV?$CStringT@GV?$StrTraitMFC_DLL@GV?$ChTraitsCRT@G@ATL@@@@@ATL@@XZ
?GetHttpConnection@CInternetSession@@QAAPAVCHttpConnection@@PB_WG00@Z
?GetHttpConnection@CInternetSession@@QAAPAVCHttpConnection@@PB_WKG00@Z
?GetHttpConnection@CInternetSession@@QAAPAVCHttpConnection@@PBGG00@Z
?GetHttpConnection@CInternetSession@@QAAPAVCHttpConnection@@PBGKG00@Z
?GetIconDescription@CMFCRibbonGallery@@MBA?AV?$CStringT@_WV?$StrTraitMFC_DLL@_WV?$ChTraitsCRT@_W@ATL@@@@@ATL@@PBVCMFCRibbonGalleryIcon@@@Z
?GetIconDescription@CMFCRibbonGallery@@MBA?AV?$CStringT@GV?$StrTraitMFC_DLL@GV?$ChTraitsCRT@G@ATL@@@@@ATL@@PBVCMFCRibbonGalleryIcon@@@Z
?GetIconToolTip@CMFCRibbonColorButton@@MBA?AV?$CStringT@_WV?$StrTraitMFC_DLL@_WV?$ChTraitsCRT@_W@ATL@@@@@ATL@@PBVCMFCRibbonGalleryIcon@@@Z
?GetIconToolTip@CMFCRibbonColorButton@@MBA?AV?$CStringT@GV?$StrTraitMFC_DLL@GV?$ChTraitsCRT@G@ATL@@@@@ATL@@PBVCMFCRibbonGalleryIcon@@@Z
?GetIconToolTip@CMFCRibbonGallery@@MBA?AV?$CStringT@_WV?$StrTraitMFC_DLL@_WV?$ChTraitsCRT@_W@ATL@@@@@ATL@@PBVCMFCRibbonGalleryIcon@@@Z
?GetIconToolTip@CMFCRibbonGallery@@MBA?AV?$CStringT@GV?$StrTraitMFC_DLL@GV?$ChTraitsCRT@G@ATL@@@@@ATL@@PBVCMFCRibbonGalleryIcon@@@Z
?GetIconWndClass@CFrameWnd@@IAAPB_WKI@Z
?GetIconWndClass@CFrameWnd@@IAAPBGKI@Z
?GetID@CPropertySection@@QAAHPB_WPAK@Z
?GetID@CPropertySection@@QAAHPBGPAK@Z
?GetIDsOfNames@CDHtmlControlSink@@UAAJABU_GUID@@PAPA_WIKPAJ@Z
?GetIDsOfNames@CDHtmlControlSink@@UAAJABU_GUID@@PAPAGIKPAJ@Z
?GetIDsOfNames@CDHtmlElementEventSink@@UAAJABU_GUID@@PAPA_WIKPAJ@Z
?GetIDsOfNames@CDHtmlElementEventSink@@UAAJABU_GUID@@PAPAGIKPAJ@Z
?GetIDsOfNames@CDHtmlEventSink@@UAAJABU_GUID@@PAPA_WIKPAJ@Z
?GetIDsOfNames@CDHtmlEventSink@@UAAJABU_GUID@@PAPAGIKPAJ@Z
?GetIDsOfNames@COleDispatchImpl@@UAAJABU_GUID@@PAPA_WIKPAJ@Z
?GetIDsOfNames@COleDispatchImpl@@UAAJABU_GUID@@PAPAGIKPAJ@Z
?GetIDsOfNames@XAccessible@CMFCBaseAccessibleObject@@UAAJABU_GUID@@PAPA_WIKPAJ@Z
?GetIDsOfNames@XAccessible@CMFCBaseAccessibleObject@@UAAJABU_GUID@@PAPAGIKPAJ@Z
?GetIDsOfNames@XAccessible@CWnd@@UAAJABU_GUID@@PAPA_WIKPAJ@Z
?GetIDsOfNames@XAccessible@CWnd@@UAAJABU_GUID@@PAPAGIKPAJ@Z
?GetIDsOfNames@XAmbientProps@COleControlSite@@UAAJABU_GUID@@PAPA_WIKPAJ@Z
?GetIDsOfNames@XAmbientProps@COleControlSite@@UAAJABU_GUID@@PAPAGIKPAJ@Z
?GetIDsOfNames@XEventSink@COleControlSite@@UAAJABU_GUID@@PAPA_WIKPAJ@Z
?GetIDsOfNames@XEventSink@COleControlSite@@UAAJABU_GUID@@PAPAGIKPAJ@Z
?GetInt@CWinAppEx@@QAAHPB_WH@Z
?GetInt@CWinAppEx@@QAAHPBGH@Z
?GetItem@CMFCRibbonComboBox@@QBAPB_WH@Z
?GetItem@CMFCRibbonComboBox@@QBAPBGH@Z
?GetItem@CMFCToolBarComboBoxButton@@QBAPB_WH@Z
?GetItem@CMFCToolBarComboBoxButton@@QBAPBGH@Z
?GetItemAll@CMFCToolBarComboBoxButton@@SAPB_WIH@Z
?GetItemAll@CMFCToolBarComboBoxButton@@SAPBGIH@Z
?GetItemName@COleClientItem@@QBAXPA_W@Z
?GetItemName@COleClientItem@@QBAXPA_WI@Z
?GetItemName@COleClientItem@@QBAXPAG@Z
?GetItemName@COleClientItem@@QBAXPAGI@Z
?GetItemPath@CMFCShellListCtrl@@QBAHAAV?$CStringT@_WV?$StrTraitMFC_DLL@_WV?$ChTraitsCRT@_W@ATL@@@@@ATL@@H@Z
?GetItemPath@CMFCShellListCtrl@@QBAHAAV?$CStringT@GV?$StrTraitMFC_DLL@GV?$ChTraitsCRT@G@ATL@@@@@ATL@@H@Z
?GetItemPath@CMFCShellTreeCtrl@@QBAHAAV?$CStringT@_WV?$StrTraitMFC_DLL@_WV?$ChTraitsCRT@_W@ATL@@@@@ATL@@PAU_TREEITEM@@@Z
?GetItemPath@CMFCShellTreeCtrl@@QBAHAAV?$CStringT@GV?$StrTraitMFC_DLL@GV?$ChTraitsCRT@G@ATL@@@@@ATL@@PAU_TREEITEM@@@Z
?GetItemText@CListCtrl@@QBA?AV?$CStringT@_WV?$StrTraitMFC_DLL@_WV?$ChTraitsCRT@_W@ATL@@@@@ATL@@HH@Z
?GetItemText@CListCtrl@@QBA?AV?$CStringT@GV?$StrTraitMFC_DLL@GV?$ChTraitsCRT@G@ATL@@@@@ATL@@HH@Z
?GetItemText@CListCtrl@@QBAHHHPA_WH@Z
?GetItemText@CListCtrl@@QBAHHHPAGH@Z
?GetItemText@CTreeCtrl@@QBA?AV?$CStringT@_WV?$StrTraitMFC_DLL@_WV?$ChTraitsCRT@_W@ATL@@@@@ATL@@PAU_TREEITEM@@@Z
?GetItemText@CTreeCtrl@@QBA?AV?$CStringT@GV?$StrTraitMFC_DLL@GV?$ChTraitsCRT@G@ATL@@@@@ATL@@PAU_TREEITEM@@@Z
?GetItemText@CVSListBox@@UBA?AV?$CStringT@_WV?$StrTraitMFC_DLL@_WV?$ChTraitsCRT@_W@ATL@@@@@ATL@@H@Z
?GetItemText@CVSListBox@@UBA?AV?$CStringT@GV?$StrTraitMFC_DLL@GV?$ChTraitsCRT@G@ATL@@@@@ATL@@H@Z
?GetItemToolTip@CMFCRibbonGallery@@QBAPB_WH@Z
?GetItemToolTip@CMFCRibbonGallery@@QBAPBGH@Z
?GetKeyName@CHotKeyCtrl@@SA?AV?$CStringT@_WV?$StrTraitMFC_DLL@_WV?$ChTraitsCRT@_W@ATL@@@@@ATL@@IH@Z
?GetKeyName@CHotKeyCtrl@@SA?AV?$CStringT@GV?$StrTraitMFC_DLL@GV?$ChTraitsCRT@G@ATL@@@@@ATL@@IH@Z
?GetLBText@CComboBox@@QBAXHAAV?$CStringT@_WV?$StrTraitMFC_DLL@_WV?$ChTraitsCRT@_W@ATL@@@@@ATL@@@Z
?GetLBText@CComboBox@@QBAXHAAV?$CStringT@GV?$StrTraitMFC_DLL@GV?$ChTraitsCRT@G@ATL@@@@@ATL@@@Z
?GetLength@?$CSimpleStringT@_W$00@ATL@@QBAHXZ
?GetLength@?$CSimpleStringT@G$00@ATL@@QBAHXZ
?GetLicenseKey@COleObjectFactory@@MAAHKPAPA_W@Z
?GetLicenseKey@COleObjectFactory@@MAAHKPAPAG@Z
?GetLine@CRichEditCtrl@@QBAHHPA_W@Z
?GetLine@CRichEditCtrl@@QBAHHPA_WH@Z
?GetLine@CRichEditCtrl@@QBAHHPAG@Z
?GetLine@CRichEditCtrl@@QBAHHPAGH@Z
?GetLinkSource@COleUILinkInfo@@UAAJKPAPA_WPAK00PAH2@Z
?GetLinkSource@COleUILinkInfo@@UAAJKPAPAGPAK00PAH2@Z
?GetLocaleName@CD2DTextFormat@@QBA?AV?$CStringT@_WV?$StrTraitMFC_DLL@_WV?$ChTraitsCRT@_W@ATL@@@@@ATL@@XZ
?GetLocaleName@CD2DTextFormat@@QBA?AV?$CStringT@GV?$StrTraitMFC_DLL@GV?$ChTraitsCRT@G@ATL@@@@@ATL@@XZ
?GetLocaleName@CD2DTextLayout@@QBA?AV?$CStringT@_WV?$StrTraitMFC_DLL@_WV?$ChTraitsCRT@_W@ATL@@@@@ATL@@IPAUDWRITE_TEXT_RANGE@@@Z
?GetLocaleName@CD2DTextLayout@@QBA?AV?$CStringT@GV?$StrTraitMFC_DLL@GV?$ChTraitsCRT@G@ATL@@@@@ATL@@IPAUDWRITE_TEXT_RANGE@@@Z
?GetLocationName@CHtmlView@@QBA?AV?$CStringT@_WV?$StrTraitMFC_DLL@_WV?$ChTraitsCRT@_W@ATL@@@@@ATL@@XZ
?GetLocationName@CHtmlView@@QBA?AV?$CStringT@GV?$StrTraitMFC_DLL@GV?$ChTraitsCRT@G@ATL@@@@@ATL@@XZ
?GetLocationURL@CHtmlView@@QBA?AV?$CStringT@_WV?$StrTraitMFC_DLL@_WV?$ChTraitsCRT@_W@ATL@@@@@ATL@@XZ
?GetLocationURL@CHtmlView@@QBA?AV?$CStringT@GV?$StrTraitMFC_DLL@GV?$ChTraitsCRT@G@ATL@@@@@ATL@@XZ
?GetLongCharDataAndCleanup@CRecordset@@SAXPAVCDatabase@@PAXFJPAPAXJAAV?$CStringT@_WV?$StrTraitMFC_DLL@_WV?$ChTraitsCRT@_W@ATL@@@@@ATL@@FF@Z
?GetLongCharDataAndCleanup@CRecordset@@SAXPAVCDatabase@@PAXFJPAPAXJAAV?$CStringT@GV?$StrTraitMFC_DLL@GV?$ChTraitsCRT@G@ATL@@@@@ATL@@FF@Z
?GetManager@?$CSimpleStringT@_W$00@ATL@@QBAPAUIAtlStringMgr@2@XZ
?GetManager@?$CSimpleStringT@G$00@ATL@@QBAPAUIAtlStringMgr@2@XZ
?GetManager@?$CStringT@_WV?$StrTraitMFC_DLL@_WV?$ChTraitsCRT@_W@ATL@@@@@ATL@@QBAPAUIAtlStringMgr@2@XZ
?GetManager@?$CStringT@GV?$StrTraitMFC_DLL@GV?$ChTraitsCRT@G@ATL@@@@@ATL@@QBAPAUIAtlStringMgr@2@XZ
?GetMaskedValue@CMFCMaskedEdit@@IBA?BV?$CStringT@_WV?$StrTraitMFC_DLL@_WV?$ChTraitsCRT@_W@ATL@@@@@ATL@@H@Z
?GetMaskedValue@CMFCMaskedEdit@@IBA?BV?$CStringT@GV?$StrTraitMFC_DLL@GV?$ChTraitsCRT@G@ATL@@@@@ATL@@H@Z
?GetMenuByName@CContextMenuManager@@QBAPAUHMENU__@@PB_WPAI@Z
?GetMenuByName@CContextMenuManager@@QBAPAUHMENU__@@PBGPAI@Z
?GetMenuStringW@CMenu@@QBAHIAAV?$CStringT@_WV?$StrTraitMFC_DLL@_WV?$ChTraitsCRT@_W@ATL@@@@@ATL@@I@Z
?GetMenuStringW@CMenu@@QBAHIAAV?$CStringT@GV?$StrTraitMFC_DLL@GV?$ChTraitsCRT@G@ATL@@@@@ATL@@I@Z
?GetMessageString@CFrameWnd@@UBAXIAAV?$CStringT@_WV?$StrTraitMFC_DLL@_WV?$ChTraitsCRT@_W@ATL@@@@@ATL@@@Z
?GetMessageString@CFrameWnd@@UBAXIAAV?$CStringT@GV?$StrTraitMFC_DLL@GV?$ChTraitsCRT@G@ATL@@@@@ATL@@@Z
?GetMessageString@COleControl@@UBAXIAAV?$CStringT@_WV?$StrTraitMFC_DLL@_WV?$ChTraitsCRT@_W@ATL@@@@@ATL@@@Z
?GetMessageString@COleControl@@UBAXIAAV?$CStringT@GV?$StrTraitMFC_DLL@GV?$ChTraitsCRT@G@ATL@@@@@ATL@@@Z
?GetMRUFileName@CMFCTasksPane@@MAAHPAVCRecentFileList@@HAAV?$CStringT@_WV?$StrTraitMFC_DLL@_WV?$ChTraitsCRT@_W@ATL@@@@@ATL@@@Z
?GetMRUFileName@CMFCTasksPane@@MAAHPAVCRecentFileList@@HAAV?$CStringT@GV?$StrTraitMFC_DLL@GV?$ChTraitsCRT@G@ATL@@@@@ATL@@@Z
?GetNameTooltip@CMFCPropertyGridProperty@@UAA?AV?$CStringT@_WV?$StrTraitMFC_DLL@_WV?$ChTraitsCRT@_W@ATL@@@@@ATL@@XZ
?GetNameTooltip@CMFCPropertyGridProperty@@UAA?AV?$CStringT@GV?$StrTraitMFC_DLL@GV?$ChTraitsCRT@G@ATL@@@@@ATL@@XZ
?GetNextAssoc@CMapStringToOb@@QBAXAAPAU__POSITION@@AAV?$CStringT@_WV?$StrTraitMFC_DLL@_WV?$ChTraitsCRT@_W@ATL@@@@@ATL@@AAPAVCObject@@@Z
?GetNextAssoc@CMapStringToOb@@QBAXAAPAU__POSITION@@AAV?$CStringT@GV?$StrTraitMFC_DLL@GV?$ChTraitsCRT@G@ATL@@@@@ATL@@AAPAVCObject@@@Z
?GetNextAssoc@CMapStringToPtr@@QBAXAAPAU__POSITION@@AAV?$CStringT@_WV?$StrTraitMFC_DLL@_WV?$ChTraitsCRT@_W@ATL@@@@@ATL@@AAPAX@Z
?GetNextAssoc@CMapStringToPtr@@QBAXAAPAU__POSITION@@AAV?$CStringT@GV?$StrTraitMFC_DLL@GV?$ChTraitsCRT@G@ATL@@@@@ATL@@AAPAX@Z
?GetNextAssoc@CMapStringToString@@QBAXAAPAU__POSITION@@AAV?$CStringT@_WV?$StrTraitMFC_DLL@_WV?$ChTraitsCRT@_W@ATL@@@@@ATL@@1@Z
?GetNextAssoc@CMapStringToString@@QBAXAAPAU__POSITION@@AAV?$CStringT@GV?$StrTraitMFC_DLL@GV?$ChTraitsCRT@G@ATL@@@@@ATL@@1@Z
?GetNextPathName@CFileDialog@@QBA?AV?$CStringT@_WV?$StrTraitMFC_DLL@_WV?$ChTraitsCRT@_W@ATL@@@@@ATL@@AAPAU__POSITION@@@Z
?GetNextPathName@CFileDialog@@QBA?AV?$CStringT@GV?$StrTraitMFC_DLL@GV?$ChTraitsCRT@G@ATL@@@@@ATL@@AAPAU__POSITION@@@Z
?GetNormalDocumentTitle@CDataRecoveryHandler@@UBA?AV?$CStringT@_WV?$StrTraitMFC_DLL@_WV?$ChTraitsCRT@_W@ATL@@@@@ATL@@PAVCDocument@@@Z
?GetNormalDocumentTitle@CDataRecoveryHandler@@UBA?AV?$CStringT@GV?$StrTraitMFC_DLL@GV?$ChTraitsCRT@G@ATL@@@@@ATL@@PAVCDocument@@@Z
?GetObjectCollection@CJumpList@@IAAPAUIObjectCollection@@PB_W@Z
?GetObjectCollection@CJumpList@@IAAPAUIObjectCollection@@PBG@Z
?GetObjectInfo@XOleUIObjInfo@COlePropertiesDialog@@UAAJKPAKPAPA_W111@Z
?GetObjectInfo@XOleUIObjInfo@COlePropertiesDialog@@UAAJKPAKPAPAG111@Z
?GetObjectStorage@XOleItemContainer@COleLinkingDoc@@UAAJPA_WPAUIBindCtx@@ABU_GUID@@PAPAX@Z
?GetObjectStorage@XOleItemContainer@COleLinkingDoc@@UAAJPAGPAUIBindCtx@@ABU_GUID@@PAPAX@Z
?GetObjectW@CHttpFile@@QBA?AV?$CStringT@_WV?$StrTraitMFC_DLL@_WV?$ChTraitsCRT@_W@ATL@@@@@ATL@@XZ
?GetObjectW@CHttpFile@@QBA?AV?$CStringT@GV?$StrTraitMFC_DLL@GV?$ChTraitsCRT@G@ATL@@@@@ATL@@XZ
?GetObjectW@CWinAppEx@@QAAHPB_WAAVCObject@@@Z
?GetObjectW@CWinAppEx@@QAAHPBGAAVCObject@@@Z
?GetObjectW@XOleItemContainer@COleLinkingDoc@@UAAJPA_WKPAUIBindCtx@@ABU_GUID@@PAPAX@Z
?GetObjectW@XOleItemContainer@COleLinkingDoc@@UAAJPAGKPAUIBindCtx@@ABU_GUID@@PAPAX@Z
?GetODBCFieldInfo@CRecordset@@QAAXPB_WAAUCODBCFieldInfo@@@Z
?GetODBCFieldInfo@CRecordset@@QAAXPBGAAUCODBCFieldInfo@@@Z
?GetOptimalTextSize@CMFCDesktopAlertDialog@@IAA?AVCSize@@V?$CStringT@_WV?$StrTraitMFC_DLL@_WV?$ChTraitsCRT@_W@ATL@@@@@ATL@@@Z
?GetOptimalTextSize@CMFCDesktopAlertDialog@@IAA?AVCSize@@V?$CStringT@GV?$StrTraitMFC_DLL@GV?$ChTraitsCRT@G@ATL@@@@@ATL@@@Z
?GetOption@CMFCPropertyGridProperty@@QBAPB_WH@Z
?GetOption@CMFCPropertyGridProperty@@QBAPBGH@Z
?GetOptionKeyPath@CBrowserControlSite@@MAAJPAPA_WK@Z
?GetOptionKeyPath@CBrowserControlSite@@MAAJPAPAGK@Z
?GetOptionKeyPath@CDHtmlDialog@@UAAJPAPA_WK@Z
?GetOptionKeyPath@CDHtmlDialog@@UAAJPAPAGK@Z
?GetOptionKeyPath@XDocHostUIHandler@CHtmlControlSite@@UAAJPAPA_WK@Z
?GetOptionKeyPath@XDocHostUIHandler@CHtmlControlSite@@UAAJPAPAGK@Z
?GetPaneName@CPane@@UBAXAAV?$CStringT@_WV?$StrTraitMFC_DLL@_WV?$ChTraitsCRT@_W@ATL@@@@@ATL@@@Z
?GetPaneName@CPane@@UBAXAAV?$CStringT@GV?$StrTraitMFC_DLL@GV?$ChTraitsCRT@G@ATL@@@@@ATL@@@Z
?GetPaneText@CMFCStatusBar@@QBA?AV?$CStringT@_WV?$StrTraitMFC_DLL@_WV?$ChTraitsCRT@_W@ATL@@@@@ATL@@H@Z
?GetPaneText@CMFCStatusBar@@QBA?AV?$CStringT@GV?$StrTraitMFC_DLL@GV?$ChTraitsCRT@G@ATL@@@@@ATL@@H@Z
?GetPaneText@CMFCStatusBar@@QBAXHAAV?$CStringT@_WV?$StrTraitMFC_DLL@_WV?$ChTraitsCRT@_W@ATL@@@@@ATL@@@Z
?GetPaneText@CMFCStatusBar@@QBAXHAAV?$CStringT@GV?$StrTraitMFC_DLL@GV?$ChTraitsCRT@G@ATL@@@@@ATL@@@Z
?GetPaneText@CStatusBar@@QBA?AV?$CStringT@_WV?$StrTraitMFC_DLL@_WV?$ChTraitsCRT@_W@ATL@@@@@ATL@@H@Z
?GetPaneText@CStatusBar@@QBA?AV?$CStringT@GV?$StrTraitMFC_DLL@GV?$ChTraitsCRT@G@ATL@@@@@ATL@@H@Z
?GetPaneText@CStatusBar@@QBAXHAAV?$CStringT@_WV?$StrTraitMFC_DLL@_WV?$ChTraitsCRT@_W@ATL@@@@@ATL@@@Z
?GetPaneText@CStatusBar@@QBAXHAAV?$CStringT@GV?$StrTraitMFC_DLL@GV?$ChTraitsCRT@G@ATL@@@@@ATL@@@Z
?GetPathName@CFileDialog@@QBA?AV?$CStringT@_WV?$StrTraitMFC_DLL@_WV?$ChTraitsCRT@_W@ATL@@@@@ATL@@XZ
?GetPathName@CFileDialog@@QBA?AV?$CStringT@GV?$StrTraitMFC_DLL@GV?$ChTraitsCRT@G@ATL@@@@@ATL@@XZ
?GetPeerName@CAsyncSocket@@QAAHAAV?$CStringT@_WV?$StrTraitMFC_DLL@_WV?$ChTraitsCRT@_W@ATL@@@@@ATL@@AAI@Z
?GetPeerName@CAsyncSocket@@QAAHAAV?$CStringT@GV?$StrTraitMFC_DLL@GV?$ChTraitsCRT@G@ATL@@@@@ATL@@AAI@Z
?GetPortName@CPageSetupDialog@@QBA?AV?$CStringT@_WV?$StrTraitMFC_DLL@_WV?$ChTraitsCRT@_W@ATL@@@@@ATL@@XZ
?GetPortName@CPageSetupDialog@@QBA?AV?$CStringT@GV?$StrTraitMFC_DLL@GV?$ChTraitsCRT@G@ATL@@@@@ATL@@XZ
?GetPortName@CPrintDialog@@QBA?AV?$CStringT@_WV?$StrTraitMFC_DLL@_WV?$ChTraitsCRT@_W@ATL@@@@@ATL@@XZ
?GetPortName@CPrintDialog@@QBA?AV?$CStringT@GV?$StrTraitMFC_DLL@GV?$ChTraitsCRT@G@ATL@@@@@ATL@@XZ
?GetPortName@CPrintDialogEx@@QBA?AV?$CStringT@_WV?$StrTraitMFC_DLL@_WV?$ChTraitsCRT@_W@ATL@@@@@ATL@@XZ
?GetPortName@CPrintDialogEx@@QBA?AV?$CStringT@GV?$StrTraitMFC_DLL@GV?$ChTraitsCRT@G@ATL@@@@@ATL@@XZ
?GetProfileBinary@CWinApp@@UAAHPB_W0PAPAEPAI@Z
?GetProfileBinary@CWinApp@@UAAHPBG0PAPAEPAI@Z
?GetProfileIntW@CWinApp@@UAAIPB_W0H@Z
?GetProfileIntW@CWinApp@@UAAIPBG0H@Z
?GetProfileStringW@CWinApp@@UAA?AV?$CStringT@_WV?$StrTraitMFC_DLL@_WV?$ChTraitsCRT@_W@ATL@@@@@ATL@@PB_W00@Z
?GetProfileStringW@CWinApp@@UAA?AV?$CStringT@GV?$StrTraitMFC_DLL@GV?$ChTraitsCRT@G@ATL@@@@@ATL@@PBG00@Z
?GetPropCheck@COlePropertyPage@@QAAHPB_WPAH@Z
?GetPropCheck@COlePropertyPage@@QAAHPBGPAH@Z
?GetProperty@CHtmlView@@QAA?AVCOleVariant@@PB_W@Z
?GetProperty@CHtmlView@@QAA?AVCOleVariant@@PBG@Z
?GetProperty@CHtmlView@@QAAHPB_WAAV?$CStringT@_WV?$StrTraitMFC_DLL@_WV?$ChTraitsCRT@_W@ATL@@@@@ATL@@@Z
?GetProperty@CHtmlView@@QAAHPBGAAV?$CStringT@GV?$StrTraitMFC_DLL@GV?$ChTraitsCRT@G@ATL@@@@@ATL@@@Z
?GetPropIndex@COlePropertyPage@@QAAHPB_WPAH@Z
?GetPropIndex@COlePropertyPage@@QAAHPBGPAH@Z
?GetPropRadio@COlePropertyPage@@QAAHPB_WPAH@Z
?GetPropRadio@COlePropertyPage@@QAAHPBGPAH@Z
?GetPropText@COlePropertyPage@@QAAHPB_WPAE@Z
?GetPropText@COlePropertyPage@@QAAHPB_WPAF@Z
?GetPropText@COlePropertyPage@@QAAHPB_WPAH@Z
?GetPropText@COlePropertyPage@@QAAHPB_WPAI@Z
?GetPropText@COlePropertyPage@@QAAHPB_WPAJ@Z
?GetPropText@COlePropertyPage@@QAAHPB_WPAK@Z
?GetPropText@COlePropertyPage@@QAAHPB_WPAM@Z
?GetPropText@COlePropertyPage@@QAAHPB_WPAN@Z
?GetPropText@COlePropertyPage@@QAAHPB_WPAV?$CStringT@_WV?$StrTraitMFC_DLL@_WV?$ChTraitsCRT@_W@ATL@@@@@ATL@@@Z
?GetPropText@COlePropertyPage@@QAAHPBGPAE@Z
?GetPropText@COlePropertyPage@@QAAHPBGPAF@Z
?GetPropText@COlePropertyPage@@QAAHPBGPAH@Z
?GetPropText@COlePropertyPage@@QAAHPBGPAI@Z
?GetPropText@COlePropertyPage@@QAAHPBGPAJ@Z
?GetPropText@COlePropertyPage@@QAAHPBGPAK@Z
?GetPropText@COlePropertyPage@@QAAHPBGPAM@Z
?GetPropText@COlePropertyPage@@QAAHPBGPAN@Z
?GetPropText@COlePropertyPage@@QAAHPBGPAV?$CStringT@GV?$StrTraitMFC_DLL@GV?$ChTraitsCRT@G@ATL@@@@@ATL@@@Z
?GetRecoveredDocumentTitle@CDataRecoveryHandler@@UBA?AV?$CStringT@_WV?$StrTraitMFC_DLL@_WV?$ChTraitsCRT@_W@ATL@@@@@ATL@@ABV23@@Z
?GetRecoveredDocumentTitle@CDataRecoveryHandler@@UBA?AV?$CStringT@GV?$StrTraitMFC_DLL@GV?$ChTraitsCRT@G@ATL@@@@@ATL@@ABV23@@Z
?GetRegSectionPath@CWinAppEx@@QAA?AV?$CStringT@_WV?$StrTraitMFC_DLL@_WV?$ChTraitsCRT@_W@ATL@@@@@ATL@@PB_W@Z
?GetRegSectionPath@CWinAppEx@@QAA?AV?$CStringT@GV?$StrTraitMFC_DLL@GV?$ChTraitsCRT@G@ATL@@@@@ATL@@PBG@Z
?GetResourceID@CMFCControlRendererInfo@@QBAPB_WXZ
?GetResourceID@CMFCControlRendererInfo@@QBAPBGXZ
?GetRoot@CFileFind@@UBA?AV?$CStringT@_WV?$StrTraitMFC_DLL@_WV?$ChTraitsCRT@_W@ATL@@@@@ATL@@XZ
?GetRoot@CFileFind@@UBA?AV?$CStringT@GV?$StrTraitMFC_DLL@GV?$ChTraitsCRT@G@ATL@@@@@ATL@@XZ
?GetRoot@CGopherFileFind@@UBA?AV?$CStringT@_WV?$StrTraitMFC_DLL@_WV?$ChTraitsCRT@_W@ATL@@@@@ATL@@XZ
?GetRoot@CGopherFileFind@@UBA?AV?$CStringT@GV?$StrTraitMFC_DLL@GV?$ChTraitsCRT@G@ATL@@@@@ATL@@XZ
?GetScreenName@CGopherFileFind@@QBA?AV?$CStringT@_WV?$StrTraitMFC_DLL@_WV?$ChTraitsCRT@_W@ATL@@@@@ATL@@XZ
?GetScreenName@CGopherFileFind@@QBA?AV?$CStringT@GV?$StrTraitMFC_DLL@GV?$ChTraitsCRT@G@ATL@@@@@ATL@@XZ
?GetSectionBinary@CWinAppEx@@QAAHPB_W0PAPAEPAI@Z
?GetSectionBinary@CWinAppEx@@QAAHPBG0PAPAEPAI@Z
?GetSectionInt@CWinAppEx@@QAAHPB_W0H@Z
?GetSectionInt@CWinAppEx@@QAAHPBG0H@Z
?GetSectionKey@CWinApp@@QAAPAUHKEY__@@PB_WPAVCAtlTransactionManager@ATL@@@Z
?GetSectionKey@CWinApp@@QAAPAUHKEY__@@PBGPAVCAtlTransactionManager@ATL@@@Z
?GetSectionName@CPropertySection@@QAAPB_WXZ
?GetSectionName@CPropertySection@@QAAPBGXZ
?GetSectionObject@CWinAppEx@@QAAHPB_W0AAVCObject@@@Z
?GetSectionObject@CWinAppEx@@QAAHPBG0AAVCObject@@@Z
?GetSectionString@CWinAppEx@@QAA?AV?$CStringT@_WV?$StrTraitMFC_DLL@_WV?$ChTraitsCRT@_W@ATL@@@@@ATL@@PB_W00@Z
?GetSectionString@CWinAppEx@@QAA?AV?$CStringT@GV?$StrTraitMFC_DLL@GV?$ChTraitsCRT@G@ATL@@@@@ATL@@PBG00@Z
?GetSelectedText@CEditView@@QBAXAAV?$CStringT@_WV?$StrTraitMFC_DLL@_WV?$ChTraitsCRT@_W@ATL@@@@@ATL@@@Z
?GetSelectedText@CEditView@@QBAXAAV?$CStringT@GV?$StrTraitMFC_DLL@GV?$ChTraitsCRT@G@ATL@@@@@ATL@@@Z
?GetSelText@CRichEditCtrl@@QBA?AV?$CStringT@_WV?$StrTraitMFC_DLL@_WV?$ChTraitsCRT@_W@ATL@@@@@ATL@@XZ
?GetSelText@CRichEditCtrl@@QBA?AV?$CStringT@GV?$StrTraitMFC_DLL@GV?$ChTraitsCRT@G@ATL@@@@@ATL@@XZ
?GetSockName@CAsyncSocket@@QAAHAAV?$CStringT@_WV?$StrTraitMFC_DLL@_WV?$ChTraitsCRT@_W@ATL@@@@@ATL@@AAI@Z
?GetSockName@CAsyncSocket@@QAAHAAV?$CStringT@GV?$StrTraitMFC_DLL@GV?$ChTraitsCRT@G@ATL@@@@@ATL@@AAI@Z
?GetSource@CHtmlView@@UAAHAAV?$CStringT@_WV?$StrTraitMFC_DLL@_WV?$ChTraitsCRT@_W@ATL@@@@@ATL@@@Z
?GetSource@CHtmlView@@UAAHAAV?$CStringT@GV?$StrTraitMFC_DLL@GV?$ChTraitsCRT@G@ATL@@@@@ATL@@@Z
?GetStartDocument@CHtmlEditCtrl@@UAAPB_WXZ
?GetStartDocument@CHtmlEditCtrl@@UAAPBGXZ
?GetStartDocument@CHtmlEditView@@UAAPB_WXZ
?GetStartDocument@CHtmlEditView@@UAAPBGXZ
?GetStatus@CFile@@SAHPB_WAAUCFileStatus@@PAVCAtlTransactionManager@ATL@@@Z
?GetStatus@CFile@@SAHPBGAAUCFileStatus@@PAVCAtlTransactionManager@ATL@@@Z
?GetStorageName@COleStreamFile@@UBA?BV?$CStringT@_WV?$StrTraitMFC_DLL@_WV?$ChTraitsCRT@_W@ATL@@@@@ATL@@XZ
?GetStorageName@COleStreamFile@@UBA?BV?$CStringT@GV?$StrTraitMFC_DLL@GV?$ChTraitsCRT@G@ATL@@@@@ATL@@XZ
?GetString@?$CSimpleStringT@_W$00@ATL@@QBAPB_WXZ
?GetString@?$CSimpleStringT@G$00@ATL@@QBAPBGXZ
?GetString@CToolBarCtrl@@QBAHHAAV?$CStringT@_WV?$StrTraitMFC_DLL@_WV?$ChTraitsCRT@_W@ATL@@@@@ATL@@@Z
?GetString@CToolBarCtrl@@QBAHHAAV?$CStringT@GV?$StrTraitMFC_DLL@GV?$ChTraitsCRT@G@ATL@@@@@ATL@@@Z
?GetString@CWinAppEx@@QAA?AV?$CStringT@_WV?$StrTraitMFC_DLL@_WV?$ChTraitsCRT@_W@ATL@@@@@ATL@@PB_W0@Z
?GetString@CWinAppEx@@QAA?AV?$CStringT@GV?$StrTraitMFC_DLL@GV?$ChTraitsCRT@G@ATL@@@@@ATL@@PBG0@Z
?GetStyleResourceID@CMFCVisualManagerOffice2007@@KA?AV?$CStringT@_WV?$StrTraitMFC_DLL@_WV?$ChTraitsCRT@_W@ATL@@@@@ATL@@W4Style@1@@Z
?GetStyleResourceID@CMFCVisualManagerOffice2007@@KA?AV?$CStringT@GV?$StrTraitMFC_DLL@GV?$ChTraitsCRT@G@ATL@@@@@ATL@@W4Style@1@@Z
?GetStyleResourceID@CMFCVisualManagerWindows7@@KA?AV?$CStringT@_WV?$StrTraitMFC_DLL@_WV?$ChTraitsCRT@_W@ATL@@@@@ATL@@XZ
?GetStyleResourceID@CMFCVisualManagerWindows7@@KA?AV?$CStringT@GV?$StrTraitMFC_DLL@GV?$ChTraitsCRT@G@ATL@@@@@ATL@@XZ
?GetTabLabel@CMFCBaseTabCtrl@@UBAHHAAV?$CStringT@_WV?$StrTraitMFC_DLL@_WV?$ChTraitsCRT@_W@ATL@@@@@ATL@@@Z
?GetTabLabel@CMFCBaseTabCtrl@@UBAHHAAV?$CStringT@GV?$StrTraitMFC_DLL@GV?$ChTraitsCRT@G@ATL@@@@@ATL@@@Z
?GetText@CListBox@@QBAXHAAV?$CStringT@_WV?$StrTraitMFC_DLL@_WV?$ChTraitsCRT@_W@ATL@@@@@ATL@@@Z
?GetText@CListBox@@QBAXHAAV?$CStringT@GV?$StrTraitMFC_DLL@GV?$ChTraitsCRT@G@ATL@@@@@ATL@@@Z
?GetText@CMFCDropDownListBox@@QBAXHAAV?$CStringT@_WV?$StrTraitMFC_DLL@_WV?$ChTraitsCRT@_W@ATL@@@@@ATL@@@Z
?GetText@CMFCDropDownListBox@@QBAXHAAV?$CStringT@GV?$StrTraitMFC_DLL@GV?$ChTraitsCRT@G@ATL@@@@@ATL@@@Z
?GetText@COleControl@@QAAPA_WXZ
?GetText@COleControl@@QAAPAGXZ
?GetText@CStatusBarCtrl@@QBA?AV?$CStringT@_WV?$StrTraitMFC_DLL@_WV?$ChTraitsCRT@_W@ATL@@@@@ATL@@HPAH@Z
?GetText@CStatusBarCtrl@@QBA?AV?$CStringT@GV?$StrTraitMFC_DLL@GV?$ChTraitsCRT@G@ATL@@@@@ATL@@HPAH@Z
?GetText@CStatusBarCtrl@@QBAHPA_WHPAH@Z
?GetText@CStatusBarCtrl@@QBAHPAGHPAH@Z
?GetText@CToolTipCtrl@@QBAXAAV?$CStringT@_WV?$StrTraitMFC_DLL@_WV?$ChTraitsCRT@_W@ATL@@@@@ATL@@PAVCWnd@@I@Z
?GetText@CToolTipCtrl@@QBAXAAV?$CStringT@GV?$StrTraitMFC_DLL@GV?$ChTraitsCRT@G@ATL@@@@@ATL@@PAVCWnd@@I@Z
?GetTextAll@CMFCToolBarComboBoxButton@@SAPB_WI@Z
?GetTextAll@CMFCToolBarComboBoxButton@@SAPBGI@Z
?GetTextRange@CRichEditCtrl@@QBAHHHAAV?$CStringT@_WV?$StrTraitMFC_DLL@_WV?$ChTraitsCRT@_W@ATL@@@@@ATL@@@Z
?GetTextRange@CRichEditCtrl@@QBAHHHAAV?$CStringT@GV?$StrTraitMFC_DLL@GV?$ChTraitsCRT@G@ATL@@@@@ATL@@@Z
?GetTextSize@CMFCCaptionBar@@MAA?AVCSize@@PAVCDC@@ABV?$CStringT@_WV?$StrTraitMFC_DLL@_WV?$ChTraitsCRT@_W@ATL@@@@@ATL@@@Z
?GetTextSize@CMFCCaptionBar@@MAA?AVCSize@@PAVCDC@@ABV?$CStringT@GV?$StrTraitMFC_DLL@GV?$ChTraitsCRT@G@ATL@@@@@ATL@@@Z
?GetTipText@CMFCStatusBar@@QBA?AV?$CStringT@_WV?$StrTraitMFC_DLL@_WV?$ChTraitsCRT@_W@ATL@@@@@ATL@@H@Z
?GetTipText@CMFCStatusBar@@QBA?AV?$CStringT@GV?$StrTraitMFC_DLL@GV?$ChTraitsCRT@G@ATL@@@@@ATL@@H@Z
?GetTipText@CStatusBarCtrl@@QBA?AV?$CStringT@_WV?$StrTraitMFC_DLL@_WV?$ChTraitsCRT@_W@ATL@@@@@ATL@@H@Z
?GetTipText@CStatusBarCtrl@@QBA?AV?$CStringT@GV?$StrTraitMFC_DLL@GV?$ChTraitsCRT@G@ATL@@@@@ATL@@H@Z
?GetToolTipText@CMFCRibbonBaseElement@@UBA?AV?$CStringT@_WV?$StrTraitMFC_DLL@_WV?$ChTraitsCRT@_W@ATL@@@@@ATL@@XZ
?GetToolTipText@CMFCRibbonBaseElement@@UBA?AV?$CStringT@GV?$StrTraitMFC_DLL@GV?$ChTraitsCRT@G@ATL@@@@@ATL@@XZ
?GetToolTipText@CMFCRibbonButton@@UBA?AV?$CStringT@_WV?$StrTraitMFC_DLL@_WV?$ChTraitsCRT@_W@ATL@@@@@ATL@@XZ
?GetToolTipText@CMFCRibbonButton@@UBA?AV?$CStringT@GV?$StrTraitMFC_DLL@GV?$ChTraitsCRT@G@ATL@@@@@ATL@@XZ
?GetToolTipText@CMFCRibbonGalleryIcon@@MBA?AV?$CStringT@_WV?$StrTraitMFC_DLL@_WV?$ChTraitsCRT@_W@ATL@@@@@ATL@@XZ
?GetToolTipText@CMFCRibbonGalleryIcon@@MBA?AV?$CStringT@GV?$StrTraitMFC_DLL@GV?$ChTraitsCRT@G@ATL@@@@@ATL@@XZ
?GetToolTipText@CMFCRibbonStatusBarPane@@MBA?AV?$CStringT@_WV?$StrTraitMFC_DLL@_WV?$ChTraitsCRT@_W@ATL@@@@@ATL@@XZ
?GetToolTipText@CMFCRibbonStatusBarPane@@MBA?AV?$CStringT@GV?$StrTraitMFC_DLL@GV?$ChTraitsCRT@G@ATL@@@@@ATL@@XZ
?GetToolTipText@CMFCRibbonTab@@UBA?AV?$CStringT@_WV?$StrTraitMFC_DLL@_WV?$ChTraitsCRT@_W@ATL@@@@@ATL@@XZ
?GetToolTipText@CMFCRibbonTab@@UBA?AV?$CStringT@GV?$StrTraitMFC_DLL@GV?$ChTraitsCRT@G@ATL@@@@@ATL@@XZ
?GetType@CHtmlView@@QBA?AV?$CStringT@_WV?$StrTraitMFC_DLL@_WV?$ChTraitsCRT@_W@ATL@@@@@ATL@@XZ
?GetType@CHtmlView@@QBA?AV?$CStringT@GV?$StrTraitMFC_DLL@GV?$ChTraitsCRT@G@ATL@@@@@ATL@@XZ
?GetUserType@COleClientItem@@QAAXW4tagUSERCLASSTYPE@@AAV?$CStringT@_WV?$StrTraitMFC_DLL@_WV?$ChTraitsCRT@_W@ATL@@@@@ATL@@@Z
?GetUserType@COleClientItem@@QAAXW4tagUSERCLASSTYPE@@AAV?$CStringT@GV?$StrTraitMFC_DLL@GV?$ChTraitsCRT@G@ATL@@@@@ATL@@@Z
?GetUserType@COleControl@@IAAXPA_W@Z
?GetUserType@COleControl@@IAAXPAG@Z
?GetUserType@XOleObject@CDocObjectServer@@UAAJKPAPA_W@Z
?GetUserType@XOleObject@CDocObjectServer@@UAAJKPAPAG@Z
?GetUserType@XOleObject@COleControl@@UAAJKPAPA_W@Z
?GetUserType@XOleObject@COleControl@@UAAJKPAPAG@Z
?GetUserType@XOleObject@COleServerDoc@@UAAJKPAPA_W@Z
?GetUserType@XOleObject@COleServerDoc@@UAAJKPAPAG@Z
?GetUserType@XOleObject@COleServerItem@@UAAJKPAPA_W@Z
?GetUserType@XOleObject@COleServerItem@@UAAJKPAPAG@Z
?GetValueTooltip@CMFCPropertyGridProperty@@UAA?AV?$CStringT@_WV?$StrTraitMFC_DLL@_WV?$ChTraitsCRT@_W@ATL@@@@@ATL@@XZ
?GetValueTooltip@CMFCPropertyGridProperty@@UAA?AV?$CStringT@GV?$StrTraitMFC_DLL@GV?$ChTraitsCRT@G@ATL@@@@@ATL@@XZ
?GetVerb@CHttpFile@@QBA?AV?$CStringT@_WV?$StrTraitMFC_DLL@_WV?$ChTraitsCRT@_W@ATL@@@@@ATL@@XZ
?GetVerb@CHttpFile@@QBA?AV?$CStringT@GV?$StrTraitMFC_DLL@GV?$ChTraitsCRT@G@ATL@@@@@ATL@@XZ
?GetViewIdByName@CMouseManager@@QBAHPB_W@Z
?GetViewIdByName@CMouseManager@@QBAHPBG@Z
?GetWindowTextW@CMFCMaskedEdit@@QBAHPA_WH@Z
?GetWindowTextW@CMFCMaskedEdit@@QBAHPAGH@Z
?GetWindowTextW@CMFCMaskedEdit@@QBAXAAV?$CStringT@_WV?$StrTraitMFC_DLL@_WV?$ChTraitsCRT@_W@ATL@@@@@ATL@@@Z
?GetWindowTextW@CMFCMaskedEdit@@QBAXAAV?$CStringT@GV?$StrTraitMFC_DLL@GV?$ChTraitsCRT@G@ATL@@@@@ATL@@@Z
?GetWindowTextW@COleControlSite@@UBAXAAV?$CStringT@_WV?$StrTraitMFC_DLL@_WV?$ChTraitsCRT@_W@ATL@@@@@ATL@@@Z
?GetWindowTextW@COleControlSite@@UBAXAAV?$CStringT@GV?$StrTraitMFC_DLL@GV?$ChTraitsCRT@G@ATL@@@@@ATL@@@Z
?GetWindowTextW@CWnd@@QBAHPA_WH@Z
?GetWindowTextW@CWnd@@QBAHPAGH@Z
?GetWindowTextW@CWnd@@QBAXAAV?$CStringT@_WV?$StrTraitMFC_DLL@_WV?$ChTraitsCRT@_W@ATL@@@@@ATL@@@Z
?GetWindowTextW@CWnd@@QBAXAAV?$CStringT@GV?$StrTraitMFC_DLL@GV?$ChTraitsCRT@G@ATL@@@@@ATL@@@Z
?Help@XPropertyPage@COlePropertyPage@@UAAJPB_W@Z
?Help@XPropertyPage@COlePropertyPage@@UAAJPBG@Z
?HexDump@CDumpContext@@QAAXPB_WPAEHH@Z
?HexDump@CDumpContext@@QAAXPBGPAEHH@Z
?Initialize@CMenuTearOffManager@@QAAHPB_WII@Z
?Initialize@CMenuTearOffManager@@QAAHPBGII@Z
?Initialize@CMFCToolBarMenuButton@@IAAXIPAUHMENU__@@HPB_WH@Z
?Initialize@CMFCToolBarMenuButton@@IAAXIPAUHMENU__@@HPBGH@Z
?InitUserToolbars@CFrameImpl@@IAAXPB_WII@Z
?InitUserToolbars@CFrameImpl@@IAAXPBGII@Z
?Insert@?$CStringT@_WV?$StrTraitMFC_DLL@_WV?$ChTraitsCRT@_W@ATL@@@@@ATL@@QAAHH_W@Z
?Insert@?$CStringT@_WV?$StrTraitMFC_DLL@_WV?$ChTraitsCRT@_W@ATL@@@@@ATL@@QAAHHPB_W@Z
?Insert@?$CStringT@GV?$StrTraitMFC_DLL@GV?$ChTraitsCRT@G@ATL@@@@@ATL@@QAAHHG@Z
?Insert@?$CStringT@GV?$StrTraitMFC_DLL@GV?$ChTraitsCRT@G@ATL@@@@@ATL@@QAAHHPBG@Z
?InsertAfter@CStringList@@QAAPAU__POSITION@@PAU2@ABV?$CStringT@_WV?$StrTraitMFC_DLL@_WV?$ChTraitsCRT@_W@ATL@@@@@ATL@@@Z
?InsertAfter@CStringList@@QAAPAU__POSITION@@PAU2@ABV?$CStringT@GV?$StrTraitMFC_DLL@GV?$ChTraitsCRT@G@ATL@@@@@ATL@@@Z
?InsertAfter@CStringList@@QAAPAU__POSITION@@PAU2@PB_W@Z
?InsertAfter@CStringList@@QAAPAU__POSITION@@PAU2@PBG@Z
?InsertAt@CStringArray@@QAAXHABV?$CStringT@_WV?$StrTraitMFC_DLL@_WV?$ChTraitsCRT@_W@ATL@@@@@ATL@@H@Z
?InsertAt@CStringArray@@QAAXHABV?$CStringT@GV?$StrTraitMFC_DLL@GV?$ChTraitsCRT@G@ATL@@@@@ATL@@H@Z
?InsertAt@CStringArray@@QAAXHPB_WH@Z
?InsertAt@CStringArray@@QAAXHPBGH@Z
?InsertBefore@CStringList@@QAAPAU__POSITION@@PAU2@ABV?$CStringT@_WV?$StrTraitMFC_DLL@_WV?$ChTraitsCRT@_W@ATL@@@@@ATL@@@Z
?InsertBefore@CStringList@@QAAPAU__POSITION@@PAU2@ABV?$CStringT@GV?$StrTraitMFC_DLL@GV?$ChTraitsCRT@G@ATL@@@@@ATL@@@Z
?InsertBefore@CStringList@@QAAPAU__POSITION@@PAU2@PB_W@Z
?InsertBefore@CStringList@@QAAPAU__POSITION@@PAU2@PBG@Z
?InsertColumn@CListCtrl@@QAAHHPB_WHHH@Z
?InsertColumn@CListCtrl@@QAAHHPBGHHH@Z
?InsertFileAsObject@CRichEditView@@QAAXPB_W@Z
?InsertFileAsObject@CRichEditView@@QAAXPBG@Z
?InsertItem@CListCtrl@@QAAHIHPB_WIIHJ@Z
?InsertItem@CListCtrl@@QAAHIHPBGIIHJ@Z
?InsertItem@CTabCtrl@@QAAJIHPB_WHJ@Z
?InsertItem@CTabCtrl@@QAAJIHPB_WHJKK@Z
?InsertItem@CTabCtrl@@QAAJIHPBGHJ@Z
?InsertItem@CTabCtrl@@QAAJIHPBGHJKK@Z
?InsertItem@CTreeCtrl@@QAAPAU_TREEITEM@@IPB_WHHIIJPAU2@1@Z
?InsertItem@CTreeCtrl@@QAAPAU_TREEITEM@@IPBGHHIIJPAU2@1@Z
?InsertTab@CMFCBaseTabCtrl@@UAAXPAVCWnd@@PB_WHIH@Z
?InsertTab@CMFCBaseTabCtrl@@UAAXPAVCWnd@@PBGHIH@Z
?InternalAddButton@CMFCOutlookBarPane@@IAAHHPB_WIH@Z
?InternalAddButton@CMFCOutlookBarPane@@IAAHHPBGIH@Z
?InternalGetText@COleControl@@QAAABV?$CStringT@_WV?$StrTraitMFC_DLL@_WV?$ChTraitsCRT@_W@ATL@@@@@ATL@@XZ
?InternalGetText@COleControl@@QAAABV?$CStringT@GV?$StrTraitMFC_DLL@GV?$ChTraitsCRT@G@ATL@@@@@ATL@@XZ
?IsEmpty@?$CSimpleStringT@_W$00@ATL@@QBA_NXZ
?IsEmpty@?$CSimpleStringT@G$00@ATL@@QBA_NXZ
?IsJoin@CRecordset@@SAHPB_W@Z
?IsJoin@CRecordset@@SAHPBG@Z
?IsMaskedChar@CMFCMaskedEdit@@MBAH_W0@Z
?IsMaskedChar@CMFCMaskedEdit@@MBAHGG@Z
?IsRunning@XOleItemContainer@COleLinkingDoc@@UAAJPA_W@Z
?IsRunning@XOleItemContainer@COleLinkingDoc@@UAAJPAG@Z
?IsSelectQueryUpdatable@CRecordset@@QAAHPB_W@Z
?IsSelectQueryUpdatable@CRecordset@@QAAHPBG@Z
?IsSQLUpdatable@CRecordset@@QAAHPB_W@Z
?IsSQLUpdatable@CRecordset@@QAAHPBG@Z
?IsStateExists@CWinAppEx@@QAAHPB_W@Z
?IsStateExists@CWinAppEx@@QAAHPBG@Z
?ItemFromPath@CShellManager@@QAAJPB_WAAPFAU_ITEMIDLIST@@@Z
?ItemFromPath@CShellManager@@QAAJPBGAAPFAU_ITEMIDLIST@@@Z
?Left@?$CStringT@_WV?$StrTraitMFC_DLL@_WV?$ChTraitsCRT@_W@ATL@@@@@ATL@@QBA?AV12@H@Z
?Left@?$CStringT@GV?$StrTraitMFC_DLL@GV?$ChTraitsCRT@G@ATL@@@@@ATL@@QBA?AV12@H@Z
?Load@CDialogTemplate@@QAAHPB_W@Z
?Load@CDialogTemplate@@QAAHPBG@Z
?Load@CMFCRibbonInfoLoader@@QAAHIPB_WPAUHINSTANCE__@@@Z
?Load@CMFCRibbonInfoLoader@@QAAHIPBGPAUHINSTANCE__@@@Z
?Load@CMFCRibbonInfoLoader@@QAAHPB_W0PAUHINSTANCE__@@@Z
?Load@CMFCRibbonInfoLoader@@QAAHPBG0PAUHINSTANCE__@@@Z
?Load@CMFCToolBarImages@@QAAHPB_WK@Z
?Load@CMFCToolBarImages@@QAAHPBGK@Z
?Load@COleControl@@QAAXPB_WAAVCDataPathProperty@@@Z
?Load@COleControl@@QAAXPBGAAVCDataPathProperty@@@Z
?Load@CPngImage@@QAAHPB_WPAUHINSTANCE__@@@Z
?Load@CPngImage@@QAAHPBGPAUHINSTANCE__@@@Z
?Load@XPersistFile@COleLinkingDoc@@UAAJPB_WK@Z
?Load@XPersistFile@COleLinkingDoc@@UAAJPBGK@Z
?LoadAcceleratorState@CKeyboardManager@@IAAHPB_WIAAPAUHACCEL__@@@Z
?LoadAcceleratorState@CKeyboardManager@@IAAHPBGIAAPAUHACCEL__@@@Z
?LoadAccelTable@CFrameWnd@@QAAHPB_W@Z
?LoadAccelTable@CFrameWnd@@QAAHPBG@Z
?LoadBarState@CFrameWnd@@QAAXPB_W@Z
?LoadBarState@CFrameWnd@@QAAXPBG@Z
?LoadBitmaps@CBitmapButton@@QAAHPB_W000@Z
?LoadBitmaps@CBitmapButton@@QAAHPBG000@Z
?LoadBitmapW@CToolBar@@QAAHPB_W@Z
?LoadBitmapW@CToolBar@@QAAHPBG@Z
?LoadDockState@CFrameImpl@@IAAXPB_W@Z
?LoadDockState@CFrameImpl@@IAAXPBG@Z
?LoadDynamicLayoutResource@CWnd@@IAAHPB_W@Z
?LoadDynamicLayoutResource@CWnd@@IAAHPBG@Z
?LoadFromBuffer@CMFCRibbonBar@@UAAHPB_W@Z
?LoadFromBuffer@CMFCRibbonBar@@UAAHPBG@Z
?LoadFromBuffer@CMFCRibbonInfoLoader@@UAAHPB_W@Z
?LoadFromBuffer@CMFCRibbonInfoLoader@@UAAHPBG@Z
?LoadFromFile@CPngImage@@QAAHPB_W@Z
?LoadFromFile@CPngImage@@QAAHPBG@Z
?LoadFromFile@CTagManager@@QAAHPB_W@Z
?LoadFromFile@CTagManager@@QAAHPBG@Z
?LoadFromResource@CDHtmlDialog@@QAAHPB_W@Z
?LoadFromResource@CDHtmlDialog@@QAAHPBG@Z
?LoadFromResource@CHtmlView@@QAAHPB_W@Z
?LoadFromResource@CHtmlView@@QAAHPBG@Z
?LoadFromResource@CMFCRibbonBar@@UAAHIPB_WPAUHINSTANCE__@@@Z
?LoadFromResource@CMFCRibbonBar@@UAAHIPBGPAUHINSTANCE__@@@Z
?LoadFromResource@CMFCRibbonBar@@UAAHPB_W0PAUHINSTANCE__@@@Z
?LoadFromResource@CMFCRibbonBar@@UAAHPBG0PAUHINSTANCE__@@@Z
?LoadFromResource@CTagManager@@QAAHIPB_W@Z
?LoadFromResource@CTagManager@@QAAHIPBG@Z
?LoadFromResource@CTagManager@@QAAHPB_W0@Z
?LoadFromResource@CTagManager@@QAAHPBG0@Z
?LoadLargeIconsState@CMFCToolBar@@SAHPB_W@Z
?LoadLargeIconsState@CMFCToolBar@@SAHPBG@Z
?LoadMDIState@CMDIFrameWndEx@@UAAHPB_W@Z
?LoadMDIState@CMDIFrameWndEx@@UAAHPBG@Z
?LoadParameters@CMFCToolBar@@SAHPB_W@Z
?LoadParameters@CMFCToolBar@@SAHPBG@Z
?LoadState@CBasePane@@UAAHPB_WHI@Z
?LoadState@CBasePane@@UAAHPBGHI@Z
?LoadState@CBaseTabbedPane@@MAAHPB_WHI@Z
?LoadState@CBaseTabbedPane@@MAAHPBGHI@Z
?LoadState@CCommandManager@@QAAHPB_W@Z
?LoadState@CCommandManager@@QAAHPBG@Z
?LoadState@CContextMenuManager@@UAAHPB_W@Z
?LoadState@CContextMenuManager@@UAAHPBG@Z
?LoadState@CControlBarInfo@@QAAHPB_WHPAVCDockState@@@Z
?LoadState@CControlBarInfo@@QAAHPBGHPAVCDockState@@@Z
?LoadState@CDockablePane@@UAAHPB_WHI@Z
?LoadState@CDockablePane@@UAAHPBGHI@Z
?LoadState@CDockablePaneAdapter@@UAAHPB_WHI@Z
?LoadState@CDockablePaneAdapter@@UAAHPBGHI@Z
?LoadState@CDockingManager@@UAAHPB_WI@Z
?LoadState@CDockingManager@@UAAHPBGI@Z
?LoadState@CDockState@@QAAXPB_W@Z
?LoadState@CDockState@@QAAXPBG@Z
?LoadState@CKeyboardManager@@QAAHPB_WPAVCFrameWnd@@@Z
?LoadState@CKeyboardManager@@QAAHPBGPAVCFrameWnd@@@Z
?LoadState@CMDIClientAreaWnd@@QAAHPB_WI@Z
?LoadState@CMDIClientAreaWnd@@QAAHPBGI@Z
?LoadState@CMFCMenuBar@@UAAHPB_WHI@Z
?LoadState@CMFCMenuBar@@UAAHPBGHI@Z
?LoadState@CMFCOutlookBar@@UAAHPB_WHI@Z
?LoadState@CMFCOutlookBar@@UAAHPBGHI@Z
?LoadState@CMFCReBarState@@SAXAAV?$CStringT@_WV?$StrTraitMFC_DLL@_WV?$ChTraitsCRT@_W@ATL@@@@@ATL@@PAVCFrameWnd@@@Z
?LoadState@CMFCReBarState@@SAXAAV?$CStringT@GV?$StrTraitMFC_DLL@GV?$ChTraitsCRT@G@ATL@@@@@ATL@@PAVCFrameWnd@@@Z
?LoadState@CMFCRibbonBar@@MAAHPB_WHI@Z
?LoadState@CMFCRibbonBar@@MAAHPBGHI@Z
?LoadState@CMFCRibbonStatusBar@@MAAHPB_WHI@Z
?LoadState@CMFCRibbonStatusBar@@MAAHPBGHI@Z
?LoadState@CMFCTasksPane@@UAAHPB_WHI@Z
?LoadState@CMFCTasksPane@@UAAHPBGHI@Z
?LoadState@CMFCToolBar@@UAAHPB_WHI@Z
?LoadState@CMFCToolBar@@UAAHPBGHI@Z
?LoadState@CMouseManager@@QAAHPB_W@Z
?LoadState@CMouseManager@@QAAHPBG@Z
?LoadState@CMultiPaneFrameWnd@@UAAHPB_WI@Z
?LoadState@CMultiPaneFrameWnd@@UAAHPBGI@Z
?LoadState@CPane@@UAAHPB_WHI@Z
?LoadState@CPane@@UAAHPBGHI@Z
?LoadState@CPaneFrameWnd@@UAAHPB_WI@Z
?LoadState@CPaneFrameWnd@@UAAHPBGI@Z
?LoadState@CUserToolsManager@@QAAHPB_W@Z
?LoadState@CUserToolsManager@@QAAHPBG@Z
?LoadState@CWinAppEx@@QAAHPAVCFrameWndEx@@PB_W@Z
?LoadState@CWinAppEx@@QAAHPAVCFrameWndEx@@PBG@Z
?LoadState@CWinAppEx@@QAAHPAVCMDIFrameWndEx@@PB_W@Z
?LoadState@CWinAppEx@@QAAHPAVCMDIFrameWndEx@@PBG@Z
?LoadState@CWinAppEx@@QAAHPAVCOleIPFrameWndEx@@PB_W@Z
?LoadState@CWinAppEx@@QAAHPAVCOleIPFrameWndEx@@PBG@Z
?LoadState@CWinAppEx@@UAAHPB_WPAVCFrameImpl@@@Z
?LoadState@CWinAppEx@@UAAHPBGPAVCFrameImpl@@@Z
?LoadStr@CMFCToolBarImages@@QAAHPB_WPAUHINSTANCE__@@H@Z
?LoadStr@CMFCToolBarImages@@QAAHPBGPAUHINSTANCE__@@H@Z
?LoadStringW@?$CStringT@_WV?$StrTraitMFC_DLL@_WV?$ChTraitsCRT@_W@ATL@@@@@ATL@@QAAHI@Z
?LoadStringW@?$CStringT@_WV?$StrTraitMFC_DLL@_WV?$ChTraitsCRT@_W@ATL@@@@@ATL@@QAAHPAUHINSTANCE__@@I@Z
?LoadStringW@?$CStringT@_WV?$StrTraitMFC_DLL@_WV?$ChTraitsCRT@_W@ATL@@@@@ATL@@QAAHPAUHINSTANCE__@@IG@Z
?LoadStringW@?$CStringT@GV?$StrTraitMFC_DLL@GV?$ChTraitsCRT@G@ATL@@@@@ATL@@QAAHI@Z
?LoadStringW@?$CStringT@GV?$StrTraitMFC_DLL@GV?$ChTraitsCRT@G@ATL@@@@@ATL@@QAAHPAUHINSTANCE__@@I@Z
?LoadStringW@?$CStringT@GV?$StrTraitMFC_DLL@GV?$ChTraitsCRT@G@ATL@@@@@ATL@@QAAHPAUHINSTANCE__@@IG@Z
?LoadToolBar@CToolBar@@QAAHPB_W@Z
?LoadToolBar@CToolBar@@QAAHPBG@Z
?LockBuffer@?$CSimpleStringT@_W$00@ATL@@QAAPA_WXZ
?LockBuffer@?$CSimpleStringT@G$00@ATL@@QAAPAGXZ
?LockBuffer@CEditView@@QBAPB_WXZ
?LockBuffer@CEditView@@QBAPBGXZ
?Lookup@CMapStringToOb@@QBAHPB_WAAPAVCObject@@@Z
?Lookup@CMapStringToOb@@QBAHPBGAAPAVCObject@@@Z
?Lookup@CMapStringToPtr@@QBAHPB_WAAPAX@Z
?Lookup@CMapStringToPtr@@QBAHPBGAAPAX@Z
?Lookup@CMapStringToString@@QBAHPB_WAAV?$CStringT@_WV?$StrTraitMFC_DLL@_WV?$ChTraitsCRT@_W@ATL@@@@@ATL@@@Z
?Lookup@CMapStringToString@@QBAHPBGAAV?$CStringT@GV?$StrTraitMFC_DLL@GV?$ChTraitsCRT@G@ATL@@@@@ATL@@@Z
?LookupKey@CMapStringToOb@@QBAHPB_WAAPB_W@Z
?LookupKey@CMapStringToOb@@QBAHPBGAAPBG@Z
?LookupKey@CMapStringToPtr@@QBAHPB_WAAPB_W@Z
?LookupKey@CMapStringToPtr@@QBAHPBGAAPBG@Z
?LookupKey@CMapStringToString@@QBAHPB_WAAPB_W@Z
?LookupKey@CMapStringToString@@QBAHPBGAAPBG@Z
?m_ColorNames@CMFCColorBar@@1V?$CMap@KKV?$CStringT@_WV?$StrTraitMFC_DLL@_WV?$ChTraitsCRT@_W@ATL@@@@@ATL@@PB_W@@A
?m_ColorNames@CMFCColorBar@@1V?$CMap@KKV?$CStringT@GV?$StrTraitMFC_DLL@GV?$ChTraitsCRT@G@ATL@@@@@ATL@@PBG@@A
?m_strClassName@CMFCDropDownFrame@@1V?$CStringT@_WV?$StrTraitMFC_DLL@_WV?$ChTraitsCRT@_W@ATL@@@@@ATL@@A
?m_strClassName@CMFCDropDownFrame@@1V?$CStringT@GV?$StrTraitMFC_DLL@GV?$ChTraitsCRT@G@ATL@@@@@ATL@@A
?m_strClassName@CMFCPropertyGridToolTipCtrl@@1V?$CStringT@_WV?$StrTraitMFC_DLL@_WV?$ChTraitsCRT@_W@ATL@@@@@ATL@@A
?m_strClassName@CMFCPropertyGridToolTipCtrl@@1V?$CStringT@GV?$StrTraitMFC_DLL@GV?$ChTraitsCRT@G@ATL@@@@@ATL@@A
?m_strClassName@CMFCRibbonKeyTip@@1V?$CStringT@_WV?$StrTraitMFC_DLL@_WV?$ChTraitsCRT@_W@ATL@@@@@ATL@@A
?m_strClassName@CMFCRibbonKeyTip@@1V?$CStringT@GV?$StrTraitMFC_DLL@GV?$ChTraitsCRT@G@ATL@@@@@ATL@@A
?m_strClipboardFormatName@CMFCToolBarButton@@2V?$CStringT@_WV?$StrTraitMFC_DLL@_WV?$ChTraitsCRT@_W@ATL@@@@@ATL@@A
?m_strClipboardFormatName@CMFCToolBarButton@@2V?$CStringT@GV?$StrTraitMFC_DLL@GV?$ChTraitsCRT@G@ATL@@@@@ATL@@A
?m_strStylePrefix@CMFCVisualManagerOffice2007@@1V?$CStringT@_WV?$StrTraitMFC_DLL@_WV?$ChTraitsCRT@_W@ATL@@@@@ATL@@A
?m_strStylePrefix@CMFCVisualManagerOffice2007@@1V?$CStringT@GV?$StrTraitMFC_DLL@GV?$ChTraitsCRT@G@ATL@@@@@ATL@@A
?MakeLower@?$CStringT@_WV?$StrTraitMFC_DLL@_WV?$ChTraitsCRT@_W@ATL@@@@@ATL@@QAAAAV12@XZ
?MakeLower@?$CStringT@GV?$StrTraitMFC_DLL@GV?$ChTraitsCRT@G@ATL@@@@@ATL@@QAAAAV12@XZ
?MakeResourceID@CMFCVisualManagerOffice2007@@KA?AV?$CStringT@_WV?$StrTraitMFC_DLL@_WV?$ChTraitsCRT@_W@ATL@@@@@ATL@@PB_W@Z
?MakeResourceID@CMFCVisualManagerOffice2007@@KA?AV?$CStringT@GV?$StrTraitMFC_DLL@GV?$ChTraitsCRT@G@ATL@@@@@ATL@@PBG@Z
?MakeResourceID@CMFCVisualManagerWindows7@@KA?AV?$CStringT@_WV?$StrTraitMFC_DLL@_WV?$ChTraitsCRT@_W@ATL@@@@@ATL@@PB_W@Z
?MakeResourceID@CMFCVisualManagerWindows7@@KA?AV?$CStringT@GV?$StrTraitMFC_DLL@GV?$ChTraitsCRT@G@ATL@@@@@ATL@@PBG@Z
?MakeReverse@?$CStringT@_WV?$StrTraitMFC_DLL@_WV?$ChTraitsCRT@_W@ATL@@@@@ATL@@QAAAAV12@XZ
?MakeReverse@?$CStringT@GV?$StrTraitMFC_DLL@GV?$ChTraitsCRT@G@ATL@@@@@ATL@@QAAAAV12@XZ
?MakeUpper@?$CStringT@_WV?$StrTraitMFC_DLL@_WV?$ChTraitsCRT@_W@ATL@@@@@ATL@@QAAAAV12@XZ
?MakeUpper@?$CStringT@GV?$StrTraitMFC_DLL@GV?$ChTraitsCRT@G@ATL@@@@@ATL@@QAAAAV12@XZ
?MatchDocType@CDocTemplate@@UAA?AW4Confidence@1@PB_WAAPAVCDocument@@@Z
?MatchDocType@CDocTemplate@@UAA?AW4Confidence@1@PBGAAPAVCDocument@@@Z
?MemberIDFromName@CCmdTarget@@KAJPBUAFX_DISPMAP@@PB_W@Z
?MemberIDFromName@CCmdTarget@@KAJPBUAFX_DISPMAP@@PBG@Z
?MessageBoxW@COlePropertyPage@@QAAHPB_W0I@Z
?MessageBoxW@COlePropertyPage@@QAAHPBG0I@Z
?MessageBoxW@CWnd@@QAAHPB_W0I@Z
?MessageBoxW@CWnd@@QAAHPBG0I@Z
?Mid@?$CStringT@_WV?$StrTraitMFC_DLL@_WV?$ChTraitsCRT@_W@ATL@@@@@ATL@@QBA?AV12@H@Z
?Mid@?$CStringT@_WV?$StrTraitMFC_DLL@_WV?$ChTraitsCRT@_W@ATL@@@@@ATL@@QBA?AV12@HH@Z
?Mid@?$CStringT@GV?$StrTraitMFC_DLL@GV?$ChTraitsCRT@G@ATL@@@@@ATL@@QBA?AV12@H@Z
?Mid@?$CStringT@GV?$StrTraitMFC_DLL@GV?$ChTraitsCRT@G@ATL@@@@@ATL@@QBA?AV12@HH@Z
?Navigate@CDHtmlDialog@@QAAXPB_WK00PAXK@Z
?Navigate@CDHtmlDialog@@QAAXPBGK00PAXK@Z
?Navigate@CHtmlView@@QAAXPB_WK00PAXK@Z
?Navigate@CHtmlView@@QAAXPBGK00PAXK@Z
?Navigate2@CHtmlView@@QAAXPB_WK00PAXK@Z
?Navigate2@CHtmlView@@QAAXPB_WKAAVCByteArray@@00@Z
?Navigate2@CHtmlView@@QAAXPBGK00PAXK@Z
?Navigate2@CHtmlView@@QAAXPBGKAAVCByteArray@@00@Z
?Navigate2@CHtmlView@@QAAXPFAU_ITEMIDLIST@@KPB_W@Z
?Navigate2@CHtmlView@@QAAXPFAU_ITEMIDLIST@@KPBG@Z
?NewAssoc@CMapStringToString@@IAAPAVCAssoc@1@PB_W@Z
?NewAssoc@CMapStringToString@@IAAPAVCAssoc@1@PBG@Z
?NotifyRename@COleServerDoc@@QAAXPB_W@Z
?NotifyRename@COleServerDoc@@QAAXPBG@Z
?OnBeforeNavigate@CDHtmlDialog@@UAAXPAUIDispatch@@PB_W@Z
?OnBeforeNavigate@CDHtmlDialog@@UAAXPAUIDispatch@@PBG@Z
?OnBeforeNavigate2@CHtmlView@@UAAXPB_WK0AAVCByteArray@@0PAH@Z
?OnBeforeNavigate2@CHtmlView@@UAAXPBGK0AAVCByteArray@@0PAH@Z
?OnDDECommand@CDocManager@@UAAHPA_W@Z
?OnDDECommand@CDocManager@@UAAHPAG@Z
?OnDDECommand@CWinApp@@UAAHPA_W@Z
?OnDDECommand@CWinApp@@UAAHPAG@Z
?OnDDXError@CDHtmlDialog@@IAAXPB_WIH@Z
?OnDDXError@CDHtmlDialog@@IAAXPBGIH@Z
?OnDevModeChange@CRichEditView@@IAAXPA_W@Z
?OnDevModeChange@CRichEditView@@IAAXPAG@Z
?OnDevModeChange@CWnd@@IAAXPA_W@Z
?OnDevModeChange@CWnd@@IAAXPAG@Z
?OnDocumentComplete@CDHtmlDialog@@UAAXPAUIDispatch@@PB_W@Z
?OnDocumentComplete@CDHtmlDialog@@UAAXPAUIDispatch@@PBG@Z
?OnDocumentComplete@CHtmlView@@UAAXPB_W@Z
?OnDocumentComplete@CHtmlView@@UAAXPBG@Z
?OnDrawButton@CMFCCaptionBar@@MAAXPAVCDC@@VCRect@@ABV?$CStringT@_WV?$StrTraitMFC_DLL@_WV?$ChTraitsCRT@_W@ATL@@@@@ATL@@H@Z
?OnDrawButton@CMFCCaptionBar@@MAAXPAVCDC@@VCRect@@ABV?$CStringT@GV?$StrTraitMFC_DLL@GV?$ChTraitsCRT@G@ATL@@@@@ATL@@H@Z
?OnDrawInformation@CMFCRibbonStatusBar@@MAAXPAVCDC@@AAV?$CStringT@_WV?$StrTraitMFC_DLL@_WV?$ChTraitsCRT@_W@ATL@@@@@ATL@@VCRect@@@Z
?OnDrawInformation@CMFCRibbonStatusBar@@MAAXPAVCDC@@AAV?$CStringT@GV?$StrTraitMFC_DLL@GV?$ChTraitsCRT@G@ATL@@@@@ATL@@VCRect@@@Z
?OnDrawOnList@CMFCRibbonBaseElement@@UAAXPAVCDC@@V?$CStringT@_WV?$StrTraitMFC_DLL@_WV?$ChTraitsCRT@_W@ATL@@@@@ATL@@HVCRect@@HH@Z
?OnDrawOnList@CMFCRibbonBaseElement@@UAAXPAVCDC@@V?$CStringT@GV?$StrTraitMFC_DLL@GV?$ChTraitsCRT@G@ATL@@@@@ATL@@HVCRect@@HH@Z
?OnDrawOnList@CMFCRibbonButton@@MAAXPAVCDC@@V?$CStringT@_WV?$StrTraitMFC_DLL@_WV?$ChTraitsCRT@_W@ATL@@@@@ATL@@HVCRect@@HH@Z
?OnDrawOnList@CMFCRibbonButton@@MAAXPAVCDC@@V?$CStringT@GV?$StrTraitMFC_DLL@GV?$ChTraitsCRT@G@ATL@@@@@ATL@@HVCRect@@HH@Z
?OnDrawOnList@CMFCRibbonCheckBox@@UAAXPAVCDC@@V?$CStringT@_WV?$StrTraitMFC_DLL@_WV?$ChTraitsCRT@_W@ATL@@@@@ATL@@HVCRect@@HH@Z
?OnDrawOnList@CMFCRibbonCheckBox@@UAAXPAVCDC@@V?$CStringT@GV?$StrTraitMFC_DLL@GV?$ChTraitsCRT@G@ATL@@@@@ATL@@HVCRect@@HH@Z
?OnDrawOnList@CMFCRibbonDefaultPanelButton@@UAAXPAVCDC@@V?$CStringT@_WV?$StrTraitMFC_DLL@_WV?$ChTraitsCRT@_W@ATL@@@@@ATL@@HVCRect@@HH@Z
?OnDrawOnList@CMFCRibbonDefaultPanelButton@@UAAXPAVCDC@@V?$CStringT@GV?$StrTraitMFC_DLL@GV?$ChTraitsCRT@G@ATL@@@@@ATL@@HVCRect@@HH@Z
?OnDrawOnList@CMFCRibbonEdit@@UAAXPAVCDC@@V?$CStringT@_WV?$StrTraitMFC_DLL@_WV?$ChTraitsCRT@_W@ATL@@@@@ATL@@HVCRect@@HH@Z
?OnDrawOnList@CMFCRibbonEdit@@UAAXPAVCDC@@V?$CStringT@GV?$StrTraitMFC_DLL@GV?$ChTraitsCRT@G@ATL@@@@@ATL@@HVCRect@@HH@Z
?OnDrawOnList@CMFCRibbonProgressBar@@MAAXPAVCDC@@V?$CStringT@_WV?$StrTraitMFC_DLL@_WV?$ChTraitsCRT@_W@ATL@@@@@ATL@@HVCRect@@HH@Z
?OnDrawOnList@CMFCRibbonProgressBar@@MAAXPAVCDC@@V?$CStringT@GV?$StrTraitMFC_DLL@GV?$ChTraitsCRT@G@ATL@@@@@ATL@@HVCRect@@HH@Z
?OnDrawOnList@CMFCRibbonSeparator@@MAAXPAVCDC@@V?$CStringT@_WV?$StrTraitMFC_DLL@_WV?$ChTraitsCRT@_W@ATL@@@@@ATL@@HVCRect@@HH@Z
?OnDrawOnList@CMFCRibbonSeparator@@MAAXPAVCDC@@V?$CStringT@GV?$StrTraitMFC_DLL@GV?$ChTraitsCRT@G@ATL@@@@@ATL@@HVCRect@@HH@Z
?OnDrawOnList@CMFCRibbonSlider@@MAAXPAVCDC@@V?$CStringT@_WV?$StrTraitMFC_DLL@_WV?$ChTraitsCRT@_W@ATL@@@@@ATL@@HVCRect@@HH@Z
?OnDrawOnList@CMFCRibbonSlider@@MAAXPAVCDC@@V?$CStringT@GV?$StrTraitMFC_DLL@GV?$ChTraitsCRT@G@ATL@@@@@ATL@@HVCRect@@HH@Z
?OnDrawRibbonKeyTip@CMFCVisualManager@@UAAXPAVCDC@@PAVCMFCRibbonBaseElement@@VCRect@@V?$CStringT@_WV?$StrTraitMFC_DLL@_WV?$ChTraitsCRT@_W@ATL@@@@@ATL@@@Z
?OnDrawRibbonKeyTip@CMFCVisualManager@@UAAXPAVCDC@@PAVCMFCRibbonBaseElement@@VCRect@@V?$CStringT@GV?$StrTraitMFC_DLL@GV?$ChTraitsCRT@G@ATL@@@@@ATL@@@Z
?OnDrawRibbonKeyTip@CMFCVisualManagerOffice2007@@UAAXPAVCDC@@PAVCMFCRibbonBaseElement@@VCRect@@V?$CStringT@_WV?$StrTraitMFC_DLL@_WV?$ChTraitsCRT@_W@ATL@@@@@ATL@@@Z
?OnDrawRibbonKeyTip@CMFCVisualManagerOffice2007@@UAAXPAVCDC@@PAVCMFCRibbonBaseElement@@VCRect@@V?$CStringT@GV?$StrTraitMFC_DLL@GV?$ChTraitsCRT@G@ATL@@@@@ATL@@@Z
?OnDrawText@CMFCButton@@MAAXPAVCDC@@ABVCRect@@ABV?$CStringT@_WV?$StrTraitMFC_DLL@_WV?$ChTraitsCRT@_W@ATL@@@@@ATL@@II@Z
?OnDrawText@CMFCButton@@MAAXPAVCDC@@ABVCRect@@ABV?$CStringT@GV?$StrTraitMFC_DLL@GV?$ChTraitsCRT@G@ATL@@@@@ATL@@II@Z
?OnDrawText@CMFCCaptionBar@@MAAXPAVCDC@@VCRect@@ABV?$CStringT@_WV?$StrTraitMFC_DLL@_WV?$ChTraitsCRT@_W@ATL@@@@@ATL@@@Z
?OnDrawText@CMFCCaptionBar@@MAAXPAVCDC@@VCRect@@ABV?$CStringT@GV?$StrTraitMFC_DLL@GV?$ChTraitsCRT@G@ATL@@@@@ATL@@@Z
?OnEndEditLabel@CVSListBoxBase@@UAAXPB_W@Z
?OnEndEditLabel@CVSListBoxBase@@UAAXPBG@Z
?OnFindEmbeddedItem@COleLinkingDoc@@MAAPAVCOleClientItem@@PB_W@Z
?OnFindEmbeddedItem@COleLinkingDoc@@MAAPAVCOleClientItem@@PBG@Z
?OnFindNext@CEditView@@MAAXPB_WHH@Z
?OnFindNext@CEditView@@MAAXPBGHH@Z
?OnFindNext@CRichEditView@@MAAXPB_WHHH@Z
?OnFindNext@CRichEditView@@MAAXPBGHHH@Z
?OnFormatFileDate@CMFCShellListCtrl@@UAAXABVCTime@ATL@@AAV?$CStringT@_WV?$StrTraitMFC_DLL@_WV?$ChTraitsCRT@_W@ATL@@@@@3@@Z
?OnFormatFileDate@CMFCShellListCtrl@@UAAXABVCTime@ATL@@AAV?$CStringT@GV?$StrTraitMFC_DLL@GV?$ChTraitsCRT@G@ATL@@@@@3@@Z
?OnFormatFileSize@CMFCShellListCtrl@@UAAX_JAAV?$CStringT@_WV?$StrTraitMFC_DLL@_WV?$ChTraitsCRT@_W@ATL@@@@@ATL@@@Z
?OnFormatFileSize@CMFCShellListCtrl@@UAAX_JAAV?$CStringT@GV?$StrTraitMFC_DLL@GV?$ChTraitsCRT@G@ATL@@@@@ATL@@@Z
?OnGetDisplayString@COleControl@@UAAHJAAV?$CStringT@_WV?$StrTraitMFC_DLL@_WV?$ChTraitsCRT@_W@ATL@@@@@ATL@@@Z
?OnGetDisplayString@COleControl@@UAAHJAAV?$CStringT@GV?$StrTraitMFC_DLL@GV?$ChTraitsCRT@G@ATL@@@@@ATL@@@Z
?OnGetItemText@CMFCShellListCtrl@@UAA?AV?$CStringT@_WV?$StrTraitMFC_DLL@_WV?$ChTraitsCRT@_W@ATL@@@@@ATL@@HHPAU_AFX_SHELLITEMINFO@@@Z
?OnGetItemText@CMFCShellListCtrl@@UAA?AV?$CStringT@GV?$StrTraitMFC_DLL@GV?$ChTraitsCRT@G@ATL@@@@@ATL@@HHPAU_AFX_SHELLITEMINFO@@@Z
?OnGetItemText@CMFCShellTreeCtrl@@UAA?AV?$CStringT@_WV?$StrTraitMFC_DLL@_WV?$ChTraitsCRT@_W@ATL@@@@@ATL@@PAU_AFX_SHELLITEMINFO@@@Z
?OnGetItemText@CMFCShellTreeCtrl@@UAA?AV?$CStringT@GV?$StrTraitMFC_DLL@GV?$ChTraitsCRT@G@ATL@@@@@ATL@@PAU_AFX_SHELLITEMINFO@@@Z
?OnGetLinkedItem@COleLinkingDoc@@MAAPAVCOleServerItem@@PB_W@Z
?OnGetLinkedItem@COleLinkingDoc@@MAAPAVCOleServerItem@@PBG@Z
?OnGetLinkedItem@COleServerDoc@@UAAPAVCOleServerItem@@PB_W@Z
?OnGetLinkedItem@COleServerDoc@@UAAPAVCOleServerItem@@PBG@Z
?OnGetOptionKeyPath@CHtmlView@@UAAJPAPA_WK@Z
?OnGetOptionKeyPath@CHtmlView@@UAAJPAPAGK@Z
?OnGetText@CMFCMaskedEdit@@IAAHHPA_W@Z
?OnGetText@CMFCMaskedEdit@@IAAHHPAG@Z
?OnGetText@CMFCStatusBar@@IAAHHPA_W@Z
?OnGetText@CMFCStatusBar@@IAAHHPAG@Z
?OnGetText@CStatusBar@@IAAHHPA_W@Z
?OnGetText@CStatusBar@@IAAHHPAG@Z
?OnHelp@COlePropertyPage@@UAAHPB_W@Z
?OnHelp@COlePropertyPage@@UAAHPBG@Z
?OnHyperlinkClick@CTaskDialog@@MAAJABV?$CStringT@_WV?$StrTraitMFC_DLL@_WV?$ChTraitsCRT@_W@ATL@@@@@ATL@@@Z
?OnHyperlinkClick@CTaskDialog@@MAAJABV?$CStringT@GV?$StrTraitMFC_DLL@GV?$ChTraitsCRT@G@ATL@@@@@ATL@@@Z
?OnIllegalFileName@CMFCEditBrowseCtrl@@UAAHAAV?$CStringT@_WV?$StrTraitMFC_DLL@_WV?$ChTraitsCRT@_W@ATL@@@@@ATL@@@Z
?OnIllegalFileName@CMFCEditBrowseCtrl@@UAAHAAV?$CStringT@GV?$StrTraitMFC_DLL@GV?$ChTraitsCRT@G@ATL@@@@@ATL@@@Z
?OnNavigateComplete@CDHtmlDialog@@UAAXPAUIDispatch@@PB_W@Z
?OnNavigateComplete@CDHtmlDialog@@UAAXPAUIDispatch@@PBG@Z
?OnNavigateComplete@CMultiPageDHtmlDialog@@MAAXPAUIDispatch@@PB_W@Z
?OnNavigateComplete@CMultiPageDHtmlDialog@@MAAXPAUIDispatch@@PBG@Z
?OnNavigateComplete2@CHtmlEditView@@UAAXPB_W@Z
?OnNavigateComplete2@CHtmlEditView@@UAAXPBG@Z
?OnNavigateComplete2@CHtmlView@@UAAXPB_W@Z
?OnNavigateComplete2@CHtmlView@@UAAXPBG@Z
?OnNavigateError@CHtmlView@@UAAXPB_W0KPAH@Z
?OnNavigateError@CHtmlView@@UAAXPBG0KPAH@Z
?OnOpenDocument@CDocument@@UAAHPB_W@Z
?OnOpenDocument@CDocument@@UAAHPBG@Z
?OnOpenDocument@CHtmlEditDoc@@UAAHPB_W@Z
?OnOpenDocument@CHtmlEditDoc@@UAAHPBG@Z
?OnOpenDocument@COleDocument@@UAAHPB_W@Z
?OnOpenDocument@COleDocument@@UAAHPBG@Z
?OnOpenDocument@COleLinkingDoc@@UAAHPB_W@Z
?OnOpenDocument@COleLinkingDoc@@UAAHPBG@Z
?OnProgress@CAsyncMonikerFile@@MAAXKKKPB_W@Z
?OnProgress@CAsyncMonikerFile@@MAAXKKKPBG@Z
?OnPropertyChange@CHtmlView@@UAAXPB_W@Z
?OnPropertyChange@CHtmlView@@UAAXPBG@Z
?OnReplaceAll@CEditView@@MAAXPB_W0H@Z
?OnReplaceAll@CEditView@@MAAXPBG0H@Z
?OnReplaceAll@CRichEditView@@MAAXPB_W0HH@Z
?OnReplaceAll@CRichEditView@@MAAXPBG0HH@Z
?OnReplaceSel@CEditView@@MAAXPB_WHH0@Z
?OnReplaceSel@CEditView@@MAAXPBGHH0@Z
?OnReplaceSel@CRichEditView@@MAAXPB_WHHH0@Z
?OnReplaceSel@CRichEditView@@MAAXPBGHHH0@Z
?OnSaveDocument@CDocument@@UAAHPB_W@Z
?OnSaveDocument@CDocument@@UAAHPBG@Z
?OnSaveDocument@CHtmlEditDoc@@UAAHPB_W@Z
?OnSaveDocument@CHtmlEditDoc@@UAAHPBG@Z
?OnSaveDocument@COleDocument@@UAAHPB_W@Z
?OnSaveDocument@COleDocument@@UAAHPBG@Z
?OnSaveDocument@COleLinkingDoc@@UAAHPB_W@Z
?OnSaveDocument@COleLinkingDoc@@UAAHPBG@Z
?OnSaveDocument@COleServerDoc@@UAAHPB_W@Z
?OnSaveDocument@COleServerDoc@@UAAHPBG@Z
?OnSetHostNames@COleServerDoc@@MAAXPB_W0@Z
?OnSetHostNames@COleServerDoc@@MAAXPBG0@Z
?OnSetText@CDockablePane@@IAAHPB_W@Z
?OnSetText@CDockablePane@@IAAHPBG@Z
?OnSetText@CFrameImpl@@IAAXPB_W@Z
?OnSetText@CFrameImpl@@IAAXPBG@Z
?OnSetText@CFrameWndEx@@QAAHPB_W@Z
?OnSetText@CFrameWndEx@@QAAHPBG@Z
?OnSetText@CMDIChildWndEx@@IAAHPB_W@Z
?OnSetText@CMDIChildWndEx@@IAAHPBG@Z
?OnSetText@CMDIFrameWndEx@@IAAHPB_W@Z
?OnSetText@CMDIFrameWndEx@@IAAHPBG@Z
?OnSetText@CMFCMaskedEdit@@IAAHPB_W@Z
?OnSetText@CMFCMaskedEdit@@IAAHPBG@Z
?OnSetText@CMFCStatusBar@@IAAHPB_W@Z
?OnSetText@CMFCStatusBar@@IAAHPBG@Z
?OnSetText@CMFCTasksPane@@IAAHPB_W@Z
?OnSetText@CMFCTasksPane@@IAAHPBG@Z
?OnSetText@COleControl@@IAAHPB_W@Z
?OnSetText@COleControl@@IAAHPBG@Z
?OnSetText@CStatusBar@@IAAHPB_W@Z
?OnSetText@CStatusBar@@IAAHPBG@Z
?OnSetText@CVSListBoxBase@@IAAHPB_W@Z
?OnSetText@CVSListBoxBase@@IAAHPBG@Z
?OnSettingChange@CBasePane@@IAAXIPB_W@Z
?OnSettingChange@CBasePane@@IAAXIPBG@Z
?OnSettingChange@CDialogEx@@IAAXIPB_W@Z
?OnSettingChange@CDialogEx@@IAAXIPBG@Z
?OnSettingChange@CDockablePane@@IAAXIPB_W@Z
?OnSettingChange@CDockablePane@@IAAXIPBG@Z
?OnSettingChange@CMFCMenuBar@@IAAXIPB_W@Z
?OnSettingChange@CMFCMenuBar@@IAAXIPBG@Z
?OnSettingChange@CMFCPropertySheet@@IAAXIPB_W@Z
?OnSettingChange@CMFCPropertySheet@@IAAXIPBG@Z
?OnSettingChange@CMFCRibbonBar@@IAAXIPB_W@Z
?OnSettingChange@CMFCRibbonBar@@IAAXIPBG@Z
?OnSettingChange@CMFCStatusBar@@IAAXIPB_W@Z
?OnSettingChange@CMFCStatusBar@@IAAXIPBG@Z
?OnSettingChange@CMFCTabCtrl@@IAAXIPB_W@Z
?OnSettingChange@CMFCTabCtrl@@IAAXIPBG@Z
?OnSettingChange@CMFCTasksPane@@IAAXIPB_W@Z
?OnSettingChange@CMFCTasksPane@@IAAXIPBG@Z
?OnSettingChange@CMFCToolBar@@IAAXIPB_W@Z
?OnSettingChange@CMFCToolBar@@IAAXIPBG@Z
?OnSettingChange@CPaneFrameWnd@@IAAXIPB_W@Z
?OnSettingChange@CPaneFrameWnd@@IAAXIPBG@Z
?OnSettingChange@CWnd@@IAAXIPB_W@Z
?OnSettingChange@CWnd@@IAAXIPBG@Z
?OnShareViolation@CFileDialog@@MAAIPB_W@Z
?OnShareViolation@CFileDialog@@MAAIPBG@Z
?OnStatusTextChange@CHtmlView@@UAAXPB_W@Z
?OnStatusTextChange@CHtmlView@@UAAXPBG@Z
?OnStopBinding@CAsyncMonikerFile@@MAAXJPB_W@Z
?OnStopBinding@CAsyncMonikerFile@@MAAXJPBG@Z
?OnTextNotFound@CEditView@@MAAXPB_W@Z
?OnTextNotFound@CEditView@@MAAXPBG@Z
?OnTextNotFound@CRichEditView@@MAAXPB_W@Z
?OnTextNotFound@CRichEditView@@MAAXPBG@Z
?OnTitleChange@CHtmlView@@UAAXPB_W@Z
?OnTitleChange@CHtmlView@@UAAXPBG@Z
?OnTranslateUrl@CHtmlView@@UAAJKPA_WPAPA_W@Z
?OnTranslateUrl@CHtmlView@@UAAJKPAGPAPAG@Z
?OnUpdateToolTip@CMFCToolBarComboBoxButton@@UAAHPAVCWnd@@HAAVCToolTipCtrl@@AAV?$CStringT@_WV?$StrTraitMFC_DLL@_WV?$ChTraitsCRT@_W@ATL@@@@@ATL@@@Z
?OnUpdateToolTip@CMFCToolBarComboBoxButton@@UAAHPAVCWnd@@HAAVCToolTipCtrl@@AAV?$CStringT@GV?$StrTraitMFC_DLL@GV?$ChTraitsCRT@G@ATL@@@@@ATL@@@Z
?OnUpdateToolTip@CMFCToolBarDateTimeCtrl@@UAAHPAVCWnd@@HAAVCToolTipCtrl@@AAV?$CStringT@_WV?$StrTraitMFC_DLL@_WV?$ChTraitsCRT@_W@ATL@@@@@ATL@@@Z
?OnUpdateToolTip@CMFCToolBarDateTimeCtrl@@UAAHPAVCWnd@@HAAVCToolTipCtrl@@AAV?$CStringT@GV?$StrTraitMFC_DLL@GV?$ChTraitsCRT@G@ATL@@@@@ATL@@@Z
?OnUpdateToolTip@CMFCToolBarEditBoxButton@@UAAHPAVCWnd@@HAAVCToolTipCtrl@@AAV?$CStringT@_WV?$StrTraitMFC_DLL@_WV?$ChTraitsCRT@_W@ATL@@@@@ATL@@@Z
?OnUpdateToolTip@CMFCToolBarEditBoxButton@@UAAHPAVCWnd@@HAAVCToolTipCtrl@@AAV?$CStringT@GV?$StrTraitMFC_DLL@GV?$ChTraitsCRT@G@ATL@@@@@ATL@@@Z
?OnUpdateToolTip@CMFCToolBarSpinEditBoxButton@@MAAHPAVCWnd@@HAAVCToolTipCtrl@@AAV?$CStringT@_WV?$StrTraitMFC_DLL@_WV?$ChTraitsCRT@_W@ATL@@@@@ATL@@@Z
?OnUpdateToolTip@CMFCToolBarSpinEditBoxButton@@MAAHPAVCWnd@@HAAVCToolTipCtrl@@AAV?$CStringT@GV?$StrTraitMFC_DLL@GV?$ChTraitsCRT@G@ATL@@@@@ATL@@@Z
?OnUserToolTip@CMFCOutlookBarToolBar@@UBAHPAVCMFCToolBarButton@@AAV?$CStringT@_WV?$StrTraitMFC_DLL@_WV?$ChTraitsCRT@_W@ATL@@@@@ATL@@@Z
?OnUserToolTip@CMFCOutlookBarToolBar@@UBAHPAVCMFCToolBarButton@@AAV?$CStringT@GV?$StrTraitMFC_DLL@GV?$ChTraitsCRT@G@ATL@@@@@ATL@@@Z
?OnUserToolTip@CMFCTasksPaneToolBar@@MBAHPAVCMFCToolBarButton@@AAV?$CStringT@_WV?$StrTraitMFC_DLL@_WV?$ChTraitsCRT@_W@ATL@@@@@ATL@@@Z
?OnUserToolTip@CMFCTasksPaneToolBar@@MBAHPAVCMFCToolBarButton@@AAV?$CStringT@GV?$StrTraitMFC_DLL@GV?$ChTraitsCRT@G@ATL@@@@@ATL@@@Z
?OnUserToolTip@CMFCToolBar@@UBAHPAVCMFCToolBarButton@@AAV?$CStringT@_WV?$StrTraitMFC_DLL@_WV?$ChTraitsCRT@_W@ATL@@@@@ATL@@@Z
?OnUserToolTip@CMFCToolBar@@UBAHPAVCMFCToolBarButton@@AAV?$CStringT@GV?$StrTraitMFC_DLL@GV?$ChTraitsCRT@G@ATL@@@@@ATL@@@Z
?Open@CAsyncMonikerFile@@UAAHPB_WPAUIBindHost@@PAVCFileException@@@Z
?Open@CAsyncMonikerFile@@UAAHPB_WPAUIServiceProvider@@PAVCFileException@@@Z
?Open@CAsyncMonikerFile@@UAAHPB_WPAUIUnknown@@PAVCFileException@@@Z
?Open@CAsyncMonikerFile@@UAAHPB_WPAVCFileException@@@Z
?Open@CAsyncMonikerFile@@UAAHPBGPAUIBindHost@@PAVCFileException@@@Z
?Open@CAsyncMonikerFile@@UAAHPBGPAUIServiceProvider@@PAVCFileException@@@Z
?Open@CAsyncMonikerFile@@UAAHPBGPAUIUnknown@@PAVCFileException@@@Z
?Open@CAsyncMonikerFile@@UAAHPBGPAVCFileException@@@Z
?Open@CDatabase@@UAAHPB_WHH0H@Z
?Open@CDatabase@@UAAHPBGHH0H@Z
?Open@CDataPathProperty@@UAAHPB_WPAVCFileException@@@Z
?Open@CDataPathProperty@@UAAHPB_WPAVCOleControl@@PAVCFileException@@@Z
?Open@CDataPathProperty@@UAAHPBGPAVCFileException@@@Z
?Open@CDataPathProperty@@UAAHPBGPAVCOleControl@@PAVCFileException@@@Z
?Open@CFile@@UAAHPB_WIPAVCAtlTransactionManager@ATL@@PAVCFileException@@@Z
?Open@CFile@@UAAHPB_WIPAVCFileException@@@Z
?Open@CFile@@UAAHPBGIPAVCAtlTransactionManager@ATL@@PAVCFileException@@@Z
?Open@CFile@@UAAHPBGIPAVCFileException@@@Z
?Open@CMirrorFile@@UAAHPB_WIPAVCFileException@@@Z
?Open@CMirrorFile@@UAAHPBGIPAVCFileException@@@Z
?Open@CMonikerFile@@MAAHPB_WPAUIBindHost@@PAUIBindStatusCallback@@PAUIBindCtx@@PAVCFileException@@@Z
?Open@CMonikerFile@@MAAHPBGPAUIBindHost@@PAUIBindStatusCallback@@PAUIBindCtx@@PAVCFileException@@@Z
?Open@CMonikerFile@@UAAHPB_WPAVCFileException@@@Z
?Open@CMonikerFile@@UAAHPBGPAVCFileException@@@Z
?Open@CRecordset@@UAAHIPB_WK@Z
?Open@CRecordset@@UAAHIPBGK@Z
?Open@CSettingsStore@@UAAHPB_W@Z
?Open@CSettingsStore@@UAAHPBG@Z
?Open@CSocketFile@@UAAHPB_WIPAVCFileException@@@Z
?Open@CSocketFile@@UAAHPBGIPAVCFileException@@@Z
?Open@CStdioFile@@UAAHPB_WIPAVCAtlTransactionManager@ATL@@PAVCFileException@@@Z
?Open@CStdioFile@@UAAHPB_WIPAVCFileException@@@Z
?Open@CStdioFile@@UAAHPBGIPAVCAtlTransactionManager@ATL@@PAVCFileException@@@Z
?Open@CStdioFile@@UAAHPBGIPAVCFileException@@@Z
?OpenDocumentFile@CDocManager@@UAAPAVCDocument@@PB_W@Z
?OpenDocumentFile@CDocManager@@UAAPAVCDocument@@PB_WH@Z
?OpenDocumentFile@CDocManager@@UAAPAVCDocument@@PBG@Z
?OpenDocumentFile@CDocManager@@UAAPAVCDocument@@PBGH@Z
?OpenDocumentFile@CMultiDocTemplate@@UAAPAVCDocument@@PB_WH@Z
?OpenDocumentFile@CMultiDocTemplate@@UAAPAVCDocument@@PB_WHH@Z
?OpenDocumentFile@CMultiDocTemplate@@UAAPAVCDocument@@PBGH@Z
?OpenDocumentFile@CMultiDocTemplate@@UAAPAVCDocument@@PBGHH@Z
?OpenDocumentFile@CSingleDocTemplate@@UAAPAVCDocument@@PB_WH@Z
?OpenDocumentFile@CSingleDocTemplate@@UAAPAVCDocument@@PB_WHH@Z
?OpenDocumentFile@CSingleDocTemplate@@UAAPAVCDocument@@PBGH@Z
?OpenDocumentFile@CSingleDocTemplate@@UAAPAVCDocument@@PBGHH@Z
?OpenDocumentFile@CWinApp@@UAAPAVCDocument@@PB_W@Z
?OpenDocumentFile@CWinApp@@UAAPAVCDocument@@PB_WH@Z
?OpenDocumentFile@CWinApp@@UAAPAVCDocument@@PBG@Z
?OpenDocumentFile@CWinApp@@UAAPAVCDocument@@PBGH@Z
?OpenEx@CDatabase@@UAAHPB_WK@Z
?OpenEx@CDatabase@@UAAHPBGK@Z
?OpenFile@CFtpConnection@@QAAPAVCInternetFile@@PB_WKKK@Z
?OpenFile@CFtpConnection@@QAAPAVCInternetFile@@PBGKKK@Z
?OpenFile@CGopherConnection@@QAAPAVCGopherFile@@AAVCGopherLocator@@KPB_WK@Z
?OpenFile@CGopherConnection@@QAAPAVCGopherFile@@AAVCGopherLocator@@KPBGK@Z
?OpenRequest@CHttpConnection@@QAAPAVCHttpFile@@HPB_W0KPAPB_W0K@Z
?OpenRequest@CHttpConnection@@QAAPAVCHttpFile@@HPBG0KPAPBG0K@Z
?OpenRequest@CHttpConnection@@QAAPAVCHttpFile@@PB_W00KPAPB_W0K@Z
?OpenRequest@CHttpConnection@@QAAPAVCHttpFile@@PBG00KPAPBG0K@Z
?OpenStream@COleStreamFile@@QAAHPAUIStorage@@PB_WKPAVCFileException@@@Z
?OpenStream@COleStreamFile@@QAAHPAUIStorage@@PBGKPAVCFileException@@@Z
?OpenURL@CHtmlEditDoc@@UAAHPB_W@Z
?OpenURL@CHtmlEditDoc@@UAAHPBG@Z
?OpenURL@CInternetSession@@QAAPAVCStdioFile@@PB_WKK0K@Z
?OpenURL@CInternetSession@@QAAPAVCStdioFile@@PBGKK0K@Z
?OutputString@CDumpContext@@IAAXPB_W@Z
?OutputString@CDumpContext@@IAAXPBG@Z
?Parse@CMenuTearOffManager@@QAAIAAV?$CStringT@_WV?$StrTraitMFC_DLL@_WV?$ChTraitsCRT@_W@ATL@@@@@ATL@@@Z
?Parse@CMenuTearOffManager@@QAAIAAV?$CStringT@GV?$StrTraitMFC_DLL@GV?$ChTraitsCRT@G@ATL@@@@@ATL@@@Z
?ParseColor@CTagManager@@SAHABV?$CStringT@_WV?$StrTraitMFC_DLL@_WV?$ChTraitsCRT@_W@ATL@@@@@ATL@@AAK@Z
?ParseColor@CTagManager@@SAHABV?$CStringT@GV?$StrTraitMFC_DLL@GV?$ChTraitsCRT@G@ATL@@@@@ATL@@AAK@Z
?ParseColorHEX@CTagManager@@SAHABV?$CStringT@_WV?$StrTraitMFC_DLL@_WV?$ChTraitsCRT@_W@ATL@@@@@ATL@@AAK@Z
?ParseColorHEX@CTagManager@@SAHABV?$CStringT@GV?$StrTraitMFC_DLL@GV?$ChTraitsCRT@G@ATL@@@@@ATL@@AAK@Z
?ParseControlRenderer@CTagManager@@SAHABV?$CStringT@_WV?$StrTraitMFC_DLL@_WV?$ChTraitsCRT@_W@ATL@@@@@ATL@@AAVCMFCControlRenderer@@I@Z
?ParseControlRenderer@CTagManager@@SAHABV?$CStringT@_WV?$StrTraitMFC_DLL@_WV?$ChTraitsCRT@_W@ATL@@@@@ATL@@AAVCMFCControlRenderer@@PB_W@Z
?ParseControlRenderer@CTagManager@@SAHABV?$CStringT@GV?$StrTraitMFC_DLL@GV?$ChTraitsCRT@G@ATL@@@@@ATL@@AAVCMFCControlRenderer@@I@Z
?ParseControlRenderer@CTagManager@@SAHABV?$CStringT@GV?$StrTraitMFC_DLL@GV?$ChTraitsCRT@G@ATL@@@@@ATL@@AAVCMFCControlRenderer@@PBG@Z
?ParseControlRendererInfo@CTagManager@@SAHABV?$CStringT@_WV?$StrTraitMFC_DLL@_WV?$ChTraitsCRT@_W@ATL@@@@@ATL@@AAVCMFCControlRendererInfo@@@Z
?ParseControlRendererInfo@CTagManager@@SAHABV?$CStringT@GV?$StrTraitMFC_DLL@GV?$ChTraitsCRT@G@ATL@@@@@ATL@@AAVCMFCControlRendererInfo@@@Z
?ParseCurrency@COleCurrency@@QAAHPB_WKK@Z
?ParseCurrency@COleCurrency@@QAAHPBGKK@Z
?ParseDisplayName@XOleContainer@COleControlContainer@@UAAJPAUIBindCtx@@PA_WPAKPAPAUIMoniker@@@Z
?ParseDisplayName@XOleContainer@COleControlContainer@@UAAJPAUIBindCtx@@PAGPAKPAPAUIMoniker@@@Z
?ParseDisplayName@XOleItemContainer@COleLinkingDoc@@UAAJPAUIBindCtx@@PA_WPAKPAPAUIMoniker@@@Z
?ParseDisplayName@XOleItemContainer@COleLinkingDoc@@UAAJPAUIBindCtx@@PAGPAKPAPAUIMoniker@@@Z
?ParseFont@CTagManager@@SAHABV?$CStringT@_WV?$StrTraitMFC_DLL@_WV?$ChTraitsCRT@_W@ATL@@@@@ATL@@AAUtagLOGFONTW@@@Z
?ParseFont@CTagManager@@SAHABV?$CStringT@GV?$StrTraitMFC_DLL@GV?$ChTraitsCRT@G@ATL@@@@@ATL@@AAUtagLOGFONTW@@@Z
?ParseParam@CCommandLineInfo@@UAAXPB_WHH@Z
?ParseParam@CCommandLineInfo@@UAAXPBGHH@Z
?ParseParamNotFlag@CCommandLineInfo@@IAAXPB_W@Z
?ParseParamNotFlag@CCommandLineInfo@@IAAXPBG@Z
?ParsePoint@CTagManager@@SAHABV?$CStringT@_WV?$StrTraitMFC_DLL@_WV?$ChTraitsCRT@_W@ATL@@@@@ATL@@AAVCPoint@@@Z
?ParsePoint@CTagManager@@SAHABV?$CStringT@GV?$StrTraitMFC_DLL@GV?$ChTraitsCRT@G@ATL@@@@@ATL@@AAVCPoint@@@Z
?ParseRect@CTagManager@@SAHABV?$CStringT@_WV?$StrTraitMFC_DLL@_WV?$ChTraitsCRT@_W@ATL@@@@@ATL@@AAVCRect@@@Z
?ParseRect@CTagManager@@SAHABV?$CStringT@GV?$StrTraitMFC_DLL@GV?$ChTraitsCRT@G@ATL@@@@@ATL@@AAVCRect@@@Z
?ParseSize@CTagManager@@SAHABV?$CStringT@_WV?$StrTraitMFC_DLL@_WV?$ChTraitsCRT@_W@ATL@@@@@ATL@@AAVCSize@@@Z
?ParseSize@CTagManager@@SAHABV?$CStringT@GV?$StrTraitMFC_DLL@GV?$ChTraitsCRT@G@ATL@@@@@ATL@@AAVCSize@@@Z
?ParseString@CTagManager@@SAHABV?$CStringT@_WV?$StrTraitMFC_DLL@_WV?$ChTraitsCRT@_W@ATL@@@@@ATL@@0AAVCStringArray@@HH@Z
?ParseString@CTagManager@@SAHABV?$CStringT@GV?$StrTraitMFC_DLL@GV?$ChTraitsCRT@G@ATL@@@@@ATL@@0AAVCStringArray@@HH@Z
?ParseToolBarImages@CTagManager@@SAHABV?$CStringT@_WV?$StrTraitMFC_DLL@_WV?$ChTraitsCRT@_W@ATL@@@@@ATL@@AAVCMFCToolBarImages@@I@Z
?ParseToolBarImages@CTagManager@@SAHABV?$CStringT@_WV?$StrTraitMFC_DLL@_WV?$ChTraitsCRT@_W@ATL@@@@@ATL@@AAVCMFCToolBarImages@@PB_W@Z
?ParseToolBarImages@CTagManager@@SAHABV?$CStringT@GV?$StrTraitMFC_DLL@GV?$ChTraitsCRT@G@ATL@@@@@ATL@@AAVCMFCToolBarImages@@I@Z
?ParseToolBarImages@CTagManager@@SAHABV?$CStringT@GV?$StrTraitMFC_DLL@GV?$ChTraitsCRT@G@ATL@@@@@ATL@@AAVCMFCToolBarImages@@PBG@Z
?ParseToolTipInfo@CTagManager@@SAHABV?$CStringT@_WV?$StrTraitMFC_DLL@_WV?$ChTraitsCRT@_W@ATL@@@@@ATL@@AAVCMFCToolTipInfo@@@Z
?ParseToolTipInfo@CTagManager@@SAHABV?$CStringT@GV?$StrTraitMFC_DLL@GV?$ChTraitsCRT@G@ATL@@@@@ATL@@AAVCMFCToolTipInfo@@@Z
?PLookup@CMapStringToString@@QAAPAUCPair@1@PB_W@Z
?PLookup@CMapStringToString@@QAAPAUCPair@1@PBG@Z
?PLookup@CMapStringToString@@QBAPBUCPair@1@PB_W@Z
?PLookup@CMapStringToString@@QBAPBUCPair@1@PBG@Z
?Preallocate@?$CSimpleStringT@_W$00@ATL@@QAAXH@Z
?Preallocate@?$CSimpleStringT@G$00@ATL@@QAAXH@Z
?PrepareWrite@?$CSimpleStringT@_W$00@ATL@@AAAPA_WH@Z
?PrepareWrite@?$CSimpleStringT@G$00@ATL@@AAAPAGH@Z
?PrepareWrite2@?$CSimpleStringT@_W$00@ATL@@AAAXH@Z
?PrepareWrite2@?$CSimpleStringT@G$00@ATL@@AAAXH@Z
?put_accName@CMFCBaseAccessibleObject@@UAAJUtagVARIANT@@PA_W@Z
?put_accName@CMFCBaseAccessibleObject@@UAAJUtagVARIANT@@PAG@Z
?put_accName@CWnd@@UAAJUtagVARIANT@@PA_W@Z
?put_accName@CWnd@@UAAJUtagVARIANT@@PAG@Z
?put_accName@XAccessible@CMFCBaseAccessibleObject@@UAAJUtagVARIANT@@PA_W@Z
?put_accName@XAccessible@CMFCBaseAccessibleObject@@UAAJUtagVARIANT@@PAG@Z
?put_accName@XAccessible@CWnd@@UAAJUtagVARIANT@@PA_W@Z
?put_accName@XAccessible@CWnd@@UAAJUtagVARIANT@@PAG@Z
?put_accValue@CMFCBaseAccessibleObject@@UAAJUtagVARIANT@@PA_W@Z
?put_accValue@CMFCBaseAccessibleObject@@UAAJUtagVARIANT@@PAG@Z
?put_accValue@CWnd@@UAAJUtagVARIANT@@PA_W@Z
?put_accValue@CWnd@@UAAJUtagVARIANT@@PAG@Z
?put_accValue@XAccessible@CMFCBaseAccessibleObject@@UAAJUtagVARIANT@@PA_W@Z
?put_accValue@XAccessible@CMFCBaseAccessibleObject@@UAAJUtagVARIANT@@PAG@Z
?put_accValue@XAccessible@CWnd@@UAAJUtagVARIANT@@PA_W@Z
?put_accValue@XAccessible@CWnd@@UAAJUtagVARIANT@@PAG@Z
?PutFile@CFtpConnection@@QAAHPB_W0KK@Z
?PutFile@CFtpConnection@@QAAHPBG0KK@Z
?PutProperty@CHtmlView@@QAAXPB_WABUtagVARIANT@@@Z
?PutProperty@CHtmlView@@QAAXPBGABUtagVARIANT@@@Z
?PX_Blob@@YAHPAVCPropExchange@@PB_WAAPAXPAX@Z
?PX_Blob@@YAHPAVCPropExchange@@PBGAAPAXPAX@Z
?PX_Bool@@YAHPAVCPropExchange@@PB_WAAH@Z
?PX_Bool@@YAHPAVCPropExchange@@PB_WAAHH@Z
?PX_Bool@@YAHPAVCPropExchange@@PBGAAH@Z
?PX_Bool@@YAHPAVCPropExchange@@PBGAAHH@Z
?PX_Color@@YAHPAVCPropExchange@@PB_WAAK@Z
?PX_Color@@YAHPAVCPropExchange@@PB_WAAKK@Z
?PX_Color@@YAHPAVCPropExchange@@PBGAAK@Z
?PX_Color@@YAHPAVCPropExchange@@PBGAAKK@Z
?PX_Currency@@YAHPAVCPropExchange@@PB_WAATtagCY@@@Z
?PX_Currency@@YAHPAVCPropExchange@@PB_WAATtagCY@@T2@@Z
?PX_Currency@@YAHPAVCPropExchange@@PBGAATtagCY@@@Z
?PX_Currency@@YAHPAVCPropExchange@@PBGAATtagCY@@T2@@Z
?PX_DataPath@@YAHPAVCPropExchange@@PB_WAAVCDataPathProperty@@1@Z
?PX_DataPath@@YAHPAVCPropExchange@@PB_WAAVCDataPathProperty@@ABV?$CStringT@_WV?$StrTraitMFC_DLL@_WV?$ChTraitsCRT@_W@ATL@@@@@ATL@@@Z
?PX_DataPath@@YAHPAVCPropExchange@@PBGAAVCDataPathProperty@@1@Z
?PX_DataPath@@YAHPAVCPropExchange@@PBGAAVCDataPathProperty@@ABV?$CStringT@GV?$StrTraitMFC_DLL@GV?$ChTraitsCRT@G@ATL@@@@@ATL@@@Z
?PX_Double@@YAHPAVCPropExchange@@PB_WAAN@Z
?PX_Double@@YAHPAVCPropExchange@@PB_WAANN@Z
?PX_Double@@YAHPAVCPropExchange@@PBGAAN@Z
?PX_Double@@YAHPAVCPropExchange@@PBGAANN@Z
?PX_Float@@YAHPAVCPropExchange@@PB_WAAM@Z
?PX_Float@@YAHPAVCPropExchange@@PB_WAAMM@Z
?PX_Float@@YAHPAVCPropExchange@@PBGAAM@Z
?PX_Float@@YAHPAVCPropExchange@@PBGAAMM@Z
?PX_Font@@YAHPAVCPropExchange@@PB_WAAVCFontHolder@@PBUtagFONTDESC@@PAUIFontDisp@@@Z
?PX_Font@@YAHPAVCPropExchange@@PBGAAVCFontHolder@@PBUtagFONTDESC@@PAUIFontDisp@@@Z
?PX_IUnknown@@YAHPAVCPropExchange@@PB_WAAPAUIUnknown@@ABU_GUID@@PAU2@@Z
?PX_IUnknown@@YAHPAVCPropExchange@@PBGAAPAUIUnknown@@ABU_GUID@@PAU2@@Z
?PX_Long@@YAHPAVCPropExchange@@PB_WAAJ@Z
?PX_Long@@YAHPAVCPropExchange@@PB_WAAJJ@Z
?PX_Long@@YAHPAVCPropExchange@@PBGAAJ@Z
?PX_Long@@YAHPAVCPropExchange@@PBGAAJJ@Z
?PX_Picture@@YAHPAVCPropExchange@@PB_WAAVCPictureHolder@@@Z
?PX_Picture@@YAHPAVCPropExchange@@PB_WAAVCPictureHolder@@2@Z
?PX_Picture@@YAHPAVCPropExchange@@PBGAAVCPictureHolder@@@Z
?PX_Picture@@YAHPAVCPropExchange@@PBGAAVCPictureHolder@@2@Z
?PX_Short@@YAHPAVCPropExchange@@PB_WAAF@Z
?PX_Short@@YAHPAVCPropExchange@@PB_WAAFF@Z
?PX_Short@@YAHPAVCPropExchange@@PBGAAF@Z
?PX_Short@@YAHPAVCPropExchange@@PBGAAFF@Z
?PX_String@@YAHPAVCPropExchange@@PB_WAAV?$CStringT@_WV?$StrTraitMFC_DLL@_WV?$ChTraitsCRT@_W@ATL@@@@@ATL@@@Z
?PX_String@@YAHPAVCPropExchange@@PB_WAAV?$CStringT@_WV?$StrTraitMFC_DLL@_WV?$ChTraitsCRT@_W@ATL@@@@@ATL@@1@Z
?PX_String@@YAHPAVCPropExchange@@PB_WAAV?$CStringT@_WV?$StrTraitMFC_DLL@_WV?$ChTraitsCRT@_W@ATL@@@@@ATL@@ABV23@@Z
?PX_String@@YAHPAVCPropExchange@@PBGAAV?$CStringT@GV?$StrTraitMFC_DLL@GV?$ChTraitsCRT@G@ATL@@@@@ATL@@@Z
?PX_String@@YAHPAVCPropExchange@@PBGAAV?$CStringT@GV?$StrTraitMFC_DLL@GV?$ChTraitsCRT@G@ATL@@@@@ATL@@1@Z
?PX_String@@YAHPAVCPropExchange@@PBGAAV?$CStringT@GV?$StrTraitMFC_DLL@GV?$ChTraitsCRT@G@ATL@@@@@ATL@@ABV23@@Z
?PX_ULong@@YAHPAVCPropExchange@@PB_WAAK@Z
?PX_ULong@@YAHPAVCPropExchange@@PB_WAAKK@Z
?PX_ULong@@YAHPAVCPropExchange@@PBGAAK@Z
?PX_ULong@@YAHPAVCPropExchange@@PBGAAKK@Z
?PX_UShort@@YAHPAVCPropExchange@@PB_WAAG@Z
?PX_UShort@@YAHPAVCPropExchange@@PB_WAAGG@Z
?PX_UShort@@YAHPAVCPropExchange@@PBGAAG@Z
?PX_UShort@@YAHPAVCPropExchange@@PBGAAGG@Z
?QueryInfo@CHttpFile@@QBAHKAAV?$CStringT@_WV?$StrTraitMFC_DLL@_WV?$ChTraitsCRT@_W@ATL@@@@@ATL@@PAK@Z
?QueryInfo@CHttpFile@@QBAHKAAV?$CStringT@GV?$StrTraitMFC_DLL@GV?$ChTraitsCRT@G@ATL@@@@@ATL@@PAK@Z
?Read@CSettingsStore@@UAAHPB_WAAH@Z
?Read@CSettingsStore@@UAAHPB_WAAK@Z
?Read@CSettingsStore@@UAAHPB_WAAPAVCObject@@@Z
?Read@CSettingsStore@@UAAHPB_WAAV?$CStringT@_WV?$StrTraitMFC_DLL@_WV?$ChTraitsCRT@_W@ATL@@@@@ATL@@@Z
?Read@CSettingsStore@@UAAHPB_WAAVCObject@@@Z
?Read@CSettingsStore@@UAAHPB_WAAVCRect@@@Z
?Read@CSettingsStore@@UAAHPB_WPAPAEPAI@Z
?Read@CSettingsStore@@UAAHPBGAAH@Z
?Read@CSettingsStore@@UAAHPBGAAK@Z
?Read@CSettingsStore@@UAAHPBGAAPAVCObject@@@Z
?Read@CSettingsStore@@UAAHPBGAAV?$CStringT@GV?$StrTraitMFC_DLL@GV?$ChTraitsCRT@G@ATL@@@@@ATL@@@Z
?Read@CSettingsStore@@UAAHPBGAAVCObject@@@Z
?Read@CSettingsStore@@UAAHPBGAAVCRect@@@Z
?Read@CSettingsStore@@UAAHPBGPAPAEPAI@Z
?ReadBool@CTagManager@@QAAHABV?$CStringT@_WV?$StrTraitMFC_DLL@_WV?$ChTraitsCRT@_W@ATL@@@@@ATL@@AAH@Z
?ReadBool@CTagManager@@QAAHABV?$CStringT@GV?$StrTraitMFC_DLL@GV?$ChTraitsCRT@G@ATL@@@@@ATL@@AAH@Z
?ReadBool@XRibbonInfoParser@CMFCRibbonInfo@@UAAHABV?$CStringT@_WV?$StrTraitMFC_DLL@_WV?$ChTraitsCRT@_W@ATL@@@@@ATL@@AAH@Z
?ReadBool@XRibbonInfoParser@CMFCRibbonInfo@@UAAHABV?$CStringT@GV?$StrTraitMFC_DLL@GV?$ChTraitsCRT@G@ATL@@@@@ATL@@AAH@Z
?ReadBoolProp@@YAHAAVCTagManager@@PB_WAAH@Z
?ReadBoolProp@@YAHAAVCTagManager@@PBGAAH@Z
?ReadColor@CTagManager@@QAAHABV?$CStringT@_WV?$StrTraitMFC_DLL@_WV?$ChTraitsCRT@_W@ATL@@@@@ATL@@AAK@Z
?ReadColor@CTagManager@@QAAHABV?$CStringT@GV?$StrTraitMFC_DLL@GV?$ChTraitsCRT@G@ATL@@@@@ATL@@AAK@Z
?ReadColor@XRibbonInfoParser@CMFCRibbonInfo@@UAAHABV?$CStringT@_WV?$StrTraitMFC_DLL@_WV?$ChTraitsCRT@_W@ATL@@@@@ATL@@AAK@Z
?ReadColor@XRibbonInfoParser@CMFCRibbonInfo@@UAAHABV?$CStringT@GV?$StrTraitMFC_DLL@GV?$ChTraitsCRT@G@ATL@@@@@ATL@@AAK@Z
?ReadControlRenderer@CTagManager@@QAAHABV?$CStringT@_WV?$StrTraitMFC_DLL@_WV?$ChTraitsCRT@_W@ATL@@@@@ATL@@AAVCMFCControlRenderer@@I@Z
?ReadControlRenderer@CTagManager@@QAAHABV?$CStringT@_WV?$StrTraitMFC_DLL@_WV?$ChTraitsCRT@_W@ATL@@@@@ATL@@AAVCMFCControlRenderer@@PB_W@Z
?ReadControlRenderer@CTagManager@@QAAHABV?$CStringT@GV?$StrTraitMFC_DLL@GV?$ChTraitsCRT@G@ATL@@@@@ATL@@AAVCMFCControlRenderer@@I@Z
?ReadControlRenderer@CTagManager@@QAAHABV?$CStringT@GV?$StrTraitMFC_DLL@GV?$ChTraitsCRT@G@ATL@@@@@ATL@@AAVCMFCControlRenderer@@PBG@Z
?ReadControlRendererInfo@CTagManager@@QAAHABV?$CStringT@_WV?$StrTraitMFC_DLL@_WV?$ChTraitsCRT@_W@ATL@@@@@ATL@@AAVCMFCControlRendererInfo@@@Z
?ReadControlRendererInfo@CTagManager@@QAAHABV?$CStringT@GV?$StrTraitMFC_DLL@GV?$ChTraitsCRT@G@ATL@@@@@ATL@@AAVCMFCControlRendererInfo@@@Z
?ReadFont@CTagManager@@QAAHABV?$CStringT@_WV?$StrTraitMFC_DLL@_WV?$ChTraitsCRT@_W@ATL@@@@@ATL@@AAUtagLOGFONTW@@@Z
?ReadFont@CTagManager@@QAAHABV?$CStringT@GV?$StrTraitMFC_DLL@GV?$ChTraitsCRT@G@ATL@@@@@ATL@@AAUtagLOGFONTW@@@Z
?ReadInt@CTagManager@@QAAHABV?$CStringT@_WV?$StrTraitMFC_DLL@_WV?$ChTraitsCRT@_W@ATL@@@@@ATL@@AAH@Z
?ReadInt@CTagManager@@QAAHABV?$CStringT@GV?$StrTraitMFC_DLL@GV?$ChTraitsCRT@G@ATL@@@@@ATL@@AAH@Z
?ReadInt@XRibbonInfoParser@CMFCRibbonInfo@@UAAHABV?$CStringT@_WV?$StrTraitMFC_DLL@_WV?$ChTraitsCRT@_W@ATL@@@@@ATL@@AAH@Z
?ReadInt@XRibbonInfoParser@CMFCRibbonInfo@@UAAHABV?$CStringT@GV?$StrTraitMFC_DLL@GV?$ChTraitsCRT@G@ATL@@@@@ATL@@AAH@Z
?ReadPoint@CTagManager@@QAAHABV?$CStringT@_WV?$StrTraitMFC_DLL@_WV?$ChTraitsCRT@_W@ATL@@@@@ATL@@AAVCPoint@@@Z
?ReadPoint@CTagManager@@QAAHABV?$CStringT@GV?$StrTraitMFC_DLL@GV?$ChTraitsCRT@G@ATL@@@@@ATL@@AAVCPoint@@@Z
?ReadRect@CTagManager@@QAAHABV?$CStringT@_WV?$StrTraitMFC_DLL@_WV?$ChTraitsCRT@_W@ATL@@@@@ATL@@AAVCRect@@@Z
?ReadRect@CTagManager@@QAAHABV?$CStringT@GV?$StrTraitMFC_DLL@GV?$ChTraitsCRT@G@ATL@@@@@ATL@@AAVCRect@@@Z
?ReadSize@CTagManager@@QAAHABV?$CStringT@_WV?$StrTraitMFC_DLL@_WV?$ChTraitsCRT@_W@ATL@@@@@ATL@@AAVCSize@@@Z
?ReadSize@CTagManager@@QAAHABV?$CStringT@GV?$StrTraitMFC_DLL@GV?$ChTraitsCRT@G@ATL@@@@@ATL@@AAVCSize@@@Z
?ReadSize@XRibbonInfoParser@CMFCRibbonInfo@@UAAHABV?$CStringT@_WV?$StrTraitMFC_DLL@_WV?$ChTraitsCRT@_W@ATL@@@@@ATL@@AAVCSize@@@Z
?ReadSize@XRibbonInfoParser@CMFCRibbonInfo@@UAAHABV?$CStringT@GV?$StrTraitMFC_DLL@GV?$ChTraitsCRT@G@ATL@@@@@ATL@@AAVCSize@@@Z
?ReadString@CArchive@@QAAHAAV?$CStringT@_WV?$StrTraitMFC_DLL@_WV?$ChTraitsCRT@_W@ATL@@@@@ATL@@@Z
?ReadString@CArchive@@QAAHAAV?$CStringT@GV?$StrTraitMFC_DLL@GV?$ChTraitsCRT@G@ATL@@@@@ATL@@@Z
?ReadString@CArchive@@QAAPA_WPA_WI@Z
?ReadString@CArchive@@QAAPAGPAGI@Z
?ReadString@CInternetFile@@UAAHAAV?$CStringT@_WV?$StrTraitMFC_DLL@_WV?$ChTraitsCRT@_W@ATL@@@@@ATL@@@Z
?ReadString@CInternetFile@@UAAHAAV?$CStringT@GV?$StrTraitMFC_DLL@GV?$ChTraitsCRT@G@ATL@@@@@ATL@@@Z
?ReadString@CInternetFile@@UAAPA_WPA_WI@Z
?ReadString@CInternetFile@@UAAPAGPAGI@Z
?ReadString@CStdioFile@@UAAHAAV?$CStringT@_WV?$StrTraitMFC_DLL@_WV?$ChTraitsCRT@_W@ATL@@@@@ATL@@@Z
?ReadString@CStdioFile@@UAAHAAV?$CStringT@GV?$StrTraitMFC_DLL@GV?$ChTraitsCRT@G@ATL@@@@@ATL@@@Z
?ReadString@CStdioFile@@UAAPA_WPA_WI@Z
?ReadString@CStdioFile@@UAAPAGPAGI@Z
?ReadToolBarImages@CTagManager@@QAAHABV?$CStringT@_WV?$StrTraitMFC_DLL@_WV?$ChTraitsCRT@_W@ATL@@@@@ATL@@AAVCMFCToolBarImages@@I@Z
?ReadToolBarImages@CTagManager@@QAAHABV?$CStringT@_WV?$StrTraitMFC_DLL@_WV?$ChTraitsCRT@_W@ATL@@@@@ATL@@AAVCMFCToolBarImages@@PB_W@Z
?ReadToolBarImages@CTagManager@@QAAHABV?$CStringT@GV?$StrTraitMFC_DLL@GV?$ChTraitsCRT@G@ATL@@@@@ATL@@AAVCMFCToolBarImages@@I@Z
?ReadToolBarImages@CTagManager@@QAAHABV?$CStringT@GV?$StrTraitMFC_DLL@GV?$ChTraitsCRT@G@ATL@@@@@ATL@@AAVCMFCToolBarImages@@PBG@Z
?ReadToolTipInfo@CTagManager@@QAAHABV?$CStringT@_WV?$StrTraitMFC_DLL@_WV?$ChTraitsCRT@_W@ATL@@@@@ATL@@AAVCMFCToolTipInfo@@@Z
?ReadToolTipInfo@CTagManager@@QAAHABV?$CStringT@GV?$StrTraitMFC_DLL@GV?$ChTraitsCRT@G@ATL@@@@@ATL@@AAVCMFCToolTipInfo@@@Z
?ReadUInt@XRibbonInfoParser@CMFCRibbonInfo@@UAAHABV?$CStringT@_WV?$StrTraitMFC_DLL@_WV?$ChTraitsCRT@_W@ATL@@@@@ATL@@AAI@Z
?ReadUInt@XRibbonInfoParser@CMFCRibbonInfo@@UAAHABV?$CStringT@GV?$StrTraitMFC_DLL@GV?$ChTraitsCRT@G@ATL@@@@@ATL@@AAI@Z
?Reallocate@?$CSimpleStringT@_W$00@ATL@@AAAXH@Z
?Reallocate@?$CSimpleStringT@G$00@ATL@@AAAXH@Z
?RebuildFontSizes@CMFCToolBarFontSizeComboBox@@QAAXABV?$CStringT@_WV?$StrTraitMFC_DLL@_WV?$ChTraitsCRT@_W@ATL@@@@@ATL@@@Z
?RebuildFontSizes@CMFCToolBarFontSizeComboBox@@QAAXABV?$CStringT@GV?$StrTraitMFC_DLL@GV?$ChTraitsCRT@G@ATL@@@@@ATL@@@Z
?ReceiveFrom@CAsyncSocket@@QAAHPAXHAAV?$CStringT@_WV?$StrTraitMFC_DLL@_WV?$ChTraitsCRT@_W@ATL@@@@@ATL@@AAIH@Z
?ReceiveFrom@CAsyncSocket@@QAAHPAXHAAV?$CStringT@GV?$StrTraitMFC_DLL@GV?$ChTraitsCRT@G@ATL@@@@@ATL@@AAIH@Z
?Register@COleLinkingDoc@@QAAHPAVCOleObjectFactory@@PB_W@Z
?Register@COleLinkingDoc@@QAAHPAVCOleObjectFactory@@PBG@Z
?RegisterIfServerAttached@COleLinkingDoc@@MAAHPB_WH@Z
?RegisterIfServerAttached@COleLinkingDoc@@MAAHPBGH@Z
?RegisterWindowClass@AFX_GLOBAL_DATA@@QAA?AV?$CStringT@_WV?$StrTraitMFC_DLL@_WV?$ChTraitsCRT@_W@ATL@@@@@ATL@@PB_W@Z
?RegisterWindowClass@AFX_GLOBAL_DATA@@QAA?AV?$CStringT@GV?$StrTraitMFC_DLL@GV?$ChTraitsCRT@G@ATL@@@@@ATL@@PBG@Z
?RegisterWithRestartManager@CWinApp@@UAAJHABV?$CStringT@_WV?$StrTraitMFC_DLL@_WV?$ChTraitsCRT@_W@ATL@@@@@ATL@@@Z
?RegisterWithRestartManager@CWinApp@@UAAJHABV?$CStringT@GV?$StrTraitMFC_DLL@GV?$ChTraitsCRT@G@ATL@@@@@ATL@@@Z
?RegisterWithRestartManager@CWinApp@@UAAJPB_WKP6AKPAX@Z1KK@Z
?RegisterWithRestartManager@CWinApp@@UAAJPBGKP6AKPAX@Z1KK@Z
?ReleaseBuffer@?$CSimpleStringT@_W$00@ATL@@QAAXH@Z
?ReleaseBuffer@?$CSimpleStringT@G$00@ATL@@QAAXH@Z
?ReleaseBufferSetLength@?$CSimpleStringT@_W$00@ATL@@QAAXH@Z
?ReleaseBufferSetLength@?$CSimpleStringT@G$00@ATL@@QAAXH@Z
?Remove@?$CStringT@_WV?$StrTraitMFC_DLL@_WV?$ChTraitsCRT@_W@ATL@@@@@ATL@@QAAH_W@Z
?Remove@?$CStringT@GV?$StrTraitMFC_DLL@GV?$ChTraitsCRT@G@ATL@@@@@ATL@@QAAHG@Z
?Remove@CFile@@SAXPB_WPAVCAtlTransactionManager@ATL@@@Z
?Remove@CFile@@SAXPBGPAVCAtlTransactionManager@ATL@@@Z
?Remove@CFtpConnection@@QAAHPB_W@Z
?Remove@CFtpConnection@@QAAHPBG@Z
?RemoveButton@CMFCToolBarsCustomizeDialog@@QAAHPB_WI@Z
?RemoveButton@CMFCToolBarsCustomizeDialog@@QAAHPBGI@Z
?RemoveDirectoryW@CFtpConnection@@QAAHPB_W@Z
?RemoveDirectoryW@CFtpConnection@@QAAHPBG@Z
?RemoveHead@CStringList@@QAA?AV?$CStringT@_WV?$StrTraitMFC_DLL@_WV?$ChTraitsCRT@_W@ATL@@@@@ATL@@XZ
?RemoveHead@CStringList@@QAA?AV?$CStringT@GV?$StrTraitMFC_DLL@GV?$ChTraitsCRT@G@ATL@@@@@ATL@@XZ
?RemoveKey@CMapStringToOb@@QAAHPB_W@Z
?RemoveKey@CMapStringToOb@@QAAHPBG@Z
?RemoveKey@CMapStringToPtr@@QAAHPB_W@Z
?RemoveKey@CMapStringToPtr@@QAAHPBG@Z
?RemoveKey@CMapStringToString@@QAAHPB_W@Z
?RemoveKey@CMapStringToString@@QAAHPBG@Z
?RemoveStateFromRegistry@CMFCToolBar@@UAAHPB_WHI@Z
?RemoveStateFromRegistry@CMFCToolBar@@UAAHPBGHI@Z
?RemoveTail@CStringList@@QAA?AV?$CStringT@_WV?$StrTraitMFC_DLL@_WV?$ChTraitsCRT@_W@ATL@@@@@ATL@@XZ
?RemoveTail@CStringList@@QAA?AV?$CStringT@GV?$StrTraitMFC_DLL@GV?$ChTraitsCRT@G@ATL@@@@@ATL@@XZ
?Rename@CFile@@SAXPB_W0PAVCAtlTransactionManager@ATL@@@Z
?Rename@CFile@@SAXPBG0PAVCAtlTransactionManager@ATL@@@Z
?Rename@CFtpConnection@@QAAHPB_W0@Z
?Rename@CFtpConnection@@QAAHPBG0@Z
?RenameCategory@CMFCToolBarsCustomizeDialog@@QAAHPB_W0@Z
?RenameCategory@CMFCToolBarsCustomizeDialog@@QAAHPBG0@Z
?Replace@?$CStringT@_WV?$StrTraitMFC_DLL@_WV?$ChTraitsCRT@_W@ATL@@@@@ATL@@QAAH_W0@Z
?Replace@?$CStringT@_WV?$StrTraitMFC_DLL@_WV?$ChTraitsCRT@_W@ATL@@@@@ATL@@QAAHPB_W0@Z
?Replace@?$CStringT@GV?$StrTraitMFC_DLL@GV?$ChTraitsCRT@G@ATL@@@@@ATL@@QAAHGG@Z
?Replace@?$CStringT@GV?$StrTraitMFC_DLL@GV?$ChTraitsCRT@G@ATL@@@@@ATL@@QAAHPBG0@Z
?ReplaceBrackets@CDatabase@@QAAXPA_W@Z
?ReplaceBrackets@CDatabase@@QAAXPAG@Z
?ReportSaveLoadException@CDocument@@UAAXPB_WPAVCException@@HI@Z
?ReportSaveLoadException@CDocument@@UAAXPBGPAVCException@@HI@Z
?ReportSaveLoadException@COleLinkingDoc@@UAAXPB_WPAVCException@@HI@Z
?ReportSaveLoadException@COleLinkingDoc@@UAAXPBGPAVCException@@HI@Z
?RequestLicKey@XClassFactory@COleObjectFactory@@UAAJKPAPA_W@Z
?RequestLicKey@XClassFactory@COleObjectFactory@@UAAJKPAPAG@Z
?RestoreState@CToolBarCtrl@@QAAXPAUHKEY__@@PB_W1@Z
?RestoreState@CToolBarCtrl@@QAAXPAUHKEY__@@PBG1@Z
?ReverseFind@?$CStringT@_WV?$StrTraitMFC_DLL@_WV?$ChTraitsCRT@_W@ATL@@@@@ATL@@QBAH_W@Z
?ReverseFind@?$CStringT@GV?$StrTraitMFC_DLL@GV?$ChTraitsCRT@G@ATL@@@@@ATL@@QBAHG@Z
?RFX_BigInt@@YAXPAVCFieldExchange@@PB_WAA_J@Z
?RFX_BigInt@@YAXPAVCFieldExchange@@PBGAA_J@Z
?RFX_Binary_Bulk@@YAXPAVCFieldExchange@@PB_WPAPAEPAPAJH@Z
?RFX_Binary_Bulk@@YAXPAVCFieldExchange@@PBGPAPAEPAPAJH@Z
?RFX_Binary@@YAXPAVCFieldExchange@@PB_WAAVCByteArray@@H@Z
?RFX_Binary@@YAXPAVCFieldExchange@@PBGAAVCByteArray@@H@Z
?RFX_Bool_Bulk@@YAXPAVCFieldExchange@@PB_WPAPAHPAPAJ@Z
?RFX_Bool_Bulk@@YAXPAVCFieldExchange@@PBGPAPAHPAPAJ@Z
?RFX_Bool@@YAXPAVCFieldExchange@@PB_WAAH@Z
?RFX_Bool@@YAXPAVCFieldExchange@@PBGAAH@Z
?RFX_Byte_Bulk@@YAXPAVCFieldExchange@@PB_WPAPAEPAPAJ@Z
?RFX_Byte_Bulk@@YAXPAVCFieldExchange@@PBGPAPAEPAPAJ@Z
?RFX_Byte@@YAXPAVCFieldExchange@@PB_WAAE@Z
?RFX_Byte@@YAXPAVCFieldExchange@@PBGAAE@Z
?RFX_Date_Bulk@@YAXPAVCFieldExchange@@PB_WPAPAUtagTIMESTAMP_STRUCT@@PAPAJ@Z
?RFX_Date_Bulk@@YAXPAVCFieldExchange@@PBGPAPAUtagTIMESTAMP_STRUCT@@PAPAJ@Z
?RFX_Date@@YAXPAVCFieldExchange@@PB_WAAUtagTIMESTAMP_STRUCT@@@Z
?RFX_Date@@YAXPAVCFieldExchange@@PB_WAAVCOleDateTime@ATL@@@Z
?RFX_Date@@YAXPAVCFieldExchange@@PB_WAAVCTime@ATL@@@Z
?RFX_Date@@YAXPAVCFieldExchange@@PBGAAUtagTIMESTAMP_STRUCT@@@Z
?RFX_Date@@YAXPAVCFieldExchange@@PBGAAVCOleDateTime@ATL@@@Z
?RFX_Date@@YAXPAVCFieldExchange@@PBGAAVCTime@ATL@@@Z
?RFX_Double_Bulk@@YAXPAVCFieldExchange@@PB_WPAPANPAPAJ@Z
?RFX_Double_Bulk@@YAXPAVCFieldExchange@@PBGPAPANPAPAJ@Z
?RFX_Double@@YAXPAVCFieldExchange@@PB_WAAN@Z
?RFX_Double@@YAXPAVCFieldExchange@@PBGAAN@Z
?RFX_Int_Bulk@@YAXPAVCFieldExchange@@PB_WPAPAHPAPAJ@Z
?RFX_Int_Bulk@@YAXPAVCFieldExchange@@PBGPAPAHPAPAJ@Z
?RFX_Int@@YAXPAVCFieldExchange@@PB_WAAH@Z
?RFX_Int@@YAXPAVCFieldExchange@@PBGAAH@Z
?RFX_Long_Bulk@@YAXPAVCFieldExchange@@PB_WPAPAJ2@Z
?RFX_Long_Bulk@@YAXPAVCFieldExchange@@PBGPAPAJ2@Z
?RFX_Long@@YAXPAVCFieldExchange@@PB_WAAJ@Z
?RFX_Long@@YAXPAVCFieldExchange@@PBGAAJ@Z
?RFX_LongBinary@@YAXPAVCFieldExchange@@PB_WAAVCLongBinary@@@Z
?RFX_LongBinary@@YAXPAVCFieldExchange@@PBGAAVCLongBinary@@@Z
?RFX_Single_Bulk@@YAXPAVCFieldExchange@@PB_WPAPAMPAPAJ@Z
?RFX_Single_Bulk@@YAXPAVCFieldExchange@@PBGPAPAMPAPAJ@Z
?RFX_Single@@YAXPAVCFieldExchange@@PB_WAAM@Z
?RFX_Single@@YAXPAVCFieldExchange@@PBGAAM@Z
?RFX_Text_Bulk@@YAXPAVCFieldExchange@@PB_WPAPA_WPAPAJH@Z
?RFX_Text_Bulk@@YAXPAVCFieldExchange@@PB_WPAPADPAPAJH@Z
?RFX_Text_Bulk@@YAXPAVCFieldExchange@@PBGPAPADPAPAJH@Z
?RFX_Text_Bulk@@YAXPAVCFieldExchange@@PBGPAPAGPAPAJH@Z
?RFX_Text@@YAXPAVCFieldExchange@@PB_WAAV?$CStringT@_WV?$StrTraitMFC_DLL@_WV?$ChTraitsCRT@_W@ATL@@@@@ATL@@HHF@Z
?RFX_Text@@YAXPAVCFieldExchange@@PB_WAAV?$CStringT@DV?$StrTraitMFC_DLL@DV?$ChTraitsCRT@D@ATL@@@@@ATL@@HHF@Z
?RFX_Text@@YAXPAVCFieldExchange@@PB_WPA_WHHF@Z
?RFX_Text@@YAXPAVCFieldExchange@@PB_WPADHHF@Z
?RFX_Text@@YAXPAVCFieldExchange@@PBGAAV?$CStringT@DV?$StrTraitMFC_DLL@DV?$ChTraitsCRT@D@ATL@@@@@ATL@@HHF@Z
?RFX_Text@@YAXPAVCFieldExchange@@PBGAAV?$CStringT@GV?$StrTraitMFC_DLL@GV?$ChTraitsCRT@G@ATL@@@@@ATL@@HHF@Z
?RFX_Text@@YAXPAVCFieldExchange@@PBGPADHHF@Z
?RFX_Text@@YAXPAVCFieldExchange@@PBGPAGHHF@Z
?Right@?$CStringT@_WV?$StrTraitMFC_DLL@_WV?$ChTraitsCRT@_W@ATL@@@@@ATL@@QBA?AV12@H@Z
?Right@?$CStringT@GV?$StrTraitMFC_DLL@GV?$ChTraitsCRT@G@ATL@@@@@ATL@@QBA?AV12@H@Z
?SameAsSelected@CEditView@@IAAHPB_WH@Z
?SameAsSelected@CEditView@@IAAHPBGH@Z
?SameAsSelected@CRichEditView@@IAAHPB_WHH@Z
?SameAsSelected@CRichEditView@@IAAHPBGHH@Z
?Save@CMFCToolBarImages@@QAAHPB_W@Z
?Save@CMFCToolBarImages@@QAAHPBG@Z
?Save@XPersistFile@COleLinkingDoc@@UAAJPB_WH@Z
?Save@XPersistFile@COleLinkingDoc@@UAAJPBGH@Z
?SaveAcceleratorState@CKeyboardManager@@IAAHPB_WIPAUHACCEL__@@@Z
?SaveAcceleratorState@CKeyboardManager@@IAAHPBGIPAUHACCEL__@@@Z
?SaveBarState@CFrameWnd@@QBAXPB_W@Z
?SaveBarState@CFrameWnd@@QBAXPBG@Z
?SaveCompleted@XPersistFile@COleLinkingDoc@@UAAJPB_W@Z
?SaveCompleted@XPersistFile@COleLinkingDoc@@UAAJPBG@Z
?SaveDockState@CFrameImpl@@IAAXPB_W@Z
?SaveDockState@CFrameImpl@@IAAXPBG@Z
?SaveMDIState@CMDIFrameWndEx@@UAAHPB_W@Z
?SaveMDIState@CMDIFrameWndEx@@UAAHPBG@Z
?SaveParameters@CMFCToolBar@@SAHPB_W@Z
?SaveParameters@CMFCToolBar@@SAHPBG@Z
?SaveState@CBasePane@@UAAHPB_WHI@Z
?SaveState@CBasePane@@UAAHPBGHI@Z
?SaveState@CBaseTabbedPane@@MAAHPB_WHI@Z
?SaveState@CBaseTabbedPane@@MAAHPBGHI@Z
?SaveState@CCommandManager@@QAAHPB_W@Z
?SaveState@CCommandManager@@QAAHPBG@Z
?SaveState@CContextMenuManager@@UAAHPB_W@Z
?SaveState@CContextMenuManager@@UAAHPBG@Z
?SaveState@CControlBarInfo@@QAAHPB_WH@Z
?SaveState@CControlBarInfo@@QAAHPBGH@Z
?SaveState@CDockablePane@@UAAHPB_WHI@Z
?SaveState@CDockablePane@@UAAHPBGHI@Z
?SaveState@CDockablePaneAdapter@@UAAHPB_WHI@Z
?SaveState@CDockablePaneAdapter@@UAAHPBGHI@Z
?SaveState@CDockingManager@@UAAHPB_WI@Z
?SaveState@CDockingManager@@UAAHPBGI@Z
?SaveState@CDockState@@QAAXPB_W@Z
?SaveState@CDockState@@QAAXPBG@Z
?SaveState@CKeyboardManager@@QAAHPB_WPAVCFrameWnd@@@Z
?SaveState@CKeyboardManager@@QAAHPBGPAVCFrameWnd@@@Z
?SaveState@CMDIClientAreaWnd@@QAAHPB_WI@Z
?SaveState@CMDIClientAreaWnd@@QAAHPBGI@Z
?SaveState@CMFCMenuBar@@UAAHPB_WHI@Z
?SaveState@CMFCMenuBar@@UAAHPBGHI@Z
?SaveState@CMFCOutlookBar@@UAAHPB_WHI@Z
?SaveState@CMFCOutlookBar@@UAAHPBGHI@Z
?SaveState@CMFCReBarState@@SAXAAV?$CStringT@_WV?$StrTraitMFC_DLL@_WV?$ChTraitsCRT@_W@ATL@@@@@ATL@@PAVCFrameWnd@@@Z
?SaveState@CMFCReBarState@@SAXAAV?$CStringT@GV?$StrTraitMFC_DLL@GV?$ChTraitsCRT@G@ATL@@@@@ATL@@PAVCFrameWnd@@@Z
?SaveState@CMFCRibbonBar@@MAAHPB_WHI@Z
?SaveState@CMFCRibbonBar@@MAAHPBGHI@Z
?SaveState@CMFCRibbonStatusBar@@MAAHPB_WHI@Z
?SaveState@CMFCRibbonStatusBar@@MAAHPBGHI@Z
?SaveState@CMFCTasksPane@@UAAHPB_WHI@Z
?SaveState@CMFCTasksPane@@UAAHPBGHI@Z
?SaveState@CMFCToolBar@@UAAHPB_WHI@Z
?SaveState@CMFCToolBar@@UAAHPBGHI@Z
?SaveState@CMouseManager@@QAAHPB_W@Z
?SaveState@CMouseManager@@QAAHPBG@Z
?SaveState@CMultiPaneFrameWnd@@UAAHPB_WI@Z
?SaveState@CMultiPaneFrameWnd@@UAAHPBGI@Z
?SaveState@CPane@@UAAHPB_WHI@Z
?SaveState@CPane@@UAAHPBGHI@Z
?SaveState@CPaneFrameWnd@@UAAHPB_WI@Z
?SaveState@CPaneFrameWnd@@UAAHPBGI@Z
?SaveState@CToolBarCtrl@@QAAXPAUHKEY__@@PB_W1@Z
?SaveState@CToolBarCtrl@@QAAXPAUHKEY__@@PBG1@Z
?SaveState@CUserToolsManager@@QAAHPB_W@Z
?SaveState@CUserToolsManager@@QAAHPBG@Z
?SaveState@CWinAppEx@@QAAHPAVCFrameWndEx@@PB_W@Z
?SaveState@CWinAppEx@@QAAHPAVCFrameWndEx@@PBG@Z
?SaveState@CWinAppEx@@QAAHPAVCMDIFrameWndEx@@PB_W@Z
?SaveState@CWinAppEx@@QAAHPAVCMDIFrameWndEx@@PBG@Z
?SaveState@CWinAppEx@@QAAHPAVCOleIPFrameWndEx@@PB_W@Z
?SaveState@CWinAppEx@@QAAHPAVCOleIPFrameWndEx@@PBG@Z
?SaveState@CWinAppEx@@UAAHPB_WPAVCFrameImpl@@@Z
?SaveState@CWinAppEx@@UAAHPBGPAVCFrameImpl@@@Z
?SaveToXMLFile@CMFCRibbonBar@@QBAHPB_W@Z
?SaveToXMLFile@CMFCRibbonBar@@QBAHPBG@Z
?SearchCommandText@CMFCCustomizeMenuButton@@IAA?AV?$CStringT@_WV?$StrTraitMFC_DLL@_WV?$ChTraitsCRT@_W@ATL@@@@@ATL@@PAVCMenu@@I@Z
?SearchCommandText@CMFCCustomizeMenuButton@@IAA?AV?$CStringT@GV?$StrTraitMFC_DLL@GV?$ChTraitsCRT@G@ATL@@@@@ATL@@PAVCMenu@@I@Z
?Select_FindString@CDHtmlDialog@@IAAJPAUIHTMLSelectElement@@PA_WH@Z
?Select_FindString@CDHtmlDialog@@IAAJPAUIHTMLSelectElement@@PAGH@Z
?SelectFont@CMFCFontComboBox@@QAAHPB_WE@Z
?SelectFont@CMFCFontComboBox@@QAAHPBGE@Z
?SelectItem@CMFCRibbonComboBox@@QAAHPB_W@Z
?SelectItem@CMFCRibbonComboBox@@QAAHPBG@Z
?SelectItem@CMFCToolBarComboBoxButton@@QAAHPB_W@Z
?SelectItem@CMFCToolBarComboBoxButton@@QAAHPBG@Z
?SelectItemAll@CMFCToolBarComboBoxButton@@SAHIPB_W@Z
?SelectItemAll@CMFCToolBarComboBoxButton@@SAHIPBG@Z
?SelectPath@CMFCShellTreeCtrl@@QAAHPB_WH@Z
?SelectPath@CMFCShellTreeCtrl@@QAAHPBGH@Z
?SendRequest@CHttpFile@@QAAHAAV?$CStringT@_WV?$StrTraitMFC_DLL@_WV?$ChTraitsCRT@_W@ATL@@@@@ATL@@PAXK@Z
?SendRequest@CHttpFile@@QAAHAAV?$CStringT@GV?$StrTraitMFC_DLL@GV?$ChTraitsCRT@G@ATL@@@@@ATL@@PAXK@Z
?SendRequest@CHttpFile@@QAAHPB_WKPAXK@Z
?SendRequest@CHttpFile@@QAAHPBGKPAXK@Z
?SendTo@CAsyncSocket@@QAAHPBXHIPB_WH@Z
?SendTo@CAsyncSocket@@QAAHPBXHIPBGH@Z
?SetActiveObject@XOleInPlaceFrame@COleFrameHook@@UAAJPAUIOleInPlaceActiveObject@@PB_W@Z
?SetActiveObject@XOleInPlaceFrame@COleFrameHook@@UAAJPAUIOleInPlaceActiveObject@@PBG@Z
?SetActiveObject@XOleIPFrame@COleControlContainer@@UAAJPAUIOleInPlaceActiveObject@@PB_W@Z
?SetActiveObject@XOleIPFrame@COleControlContainer@@UAAJPAUIOleInPlaceActiveObject@@PBG@Z
?SetAllCategory@CMFCToolBarsCommandsPropertyPage@@QAAXPB_W@Z
?SetAllCategory@CMFCToolBarsCommandsPropertyPage@@QAAXPBG@Z
?SetAllCategory@CMFCToolBarsKeyboardPropertyPage@@QAAXPB_W@Z
?SetAllCategory@CMFCToolBarsKeyboardPropertyPage@@QAAXPBG@Z
?SetAppID@CAppDestinations@@QAAXPB_W@Z
?SetAppID@CAppDestinations@@QAAXPBG@Z
?SetAppID@CWinApp@@IAAXPB_W@Z
?SetAppID@CWinApp@@IAAXPBG@Z
?SetAt@?$CSimpleStringT@_W$00@ATL@@QAAXH_W@Z
?SetAt@?$CSimpleStringT@G$00@ATL@@QAAXHG@Z
?SetAtGrow@CStringArray@@QAAXHABV?$CStringT@_WV?$StrTraitMFC_DLL@_WV?$ChTraitsCRT@_W@ATL@@@@@ATL@@@Z
?SetAtGrow@CStringArray@@QAAXHABV?$CStringT@GV?$StrTraitMFC_DLL@GV?$ChTraitsCRT@G@ATL@@@@@ATL@@@Z
?SetAtGrow@CStringArray@@QAAXHPB_W@Z
?SetAtGrow@CStringArray@@QAAXHPBG@Z
?SetBkImage@CListCtrl@@QAAHPA_WHHH@Z
?SetBkImage@CListCtrl@@QAAHPAGHHH@Z
?SetBoolLabels@CMFCPropertyGridCtrl@@QAAXPB_W0@Z
?SetBoolLabels@CMFCPropertyGridCtrl@@QAAXPBG0@Z
?SetBuffer@CTagManager@@QAAXPB_W@Z
?SetBuffer@CTagManager@@QAAXPBG@Z
?SetButton@CMFCCaptionBar@@QAAXPB_WIW4BarElementAlignment@1@H@Z
?SetButton@CMFCCaptionBar@@QAAXPBGIW4BarElementAlignment@1@H@Z
?SetButtonText@CMFCToolBar@@QAAHHPB_W@Z
?SetButtonText@CMFCToolBar@@QAAHHPBG@Z
?SetButtonText@CToolBar@@QAAHHPB_W@Z
?SetButtonText@CToolBar@@QAAHHPBG@Z
?SetButtonToolTip@CMFCCaptionBar@@QAAXPB_W0@Z
?SetButtonToolTip@CMFCCaptionBar@@QAAXPBG0@Z
?SetCaption@CMFCTasksPane@@QAAXPB_W@Z
?SetCaption@CMFCTasksPane@@QAAXPBG@Z
?SetClipboardFormatName@CMFCToolBarButton@@SAXPB_W@Z
?SetClipboardFormatName@CMFCToolBarButton@@SAXPBG@Z
?SetColorName@CMFCColorMenuButton@@SAXKABV?$CStringT@_WV?$StrTraitMFC_DLL@_WV?$ChTraitsCRT@_W@ATL@@@@@ATL@@@Z
?SetColorName@CMFCColorMenuButton@@SAXKABV?$CStringT@GV?$StrTraitMFC_DLL@GV?$ChTraitsCRT@G@ATL@@@@@ATL@@@Z
?SetCommand@CUserTool@@QAAXPB_W@Z
?SetCommand@CUserTool@@QAAXPBG@Z
?SetCommands@CMFCRibbonQuickAccessToolBar@@IAAXPAVCMFCRibbonBar@@ABV?$CList@II@@PB_W@Z
?SetCommands@CMFCRibbonQuickAccessToolBar@@IAAXPAVCMFCRibbonBar@@ABV?$CList@II@@PBG@Z
?SetContent@CTaskDialog@@QAAXABV?$CStringT@_WV?$StrTraitMFC_DLL@_WV?$ChTraitsCRT@_W@ATL@@@@@ATL@@@Z
?SetContent@CTaskDialog@@QAAXABV?$CStringT@GV?$StrTraitMFC_DLL@GV?$ChTraitsCRT@G@ATL@@@@@ATL@@@Z
?SetContents@CMFCToolBarEditBoxButton@@UAAXABV?$CStringT@_WV?$StrTraitMFC_DLL@_WV?$ChTraitsCRT@_W@ATL@@@@@ATL@@@Z
?SetContents@CMFCToolBarEditBoxButton@@UAAXABV?$CStringT@GV?$StrTraitMFC_DLL@GV?$ChTraitsCRT@G@ATL@@@@@ATL@@@Z
?SetContentsAll@CMFCToolBarEditBoxButton@@SAHIABV?$CStringT@_WV?$StrTraitMFC_DLL@_WV?$ChTraitsCRT@_W@ATL@@@@@ATL@@@Z
?SetContentsAll@CMFCToolBarEditBoxButton@@SAHIABV?$CStringT@GV?$StrTraitMFC_DLL@GV?$ChTraitsCRT@G@ATL@@@@@ATL@@@Z
?SetControlItemText@CFileDialog@@QAAJKKABV?$CStringT@_WV?$StrTraitMFC_DLL@_WV?$ChTraitsCRT@_W@ATL@@@@@ATL@@@Z
?SetControlItemText@CFileDialog@@QAAJKKABV?$CStringT@GV?$StrTraitMFC_DLL@GV?$ChTraitsCRT@G@ATL@@@@@ATL@@@Z
?SetControlLabel@CFileDialog@@QAAJKABV?$CStringT@_WV?$StrTraitMFC_DLL@_WV?$ChTraitsCRT@_W@ATL@@@@@ATL@@@Z
?SetControlLabel@CFileDialog@@QAAJKABV?$CStringT@GV?$StrTraitMFC_DLL@GV?$ChTraitsCRT@G@ATL@@@@@ATL@@@Z
?SetControlProperty@CDHtmlDialog@@QAAXPB_W0PAUtagVARIANT@@@Z
?SetControlProperty@CDHtmlDialog@@QAAXPB_WJPAUtagVARIANT@@@Z
?SetControlProperty@CDHtmlDialog@@QAAXPBG0PAUtagVARIANT@@@Z
?SetControlProperty@CDHtmlDialog@@QAAXPBGJPAUtagVARIANT@@@Z
?SetControlText@CFileDialog@@QAAXHPB_W@Z
?SetControlText@CFileDialog@@QAAXHPBG@Z
?SetCookie@CInternetSession@@SAHPB_W00@Z
?SetCookie@CInternetSession@@SAHPBG00@Z
?SetCurrentDirectoryW@CFtpConnection@@QAAHPB_W@Z
?SetCurrentDirectoryW@CFtpConnection@@QAAHPBG@Z
?SetDefExt@CFileDialog@@QAAXPB_W@Z
?SetDefExt@CFileDialog@@QAAXPBG@Z
?SetDescription@CMFCRibbonBaseElement@@UAAXPB_W@Z
?SetDescription@CMFCRibbonBaseElement@@UAAXPBG@Z
?SetDescription@CMFCRibbonButton@@UAAXPB_W@Z
?SetDescription@CMFCRibbonButton@@UAAXPBG@Z
?SetDescription@CMFCToolTipCtrl@@UAAXV?$CStringT@_WV?$StrTraitMFC_DLL@_WV?$ChTraitsCRT@_W@ATL@@@@@ATL@@@Z
?SetDescription@CMFCToolTipCtrl@@UAAXV?$CStringT@GV?$StrTraitMFC_DLL@GV?$ChTraitsCRT@G@ATL@@@@@ATL@@@Z
?SetDlgItemTextW@COleControlContainer@@UAAXHPB_W@Z
?SetDlgItemTextW@COleControlContainer@@UAAXHPBG@Z
?SetDlgItemTextW@CWnd@@QAAXHPB_W@Z
?SetDlgItemTextW@CWnd@@QAAXHPBG@Z
?SetDocumentColors@CMFCColorBar@@QAAXPB_WAAV?$CList@KK@@H@Z
?SetDocumentColors@CMFCColorBar@@QAAXPBGAAV?$CList@KK@@H@Z
?SetDocumentColors@CMFCColorButton@@QAAXPB_WAAV?$CList@KK@@@Z
?SetDocumentColors@CMFCColorButton@@QAAXPBGAAV?$CList@KK@@@Z
?SetDocumentColors@CMFCRibbonColorButton@@QAAXPB_WAAV?$CList@KK@@@Z
?SetDocumentColors@CMFCRibbonColorButton@@QAAXPBGAAV?$CList@KK@@@Z
?SetEditBoxText@CFileDialog@@QAAJKABV?$CStringT@_WV?$StrTraitMFC_DLL@_WV?$ChTraitsCRT@_W@ATL@@@@@ATL@@@Z
?SetEditBoxText@CFileDialog@@QAAJKABV?$CStringT@GV?$StrTraitMFC_DLL@GV?$ChTraitsCRT@G@ATL@@@@@ATL@@@Z
?SetEditText@CMFCRibbonEdit@@QAAXV?$CStringT@_WV?$StrTraitMFC_DLL@_WV?$ChTraitsCRT@_W@ATL@@@@@ATL@@@Z
?SetEditText@CMFCRibbonEdit@@QAAXV?$CStringT@GV?$StrTraitMFC_DLL@GV?$ChTraitsCRT@G@ATL@@@@@ATL@@@Z
?SetElementHtml@CDHtmlDialog@@QAAXPAUIUnknown@@PA_W@Z
?SetElementHtml@CDHtmlDialog@@QAAXPAUIUnknown@@PAG@Z
?SetElementHtml@CDHtmlDialog@@QAAXPB_WPA_W@Z
?SetElementHtml@CDHtmlDialog@@QAAXPBGPAG@Z
?SetElementKeys@CMFCRibbonBar@@QAAHIPB_W0@Z
?SetElementKeys@CMFCRibbonBar@@QAAHIPBG0@Z
?SetElementProperty@CDHtmlDialog@@QAAXPB_WJPAUtagVARIANT@@@Z
?SetElementProperty@CDHtmlDialog@@QAAXPBGJPAUtagVARIANT@@@Z
?SetElementText@CDHtmlDialog@@QAAXPAUIUnknown@@PA_W@Z
?SetElementText@CDHtmlDialog@@QAAXPAUIUnknown@@PAG@Z
?SetElementText@CDHtmlDialog@@QAAXPB_WPA_W@Z
?SetElementText@CDHtmlDialog@@QAAXPBGPAG@Z
?SetError@XInfoError@CMFCRibbonInfo@@QAAXW4XError@12@ABV?$CStringT@_WV?$StrTraitMFC_DLL@_WV?$ChTraitsCRT@_W@ATL@@@@@ATL@@JJ@Z
?SetError@XInfoError@CMFCRibbonInfo@@QAAXW4XError@12@ABV?$CStringT@GV?$StrTraitMFC_DLL@GV?$ChTraitsCRT@G@ATL@@@@@ATL@@JJ@Z
?SetExpansionArea@CTaskDialog@@QAAXABV?$CStringT@_WV?$StrTraitMFC_DLL@_WV?$ChTraitsCRT@_W@ATL@@@@@ATL@@00@Z
?SetExpansionArea@CTaskDialog@@QAAXABV?$CStringT@GV?$StrTraitMFC_DLL@GV?$ChTraitsCRT@G@ATL@@@@@ATL@@00@Z
?SetFocusToElement@CDHtmlDialog@@IAAXPB_W@Z
?SetFocusToElement@CDHtmlDialog@@IAAXPBG@Z
?SetFont@CDialogTemplate@@QAAHPB_WG@Z
?SetFont@CDialogTemplate@@QAAHPBGG@Z
?SetFont@CMFCRibbonFontComboBox@@QAAHPB_WEH@Z
?SetFont@CMFCRibbonFontComboBox@@QAAHPBGEH@Z
?SetFont@CMFCToolBarFontComboBox@@QAAHPB_WEH@Z
?SetFont@CMFCToolBarFontComboBox@@QAAHPBGEH@Z
?SetFontFamilyName@CD2DTextLayout@@QAAHPB_WUDWRITE_TEXT_RANGE@@@Z
?SetFontFamilyName@CD2DTextLayout@@QAAHPBGUDWRITE_TEXT_RANGE@@@Z
?SetFooterIcon@CTaskDialog@@QAAXPB_W@Z
?SetFooterIcon@CTaskDialog@@QAAXPBG@Z
?SetFooterText@CTaskDialog@@QAAXABV?$CStringT@_WV?$StrTraitMFC_DLL@_WV?$ChTraitsCRT@_W@ATL@@@@@ATL@@@Z
?SetFooterText@CTaskDialog@@QAAXABV?$CStringT@GV?$StrTraitMFC_DLL@GV?$ChTraitsCRT@G@ATL@@@@@ATL@@@Z
?SetGroupName@CMFCRibbonGallery@@QAAXHPB_W@Z
?SetGroupName@CMFCRibbonGallery@@QAAXHPBG@Z
?SetGroupName@CMFCTasksPane@@QAAHHPB_W@Z
?SetGroupName@CMFCTasksPane@@QAAHHPBG@Z
?SetHelpInfo@COlePropertyPage@@QAAXPB_W0K@Z
?SetHelpInfo@COlePropertyPage@@QAAXPBG0K@Z
?SetHostNames@COleClientItem@@QAAXPB_W0@Z
?SetHostNames@COleClientItem@@QAAXPBG0@Z
?SetHostNames@XOleObject@CDocObjectServer@@UAAJPB_W0@Z
?SetHostNames@XOleObject@CDocObjectServer@@UAAJPBG0@Z
?SetHostNames@XOleObject@COleControl@@UAAJPB_W0@Z
?SetHostNames@XOleObject@COleControl@@UAAJPBG0@Z
?SetHostNames@XOleObject@COleServerDoc@@UAAJPB_W0@Z
?SetHostNames@XOleObject@COleServerDoc@@UAAJPBG0@Z
?SetHostNames@XOleObject@COleServerItem@@UAAJPB_W0@Z
?SetHostNames@XOleObject@COleServerItem@@UAAJPBG0@Z
?SetImageToolTip@CMFCCaptionBar@@QAAXPB_W0@Z
?SetImageToolTip@CMFCCaptionBar@@QAAXPBG0@Z
?SetInformation@CMFCRibbonStatusBar@@QAAXPB_W@Z
?SetInformation@CMFCRibbonStatusBar@@QAAXPBG@Z
?SetItem@CListCtrl@@QAAHHHIPB_WHIIJ@Z
?SetItem@CListCtrl@@QAAHHHIPB_WHIIJH@Z
?SetItem@CListCtrl@@QAAHHHIPBGHIIJ@Z
?SetItem@CListCtrl@@QAAHHHIPBGHIIJH@Z
?SetItem@CTreeCtrl@@QAAHPAU_TREEITEM@@IPB_WHHIIJ@Z
?SetItem@CTreeCtrl@@QAAHPAU_TREEITEM@@IPBGHHIIJ@Z
?SetItemEx@CTreeCtrl@@QAAHPAU_TREEITEM@@IPB_WHHIIJIPAUHWND__@@H@Z
?SetItemEx@CTreeCtrl@@QAAHPAU_TREEITEM@@IPBGHHIIJIPAUHWND__@@H@Z
?SetItemText@CListCtrl@@QAAHHHPB_W@Z
?SetItemText@CListCtrl@@QAAHHHPBG@Z
?SetItemText@CVSListBox@@MAAXHABV?$CStringT@_WV?$StrTraitMFC_DLL@_WV?$ChTraitsCRT@_W@ATL@@@@@ATL@@@Z
?SetItemText@CVSListBox@@MAAXHABV?$CStringT@GV?$StrTraitMFC_DLL@GV?$ChTraitsCRT@G@ATL@@@@@ATL@@@Z
?SetItemToolTip@CMFCRibbonGallery@@QAAXHPB_W@Z
?SetItemToolTip@CMFCRibbonGallery@@QAAXHPBG@Z
?SetKeys@CMFCRibbonBaseElement@@UAAXPB_W0@Z
?SetKeys@CMFCRibbonBaseElement@@UAAXPBG0@Z
?SetKeys@CMFCRibbonCategory@@QAAXPB_W@Z
?SetKeys@CMFCRibbonCategory@@QAAXPBG@Z
?SetKeys@CMFCRibbonPanel@@QAAXPB_W@Z
?SetKeys@CMFCRibbonPanel@@QAAXPBG@Z
?SetLength@?$CSimpleStringT@_W$00@ATL@@AAAXH@Z
?SetLength@?$CSimpleStringT@G$00@ATL@@AAAXH@Z
?SetLink@CMFCRibbonLinkCtrl@@QAAXPB_W@Z
?SetLink@CMFCRibbonLinkCtrl@@QAAXPBG@Z
?SetLinkSource@COleUILinkInfo@@UAAJKPA_WKPAKH@Z
?SetLinkSource@COleUILinkInfo@@UAAJKPAGKPAKH@Z
?SetListDelimiter@CMFCPropertyGridCtrl@@QAAX_W@Z
?SetListDelimiter@CMFCPropertyGridCtrl@@QAAXG@Z
?SetLocaleName@CD2DTextLayout@@QAAHPB_WUDWRITE_TEXT_RANGE@@@Z
?SetLocaleName@CD2DTextLayout@@QAAHPBGUDWRITE_TEXT_RANGE@@@Z
?SetMainIcon@CTaskDialog@@QAAXPB_W@Z
?SetMainIcon@CTaskDialog@@QAAXPBG@Z
?SetMainInstruction@CTaskDialog@@QAAXABV?$CStringT@_WV?$StrTraitMFC_DLL@_WV?$ChTraitsCRT@_W@ATL@@@@@ATL@@@Z
?SetMainInstruction@CTaskDialog@@QAAXABV?$CStringT@GV?$StrTraitMFC_DLL@GV?$ChTraitsCRT@G@ATL@@@@@ATL@@@Z
?SetManager@?$CSimpleStringT@_W$00@ATL@@QAAXPAUIAtlStringMgr@2@@Z
?SetManager@?$CSimpleStringT@G$00@ATL@@QAAXPAUIAtlStringMgr@2@@Z
?SetMessageText@CFrameWnd@@QAAXPB_W@Z
?SetMessageText@CFrameWnd@@QAAXPBG@Z
?SetName@CMFCPropertyGridProperty@@QAAXPB_WH@Z
?SetName@CMFCPropertyGridProperty@@QAAXPBGH@Z
?SetName@CMFCRibbonCategory@@QAAXPB_W@Z
?SetName@CMFCRibbonCategory@@QAAXPBG@Z
?SetName@CPropertySection@@QAAHKPB_W@Z
?SetName@CPropertySection@@QAAHKPBG@Z
?SetPageCaption@CMFCTasksPane@@QAAXHPB_W@Z
?SetPageCaption@CMFCTasksPane@@QAAXHPBG@Z
?SetPageName@COlePropertyPage@@QAAXPB_W@Z
?SetPageName@COlePropertyPage@@QAAXPBG@Z
?SetPaneText@CMFCStatusBar@@UAAHHPB_WH@Z
?SetPaneText@CMFCStatusBar@@UAAHHPBGH@Z
?SetPaneText@CStatusBar@@QAAHHPB_WH@Z
?SetPaneText@CStatusBar@@QAAHHPBGH@Z
?SetPathName@CDocument@@UAAXPB_WH@Z
?SetPathName@CDocument@@UAAXPBGH@Z
?SetPathName@COleDocument@@UAAXPB_WH@Z
?SetPathName@COleDocument@@UAAXPBGH@Z
?SetPathName@CRichEditDoc@@UAAXPB_WH@Z
?SetPathName@CRichEditDoc@@UAAXPBGH@Z
?SetPropCheck@COlePropertyPage@@QAAHPB_WH@Z
?SetPropCheck@COlePropertyPage@@QAAHPBGH@Z
?SetProperties@CFileDialog@@QAAHPB_W@Z
?SetProperties@CFileDialog@@QAAHPBG@Z
?SetPropIndex@COlePropertyPage@@QAAHPB_WH@Z
?SetPropIndex@COlePropertyPage@@QAAHPBGH@Z
?SetPropRadio@COlePropertyPage@@QAAHPB_WH@Z
?SetPropRadio@COlePropertyPage@@QAAHPBGH@Z
?SetPropText@COlePropertyPage@@QAAHPB_WAAE@Z
?SetPropText@COlePropertyPage@@QAAHPB_WAAF@Z
?SetPropText@COlePropertyPage@@QAAHPB_WAAH@Z
?SetPropText@COlePropertyPage@@QAAHPB_WAAI@Z
?SetPropText@COlePropertyPage@@QAAHPB_WAAJ@Z
?SetPropText@COlePropertyPage@@QAAHPB_WAAK@Z
?SetPropText@COlePropertyPage@@QAAHPB_WAAM@Z
?SetPropText@COlePropertyPage@@QAAHPB_WAAN@Z
?SetPropText@COlePropertyPage@@QAAHPB_WAAV?$CStringT@_WV?$StrTraitMFC_DLL@_WV?$ChTraitsCRT@_W@ATL@@@@@ATL@@@Z
?SetPropText@COlePropertyPage@@QAAHPBGAAE@Z
?SetPropText@COlePropertyPage@@QAAHPBGAAF@Z
?SetPropText@COlePropertyPage@@QAAHPBGAAH@Z
?SetPropText@COlePropertyPage@@QAAHPBGAAI@Z
?SetPropText@COlePropertyPage@@QAAHPBGAAJ@Z
?SetPropText@COlePropertyPage@@QAAHPBGAAK@Z
?SetPropText@COlePropertyPage@@QAAHPBGAAM@Z
?SetPropText@COlePropertyPage@@QAAHPBGAAN@Z
?SetPropText@COlePropertyPage@@QAAHPBGAAV?$CStringT@GV?$StrTraitMFC_DLL@GV?$ChTraitsCRT@G@ATL@@@@@ATL@@@Z
?SetRegistryBase@CWinAppEx@@QAAPB_WPB_W@Z
?SetRegistryBase@CWinAppEx@@QAAPBGPBG@Z
?SetRegistryKey@CWinApp@@IAAXPB_W@Z
?SetRegistryKey@CWinApp@@IAAXPBG@Z
?SetResourceID@CMFCControlRendererInfo@@QAAXPB_W@Z
?SetResourceID@CMFCControlRendererInfo@@QAAXPBG@Z
?SetSectionName@CPropertySection@@QAAHPB_W@Z
?SetSectionName@CPropertySection@@QAAHPBG@Z
?SetState@CRecordset@@IAAXHPB_WK@Z
?SetState@CRecordset@@IAAXHPBGK@Z
?SetStatus@CFile@@SAXPB_WABUCFileStatus@@PAVCAtlTransactionManager@ATL@@@Z
?SetStatus@CFile@@SAXPBGABUCFileStatus@@PAVCAtlTransactionManager@ATL@@@Z
?SetStatusText@XOleInPlaceFrame@COleFrameHook@@UAAJPB_W@Z
?SetStatusText@XOleInPlaceFrame@COleFrameHook@@UAAJPBG@Z
?SetStatusText@XOleIPFrame@COleControlContainer@@UAAJPB_W@Z
?SetStatusText@XOleIPFrame@COleControlContainer@@UAAJPBG@Z
?SetString@?$CSimpleStringT@_W$00@ATL@@QAAXPB_W@Z
?SetString@?$CSimpleStringT@_W$00@ATL@@QAAXPB_WH@Z
?SetString@?$CSimpleStringT@G$00@ATL@@QAAXPBG@Z
?SetString@?$CSimpleStringT@G$00@ATL@@QAAXPBGH@Z
?SetString@COleVariant@@QAAXPB_WG@Z
?SetString@COleVariant@@QAAXPBGG@Z
?SetStyle@CMFCVisualManagerOffice2007@@SAHW4Style@1@PB_W@Z
?SetStyle@CMFCVisualManagerOffice2007@@SAHW4Style@1@PBG@Z
?SetStyle@CMFCVisualManagerWindows7@@SAHPB_W@Z
?SetStyle@CMFCVisualManagerWindows7@@SAHPBG@Z
?SetSysString@?$CStringT@_WV?$StrTraitMFC_DLL@_WV?$ChTraitsCRT@_W@ATL@@@@@ATL@@QBAPA_WPAPA_W@Z
?SetSysString@?$CStringT@DV?$StrTraitMFC_DLL@DV?$ChTraitsCRT@D@ATL@@@@@ATL@@QBAPA_WPAPA_W@Z
?SetSysString@?$CStringT@DV?$StrTraitMFC_DLL@DV?$ChTraitsCRT@D@ATL@@@@@ATL@@QBAPAGPAPAG@Z
?SetSysString@?$CStringT@GV?$StrTraitMFC_DLL@GV?$ChTraitsCRT@G@ATL@@@@@ATL@@QBAPAGPAPAG@Z
?SetTabLabel@CMFCBaseTabCtrl@@UAAHHABV?$CStringT@_WV?$StrTraitMFC_DLL@_WV?$ChTraitsCRT@_W@ATL@@@@@ATL@@@Z
?SetTabLabel@CMFCBaseTabCtrl@@UAAHHABV?$CStringT@GV?$StrTraitMFC_DLL@GV?$ChTraitsCRT@G@ATL@@@@@ATL@@@Z
?SetTaskbarOverlayIcon@CFrameWnd@@QAAHIPB_W@Z
?SetTaskbarOverlayIcon@CFrameWnd@@QAAHIPBG@Z
?SetTaskbarOverlayIcon@CFrameWnd@@QAAHPAUHICON__@@PB_W@Z
?SetTaskbarOverlayIcon@CFrameWnd@@QAAHPAUHICON__@@PBG@Z
?SetTaskbarTabText@CMDIChildWndEx@@MAAXPB_W@Z
?SetTaskbarTabText@CMDIChildWndEx@@MAAXPBG@Z
?SetTaskName@CMFCTasksPane@@QAAHHHPB_W@Z
?SetTaskName@CMFCTasksPane@@QAAHHHPBG@Z
?SetTemplate@CFileDialog@@QAAXPB_W0@Z
?SetTemplate@CFileDialog@@QAAXPBG0@Z
?SetText@CCmdUI@@UAAXPB_W@Z
?SetText@CCmdUI@@UAAXPBG@Z
?SetText@CMFCCaptionBar@@QAAXABV?$CStringT@_WV?$StrTraitMFC_DLL@_WV?$ChTraitsCRT@_W@ATL@@@@@ATL@@W4BarElementAlignment@1@@Z
?SetText@CMFCCaptionBar@@QAAXABV?$CStringT@GV?$StrTraitMFC_DLL@GV?$ChTraitsCRT@G@ATL@@@@@ATL@@W4BarElementAlignment@1@@Z
?SetText@CMFCRibbonBaseElement@@UAAXPB_W@Z
?SetText@CMFCRibbonBaseElement@@UAAXPBG@Z
?SetText@CMFCRibbonButton@@UAAXPB_W@Z
?SetText@CMFCRibbonButton@@UAAXPBG@Z
?SetText@CMFCRibbonCmdUI@@UAAXPB_W@Z
?SetText@CMFCRibbonCmdUI@@UAAXPBG@Z
?SetText@CMFCStatusBarCmdUI@@UAAXPB_W@Z
?SetText@CMFCStatusBarCmdUI@@UAAXPBG@Z
?SetText@CMFCTasksPaneToolBarCmdUI@@UAAXPB_W@Z
?SetText@CMFCTasksPaneToolBarCmdUI@@UAAXPBG@Z
?SetText@CMFCToolBarCmdUI@@UAAXPB_W@Z
?SetText@CMFCToolBarCmdUI@@UAAXPBG@Z
?SetText@CMFCToolBarComboBoxButton@@QAAXPB_W@Z
?SetText@CMFCToolBarComboBoxButton@@QAAXPBG@Z
?SetText@COleCmdUI@@UAAXPB_W@Z
?SetText@COleCmdUI@@UAAXPBG@Z
?SetText@COleControl@@QAAXPB_W@Z
?SetText@COleControl@@QAAXPBG@Z
?SetText@CStatusCmdUI@@UAAXPB_W@Z
?SetText@CStatusCmdUI@@UAAXPBG@Z
?SetText@CTestCmdUI@@UAAXPB_W@Z
?SetText@CTestCmdUI@@UAAXPBG@Z
?SetText@CToolCmdUI@@UAAXPB_W@Z
?SetText@CToolCmdUI@@UAAXPBG@Z
?SetTextValue@CMFCFilterChunkValueImpl@@UAAJABU_tagpropertykey@@PB_WW4tagCHUNKSTATE@@KKKW4tagCHUNK_BREAKTYPE@@@Z
?SetTextValue@CMFCFilterChunkValueImpl@@UAAJABU_tagpropertykey@@PBGW4tagCHUNKSTATE@@KKKW4tagCHUNK_BREAKTYPE@@@Z
?SetTipText@CMFCStatusBar@@QAAXHPB_W@Z
?SetTipText@CMFCStatusBar@@QAAXHPBG@Z
?SetTitle@CDocument@@UAAXPB_W@Z
?SetTitle@CDocument@@UAAXPBG@Z
?SetTitle@CPropertySheet@@QAAXPB_WI@Z
?SetTitle@CPropertySheet@@QAAXPBGI@Z
?SetTitle@CRichEditDoc@@UAAXPB_W@Z
?SetTitle@CRichEditDoc@@UAAXPBG@Z
?SetToolBarBtnText@CMFCToolBar@@QAAXIPB_WHH@Z
?SetToolBarBtnText@CMFCToolBar@@QAAXIPBGHH@Z
?SetTooltip@CMFCButton@@QAAXPB_W@Z
?SetTooltip@CMFCButton@@QAAXPBG@Z
?SetToolTipText@CMFCRibbonBaseElement@@UAAXPB_W@Z
?SetToolTipText@CMFCRibbonBaseElement@@UAAXPBG@Z
?SetTooltipText@CTooltipManager@@SAXPAUtagTOOLINFOW@@PAVCToolTipCtrl@@IV?$CStringT@_WV?$StrTraitMFC_DLL@_WV?$ChTraitsCRT@_W@ATL@@@@@ATL@@PB_W@Z
?SetTooltipText@CTooltipManager@@SAXPAUtagTOOLINFOW@@PAVCToolTipCtrl@@IV?$CStringT@GV?$StrTraitMFC_DLL@GV?$ChTraitsCRT@G@ATL@@@@@ATL@@PBG@Z
?SetURL@CMFCLinkCtrl@@QAAXPB_W@Z
?SetURL@CMFCLinkCtrl@@QAAXPBG@Z
?SetURLPrefix@CMFCLinkCtrl@@QAAXPB_W@Z
?SetURLPrefix@CMFCLinkCtrl@@QAAXPBG@Z
?SetUserCategory@CMFCToolBarsCommandsPropertyPage@@QAAXPB_W@Z
?SetUserCategory@CMFCToolBarsCommandsPropertyPage@@QAAXPBG@Z
?SetUserCategory@CMFCToolBarsCustomizeDialog@@QAAHPB_W@Z
?SetUserCategory@CMFCToolBarsCustomizeDialog@@QAAHPBG@Z
?SetValidChars@CMFCMaskedEdit@@QAAXPB_W@Z
?SetValidChars@CMFCMaskedEdit@@QAAXPBG@Z
?SetValue@CMFCMaskedEdit@@IAAHPB_WH@Z
?SetValue@CMFCMaskedEdit@@IAAHPBGH@Z
?SetVerificationCheckboxText@CTaskDialog@@QAAXABV?$CStringT@_WV?$StrTraitMFC_DLL@_WV?$ChTraitsCRT@_W@ATL@@@@@ATL@@@Z
?SetVerificationCheckboxText@CTaskDialog@@QAAXABV?$CStringT@GV?$StrTraitMFC_DLL@GV?$ChTraitsCRT@G@ATL@@@@@ATL@@@Z
?SetWindowTextW@CMFCMaskedEdit@@QAAXPB_W@Z
?SetWindowTextW@CMFCMaskedEdit@@QAAXPBG@Z
?SetWindowTextW@COleControlSite@@UAAXPB_W@Z
?SetWindowTextW@COleControlSite@@UAAXPBG@Z
?SetWindowTextW@CWnd@@QAAXPB_W@Z
?SetWindowTextW@CWnd@@QAAXPBG@Z
?SetWindowTitle@CTaskDialog@@QAAXABV?$CStringT@_WV?$StrTraitMFC_DLL@_WV?$ChTraitsCRT@_W@ATL@@@@@ATL@@@Z
?SetWindowTitle@CTaskDialog@@QAAXABV?$CStringT@GV?$StrTraitMFC_DLL@GV?$ChTraitsCRT@G@ATL@@@@@ATL@@@Z
?ShellCreateItemFromParsingName@AFX_GLOBAL_DATA@@QAAJPB_WPAUIBindCtx@@ABU_GUID@@PAPAX@Z
?ShellCreateItemFromParsingName@AFX_GLOBAL_DATA@@QAAJPBGPAUIBindCtx@@ABU_GUID@@PAPAX@Z
?ShowAppMessageBox@CWinApp@@SAHPAV1@PB_WII@Z
?ShowAppMessageBox@CWinApp@@SAHPAV1@PBGII@Z
?ShowDialog@CTaskDialog@@SAHABV?$CStringT@_WV?$StrTraitMFC_DLL@_WV?$ChTraitsCRT@_W@ATL@@@@@ATL@@00HHHH0@Z
?ShowDialog@CTaskDialog@@SAHABV?$CStringT@GV?$StrTraitMFC_DLL@GV?$ChTraitsCRT@G@ATL@@@@@ATL@@00HHHH0@Z
?SpanExcluding@?$CStringT@_WV?$StrTraitMFC_DLL@_WV?$ChTraitsCRT@_W@ATL@@@@@ATL@@QBA?AV12@PB_W@Z
?SpanExcluding@?$CStringT@GV?$StrTraitMFC_DLL@GV?$ChTraitsCRT@G@ATL@@@@@ATL@@QBA?AV12@PBG@Z
?SpanIncluding@?$CStringT@_WV?$StrTraitMFC_DLL@_WV?$ChTraitsCRT@_W@ATL@@@@@ATL@@QBA?AV12@PB_W@Z
?SpanIncluding@?$CStringT@GV?$StrTraitMFC_DLL@GV?$ChTraitsCRT@G@ATL@@@@@ATL@@QBA?AV12@PBG@Z
?StartDocW@CDC@@QAAHPB_W@Z
?StartDocW@CDC@@QAAHPBG@Z
?StartVisualGroup@CFileDialog@@QAAJKABV?$CStringT@_WV?$StrTraitMFC_DLL@_WV?$ChTraitsCRT@_W@ATL@@@@@ATL@@@Z
?StartVisualGroup@CFileDialog@@QAAJKABV?$CStringT@GV?$StrTraitMFC_DLL@GV?$ChTraitsCRT@G@ATL@@@@@ATL@@@Z
?StringFromCy@CGlobalUtils@@QAAHAAV?$CStringT@_WV?$StrTraitMFC_DLL@_WV?$ChTraitsCRT@_W@ATL@@@@@ATL@@AATtagCY@@@Z
?StringFromCy@CGlobalUtils@@QAAHAAV?$CStringT@GV?$StrTraitMFC_DLL@GV?$ChTraitsCRT@G@ATL@@@@@ATL@@AATtagCY@@@Z
?StringFromDecimal@CGlobalUtils@@QAAHAAV?$CStringT@_WV?$StrTraitMFC_DLL@_WV?$ChTraitsCRT@_W@ATL@@@@@ATL@@AAUtagDEC@@@Z
?StringFromDecimal@CGlobalUtils@@QAAHAAV?$CStringT@GV?$StrTraitMFC_DLL@GV?$ChTraitsCRT@G@ATL@@@@@ATL@@AAUtagDEC@@@Z
?StringLength@?$CSimpleStringT@_W$00@ATL@@SAHPB_W@Z
?StringLength@?$CSimpleStringT@_W$00@ATL@@SAHPBD@Z
?StringLength@?$CSimpleStringT@D$00@ATL@@SAHPB_W@Z
?StringLength@?$CSimpleStringT@D$00@ATL@@SAHPBG@Z
?StringLength@?$CSimpleStringT@G$00@ATL@@SAHPBD@Z
?StringLength@?$CSimpleStringT@G$00@ATL@@SAHPBG@Z
?TabbedTextOutW@CMetaFileDC@@UAA?AVCSize@@HHPB_WHHPAHH@Z
?TabbedTextOutW@CMetaFileDC@@UAA?AVCSize@@HHPBGHHPAHH@Z
?TabbedTextOutW@CPreviewDC@@UAA?AVCSize@@HHPB_WHHPAHH@Z
?TabbedTextOutW@CPreviewDC@@UAA?AVCSize@@HHPBGHHPAHH@Z
?TextNotFound@CRichEditView@@QAAXPB_W@Z
?TextNotFound@CRichEditView@@QAAXPBG@Z
?TextOutW@CMetaFileDC@@UAAHHHPB_WH@Z
?TextOutW@CMetaFileDC@@UAAHHHPBGH@Z
?TextOutW@CPreviewDC@@UAAHHHPB_WH@Z
?TextOutW@CPreviewDC@@UAAHHHPBGH@Z
?TextToVar@CMFCPropertyGridProperty@@MAAHABV?$CStringT@_WV?$StrTraitMFC_DLL@_WV?$ChTraitsCRT@_W@ATL@@@@@ATL@@@Z
?TextToVar@CMFCPropertyGridProperty@@MAAHABV?$CStringT@GV?$StrTraitMFC_DLL@GV?$ChTraitsCRT@G@ATL@@@@@ATL@@@Z
?ThrowErrno@CFileException@@SAXHPB_W@Z
?ThrowErrno@CFileException@@SAXHPBG@Z
?ThrowError@COleControl@@QAAXJPB_WI@Z
?ThrowError@COleControl@@QAAXJPBGI@Z
?ThrowMemoryException@?$CSimpleStringT@_W$00@ATL@@KAXXZ
?ThrowMemoryException@?$CSimpleStringT@G$00@ATL@@KAXXZ
?ThrowOsError@CFileException@@SAXJPB_W@Z
?ThrowOsError@CFileException@@SAXJPBG@Z
?Tokenize@?$CStringT@_WV?$StrTraitMFC_DLL@_WV?$ChTraitsCRT@_W@ATL@@@@@ATL@@QBA?AV12@PB_WAAH@Z
?Tokenize@?$CStringT@GV?$StrTraitMFC_DLL@GV?$ChTraitsCRT@G@ATL@@@@@ATL@@QBA?AV12@PBGAAH@Z
?Track@CMFCPropertyGridToolTipCtrl@@QAAXVCRect@@ABV?$CStringT@_WV?$StrTraitMFC_DLL@_WV?$ChTraitsCRT@_W@ATL@@@@@ATL@@@Z
?Track@CMFCPropertyGridToolTipCtrl@@QAAXVCRect@@ABV?$CStringT@GV?$StrTraitMFC_DLL@GV?$ChTraitsCRT@G@ATL@@@@@ATL@@@Z
?TranslateUrl@CBrowserControlSite@@MAAJKPA_WPAPA_W@Z
?TranslateUrl@CBrowserControlSite@@MAAJKPAGPAPAG@Z
?TranslateUrl@CDHtmlDialog@@UAAJKPA_WPAPA_W@Z
?TranslateUrl@CDHtmlDialog@@UAAJKPAGPAPAG@Z
?TranslateUrl@XDocHostUIHandler@CHtmlControlSite@@UAAJKPA_WPAPA_W@Z
?TranslateUrl@XDocHostUIHandler@CHtmlControlSite@@UAAJKPAGPAPAG@Z
?Trim@?$CStringT@_WV?$StrTraitMFC_DLL@_WV?$ChTraitsCRT@_W@ATL@@@@@ATL@@QAAAAV12@_W@Z
?Trim@?$CStringT@_WV?$StrTraitMFC_DLL@_WV?$ChTraitsCRT@_W@ATL@@@@@ATL@@QAAAAV12@PB_W@Z
?Trim@?$CStringT@_WV?$StrTraitMFC_DLL@_WV?$ChTraitsCRT@_W@ATL@@@@@ATL@@QAAAAV12@XZ
?Trim@?$CStringT@GV?$StrTraitMFC_DLL@GV?$ChTraitsCRT@G@ATL@@@@@ATL@@QAAAAV12@G@Z
?Trim@?$CStringT@GV?$StrTraitMFC_DLL@GV?$ChTraitsCRT@G@ATL@@@@@ATL@@QAAAAV12@PBG@Z
?Trim@?$CStringT@GV?$StrTraitMFC_DLL@GV?$ChTraitsCRT@G@ATL@@@@@ATL@@QAAAAV12@XZ
?TrimLeft@?$CStringT@_WV?$StrTraitMFC_DLL@_WV?$ChTraitsCRT@_W@ATL@@@@@ATL@@QAAAAV12@_W@Z
?TrimLeft@?$CStringT@_WV?$StrTraitMFC_DLL@_WV?$ChTraitsCRT@_W@ATL@@@@@ATL@@QAAAAV12@PB_W@Z
?TrimLeft@?$CStringT@_WV?$StrTraitMFC_DLL@_WV?$ChTraitsCRT@_W@ATL@@@@@ATL@@QAAAAV12@XZ
?TrimLeft@?$CStringT@GV?$StrTraitMFC_DLL@GV?$ChTraitsCRT@G@ATL@@@@@ATL@@QAAAAV12@G@Z
?TrimLeft@?$CStringT@GV?$StrTraitMFC_DLL@GV?$ChTraitsCRT@G@ATL@@@@@ATL@@QAAAAV12@PBG@Z
?TrimLeft@?$CStringT@GV?$StrTraitMFC_DLL@GV?$ChTraitsCRT@G@ATL@@@@@ATL@@QAAAAV12@XZ
?TrimRight@?$CStringT@_WV?$StrTraitMFC_DLL@_WV?$ChTraitsCRT@_W@ATL@@@@@ATL@@QAAAAV12@_W@Z
?TrimRight@?$CStringT@_WV?$StrTraitMFC_DLL@_WV?$ChTraitsCRT@_W@ATL@@@@@ATL@@QAAAAV12@PB_W@Z
?TrimRight@?$CStringT@_WV?$StrTraitMFC_DLL@_WV?$ChTraitsCRT@_W@ATL@@@@@ATL@@QAAAAV12@XZ
?TrimRight@?$CStringT@GV?$StrTraitMFC_DLL@GV?$ChTraitsCRT@G@ATL@@@@@ATL@@QAAAAV12@G@Z
?TrimRight@?$CStringT@GV?$StrTraitMFC_DLL@GV?$ChTraitsCRT@G@ATL@@@@@ATL@@QAAAAV12@PBG@Z
?TrimRight@?$CStringT@GV?$StrTraitMFC_DLL@GV?$ChTraitsCRT@G@ATL@@@@@ATL@@QAAAAV12@XZ
?Truncate@?$CSimpleStringT@_W$00@ATL@@QAAXH@Z
?Truncate@?$CSimpleStringT@G$00@ATL@@QAAXH@Z
?TwipsToPointString@CMFCToolBarFontSizeComboBox@@IAA?AV?$CStringT@_WV?$StrTraitMFC_DLL@_WV?$ChTraitsCRT@_W@ATL@@@@@ATL@@H@Z
?TwipsToPointString@CMFCToolBarFontSizeComboBox@@IAA?AV?$CStringT@GV?$StrTraitMFC_DLL@GV?$ChTraitsCRT@G@ATL@@@@@ATL@@H@Z
?UnlockBuffer@?$CSimpleStringT@_W$00@ATL@@QAAXXZ
?UnlockBuffer@?$CSimpleStringT@G$00@ATL@@QAAXXZ
?UpdateFrameTitleForDocument@CFrameWnd@@QAAXPB_W@Z
?UpdateFrameTitleForDocument@CFrameWnd@@QAAXPBG@Z
?UpdateMenuButtonText@CMFCTasksPaneToolBar@@QAAXABV?$CStringT@_WV?$StrTraitMFC_DLL@_WV?$ChTraitsCRT@_W@ATL@@@@@ATL@@@Z
?UpdateMenuButtonText@CMFCTasksPaneToolBar@@QAAXABV?$CStringT@GV?$StrTraitMFC_DLL@GV?$ChTraitsCRT@G@ATL@@@@@ATL@@@Z
?UpdateRegistry@COleObjectFactory@@QAAXPB_W@Z
?UpdateRegistry@COleObjectFactory@@QAAXPBG@Z
?UpdateRegistry@COleTemplateServer@@QAAXW4OLE_APPTYPE@@PAPB_W1H@Z
?UpdateRegistry@COleTemplateServer@@QAAXW4OLE_APPTYPE@@PAPBG1H@Z
?UpdateTipText@CToolTipCtrl@@QAAXPB_WPAVCWnd@@I@Z
?UpdateTipText@CToolTipCtrl@@QAAXPBGPAVCWnd@@I@Z
?UTF8ToString@CMFCControlContainer@@SAHPBDAAV?$CStringT@_WV?$StrTraitMFC_DLL@_WV?$ChTraitsCRT@_W@ATL@@@@@ATL@@H@Z
?UTF8ToString@CMFCControlContainer@@SAHPBDAAV?$CStringT@GV?$StrTraitMFC_DLL@GV?$ChTraitsCRT@G@ATL@@@@@ATL@@H@Z
?VerifyLicenseKey@COleObjectFactory@@MAAHPA_W@Z
?VerifyLicenseKey@COleObjectFactory@@MAAHPAG@Z
?Write@CSettingsStore@@UAAHPB_W0@Z
?Write@CSettingsStore@@UAAHPB_WAAVCObject@@@Z
?Write@CSettingsStore@@UAAHPB_WABVCRect@@@Z
?Write@CSettingsStore@@UAAHPB_WH@Z
?Write@CSettingsStore@@UAAHPB_WK@Z
?Write@CSettingsStore@@UAAHPB_WPAEI@Z
?Write@CSettingsStore@@UAAHPB_WPAVCObject@@@Z
?Write@CSettingsStore@@UAAHPBG0@Z
?Write@CSettingsStore@@UAAHPBGAAVCObject@@@Z
?Write@CSettingsStore@@UAAHPBGABVCRect@@@Z
?Write@CSettingsStore@@UAAHPBGH@Z
?Write@CSettingsStore@@UAAHPBGK@Z
?Write@CSettingsStore@@UAAHPBGPAEI@Z
?Write@CSettingsStore@@UAAHPBGPAVCObject@@@Z
?WriteBinary@CWinAppEx@@QAAHPB_WPAEI@Z
?WriteBinary@CWinAppEx@@QAAHPBGPAEI@Z
?WriteBool@XRibbonInfoParser@CMFCRibbonInfo@@UAAHABV?$CStringT@_WV?$StrTraitMFC_DLL@_WV?$ChTraitsCRT@_W@ATL@@@@@ATL@@HH@Z
?WriteBool@XRibbonInfoParser@CMFCRibbonInfo@@UAAHABV?$CStringT@GV?$StrTraitMFC_DLL@GV?$ChTraitsCRT@G@ATL@@@@@ATL@@HH@Z
?WriteColor@XRibbonInfoParser@CMFCRibbonInfo@@UAAHABV?$CStringT@_WV?$StrTraitMFC_DLL@_WV?$ChTraitsCRT@_W@ATL@@@@@ATL@@KK@Z
?WriteColor@XRibbonInfoParser@CMFCRibbonInfo@@UAAHABV?$CStringT@GV?$StrTraitMFC_DLL@GV?$ChTraitsCRT@G@ATL@@@@@ATL@@KK@Z
?WriteInt@CWinAppEx@@QAAHPB_WH@Z
?WriteInt@CWinAppEx@@QAAHPBGH@Z
?WriteInt@XRibbonInfoParser@CMFCRibbonInfo@@UAAHABV?$CStringT@_WV?$StrTraitMFC_DLL@_WV?$ChTraitsCRT@_W@ATL@@@@@ATL@@HH@Z
?WriteInt@XRibbonInfoParser@CMFCRibbonInfo@@UAAHABV?$CStringT@GV?$StrTraitMFC_DLL@GV?$ChTraitsCRT@G@ATL@@@@@ATL@@HH@Z
?WriteObject@CWinAppEx@@QAAHPB_WAAVCObject@@@Z
?WriteObject@CWinAppEx@@QAAHPBGAAVCObject@@@Z
?WriteProfileBinary@CWinApp@@UAAHPB_W0PAEI@Z
?WriteProfileBinary@CWinApp@@UAAHPBG0PAEI@Z
?WriteProfileInt@CWinApp@@UAAHPB_W0H@Z
?WriteProfileInt@CWinApp@@UAAHPBG0H@Z
?WriteProfileStringW@CWinApp@@UAAHPB_W00@Z
?WriteProfileStringW@CWinApp@@UAAHPBG00@Z
?WriteSectionBinary@CWinAppEx@@QAAHPB_W0PAEI@Z
?WriteSectionBinary@CWinAppEx@@QAAHPBG0PAEI@Z
?WriteSectionInt@CWinAppEx@@QAAHPB_W0H@Z
?WriteSectionInt@CWinAppEx@@QAAHPBG0H@Z
?WriteSectionObject@CWinAppEx@@QAAHPB_W0AAVCObject@@@Z
?WriteSectionObject@CWinAppEx@@QAAHPBG0AAVCObject@@@Z
?WriteSectionString@CWinAppEx@@QAAHPB_W00@Z
?WriteSectionString@CWinAppEx@@QAAHPBG00@Z
?WriteSize@XRibbonInfoParser@CMFCRibbonInfo@@UAAHABV?$CStringT@_WV?$StrTraitMFC_DLL@_WV?$ChTraitsCRT@_W@ATL@@@@@ATL@@ABVCSize@@1@Z
?WriteSize@XRibbonInfoParser@CMFCRibbonInfo@@UAAHABV?$CStringT@GV?$StrTraitMFC_DLL@GV?$ChTraitsCRT@G@ATL@@@@@ATL@@ABVCSize@@1@Z
?WriteString@CArchive@@QAAXPB_W@Z
?WriteString@CArchive@@QAAXPBG@Z
?WriteString@CGopherFile@@UAAXPB_W@Z
?WriteString@CGopherFile@@UAAXPBG@Z
?WriteString@CInternetFile@@UAAXPB_W@Z
?WriteString@CInternetFile@@UAAXPBG@Z
?WriteString@CStdioFile@@UAAXPB_W@Z
?WriteString@CStdioFile@@UAAXPBG@Z
?WriteString@CWinAppEx@@QAAHPB_W0@Z
?WriteString@CWinAppEx@@QAAHPBG0@Z
?WriteUInt@XRibbonInfoParser@CMFCRibbonInfo@@UAAHABV?$CStringT@_WV?$StrTraitMFC_DLL@_WV?$ChTraitsCRT@_W@ATL@@@@@ATL@@II@Z
?WriteUInt@XRibbonInfoParser@CMFCRibbonInfo@@UAAHABV?$CStringT@GV?$StrTraitMFC_DLL@GV?$ChTraitsCRT@G@ATL@@@@@ATL@@II@Z
