LIBRARY openmfc
EXPORTS
    ??$CopyElements@VCOleVariant@@@@YAXPAVCOleVariant@@PBV0@H@Z=stub____CopyElements_VCOleVariant____YAXPAVCOleVariant__PBV0_H_Z @256
    ??$HashKey@ABUtagVARIANT@@@@YAIABUtagVARIANT@@@Z=stub____HashKey_ABUtagVARIANT____YAIABUtagVARIANT___Z @257
    ??$HashKey@PB_W@@YAIPB_W@Z=stub____HashKey_PB_W__YAIPB_W_Z @258
    ??$HashKey@PBD@@YAIPBD@Z=stub____HashKey_PBD__YAIPBD_Z @259
    ??$HashKey@VCComBSTR@ATL@@@@YAIVCComBSTR@ATL@@@Z=stub____HashKey_VCComBSTR_ATL____YAIVCComBSTR_ATL___Z @260
    ??$SerializeElements@V?$CStringT@_WV?$StrTraitMFC_DLL@_WV?$ChTraitsCRT@_W@ATL@@@@@ATL@@@@YAXAAVCArchive@@PAV?$CStringT@_WV?$StrTraitMFC_DLL@_WV?$ChTraitsCRT@_W@ATL@@@@@ATL@@H@Z=stub____SerializeElements_V__CStringT__WV__StrTraitMFC_DLL__WV__ChTraitsCRT__W_ATL_____ATL____YAXAAVCArchive__PAV__CStringT__WV__StrTraitMFC_DLL__WV__ChTraitsCRT__W_ATL_____ATL__H_Z @261
    ??$SerializeElements@V?$CStringT@DV?$StrTraitMFC_DLL@DV?$ChTraitsCRT@D@ATL@@@@@ATL@@@@YAXAAVCArchive@@PAV?$CStringT@DV?$StrTraitMFC_DLL@DV?$ChTraitsCRT@D@ATL@@@@@ATL@@H@Z=stub____SerializeElements_V__CStringT_DV__StrTraitMFC_DLL_DV__ChTraitsCRT_D_ATL_____ATL____YAXAAVCArchive__PAV__CStringT_DV__StrTraitMFC_DLL_DV__ChTraitsCRT_D_ATL_____ATL__H_Z @262
    ??$SerializeElements@VCComBSTR@ATL@@@@YAXAAVCArchive@@PAVCComBSTR@ATL@@H@Z=stub____SerializeElements_VCComBSTR_ATL____YAXAAVCArchive__PAVCComBSTR_ATL__H_Z @263
    ??$SerializeElements@VCOleVariant@@@@YAXAAVCArchive@@PAVCOleVariant@@H@Z=stub____SerializeElements_VCOleVariant____YAXAAVCArchive__PAVCOleVariant__H_Z @264
    ??_U@YAPAXI@Z=stub____U_YAPAXI_Z @265
    ??_V@YAXPAX@Z=stub____V_YAXPAX_Z @266
    ??0?$CSimpleStringT@_W$00@ATL@@QAA@ABV?$CSimpleStringT@_W$0A@@1@@Z=stub___0__CSimpleStringT__W_00_ATL__QAA_ABV__CSimpleStringT__W_0A__1__Z @267
    ??0?$CSimpleStringT@_W$00@ATL@@QAA@ABV01@@Z=stub___0__CSimpleStringT__W_00_ATL__QAA_ABV01__Z @268
    ??0?$CSimpleStringT@_W$00@ATL@@QAA@PAUIAtlStringMgr@1@@Z=stub___0__CSimpleStringT__W_00_ATL__QAA_PAUIAtlStringMgr_1__Z @269
    ??0?$CSimpleStringT@_W$00@ATL@@QAA@PB_WHPAUIAtlStringMgr@1@@Z=stub___0__CSimpleStringT__W_00_ATL__QAA_PB_WHPAUIAtlStringMgr_1__Z @270
    ??0?$CSimpleStringT@_W$00@ATL@@QAA@PB_WPAUIAtlStringMgr@1@@Z=stub___0__CSimpleStringT__W_00_ATL__QAA_PB_WPAUIAtlStringMgr_1__Z @271
    ??0?$CSimpleStringT@D$00@ATL@@QAA@ABV?$CSimpleStringT@D$0A@@1@@Z=stub___0__CSimpleStringT_D_00_ATL__QAA_ABV__CSimpleStringT_D_0A__1__Z @272
    ??0?$CSimpleStringT@D$00@ATL@@QAA@ABV01@@Z=stub___0__CSimpleStringT_D_00_ATL__QAA_ABV01__Z @273
    ??0?$CSimpleStringT@D$00@ATL@@QAA@PAUIAtlStringMgr@1@@Z=stub___0__CSimpleStringT_D_00_ATL__QAA_PAUIAtlStringMgr_1__Z @274
    ??0?$CSimpleStringT@D$00@ATL@@QAA@PBDHPAUIAtlStringMgr@1@@Z=stub___0__CSimpleStringT_D_00_ATL__QAA_PBDHPAUIAtlStringMgr_1__Z @275
    ??0?$CSimpleStringT@D$00@ATL@@QAA@PBDPAUIAtlStringMgr@1@@Z=stub___0__CSimpleStringT_D_00_ATL__QAA_PBDPAUIAtlStringMgr_1__Z @276
    ??0?$CStringT@_WV?$StrTraitMFC_DLL@_WV?$ChTraitsCRT@_W@ATL@@@@@ATL@@QAA@_WH@Z=stub___0__CStringT__WV__StrTraitMFC_DLL__WV__ChTraitsCRT__W_ATL_____ATL__QAA__WH_Z @277
    ??0?$CStringT@_WV?$StrTraitMFC_DLL@_WV?$ChTraitsCRT@_W@ATL@@@@@ATL@@QAA@ABUtagVARIANT@@@Z=stub___0__CStringT__WV__StrTraitMFC_DLL__WV__ChTraitsCRT__W_ATL_____ATL__QAA_ABUtagVARIANT___Z @278
    ??0?$CStringT@_WV?$StrTraitMFC_DLL@_WV?$ChTraitsCRT@_W@ATL@@@@@ATL@@QAA@ABUtagVARIANT@@PAUIAtlStringMgr@1@@Z=stub___0__CStringT__WV__StrTraitMFC_DLL__WV__ChTraitsCRT__W_ATL_____ATL__QAA_ABUtagVARIANT__PAUIAtlStringMgr_1__Z @279
    ??0?$CStringT@_WV?$StrTraitMFC_DLL@_WV?$ChTraitsCRT@_W@ATL@@@@@ATL@@QAA@ABV01@@Z=stub___0__CStringT__WV__StrTraitMFC_DLL__WV__ChTraitsCRT__W_ATL_____ATL__QAA_ABV01__Z @280
    ??0?$CStringT@_WV?$StrTraitMFC_DLL@_WV?$ChTraitsCRT@_W@ATL@@@@@ATL@@QAA@DH@Z=stub___0__CStringT__WV__StrTraitMFC_DLL__WV__ChTraitsCRT__W_ATL_____ATL__QAA_DH_Z @281
    ??0?$CStringT@_WV?$StrTraitMFC_DLL@_WV?$ChTraitsCRT@_W@ATL@@@@@ATL@@QAA@PA_W@Z=stub___0__CStringT__WV__StrTraitMFC_DLL__WV__ChTraitsCRT__W_ATL_____ATL__QAA_PA_W_Z @282
    ??0?$CStringT@_WV?$StrTraitMFC_DLL@_WV?$ChTraitsCRT@_W@ATL@@@@@ATL@@QAA@PAD@Z=stub___0__CStringT__WV__StrTraitMFC_DLL__WV__ChTraitsCRT__W_ATL_____ATL__QAA_PAD_Z @283
    ??0?$CStringT@_WV?$StrTraitMFC_DLL@_WV?$ChTraitsCRT@_W@ATL@@@@@ATL@@QAA@PAE@Z=stub___0__CStringT__WV__StrTraitMFC_DLL__WV__ChTraitsCRT__W_ATL_____ATL__QAA_PAE_Z @284
    ??0?$CStringT@_WV?$StrTraitMFC_DLL@_WV?$ChTraitsCRT@_W@ATL@@@@@ATL@@QAA@PAUIAtlStringMgr@1@@Z=stub___0__CStringT__WV__StrTraitMFC_DLL__WV__ChTraitsCRT__W_ATL_____ATL__QAA_PAUIAtlStringMgr_1__Z @285
    ??0?$CStringT@_WV?$StrTraitMFC_DLL@_WV?$ChTraitsCRT@_W@ATL@@@@@ATL@@QAA@PB_W@Z=stub___0__CStringT__WV__StrTraitMFC_DLL__WV__ChTraitsCRT__W_ATL_____ATL__QAA_PB_W_Z @286
    ??0?$CStringT@_WV?$StrTraitMFC_DLL@_WV?$ChTraitsCRT@_W@ATL@@@@@ATL@@QAA@PB_WH@Z=stub___0__CStringT__WV__StrTraitMFC_DLL__WV__ChTraitsCRT__W_ATL_____ATL__QAA_PB_WH_Z @287
    ??0?$CStringT@_WV?$StrTraitMFC_DLL@_WV?$ChTraitsCRT@_W@ATL@@@@@ATL@@QAA@PB_WHPAUIAtlStringMgr@1@@Z=stub___0__CStringT__WV__StrTraitMFC_DLL__WV__ChTraitsCRT__W_ATL_____ATL__QAA_PB_WHPAUIAtlStringMgr_1__Z @288
    ??0?$CStringT@_WV?$StrTraitMFC_DLL@_WV?$ChTraitsCRT@_W@ATL@@@@@ATL@@QAA@PB_WPAUIAtlStringMgr@1@@Z=stub___0__CStringT__WV__StrTraitMFC_DLL__WV__ChTraitsCRT__W_ATL_____ATL__QAA_PB_WPAUIAtlStringMgr_1__Z @289
    ??0?$CStringT@_WV?$StrTraitMFC_DLL@_WV?$ChTraitsCRT@_W@ATL@@@@@ATL@@QAA@PBD@Z=stub___0__CStringT__WV__StrTraitMFC_DLL__WV__ChTraitsCRT__W_ATL_____ATL__QAA_PBD_Z @290
    ??0?$CStringT@_WV?$StrTraitMFC_DLL@_WV?$ChTraitsCRT@_W@ATL@@@@@ATL@@QAA@PBDH@Z=stub___0__CStringT__WV__StrTraitMFC_DLL__WV__ChTraitsCRT__W_ATL_____ATL__QAA_PBDH_Z @291
    ??0?$CStringT@_WV?$StrTraitMFC_DLL@_WV?$ChTraitsCRT@_W@ATL@@@@@ATL@@QAA@PBDHPAUIAtlStringMgr@1@@Z=stub___0__CStringT__WV__StrTraitMFC_DLL__WV__ChTraitsCRT__W_ATL_____ATL__QAA_PBDHPAUIAtlStringMgr_1__Z @292
    ??0?$CStringT@_WV?$StrTraitMFC_DLL@_WV?$ChTraitsCRT@_W@ATL@@@@@ATL@@QAA@PBDPAUIAtlStringMgr@1@@Z=stub___0__CStringT__WV__StrTraitMFC_DLL__WV__ChTraitsCRT__W_ATL_____ATL__QAA_PBDPAUIAtlStringMgr_1__Z @293
    ??0?$CStringT@_WV?$StrTraitMFC_DLL@_WV?$ChTraitsCRT@_W@ATL@@@@@ATL@@QAA@PBE@Z=stub___0__CStringT__WV__StrTraitMFC_DLL__WV__ChTraitsCRT__W_ATL_____ATL__QAA_PBE_Z @294
    ??0?$CStringT@_WV?$StrTraitMFC_DLL@_WV?$ChTraitsCRT@_W@ATL@@@@@ATL@@QAA@PBEPAUIAtlStringMgr@1@@Z=stub___0__CStringT__WV__StrTraitMFC_DLL__WV__ChTraitsCRT__W_ATL_____ATL__QAA_PBEPAUIAtlStringMgr_1__Z @295
    ??0?$CStringT@_WV?$StrTraitMFC_DLL@_WV?$ChTraitsCRT@_W@ATL@@@@@ATL@@QAA@XZ=stub___0__CStringT__WV__StrTraitMFC_DLL__WV__ChTraitsCRT__W_ATL_____ATL__QAA_XZ @296
    ??0?$CStringT@DV?$StrTraitMFC_DLL@DV?$ChTraitsCRT@D@ATL@@@@@ATL@@QAA@_WH@Z=stub___0__CStringT_DV__StrTraitMFC_DLL_DV__ChTraitsCRT_D_ATL_____ATL__QAA__WH_Z @297
    ??0?$CStringT@DV?$StrTraitMFC_DLL@DV?$ChTraitsCRT@D@ATL@@@@@ATL@@QAA@ABUtagVARIANT@@@Z=stub___0__CStringT_DV__StrTraitMFC_DLL_DV__ChTraitsCRT_D_ATL_____ATL__QAA_ABUtagVARIANT___Z @298
    ??0?$CStringT@DV?$StrTraitMFC_DLL@DV?$ChTraitsCRT@D@ATL@@@@@ATL@@QAA@ABUtagVARIANT@@PAUIAtlStringMgr@1@@Z=stub___0__CStringT_DV__StrTraitMFC_DLL_DV__ChTraitsCRT_D_ATL_____ATL__QAA_ABUtagVARIANT__PAUIAtlStringMgr_1__Z @299
    ??0?$CStringT@DV?$StrTraitMFC_DLL@DV?$ChTraitsCRT@D@ATL@@@@@ATL@@QAA@ABV01@@Z=stub___0__CStringT_DV__StrTraitMFC_DLL_DV__ChTraitsCRT_D_ATL_____ATL__QAA_ABV01__Z @300
    ??0?$CStringT@DV?$StrTraitMFC_DLL@DV?$ChTraitsCRT@D@ATL@@@@@ATL@@QAA@DH@Z=stub___0__CStringT_DV__StrTraitMFC_DLL_DV__ChTraitsCRT_D_ATL_____ATL__QAA_DH_Z @301
    ??0?$CStringT@DV?$StrTraitMFC_DLL@DV?$ChTraitsCRT@D@ATL@@@@@ATL@@QAA@PA_W@Z=stub___0__CStringT_DV__StrTraitMFC_DLL_DV__ChTraitsCRT_D_ATL_____ATL__QAA_PA_W_Z @302
    ??0?$CStringT@DV?$StrTraitMFC_DLL@DV?$ChTraitsCRT@D@ATL@@@@@ATL@@QAA@PAD@Z=stub___0__CStringT_DV__StrTraitMFC_DLL_DV__ChTraitsCRT_D_ATL_____ATL__QAA_PAD_Z @303
    ??0?$CStringT@DV?$StrTraitMFC_DLL@DV?$ChTraitsCRT@D@ATL@@@@@ATL@@QAA@PAE@Z=stub___0__CStringT_DV__StrTraitMFC_DLL_DV__ChTraitsCRT_D_ATL_____ATL__QAA_PAE_Z @304
    ??0?$CStringT@DV?$StrTraitMFC_DLL@DV?$ChTraitsCRT@D@ATL@@@@@ATL@@QAA@PAUIAtlStringMgr@1@@Z=stub___0__CStringT_DV__StrTraitMFC_DLL_DV__ChTraitsCRT_D_ATL_____ATL__QAA_PAUIAtlStringMgr_1__Z @305
    ??0?$CStringT@DV?$StrTraitMFC_DLL@DV?$ChTraitsCRT@D@ATL@@@@@ATL@@QAA@PB_W@Z=stub___0__CStringT_DV__StrTraitMFC_DLL_DV__ChTraitsCRT_D_ATL_____ATL__QAA_PB_W_Z @306
    ??0?$CStringT@DV?$StrTraitMFC_DLL@DV?$ChTraitsCRT@D@ATL@@@@@ATL@@QAA@PB_WH@Z=stub___0__CStringT_DV__StrTraitMFC_DLL_DV__ChTraitsCRT_D_ATL_____ATL__QAA_PB_WH_Z @307
    ??0?$CStringT@DV?$StrTraitMFC_DLL@DV?$ChTraitsCRT@D@ATL@@@@@ATL@@QAA@PB_WHPAUIAtlStringMgr@1@@Z=stub___0__CStringT_DV__StrTraitMFC_DLL_DV__ChTraitsCRT_D_ATL_____ATL__QAA_PB_WHPAUIAtlStringMgr_1__Z @308
    ??0?$CStringT@DV?$StrTraitMFC_DLL@DV?$ChTraitsCRT@D@ATL@@@@@ATL@@QAA@PB_WPAUIAtlStringMgr@1@@Z=stub___0__CStringT_DV__StrTraitMFC_DLL_DV__ChTraitsCRT_D_ATL_____ATL__QAA_PB_WPAUIAtlStringMgr_1__Z @309
    ??0?$CStringT@DV?$StrTraitMFC_DLL@DV?$ChTraitsCRT@D@ATL@@@@@ATL@@QAA@PBD@Z=stub___0__CStringT_DV__StrTraitMFC_DLL_DV__ChTraitsCRT_D_ATL_____ATL__QAA_PBD_Z @310
    ??0?$CStringT@DV?$StrTraitMFC_DLL@DV?$ChTraitsCRT@D@ATL@@@@@ATL@@QAA@PBDH@Z=stub___0__CStringT_DV__StrTraitMFC_DLL_DV__ChTraitsCRT_D_ATL_____ATL__QAA_PBDH_Z @311
    ??0?$CStringT@DV?$StrTraitMFC_DLL@DV?$ChTraitsCRT@D@ATL@@@@@ATL@@QAA@PBDHPAUIAtlStringMgr@1@@Z=stub___0__CStringT_DV__StrTraitMFC_DLL_DV__ChTraitsCRT_D_ATL_____ATL__QAA_PBDHPAUIAtlStringMgr_1__Z @312
    ??0?$CStringT@DV?$StrTraitMFC_DLL@DV?$ChTraitsCRT@D@ATL@@@@@ATL@@QAA@PBDPAUIAtlStringMgr@1@@Z=stub___0__CStringT_DV__StrTraitMFC_DLL_DV__ChTraitsCRT_D_ATL_____ATL__QAA_PBDPAUIAtlStringMgr_1__Z @313
    ??0?$CStringT@DV?$StrTraitMFC_DLL@DV?$ChTraitsCRT@D@ATL@@@@@ATL@@QAA@PBE@Z=stub___0__CStringT_DV__StrTraitMFC_DLL_DV__ChTraitsCRT_D_ATL_____ATL__QAA_PBE_Z @314
    ??0?$CStringT@DV?$StrTraitMFC_DLL@DV?$ChTraitsCRT@D@ATL@@@@@ATL@@QAA@PBEPAUIAtlStringMgr@1@@Z=stub___0__CStringT_DV__StrTraitMFC_DLL_DV__ChTraitsCRT_D_ATL_____ATL__QAA_PBEPAUIAtlStringMgr_1__Z @315
    ??0?$CStringT@DV?$StrTraitMFC_DLL@DV?$ChTraitsCRT@D@ATL@@@@@ATL@@QAA@XZ=stub___0__CStringT_DV__StrTraitMFC_DLL_DV__ChTraitsCRT_D_ATL_____ATL__QAA_XZ @316
    ??0_AFX_D2D_STATE@@QAA@XZ=stub___0_AFX_D2D_STATE__QAA_XZ @317
    ??0_AFX_THREAD_STATE@@QAA@XZ=stub___0_AFX_THREAD_STATE__QAA_XZ @318
    ??0AFX_DDPDATA@@QAA@PAXHH0IPB_W@Z=stub___0AFX_DDPDATA__QAA_PAXHH0IPB_W_Z @319
    ??0AFX_EXCEPTION_LINK@@QAA@XZ=stub___0AFX_EXCEPTION_LINK__QAA_XZ @320
    ??0AFX_GLOBAL_DATA@@QAA@XZ=stub___0AFX_GLOBAL_DATA__QAA_XZ @321
    ??0AFX_MAINTAIN_STATE@@QAA@PAVAFX_MODULE_STATE@@@Z=stub___0AFX_MAINTAIN_STATE__QAA_PAVAFX_MODULE_STATE___Z @322
    ??0AFX_MAINTAIN_STATE2@@QAA@PAVAFX_MODULE_STATE@@@Z=stub___0AFX_MAINTAIN_STATE2__QAA_PAVAFX_MODULE_STATE___Z @323
    ??0AFX_MODULE_STATE@@QAA@HP6AJPAUHWND__@@IIJ@ZKH@Z=stub___0AFX_MODULE_STATE__QAA_HP6AJPAUHWND____IIJ_ZKH_Z @324
    ??0AFX_MODULE_THREAD_STATE@@QAA@XZ=stub___0AFX_MODULE_THREAD_STATE__QAA_XZ @325
    ??0CAnimationBaseObject@@QAA@IIK@Z=stub___0CAnimationBaseObject__QAA_IIK_Z @326
    ??0CAnimationBaseObject@@QAA@XZ=stub___0CAnimationBaseObject__QAA_XZ @327
    ??0CAnimationColor@@QAA@KIIK@Z=stub___0CAnimationColor__QAA_KIIK_Z @328
    ??0CAnimationColor@@QAA@XZ=stub___0CAnimationColor__QAA_XZ @329
    ??0CAnimationController@@QAA@XZ=stub___0CAnimationController__QAA_XZ @330
    ??0CAnimationGroup@@QAA@PAVCAnimationController@@I@Z=stub___0CAnimationGroup__QAA_PAVCAnimationController__I_Z @331
    ??0CAnimationPoint@@QAA@ABVCPoint@@IIK@Z=stub___0CAnimationPoint__QAA_ABVCPoint__IIK_Z @332
    ??0CAnimationPoint@@QAA@XZ=stub___0CAnimationPoint__QAA_XZ @333
    ??0CAnimationRect@@QAA@ABVCPoint@@ABVCSize@@IIK@Z=stub___0CAnimationRect__QAA_ABVCPoint__ABVCSize__IIK_Z @334
    ??0CAnimationRect@@QAA@ABVCRect@@IIK@Z=stub___0CAnimationRect__QAA_ABVCRect__IIK_Z @335
    ??0CAnimationRect@@QAA@HHHHIIK@Z=stub___0CAnimationRect__QAA_HHHHIIK_Z @336
    ??0CAnimationRect@@QAA@XZ=stub___0CAnimationRect__QAA_XZ @337
    ??0CAnimationSize@@QAA@ABVCSize@@IIK@Z=stub___0CAnimationSize__QAA_ABVCSize__IIK_Z @338
    ??0CAnimationSize@@QAA@XZ=stub___0CAnimationSize__QAA_XZ @339
    ??0CAnimationValue@@QAA@NIIK@Z=stub___0CAnimationValue__QAA_NIIK_Z @340
    ??0CAnimationValue@@QAA@XZ=stub___0CAnimationValue__QAA_XZ @341
    ??0CAnimationVariable@@QAA@N@Z=stub___0CAnimationVariable__QAA_N_Z @342
    ??0CAppDestinations@@QAA@PB_W@Z=stub___0CAppDestinations__QAA_PB_W_Z @343
    ??0CAppDestinations@@QAA@XZ=stub___0CAppDestinations__QAA_XZ @344
    ??0CArchive@@QAA@PAVCFile@@IHPAX@Z=stub___0CArchive__QAA_PAVCFile__IHPAX_Z @345
    ??0CArchivePropExchange@@QAA@AAVCArchive@@@Z=stub___0CArchivePropExchange__QAA_AAVCArchive___Z @346
    ??0CArchiveStream@@QAA@PAVCArchive@@@Z=stub___0CArchiveStream__QAA_PAVCArchive___Z @347
    ??0CAsyncMonikerFile@@QAA@XZ=stub___0CAsyncMonikerFile__QAA_XZ @348
    ??0CAsyncPropExchange@@QAA@K@Z=stub___0CAsyncPropExchange__QAA_K_Z @349
    ??0CAsyncSocket@@QAA@XZ=stub___0CAsyncSocket__QAA_XZ @350
    ??0CAutoHideDockSite@@QAA@XZ=stub___0CAutoHideDockSite__QAA_XZ @351
    ??0CBasePane@@QAA@XZ=stub___0CBasePane__QAA_XZ @352
    ??0CBaseTabbedPane@@QAA@H@Z=stub___0CBaseTabbedPane__QAA_H_Z @353
    ??0CBlobProperty@@QAA@PAX@Z=stub___0CBlobProperty__QAA_PAX_Z @354
    ??0CBrowserControlSite@@QAA@PAVCOleControlContainer@@PAVCDHtmlDialog@@@Z=stub___0CBrowserControlSite__QAA_PAVCOleControlContainer__PAVCDHtmlDialog___Z @355
    ??0CBrush@@QAA@HK@Z=stub___0CBrush__QAA_HK_Z @356
    ??0CBrush@@QAA@K@Z=stub___0CBrush__QAA_K_Z @357
    ??0CBrush@@QAA@PAVCBitmap@@@Z=stub___0CBrush__QAA_PAVCBitmap___Z @358
    ??0CByteArray@@QAA@XZ=stub___0CByteArray__QAA_XZ @359
    ??0CChevronOwnerDrawMenu@@QAA@XZ=stub___0CChevronOwnerDrawMenu__QAA_XZ @360
    ??0CClientDC@@QAA@PAVCWnd@@@Z=stub___0CClientDC__QAA_PAVCWnd___Z @361
    ??0CCmdTarget@@QAA@XZ=stub___0CCmdTarget__QAA_XZ @362
    ??0CCmdUI@@QAA@XZ=stub___0CCmdUI__QAA_XZ @363
    ??0CColorDialog@@QAA@KKPAVCWnd@@@Z=stub___0CColorDialog__QAA_KKPAVCWnd___Z @364
    ??0CCommandLineInfo@@QAA@XZ=stub___0CCommandLineInfo__QAA_XZ @365
    ??0CCommandManager@@IAA@XZ=stub___0CCommandManager__IAA_XZ @366
    ??0CConnectionPoint@@QAA@XZ=stub___0CConnectionPoint__QAA_XZ @367
    ??0CContextMenuManager@@QAA@XZ=stub___0CContextMenuManager__QAA_XZ @368
    ??0CControlBar@@IAA@XZ=stub___0CControlBar__IAA_XZ @369
    ??0CControlBarInfo@@QAA@XZ=stub___0CControlBarInfo__QAA_XZ @370
    ??0CControlCreationInfo@@QAA@XZ=stub___0CControlCreationInfo__QAA_XZ @371
    ??0CControlDataSource@COleControl@@QAA@PAV1@@Z=stub___0CControlDataSource_COleControl__QAA_PAV1__Z @372
    ??0CControlFrameWnd@@QAA@PAVCOleControl@@@Z=stub___0CControlFrameWnd__QAA_PAVCOleControl___Z @373
    ??0CControlSiteFactoryMgr@@QAA@XZ=stub___0CControlSiteFactoryMgr__QAA_XZ @374
    ??0CCtrlView@@QAA@PB_WK@Z=stub___0CCtrlView__QAA_PB_WK_Z @375
    ??0CD2DBitmap@@IAA@PAVCRenderTarget@@H@Z=stub___0CD2DBitmap__IAA_PAVCRenderTarget__H_Z @376
    ??0CD2DBitmap@@QAA@PAVCRenderTarget@@IPB_WVCD2DSizeU@@H@Z=stub___0CD2DBitmap__QAA_PAVCRenderTarget__IPB_WVCD2DSizeU__H_Z @377
    ??0CD2DBitmap@@QAA@PAVCRenderTarget@@PAUHBITMAP__@@VCD2DSizeU@@H@Z=stub___0CD2DBitmap__QAA_PAVCRenderTarget__PAUHBITMAP____VCD2DSizeU__H_Z @378
    ??0CD2DBitmap@@QAA@PAVCRenderTarget@@PB_WVCD2DSizeU@@H@Z=stub___0CD2DBitmap__QAA_PAVCRenderTarget__PB_WVCD2DSizeU__H_Z @379
    ??0CD2DBitmapBrush@@QAA@PAVCRenderTarget@@IPB_WVCD2DSizeU@@PAUD2D1_BITMAP_BRUSH_PROPERTIES@@PAVCD2DBrushProperties@@H@Z=stub___0CD2DBitmapBrush__QAA_PAVCRenderTarget__IPB_WVCD2DSizeU__PAUD2D1_BITMAP_BRUSH_PROPERTIES__PAVCD2DBrushProperties__H_Z @380
    ??0CD2DBitmapBrush@@QAA@PAVCRenderTarget@@PAUD2D1_BITMAP_BRUSH_PROPERTIES@@PAVCD2DBrushProperties@@H@Z=stub___0CD2DBitmapBrush__QAA_PAVCRenderTarget__PAUD2D1_BITMAP_BRUSH_PROPERTIES__PAVCD2DBrushProperties__H_Z @381
    ??0CD2DBitmapBrush@@QAA@PAVCRenderTarget@@PB_WVCD2DSizeU@@PAUD2D1_BITMAP_BRUSH_PROPERTIES@@PAVCD2DBrushProperties@@H@Z=stub___0CD2DBitmapBrush__QAA_PAVCRenderTarget__PB_WVCD2DSizeU__PAUD2D1_BITMAP_BRUSH_PROPERTIES__PAVCD2DBrushProperties__H_Z @382
    ??0CD2DBrush@@IAA@PAVCRenderTarget@@PAVCD2DBrushProperties@@H@Z=stub___0CD2DBrush__IAA_PAVCRenderTarget__PAVCD2DBrushProperties__H_Z @383
    ??0CD2DBrushProperties@@QAA@M@Z=stub___0CD2DBrushProperties__QAA_M_Z @384
    ??0CD2DBrushProperties@@QAA@UD2D_MATRIX_3X2_F@@M@Z=stub___0CD2DBrushProperties__QAA_UD2D_MATRIX_3X2_F__M_Z @385
    ??0CD2DBrushProperties@@QAA@XZ=stub___0CD2DBrushProperties__QAA_XZ @386
    ??0CD2DEllipse@@QAA@ABUD2D1_ELLIPSE@@@Z=stub___0CD2DEllipse__QAA_ABUD2D1_ELLIPSE___Z @387
    ??0CD2DEllipse@@QAA@ABVCD2DPointF@@ABVCD2DSizeF@@@Z=stub___0CD2DEllipse__QAA_ABVCD2DPointF__ABVCD2DSizeF___Z @388
    ??0CD2DEllipse@@QAA@ABVCD2DRectF@@@Z=stub___0CD2DEllipse__QAA_ABVCD2DRectF___Z @389
    ??0CD2DEllipse@@QAA@PBUD2D1_ELLIPSE@@@Z=stub___0CD2DEllipse__QAA_PBUD2D1_ELLIPSE___Z @390
    ??0CD2DGeometry@@QAA@PAVCRenderTarget@@H@Z=stub___0CD2DGeometry__QAA_PAVCRenderTarget__H_Z @391
    ??0CD2DGeometrySink@@QAA@AAVCD2DPathGeometry@@@Z=stub___0CD2DGeometrySink__QAA_AAVCD2DPathGeometry___Z @392
    ??0CD2DGradientBrush@@QAA@PAVCRenderTarget@@PBUD2D1_GRADIENT_STOP@@IW4D2D1_GAMMA@@W4D2D1_EXTEND_MODE@@PAVCD2DBrushProperties@@H@Z=stub___0CD2DGradientBrush__QAA_PAVCRenderTarget__PBUD2D1_GRADIENT_STOP__IW4D2D1_GAMMA__W4D2D1_EXTEND_MODE__PAVCD2DBrushProperties__H_Z @393
    ??0CD2DLayer@@QAA@PAVCRenderTarget@@H@Z=stub___0CD2DLayer__QAA_PAVCRenderTarget__H_Z @394
    ??0CD2DLinearGradientBrush@@QAA@PAVCRenderTarget@@PBUD2D1_GRADIENT_STOP@@IUD2D1_LINEAR_GRADIENT_BRUSH_PROPERTIES@@W4D2D1_GAMMA@@W4D2D1_EXTEND_MODE@@PAVCD2DBrushProperties@@H@Z=stub___0CD2DLinearGradientBrush__QAA_PAVCRenderTarget__PBUD2D1_GRADIENT_STOP__IUD2D1_LINEAR_GRADIENT_BRUSH_PROPERTIES__W4D2D1_GAMMA__W4D2D1_EXTEND_MODE__PAVCD2DBrushProperties__H_Z @395
    ??0CD2DMesh@@QAA@PAVCRenderTarget@@H@Z=stub___0CD2DMesh__QAA_PAVCRenderTarget__H_Z @396
    ??0CD2DPathGeometry@@QAA@PAVCRenderTarget@@H@Z=stub___0CD2DPathGeometry__QAA_PAVCRenderTarget__H_Z @397
    ??0CD2DPointF@@QAA@ABUD2D_POINT_2F@@@Z=stub___0CD2DPointF__QAA_ABUD2D_POINT_2F___Z @398
    ??0CD2DPointF@@QAA@ABVCPoint@@@Z=stub___0CD2DPointF__QAA_ABVCPoint___Z @399
    ??0CD2DPointF@@QAA@MM@Z=stub___0CD2DPointF__QAA_MM_Z @400
    ??0CD2DPointF@@QAA@PBUD2D_POINT_2F@@@Z=stub___0CD2DPointF__QAA_PBUD2D_POINT_2F___Z @401
    ??0CD2DPointU@@QAA@ABUD2D_POINT_2U@@@Z=stub___0CD2DPointU__QAA_ABUD2D_POINT_2U___Z @402
    ??0CD2DPointU@@QAA@ABVCPoint@@@Z=stub___0CD2DPointU__QAA_ABVCPoint___Z @403
    ??0CD2DPointU@@QAA@II@Z=stub___0CD2DPointU__QAA_II_Z @404
    ??0CD2DPointU@@QAA@PBUD2D_POINT_2U@@@Z=stub___0CD2DPointU__QAA_PBUD2D_POINT_2U___Z @405
    ??0CD2DRadialGradientBrush@@QAA@PAVCRenderTarget@@PBUD2D1_GRADIENT_STOP@@IUD2D1_RADIAL_GRADIENT_BRUSH_PROPERTIES@@W4D2D1_GAMMA@@W4D2D1_EXTEND_MODE@@PAVCD2DBrushProperties@@H@Z=stub___0CD2DRadialGradientBrush__QAA_PAVCRenderTarget__PBUD2D1_GRADIENT_STOP__IUD2D1_RADIAL_GRADIENT_BRUSH_PROPERTIES__W4D2D1_GAMMA__W4D2D1_EXTEND_MODE__PAVCD2DBrushProperties__H_Z @406
    ??0CD2DRectF@@QAA@ABUD2D_RECT_F@@@Z=stub___0CD2DRectF__QAA_ABUD2D_RECT_F___Z @407
    ??0CD2DRectF@@QAA@ABVCRect@@@Z=stub___0CD2DRectF__QAA_ABVCRect___Z @408
    ??0CD2DRectF@@QAA@MMMM@Z=stub___0CD2DRectF__QAA_MMMM_Z @409
    ??0CD2DRectF@@QAA@PBUD2D_RECT_F@@@Z=stub___0CD2DRectF__QAA_PBUD2D_RECT_F___Z @410
    ??0CD2DRectU@@QAA@ABUD2D_RECT_U@@@Z=stub___0CD2DRectU__QAA_ABUD2D_RECT_U___Z @411
    ??0CD2DRectU@@QAA@ABVCRect@@@Z=stub___0CD2DRectU__QAA_ABVCRect___Z @412
    ??0CD2DRectU@@QAA@IIII@Z=stub___0CD2DRectU__QAA_IIII_Z @413
    ??0CD2DRectU@@QAA@PBUD2D_RECT_U@@@Z=stub___0CD2DRectU__QAA_PBUD2D_RECT_U___Z @414
    ??0CD2DResource@@IAA@PAVCRenderTarget@@H@Z=stub___0CD2DResource__IAA_PAVCRenderTarget__H_Z @415
    ??0CD2DRoundedRect@@QAA@ABUD2D1_ROUNDED_RECT@@@Z=stub___0CD2DRoundedRect__QAA_ABUD2D1_ROUNDED_RECT___Z @416
    ??0CD2DRoundedRect@@QAA@ABVCD2DRectF@@ABVCD2DSizeF@@@Z=stub___0CD2DRoundedRect__QAA_ABVCD2DRectF__ABVCD2DSizeF___Z @417
    ??0CD2DRoundedRect@@QAA@PBUD2D1_ROUNDED_RECT@@@Z=stub___0CD2DRoundedRect__QAA_PBUD2D1_ROUNDED_RECT___Z @418
    ??0CD2DSizeF@@QAA@ABUD2D_SIZE_F@@@Z=stub___0CD2DSizeF__QAA_ABUD2D_SIZE_F___Z @419
    ??0CD2DSizeF@@QAA@ABVCSize@@@Z=stub___0CD2DSizeF__QAA_ABVCSize___Z @420
    ??0CD2DSizeF@@QAA@MM@Z=stub___0CD2DSizeF__QAA_MM_Z @421
    ??0CD2DSizeF@@QAA@PBUD2D_SIZE_F@@@Z=stub___0CD2DSizeF__QAA_PBUD2D_SIZE_F___Z @422
    ??0CD2DSizeU@@QAA@ABUD2D_SIZE_U@@@Z=stub___0CD2DSizeU__QAA_ABUD2D_SIZE_U___Z @423
    ??0CD2DSizeU@@QAA@ABVCSize@@@Z=stub___0CD2DSizeU__QAA_ABVCSize___Z @424
    ??0CD2DSizeU@@QAA@II@Z=stub___0CD2DSizeU__QAA_II_Z @425
    ??0CD2DSizeU@@QAA@PBUD2D_SIZE_U@@@Z=stub___0CD2DSizeU__QAA_PBUD2D_SIZE_U___Z @426
    ??0CD2DSolidColorBrush@@QAA@PAVCRenderTarget@@KHPAVCD2DBrushProperties@@H@Z=stub___0CD2DSolidColorBrush__QAA_PAVCRenderTarget__KHPAVCD2DBrushProperties__H_Z @427
    ??0CD2DSolidColorBrush@@QAA@PAVCRenderTarget@@U_D3DCOLORVALUE@@PAVCD2DBrushProperties@@H@Z=stub___0CD2DSolidColorBrush__QAA_PAVCRenderTarget__U_D3DCOLORVALUE__PAVCD2DBrushProperties__H_Z @428
    ??0CD2DTextFormat@@QAA@PAVCRenderTarget@@ABV?$CStringT@_WV?$StrTraitMFC_DLL@_WV?$ChTraitsCRT@_W@ATL@@@@@ATL@@MW4DWRITE_FONT_WEIGHT@@W4DWRITE_FONT_STYLE@@W4DWRITE_FONT_STRETCH@@1PAUIDWriteFontCollection@@H@Z=stub___0CD2DTextFormat__QAA_PAVCRenderTarget__ABV__CStringT__WV__StrTraitMFC_DLL__WV__ChTraitsCRT__W_ATL__L__MW4DWRITE_FONT_WEIGHT__W4DWRITE_FONT_STYLE__W4DWRITE_FONT_STRETCH__1PAUIDWriteFontCollection__H_Z @429
    ??0CD2DTextLayout@@QAA@PAVCRenderTarget@@ABV?$CStringT@_WV?$StrTraitMFC_DLL@_WV?$ChTraitsCRT@_W@ATL@@@@@ATL@@AAVCD2DTextFormat@@ABVCD2DSizeF@@H@Z=stub___0CD2DTextLayout__QAA_PAVCRenderTarget__ABV__CStringT__WV__StrTraitMFC_DLL__WV__ChTraitsCRT__W_ATL_____ATL__AAVCD2DTextFormat__ABVCD2DSizeF__H_Z @430
    ??0CDatabase@@QAA@XZ=stub___0CDatabase__QAA_XZ @431
    ??0CDataBoundProperty@@QAA@PAV0@JG@Z=stub___0CDataBoundProperty__QAA_PAV0_JG_Z @432
    ??0CDataExchange@@QAA@PAVCWnd@@H@Z=stub___0CDataExchange__QAA_PAVCWnd__H_Z @433
    ??0CDataRecoveryHandler@@QAA@KH@Z=stub___0CDataRecoveryHandler__QAA_KH_Z @434
    ??0CDataSourceControl@@QAA@PAVCOleControlSite@@@Z=stub___0CDataSourceControl__QAA_PAVCOleControlSite___Z @435
    ??0CDBException@@QAA@F@Z=stub___0CDBException__QAA_F_Z @436
    ??0CDBVariant@@QAA@XZ=stub___0CDBVariant__QAA_XZ @437
    ??0CDC@@QAA@XZ=stub___0CDC__QAA_XZ @438
    ??0CDCRenderTarget@@QAA@XZ=stub___0CDCRenderTarget__QAA_XZ @439
    ??0CDHtmlControlSink@@QAA@PAUIUnknown@@PAVCDHtmlSinkHandler@@PB_WK@Z=stub___0CDHtmlControlSink__QAA_PAUIUnknown__PAVCDHtmlSinkHandler__PB_WK_Z @440
    ??0CDHtmlControlSink@@QAA@XZ=stub___0CDHtmlControlSink__QAA_XZ @441
    ??0CDHtmlDialog@@QAA@IIPAVCWnd@@@Z=stub___0CDHtmlDialog__QAA_IIPAVCWnd___Z @442
    ??0CDHtmlDialog@@QAA@PB_W0PAVCWnd@@@Z=stub___0CDHtmlDialog__QAA_PB_W0PAVCWnd___Z @443
    ??0CDHtmlDialog@@QAA@XZ=stub___0CDHtmlDialog__QAA_XZ @444
    ??0CDHtmlElementEventSink@@QAA@PAVCDHtmlEventSink@@PAUIDispatch@@@Z=stub___0CDHtmlElementEventSink__QAA_PAVCDHtmlEventSink__PAUIDispatch___Z @445
    ??0CDialog@@QAA@IPAVCWnd@@@Z=stub___0CDialog__QAA_IPAVCWnd___Z @446
    ??0CDialog@@QAA@PB_WPAVCWnd@@@Z=stub___0CDialog__QAA_PB_WPAVCWnd___Z @447
    ??0CDialog@@QAA@XZ=stub___0CDialog__QAA_XZ @448
    ??0CDialogBar@@QAA@XZ=stub___0CDialogBar__QAA_XZ @449
    ??0CDialogEx@@QAA@IPAVCWnd@@@Z=stub___0CDialogEx__QAA_IPAVCWnd___Z @450
    ??0CDialogEx@@QAA@PB_WPAVCWnd@@@Z=stub___0CDialogEx__QAA_PB_WPAVCWnd___Z @451
    ??0CDialogEx@@QAA@XZ=stub___0CDialogEx__QAA_XZ @452
    ??0CDialogImpl@@IAA@AAVCWnd@@@Z=stub___0CDialogImpl__IAA_AAVCWnd___Z @453
    ??0CDialogTemplate@@QAA@PAX@Z=stub___0CDialogTemplate__QAA_PAX_Z @454
    ??0CDialogTemplate@@QAA@PBUDLGTEMPLATE@@@Z=stub___0CDialogTemplate__QAA_PBUDLGTEMPLATE___Z @455
    ??0CDocItem@@IAA@XZ=stub___0CDocItem__IAA_XZ @456
    ??0CDockablePane@@QAA@XZ=stub___0CDockablePane__QAA_XZ @457
    ??0CDockablePaneAdapter@@QAA@XZ=stub___0CDockablePaneAdapter__QAA_XZ @458
    ??0CDockBar@@QAA@H@Z=stub___0CDockBar__QAA_H_Z @459
    ??0CDockContext@@QAA@PAVCControlBar@@@Z=stub___0CDockContext__QAA_PAVCControlBar___Z @460
    ??0CDockingManager@@QAA@XZ=stub___0CDockingManager__QAA_XZ @461
    ??0CDockingPanesRow@@QAA@PAVCDockSite@@HH@Z=stub___0CDockingPanesRow__QAA_PAVCDockSite__HH_Z @462
    ??0CDockSite@@QAA@XZ=stub___0CDockSite__QAA_XZ @463
    ??0CDockState@@QAA@XZ=stub___0CDockState__QAA_XZ @464
    ??0CDocManager@@QAA@XZ=stub___0CDocManager__QAA_XZ @465
    ??0CDocObjectServer@@QAA@PAVCOleServerDoc@@PAUIOleDocumentSite@@@Z=stub___0CDocObjectServer__QAA_PAVCOleServerDoc__PAUIOleDocumentSite___Z @466
    ??0CDocObjectServerItem@@IAA@PAVCOleServerDoc@@H@Z=stub___0CDocObjectServerItem__IAA_PAVCOleServerDoc__H_Z @467
    ??0CDocTemplate@@IAA@IPAUCRuntimeClass@@00@Z=stub___0CDocTemplate__IAA_IPAUCRuntimeClass__00_Z @468
    ??0CDocument@@QAA@XZ=stub___0CDocument__QAA_XZ @469
    ??0CDrawingManager@@QAA@AAVCDC@@@Z=stub___0CDrawingManager__QAA_AAVCDC___Z @470
    ??0CDumpContext@@QAA@PAVCFile@@@Z=stub___0CDumpContext__QAA_PAVCFile___Z @471
    ??0CDWordArray@@QAA@XZ=stub___0CDWordArray__QAA_XZ @472
    ??0CDynLinkLibrary@@QAA@AAUAFX_EXTENSION_MODULE@@H@Z=stub___0CDynLinkLibrary__QAA_AAUAFX_EXTENSION_MODULE__H_Z @473
    ??0CDynLinkLibrary@@QAA@PAUHINSTANCE__@@0@Z=stub___0CDynLinkLibrary__QAA_PAUHINSTANCE____0_Z @474
    ??0CEditView@@QAA@XZ=stub___0CEditView__QAA_XZ @475
    ??0CEnumArray@@QAA@IPBXIH@Z=stub___0CEnumArray__QAA_IPBXIH_Z @476
    ??0CEnumConnections@@QAA@PBXI@Z=stub___0CEnumConnections__QAA_PBXI_Z @477
    ??0CEnumConnPoints@@QAA@PBXI@Z=stub___0CEnumConnPoints__QAA_PBXI_Z @478
    ??0CEnumFormatEtc@@QAA@XZ=stub___0CEnumFormatEtc__QAA_XZ @479
    ??0CEvent@@QAA@HHPB_WPAU_SECURITY_ATTRIBUTES@@@Z=stub___0CEvent__QAA_HHPB_WPAU_SECURITY_ATTRIBUTES___Z @480
    ??0CException@@QAA@H@Z=stub___0CException__QAA_H_Z @481
    ??0CException@@QAA@XZ=stub___0CException__QAA_XZ @482
    ??0CFieldExchange@@QAA@IPAVCRecordset@@PAX@Z=stub___0CFieldExchange__QAA_IPAVCRecordset__PAX_Z @483
    ??0CFile@@QAA@PAVCAtlTransactionManager@ATL@@@Z=stub___0CFile__QAA_PAVCAtlTransactionManager_ATL___Z @484
    ??0CFile@@QAA@PAX@Z=stub___0CFile__QAA_PAX_Z @485
    ??0CFile@@QAA@PB_WI@Z=stub___0CFile__QAA_PB_WI_Z @486
    ??0CFile@@QAA@PB_WIPAVCAtlTransactionManager@ATL@@@Z=stub___0CFile__QAA_PB_WIPAVCAtlTransactionManager_ATL___Z @487
    ??0CFile@@QAA@XZ=stub___0CFile__QAA_XZ @488
    ??0CFileDialog@@QAA@HPB_W0K0PAVCWnd@@KH@Z=stub___0CFileDialog__QAA_HPB_W0K0PAVCWnd__KH_Z @489
    ??0CFileFind@@QAA@PAVCAtlTransactionManager@ATL@@@Z=stub___0CFileFind__QAA_PAVCAtlTransactionManager_ATL___Z @490
    ??0CFileFind@@QAA@XZ=stub___0CFileFind__QAA_XZ @491
    ??0CFindReplaceDialog@@QAA@XZ=stub___0CFindReplaceDialog__QAA_XZ @492
    ??0CFixedAlloc@@QAA@II@Z=stub___0CFixedAlloc__QAA_II_Z @493
    ??0CFixedAllocNoSync@@QAA@II@Z=stub___0CFixedAllocNoSync__QAA_II_Z @494
    ??0CFolderPickerDialog@@QAA@PB_WKPAVCWnd@@KH@Z=stub___0CFolderPickerDialog__QAA_PB_WKPAVCWnd__KH_Z @495
    ??0CFontDialog@@QAA@ABU_charformatw@@KPAVCDC@@PAVCWnd@@@Z=stub___0CFontDialog__QAA_ABU_charformatw__KPAVCDC__PAVCWnd___Z @496
    ??0CFontDialog@@QAA@PAUtagLOGFONTW@@KPAVCDC@@PAVCWnd@@@Z=stub___0CFontDialog__QAA_PAUtagLOGFONTW__KPAVCDC__PAVCWnd___Z @497
    ??0CFontHolder@@QAA@PAUIPropertyNotifySink@@@Z=stub___0CFontHolder__QAA_PAUIPropertyNotifySink___Z @498
    ??0CFormView@@IAA@I@Z=stub___0CFormView__IAA_I_Z @499
    ??0CFormView@@IAA@PB_W@Z=stub___0CFormView__IAA_PB_W_Z @500
    ??0CFrameImpl@@QAA@PAVCFrameWnd@@@Z=stub___0CFrameImpl__QAA_PAVCFrameWnd___Z @501
    ??0CFrameWnd@@QAA@XZ=stub___0CFrameWnd__QAA_XZ @502
    ??0CFrameWndEx@@IAA@XZ=stub___0CFrameWndEx__IAA_XZ @503
    ??0CFtpConnection@@QAA@PAVCInternetSession@@PAXPB_WK@Z=stub___0CFtpConnection__QAA_PAVCInternetSession__PAXPB_WK_Z @504
    ??0CFtpConnection@@QAA@PAVCInternetSession@@PB_W11KGH@Z=stub___0CFtpConnection__QAA_PAVCInternetSession__PB_W11KGH_Z @505
    ??0CFtpFileFind@@QAA@PAVCFtpConnection@@K@Z=stub___0CFtpFileFind__QAA_PAVCFtpConnection__K_Z @506
    ??0CFullScreenImpl@@QAA@PAVCFrameImpl@@@Z=stub___0CFullScreenImpl__QAA_PAVCFrameImpl___Z @507
    ??0CGestureConfig@@QAA@XZ=stub___0CGestureConfig__QAA_XZ @508
    ??0CGlobalUtils@@QAA@XZ=stub___0CGlobalUtils__QAA_XZ @509
    ??0CGopherConnection@@QAA@PAVCInternetSession@@PAXPB_WK@Z=stub___0CGopherConnection__QAA_PAVCInternetSession__PAXPB_WK_Z @510
    ??0CGopherConnection@@QAA@PAVCInternetSession@@PB_W11KG@Z=stub___0CGopherConnection__QAA_PAVCInternetSession__PB_W11KG_Z @511
    ??0CGopherFile@@IAA@PAX0PB_WKK@Z=stub___0CGopherFile__IAA_PAX0PB_WKK_Z @512
    ??0CGopherFile@@IAA@PAXAAVCGopherLocator@@PAVCGopherConnection@@@Z=stub___0CGopherFile__IAA_PAXAAVCGopherLocator__PAVCGopherConnection___Z @513
    ??0CGopherFileFind@@QAA@PAVCGopherConnection@@K@Z=stub___0CGopherFileFind__QAA_PAVCGopherConnection__K_Z @514
    ??0CGopherLocator@@AAA@PB_WK@Z=stub___0CGopherLocator__AAA_PB_WK_Z @515
    ??0CHandleMap@@QAA@PAUCRuntimeClass@@P6AXPAVCObject@@@Z2IH@Z=stub___0CHandleMap__QAA_PAUCRuntimeClass__P6AXPAVCObject___Z2IH_Z @516
    ??0CHtmlControlSite@@QAA@PAVCOleControlContainer@@@Z=stub___0CHtmlControlSite__QAA_PAVCOleControlContainer___Z @517
    ??0CHtmlEditCtrl@@QAA@XZ=stub___0CHtmlEditCtrl__QAA_XZ @518
    ??0CHtmlEditDoc@@QAA@XZ=stub___0CHtmlEditDoc__QAA_XZ @519
    ??0CHtmlEditView@@QAA@XZ=stub___0CHtmlEditView__QAA_XZ @520
    ??0CHtmlView@@IAA@XZ=stub___0CHtmlView__IAA_XZ @521
    ??0CHttpConnection@@QAA@PAVCInternetSession@@PAXPB_WK@Z=stub___0CHttpConnection__QAA_PAVCInternetSession__PAXPB_WK_Z @522
    ??0CHttpConnection@@QAA@PAVCInternetSession@@PB_WG11K@Z=stub___0CHttpConnection__QAA_PAVCInternetSession__PB_WG11K_Z @523
    ??0CHttpConnection@@QAA@PAVCInternetSession@@PB_WKG11K@Z=stub___0CHttpConnection__QAA_PAVCInternetSession__PB_WKG11K_Z @524
    ??0CHttpFile@@IAA@PAX0PB_W11K@Z=stub___0CHttpFile__IAA_PAX0PB_W11K_Z @525
    ??0CHttpFile@@IAA@PAXPB_W1PAVCHttpConnection@@@Z=stub___0CHttpFile__IAA_PAXPB_W1PAVCHttpConnection___Z @526
    ??0CHwndRenderTarget@@QAA@PAUHWND__@@@Z=stub___0CHwndRenderTarget__QAA_PAUHWND_____Z @527
    ??0CImageList@@QAA@XZ=stub___0CImageList__QAA_XZ @528
    ??0CInternetConnection@@QAA@PAVCInternetSession@@PB_WGK@Z=stub___0CInternetConnection__QAA_PAVCInternetSession__PB_WGK_Z @529
    ??0CInternetException@@QAA@K@Z=stub___0CInternetException__QAA_K_Z @530
    ??0CInternetFile@@IAA@PAX0PB_W1KH@Z=stub___0CInternetFile__IAA_PAX0PB_W1KH_Z @531
    ??0CInternetFile@@IAA@PAXPB_WPAVCInternetConnection@@H@Z=stub___0CInternetFile__IAA_PAXPB_WPAVCInternetConnection__H_Z @532
    ??0CInternetSession@@QAA@PB_WKK00K@Z=stub___0CInternetSession__QAA_PB_WKK00K_Z @533
    ??0CJumpList@@QAA@H@Z=stub___0CJumpList__QAA_H_Z @534
    ??0CKeyboardManager@@QAA@XZ=stub___0CKeyboardManager__QAA_XZ @535
    ??0CKeyFrame@@QAA@PAVCBaseKeyFrame@@N@Z=stub___0CKeyFrame__QAA_PAVCBaseKeyFrame__N_Z @536
    ??0CKeyFrame@@QAA@PAVCBaseTransition@@@Z=stub___0CKeyFrame__QAA_PAVCBaseTransition___Z @537
    ??0CLongBinary@@QAA@XZ=stub___0CLongBinary__QAA_XZ @538
    ??0CMapPtrToPtr@@QAA@H@Z=stub___0CMapPtrToPtr__QAA_H_Z @539
    ??0CMapPtrToWord@@QAA@H@Z=stub___0CMapPtrToWord__QAA_H_Z @540
    ??0CMapStringToOb@@QAA@H@Z=stub___0CMapStringToOb__QAA_H_Z @541
    ??0CMapStringToPtr@@QAA@H@Z=stub___0CMapStringToPtr__QAA_H_Z @542
    ??0CMapStringToString@@QAA@H@Z=stub___0CMapStringToString__QAA_H_Z @543
    ??0CMapWordToOb@@QAA@H@Z=stub___0CMapWordToOb__QAA_H_Z @544
    ??0CMapWordToPtr@@QAA@H@Z=stub___0CMapWordToPtr__QAA_H_Z @545
    ??0CMDIChildWnd@@QAA@XZ=stub___0CMDIChildWnd__QAA_XZ @546
    ??0CMDIChildWndEx@@IAA@XZ=stub___0CMDIChildWndEx__IAA_XZ @547
    ??0CMDIClientAreaWnd@@QAA@XZ=stub___0CMDIClientAreaWnd__QAA_XZ @548
    ??0CMDIFrameWnd@@QAA@XZ=stub___0CMDIFrameWnd__QAA_XZ @549
    ??0CMDIFrameWndEx@@IAA@XZ=stub___0CMDIFrameWndEx__IAA_XZ @550
    ??0CMDITabInfo@@QAA@XZ=stub___0CMDITabInfo__QAA_XZ @551
    ??0CMDITabProxyWnd@@QAA@XZ=stub___0CMDITabProxyWnd__QAA_XZ @552
    ??0CMemDC@@QAA@AAVCDC@@ABVCRect@@@Z=stub___0CMemDC__QAA_AAVCDC__ABVCRect___Z @553
    ??0CMemDC@@QAA@AAVCDC@@PAVCWnd@@@Z=stub___0CMemDC__QAA_AAVCDC__PAVCWnd___Z @554
    ??0CMemFile@@QAA@I@Z=stub___0CMemFile__QAA_I_Z @555
    ??0CMemFile@@QAA@PAEII@Z=stub___0CMemFile__QAA_PAEII_Z @556
    ??0CMenuHash@@QAA@XZ=stub___0CMenuHash__QAA_XZ @557
    ??0CMenuTearOffManager@@QAA@XZ=stub___0CMenuTearOffManager__QAA_XZ @558
    ??0CMetaFileDC@@QAA@XZ=stub___0CMetaFileDC__QAA_XZ @559
    ??0CMFCAcceleratorKey@@QAA@PAUtagACCEL@@@Z=stub___0CMFCAcceleratorKey__QAA_PAUtagACCEL___Z @560
    ??0CMFCAcceleratorKey@@QAA@XZ=stub___0CMFCAcceleratorKey__QAA_XZ @561
    ??0CMFCAcceleratorKeyAssignCtrl@@QAA@XZ=stub___0CMFCAcceleratorKeyAssignCtrl__QAA_XZ @562
    ??0CMFCAutoHideBar@@QAA@XZ=stub___0CMFCAutoHideBar__QAA_XZ @563
    ??0CMFCAutoHideButton@@QAA@XZ=stub___0CMFCAutoHideButton__QAA_XZ @564
    ??0CMFCBaseAccessibleObject@@QAA@XZ=stub___0CMFCBaseAccessibleObject__QAA_XZ @565
    ??0CMFCBaseTabCtrl@@QAA@XZ=stub___0CMFCBaseTabCtrl__QAA_XZ @566
    ??0CMFCBaseToolBar@@QAA@XZ=stub___0CMFCBaseToolBar__QAA_XZ @567
    ??0CMFCBaseVisualManager@@QAA@XZ=stub___0CMFCBaseVisualManager__QAA_XZ @568
    ??0CMFCButton@@QAA@XZ=stub___0CMFCButton__QAA_XZ @569
    ??0CMFCCaptionBar@@QAA@XZ=stub___0CMFCCaptionBar__QAA_XZ @570
    ??0CMFCCaptionButton@@QAA@IH@Z=stub___0CMFCCaptionButton__QAA_IH_Z @571
    ??0CMFCCaptionButton@@QAA@XZ=stub___0CMFCCaptionButton__QAA_XZ @572
    ??0CMFCCaptionButtonEx@@QAA@I@Z=stub___0CMFCCaptionButtonEx__QAA_I_Z @573
    ??0CMFCCaptionMenuButton@@QAA@IH@Z=stub___0CMFCCaptionMenuButton__QAA_IH_Z @574
    ??0CMFCCaptionMenuButton@@QAA@XZ=stub___0CMFCCaptionMenuButton__QAA_XZ @575
    ??0CMFCCmdUsageCount@@QAA@XZ=stub___0CMFCCmdUsageCount__QAA_XZ @576
    ??0CMFCColorBar@@IAA@AAV0@I@Z=stub___0CMFCColorBar__IAA_AAV0_I_Z @577
    ??0CMFCColorBar@@IAA@ABV?$CArray@KK@@KPB_W11AAV?$CList@KK@@HHHKIPAVCMFCColorButton@@@Z=stub___0CMFCColorBar__IAA_ABV__CArray_KK__KPB_W11AAV__CList_KK__HHHKIPAVCMFCColorButton___Z @578
    ??0CMFCColorBar@@IAA@ABV?$CArray@KK@@KPB_W11AAV?$CList@KK@@HKIPAVCMFCRibbonColorButton@@@Z=stub___0CMFCColorBar__IAA_ABV__CArray_KK__KPB_W11AAV__CList_KK__HKIPAVCMFCRibbonColorButton___Z @579
    ??0CMFCColorBar@@QAA@XZ=stub___0CMFCColorBar__QAA_XZ @580
    ??0CMFCColorBarCmdUI@@QAA@XZ=stub___0CMFCColorBarCmdUI__QAA_XZ @581
    ??0CMFCColorButton@@QAA@XZ=stub___0CMFCColorButton__QAA_XZ @582
    ??0CMFCColorDialog@@QAA@KKPAVCWnd@@PAUHPALETTE__@@@Z=stub___0CMFCColorDialog__QAA_KKPAVCWnd__PAUHPALETTE_____Z @583
    ??0CMFCColorMenuButton@@QAA@IPB_WPAVCPalette@@@Z=stub___0CMFCColorMenuButton__QAA_IPB_WPAVCPalette___Z @584
    ??0CMFCColorMenuButton@@QAA@XZ=stub___0CMFCColorMenuButton__QAA_XZ @585
    ??0CMFCColorPickerCtrl@@QAA@XZ=stub___0CMFCColorPickerCtrl__QAA_XZ @586
    ??0CMFCColorPropertySheet@@QAA@IPAVCWnd@@I@Z=stub___0CMFCColorPropertySheet__QAA_IPAVCWnd__I_Z @587
    ??0CMFCColorPropertySheet@@QAA@PB_WPAVCWnd@@I@Z=stub___0CMFCColorPropertySheet__QAA_PB_WPAVCWnd__I_Z @588
    ??0CMFCControlBarImpl@@QAA@PAVCPane@@@Z=stub___0CMFCControlBarImpl__QAA_PAVCPane___Z @589
    ??0CMFCControlContainer@@QAA@PAVCWnd@@@Z=stub___0CMFCControlContainer__QAA_PAVCWnd___Z @590
    ??0CMFCControlRenderer@@QAA@XZ=stub___0CMFCControlRenderer__QAA_XZ @591
    ??0CMFCControlRendererInfo@@QAA@ABV0@@Z=stub___0CMFCControlRendererInfo__QAA_ABV0__Z @592
    ??0CMFCControlRendererInfo@@QAA@IABVCRect@@000@Z=stub___0CMFCControlRendererInfo__QAA_IABVCRect__000_Z @593
    ??0CMFCControlRendererInfo@@QAA@IKABVCRect@@000H@Z=stub___0CMFCControlRendererInfo__QAA_IKABVCRect__000H_Z @594
    ??0CMFCControlRendererInfo@@QAA@PB_WABVCRect@@111@Z=stub___0CMFCControlRendererInfo__QAA_PB_WABVCRect__111_Z @595
    ??0CMFCControlRendererInfo@@QAA@PB_WKABVCRect@@111H@Z=stub___0CMFCControlRendererInfo__QAA_PB_WKABVCRect__111H_Z @596
    ??0CMFCControlRendererInfo@@QAA@XZ=stub___0CMFCControlRendererInfo__QAA_XZ @597
    ??0CMFCCustomColorsPropertyPage@@QAA@XZ=stub___0CMFCCustomColorsPropertyPage__QAA_XZ @598
    ??0CMFCCustomizeButton@@QAA@HABV?$CStringT@_WV?$StrTraitMFC_DLL@_WV?$ChTraitsCRT@_W@ATL@@@@@ATL@@@Z=stub___0CMFCCustomizeButton__QAA_HABV__CStringT__WV__StrTraitMFC_DLL__WV__ChTraitsCRT__W_ATL_____ATL___Z @599
    ??0CMFCCustomizeButton@@QAA@XZ=stub___0CMFCCustomizeButton__QAA_XZ @600
    ??0CMFCCustomizeMenuButton@@QAA@IPAUHMENU__@@HPB_WH@Z=stub___0CMFCCustomizeMenuButton__QAA_IPAUHMENU____HPB_WH_Z @601
    ??0CMFCCustomizeMenuButton@@QAA@XZ=stub___0CMFCCustomizeMenuButton__QAA_XZ @602
    ??0CMFCDesktopAlertDialog@@QAA@XZ=stub___0CMFCDesktopAlertDialog__QAA_XZ @603
    ??0CMFCDesktopAlertWnd@@QAA@XZ=stub___0CMFCDesktopAlertWnd__QAA_XZ @604
    ??0CMFCDragFrameImpl@@QAA@XZ=stub___0CMFCDragFrameImpl__QAA_XZ @605
    ??0CMFCDropDownFrame@@QAA@XZ=stub___0CMFCDropDownFrame__QAA_XZ @606
    ??0CMFCDropDownListBox@@QAA@PAVCMFCRibbonComboBox@@@Z=stub___0CMFCDropDownListBox__QAA_PAVCMFCRibbonComboBox___Z @607
    ??0CMFCDropDownListBox@@QAA@PAVCWnd@@@Z=stub___0CMFCDropDownListBox__QAA_PAVCWnd___Z @608
    ??0CMFCDropDownListBox@@QAA@XZ=stub___0CMFCDropDownListBox__QAA_XZ @609
    ??0CMFCDropDownToolbarButton@@QAA@PB_WPAVCMFCDropDownToolBar@@@Z=stub___0CMFCDropDownToolbarButton__QAA_PB_WPAVCMFCDropDownToolBar___Z @610
    ??0CMFCDropDownToolbarButton@@QAA@XZ=stub___0CMFCDropDownToolbarButton__QAA_XZ @611
    ??0CMFCEditBrowseCtrl@@QAA@XZ=stub___0CMFCEditBrowseCtrl__QAA_XZ @612
    ??0CMFCFilterChunkValueImpl@@QAA@XZ=stub___0CMFCFilterChunkValueImpl__QAA_XZ @613
    ??0CMFCFontComboBox@@QAA@XZ=stub___0CMFCFontComboBox__QAA_XZ @614
    ??0CMFCHeaderCtrl@@QAA@XZ=stub___0CMFCHeaderCtrl__QAA_XZ @615
    ??0CMFCImageEditorDialog@@QAA@PAVCBitmap@@PAVCWnd@@H@Z=stub___0CMFCImageEditorDialog__QAA_PAVCBitmap__PAVCWnd__H_Z @616
    ??0CMFCImagePaintArea@@QAA@PAVCMFCImageEditorDialog@@@Z=stub___0CMFCImagePaintArea__QAA_PAVCMFCImageEditorDialog___Z @617
    ??0CMFCKeyMapDialog@@QAA@PAVCFrameWnd@@H@Z=stub___0CMFCKeyMapDialog__QAA_PAVCFrameWnd__H_Z @618
    ??0CMFCLinkCtrl@@QAA@XZ=stub___0CMFCLinkCtrl__QAA_XZ @619
    ??0CMFCListCtrl@@QAA@XZ=stub___0CMFCListCtrl__QAA_XZ @620
    ??0CMFCMaskedEdit@@QAA@XZ=stub___0CMFCMaskedEdit__QAA_XZ @621
    ??0CMFCMenuBar@@QAA@XZ=stub___0CMFCMenuBar__QAA_XZ @622
    ??0CMFCMenuButton@@QAA@XZ=stub___0CMFCMenuButton__QAA_XZ @623
    ??0CMFCMousePropertyPage@@QAA@XZ=stub___0CMFCMousePropertyPage__QAA_XZ @624
    ??0CMFCOutlookBar@@QAA@XZ=stub___0CMFCOutlookBar__QAA_XZ @625
    ??0CMFCOutlookBarPane@@QAA@XZ=stub___0CMFCOutlookBarPane__QAA_XZ @626
    ??0CMFCOutlookBarPaneAdapter@@QAA@XZ=stub___0CMFCOutlookBarPaneAdapter__QAA_XZ @627
    ??0CMFCOutlookBarPaneButton@@QAA@XZ=stub___0CMFCOutlookBarPaneButton__QAA_XZ @628
    ??0CMFCOutlookBarTabCtrl@@QAA@XZ=stub___0CMFCOutlookBarTabCtrl__QAA_XZ @629
    ??0CMFCOutlookBarToolBar@@QAA@PAVCMFCOutlookBarTabCtrl@@@Z=stub___0CMFCOutlookBarToolBar__QAA_PAVCMFCOutlookBarTabCtrl___Z @630
    ??0CMFCPopupMenu@@IAA@PAVCMFCToolBarsMenuPropertyPage@@PB_W@Z=stub___0CMFCPopupMenu__IAA_PAVCMFCToolBarsMenuPropertyPage__PB_W_Z @631
    ??0CMFCPopupMenu@@QAA@XZ=stub___0CMFCPopupMenu__QAA_XZ @632
    ??0CMFCPopupMenuBar@@QAA@XZ=stub___0CMFCPopupMenuBar__QAA_XZ @633
    ??0CMFCPreviewCtrlImpl@@QAA@XZ=stub___0CMFCPreviewCtrlImpl__QAA_XZ @634
    ??0CMFCPropertyGridColorProperty@@QAA@ABV?$CStringT@_WV?$StrTraitMFC_DLL@_WV?$ChTraitsCRT@_W@ATL@@@@@ATL@@ABKPAVCPalette@@PB_WK@Z=stub___0CMFCPropertyGridColorProperty__QAA_ABV__CStringT__WV__StrTraitMFC_DLL__WV__ChTraitsCRT__W_ATL_____ATL__ABKPAVCPalette__PB_WK_Z @635
    ??0CMFCPropertyGridCtrl@@QAA@XZ=stub___0CMFCPropertyGridCtrl__QAA_XZ @636
    ??0CMFCPropertyGridFileProperty@@QAA@ABV?$CStringT@_WV?$StrTraitMFC_DLL@_WV?$ChTraitsCRT@_W@ATL@@@@@ATL@@0KPB_W@Z=stub___0CMFCPropertyGridFileProperty__QAA_ABV__CStringT__WV__StrTraitMFC_DLL__WV__ChTraitsCRT__W_ATL_____ATL__0KPB_W_Z @637
    ??0CMFCPropertyGridFileProperty@@QAA@ABV?$CStringT@_WV?$StrTraitMFC_DLL@_WV?$ChTraitsCRT@_W@ATL@@@@@ATL@@H0PB_WK11K@Z=stub___0CMFCPropertyGridFileProperty__QAA_ABV__CStringT__WV__StrTraitMFC_DLL__WV__ChTraitsCRT__W_ATL_____ATL__H0PB_WK11K_Z @638
    ??0CMFCPropertyGridFontProperty@@QAA@ABV?$CStringT@_WV?$StrTraitMFC_DLL@_WV?$ChTraitsCRT@_W@ATL@@@@@ATL@@AAUtagLOGFONTW@@KPB_WKK@Z=stub___0CMFCPropertyGridFontProperty__QAA_ABV__CStringT__WV__StrTraitMFC_DLL__WV__ChTraitsCRT__W_ATL_____ATL__AAUtagLOGFONTW__KPB_WKK_Z @639
    ??0CMFCPropertyGridProperty@@QAA@ABV?$CStringT@_WV?$StrTraitMFC_DLL@_WV?$ChTraitsCRT@_W@ATL@@@@@ATL@@ABVCOleVariant@@PB_WK222@Z=stub___0CMFCPropertyGridProperty__QAA_ABV__CStringT__WV__StrTraitMFC_DLL__WV__ChTraitsCRT__W_ATL_____ATL__ABVCOleVariant__PB_WK222_Z @640
    ??0CMFCPropertyGridProperty@@QAA@ABV?$CStringT@_WV?$StrTraitMFC_DLL@_WV?$ChTraitsCRT@_W@ATL@@@@@ATL@@KH@Z=stub___0CMFCPropertyGridProperty__QAA_ABV__CStringT__WV__StrTraitMFC_DLL__WV__ChTraitsCRT__W_ATL_____ATL__KH_Z @641
    ??0CMFCPropertyGridToolTipCtrl@@QAA@XZ=stub___0CMFCPropertyGridToolTipCtrl__QAA_XZ @642
    ??0CMFCPropertyPage@@QAA@II@Z=stub___0CMFCPropertyPage__QAA_II_Z @643
    ??0CMFCPropertyPage@@QAA@PB_WI@Z=stub___0CMFCPropertyPage__QAA_PB_WI_Z @644
    ??0CMFCPropertyPage@@QAA@XZ=stub___0CMFCPropertyPage__QAA_XZ @645
    ??0CMFCPropertySheet@@QAA@IPAVCWnd@@I@Z=stub___0CMFCPropertySheet__QAA_IPAVCWnd__I_Z @646
    ??0CMFCPropertySheet@@QAA@PB_WPAVCWnd@@I@Z=stub___0CMFCPropertySheet__QAA_PB_WPAVCWnd__I_Z @647
    ??0CMFCPropertySheet@@QAA@XZ=stub___0CMFCPropertySheet__QAA_XZ @648
    ??0CMFCPropertySheetCategoryInfo@@QAA@PB_WHHPBV0@AAVCMFCPropertySheet@@@Z=stub___0CMFCPropertySheetCategoryInfo__QAA_PB_WHHPBV0_AAVCMFCPropertySheet___Z @649
    ??0CMFCPropertySheetListBox@@AAA@XZ=stub___0CMFCPropertySheetListBox__AAA_XZ @650
    ??0CMFCPropertySheetTabCtrl@@AAA@XZ=stub___0CMFCPropertySheetTabCtrl__AAA_XZ @651
    ??0CMFCReBar@@QAA@XZ=stub___0CMFCReBar__QAA_XZ @652
    ??0CMFCRibbonBar@@QAA@H@Z=stub___0CMFCRibbonBar__QAA_H_Z @653
    ??0CMFCRibbonBaseElement@@QAA@XZ=stub___0CMFCRibbonBaseElement__QAA_XZ @654
    ??0CMFCRibbonButton@@QAA@IPB_WHHH@Z=stub___0CMFCRibbonButton__QAA_IPB_WHHH_Z @655
    ??0CMFCRibbonButton@@QAA@IPB_WPAUHICON__@@H1HH@Z=stub___0CMFCRibbonButton__QAA_IPB_WPAUHICON____H1HH_Z @656
    ??0CMFCRibbonButton@@QAA@XZ=stub___0CMFCRibbonButton__QAA_XZ @657
    ??0CMFCRibbonButtonsGroup@@QAA@PAVCMFCRibbonBaseElement@@@Z=stub___0CMFCRibbonButtonsGroup__QAA_PAVCMFCRibbonBaseElement___Z @658
    ??0CMFCRibbonButtonsGroup@@QAA@XZ=stub___0CMFCRibbonButtonsGroup__QAA_XZ @659
    ??0CMFCRibbonCaptionButton@@IAA@IPAUHWND__@@@Z=stub___0CMFCRibbonCaptionButton__IAA_IPAUHWND_____Z @660
    ??0CMFCRibbonCategory@@IAA@PAVCMFCRibbonBar@@PB_WIIVCSize@@2@Z=stub___0CMFCRibbonCategory__IAA_PAVCMFCRibbonBar__PB_WIIVCSize__2_Z @661
    ??0CMFCRibbonCategory@@IAA@XZ=stub___0CMFCRibbonCategory__IAA_XZ @662
    ??0CMFCRibbonCheckBox@@QAA@IPB_W@Z=stub___0CMFCRibbonCheckBox__QAA_IPB_W_Z @663
    ??0CMFCRibbonCheckBox@@QAA@XZ=stub___0CMFCRibbonCheckBox__QAA_XZ @664
    ??0CMFCRibbonCmdUI@@QAA@XZ=stub___0CMFCRibbonCmdUI__QAA_XZ @665
    ??0CMFCRibbonCollector@@QAA@AAVCMFCRibbonInfo@@K@Z=stub___0CMFCRibbonCollector__QAA_AAVCMFCRibbonInfo__K_Z @666
    ??0CMFCRibbonColorButton@@QAA@IPB_WHHHK@Z=stub___0CMFCRibbonColorButton__QAA_IPB_WHHHK_Z @667
    ??0CMFCRibbonColorButton@@QAA@IPB_WHK@Z=stub___0CMFCRibbonColorButton__QAA_IPB_WHK_Z @668
    ??0CMFCRibbonColorButton@@QAA@XZ=stub___0CMFCRibbonColorButton__QAA_XZ @669
    ??0CMFCRibbonComboBox@@IAA@XZ=stub___0CMFCRibbonComboBox__IAA_XZ @670
    ??0CMFCRibbonComboBox@@QAA@IHHPB_WH@Z=stub___0CMFCRibbonComboBox__QAA_IHHPB_WH_Z @671
    ??0CMFCRibbonCommandsListBox@@QAA@PAVCMFCRibbonBar@@HHH@Z=stub___0CMFCRibbonCommandsListBox__QAA_PAVCMFCRibbonBar__HHH_Z @672
    ??0CMFCRibbonConstructor@@QAA@ABVCMFCRibbonInfo@@@Z=stub___0CMFCRibbonConstructor__QAA_ABVCMFCRibbonInfo___Z @673
    ??0CMFCRibbonContextCaption@@IAA@PB_WIW4AFX_RibbonCategoryColor@@@Z=stub___0CMFCRibbonContextCaption__IAA_PB_WIW4AFX_RibbonCategoryColor___Z @674
    ??0CMFCRibbonContextCaption@@IAA@XZ=stub___0CMFCRibbonContextCaption__IAA_XZ @675
    ??0CMFCRibbonCustomizeDialog@@QAA@PAVCWnd@@PAVCMFCRibbonBar@@@Z=stub___0CMFCRibbonCustomizeDialog__QAA_PAVCWnd__PAVCMFCRibbonBar___Z @676
    ??0CMFCRibbonCustomizePropertyPage@@QAA@PAVCMFCRibbonBar@@@Z=stub___0CMFCRibbonCustomizePropertyPage__QAA_PAVCMFCRibbonBar___Z @677
    ??0CMFCRibbonDefaultPanelButton@@QAA@PAVCMFCRibbonPanel@@@Z=stub___0CMFCRibbonDefaultPanelButton__QAA_PAVCMFCRibbonPanel___Z @678
    ??0CMFCRibbonEdit@@IAA@XZ=stub___0CMFCRibbonEdit__IAA_XZ @679
    ??0CMFCRibbonEdit@@QAA@IHPB_WH@Z=stub___0CMFCRibbonEdit__QAA_IHPB_WH_Z @680
    ??0CMFCRibbonFontComboBox@@IAA@XZ=stub___0CMFCRibbonFontComboBox__IAA_XZ @681
    ??0CMFCRibbonFontComboBox@@QAA@IHEEH@Z=stub___0CMFCRibbonFontComboBox__QAA_IHEEH_Z @682
    ??0CMFCRibbonGallery@@QAA@IPB_WHHAAVCMFCToolBarImages@@@Z=stub___0CMFCRibbonGallery__QAA_IPB_WHHAAVCMFCToolBarImages___Z @683
    ??0CMFCRibbonGallery@@QAA@IPB_WHHIH@Z=stub___0CMFCRibbonGallery__QAA_IPB_WHHIH_Z @684
    ??0CMFCRibbonGallery@@QAA@IPB_WHHVCSize@@HH@Z=stub___0CMFCRibbonGallery__QAA_IPB_WHHVCSize__HH_Z @685
    ??0CMFCRibbonGallery@@QAA@XZ=stub___0CMFCRibbonGallery__QAA_XZ @686
    ??0CMFCRibbonGalleryIcon@@QAA@PAVCMFCRibbonGallery@@H@Z=stub___0CMFCRibbonGalleryIcon__QAA_PAVCMFCRibbonGallery__H_Z @687
    ??0CMFCRibbonGalleryMenuButton@@IAA@XZ=stub___0CMFCRibbonGalleryMenuButton__IAA_XZ @688
    ??0CMFCRibbonGalleryMenuButton@@QAA@IHPB_WAAVCMFCToolBarImages@@@Z=stub___0CMFCRibbonGalleryMenuButton__QAA_IHPB_WAAVCMFCToolBarImages___Z @689
    ??0CMFCRibbonGalleryMenuButton@@QAA@IHPB_WIH@Z=stub___0CMFCRibbonGalleryMenuButton__QAA_IHPB_WIH_Z @690
    ??0CMFCRibbonInfo@@QAA@XZ=stub___0CMFCRibbonInfo__QAA_XZ @691
    ??0CMFCRibbonInfoLoader@@QAA@AAVCMFCRibbonInfo@@@Z=stub___0CMFCRibbonInfoLoader__QAA_AAVCMFCRibbonInfo___Z @692
    ??0CMFCRibbonKeyboardCustomizeDialog@@QAA@PAVCMFCRibbonBar@@PAVCWnd@@@Z=stub___0CMFCRibbonKeyboardCustomizeDialog__QAA_PAVCMFCRibbonBar__PAVCWnd___Z @693
    ??0CMFCRibbonKeyTip@@QAA@PAVCMFCRibbonBaseElement@@H@Z=stub___0CMFCRibbonKeyTip__QAA_PAVCMFCRibbonBaseElement__H_Z @694
    ??0CMFCRibbonLabel@@IAA@XZ=stub___0CMFCRibbonLabel__IAA_XZ @695
    ??0CMFCRibbonLabel@@QAA@PB_WH@Z=stub___0CMFCRibbonLabel__QAA_PB_WH_Z @696
    ??0CMFCRibbonLaunchButton@@QAA@XZ=stub___0CMFCRibbonLaunchButton__QAA_XZ @697
    ??0CMFCRibbonLinkCtrl@@QAA@IPB_W0@Z=stub___0CMFCRibbonLinkCtrl__QAA_IPB_W0_Z @698
    ??0CMFCRibbonLinkCtrl@@QAA@XZ=stub___0CMFCRibbonLinkCtrl__QAA_XZ @699
    ??0CMFCRibbonMainPanel@@QAA@XZ=stub___0CMFCRibbonMainPanel__QAA_XZ @700
    ??0CMFCRibbonMainPanelButton@@QAA@IPB_WH@Z=stub___0CMFCRibbonMainPanelButton__QAA_IPB_WH_Z @701
    ??0CMFCRibbonMainPanelButton@@QAA@IPB_WPAUHICON__@@@Z=stub___0CMFCRibbonMainPanelButton__QAA_IPB_WPAUHICON_____Z @702
    ??0CMFCRibbonMainPanelButton@@QAA@XZ=stub___0CMFCRibbonMainPanelButton__QAA_XZ @703
    ??0CMFCRibbonMiniToolBar@@QAA@XZ=stub___0CMFCRibbonMiniToolBar__QAA_XZ @704
    ??0CMFCRibbonPanel@@IAA@PAVCMFCRibbonGallery@@@Z=stub___0CMFCRibbonPanel__IAA_PAVCMFCRibbonGallery___Z @705
    ??0CMFCRibbonPanel@@IAA@PB_WPAUHICON__@@@Z=stub___0CMFCRibbonPanel__IAA_PB_WPAUHICON_____Z @706
    ??0CMFCRibbonPanelMenu@@IAA@XZ=stub___0CMFCRibbonPanelMenu__IAA_XZ @707
    ??0CMFCRibbonPanelMenu@@QAA@PAVCMFCRibbonBar@@ABV?$CArray@PAVCMFCRibbonBaseElement@@PAV1@@@H@Z=stub___0CMFCRibbonPanelMenu__QAA_PAVCMFCRibbonBar__ABV__CArray_PAVCMFCRibbonBaseElement__PAV1___H_Z @708
    ??0CMFCRibbonPanelMenu@@QAA@PAVCMFCRibbonCategory@@VCSize@@@Z=stub___0CMFCRibbonPanelMenu__QAA_PAVCMFCRibbonCategory__VCSize___Z @709
    ??0CMFCRibbonPanelMenu@@QAA@PAVCMFCRibbonGallery@@@Z=stub___0CMFCRibbonPanelMenu__QAA_PAVCMFCRibbonGallery___Z @710
    ??0CMFCRibbonPanelMenu@@QAA@PAVCMFCRibbonPanel@@@Z=stub___0CMFCRibbonPanelMenu__QAA_PAVCMFCRibbonPanel___Z @711
    ??0CMFCRibbonPanelMenuBar@@IAA@XZ=stub___0CMFCRibbonPanelMenuBar__IAA_XZ @712
    ??0CMFCRibbonPanelMenuBar@@QAA@PAVCMFCRibbonBar@@ABV?$CArray@PAVCMFCRibbonBaseElement@@PAV1@@@H@Z=stub___0CMFCRibbonPanelMenuBar__QAA_PAVCMFCRibbonBar__ABV__CArray_PAVCMFCRibbonBaseElement__PAV1___H_Z @713
    ??0CMFCRibbonPanelMenuBar@@QAA@PAVCMFCRibbonCategory@@VCSize@@@Z=stub___0CMFCRibbonPanelMenuBar__QAA_PAVCMFCRibbonCategory__VCSize___Z @714
    ??0CMFCRibbonPanelMenuBar@@QAA@PAVCMFCRibbonGallery@@@Z=stub___0CMFCRibbonPanelMenuBar__QAA_PAVCMFCRibbonGallery___Z @715
    ??0CMFCRibbonPanelMenuBar@@QAA@PAVCMFCRibbonPanel@@@Z=stub___0CMFCRibbonPanelMenuBar__QAA_PAVCMFCRibbonPanel___Z @716
    ??0CMFCRibbonProgressBar@@QAA@IHH@Z=stub___0CMFCRibbonProgressBar__QAA_IHH_Z @717
    ??0CMFCRibbonProgressBar@@QAA@XZ=stub___0CMFCRibbonProgressBar__QAA_XZ @718
    ??0CMFCRibbonQuickAccessToolBar@@QAA@XZ=stub___0CMFCRibbonQuickAccessToolBar__QAA_XZ @719
    ??0CMFCRibbonQuickAccessToolBarDefaultState@@QAA@XZ=stub___0CMFCRibbonQuickAccessToolBarDefaultState__QAA_XZ @720
    ??0CMFCRibbonRichEditCtrl@@QAA@AAVCMFCRibbonEdit@@@Z=stub___0CMFCRibbonRichEditCtrl__QAA_AAVCMFCRibbonEdit___Z @721
    ??0CMFCRibbonSeparator@@QAA@H@Z=stub___0CMFCRibbonSeparator__QAA_H_Z @722
    ??0CMFCRibbonSlider@@QAA@IH@Z=stub___0CMFCRibbonSlider__QAA_IH_Z @723
    ??0CMFCRibbonSlider@@QAA@XZ=stub___0CMFCRibbonSlider__QAA_XZ @724
    ??0CMFCRibbonStatusBar@@QAA@XZ=stub___0CMFCRibbonStatusBar__QAA_XZ @725
    ??0CMFCRibbonStatusBarPane@@QAA@IPB_WHPAUHICON__@@0H@Z=stub___0CMFCRibbonStatusBarPane__QAA_IPB_WHPAUHICON____0H_Z @726
    ??0CMFCRibbonStatusBarPane@@QAA@IPB_WIHKPAUHICON__@@HH@Z=stub___0CMFCRibbonStatusBarPane__QAA_IPB_WIHKPAUHICON____HH_Z @727
    ??0CMFCRibbonStatusBarPane@@QAA@IPB_WPAUHBITMAP__@@HKPAUHICON__@@HH@Z=stub___0CMFCRibbonStatusBarPane__QAA_IPB_WPAUHBITMAP____HKPAUHICON____HH_Z @728
    ??0CMFCRibbonStatusBarPane@@QAA@XZ=stub___0CMFCRibbonStatusBarPane__QAA_XZ @729
    ??0CMFCRibbonTab@@QAA@XZ=stub___0CMFCRibbonTab__QAA_XZ @730
    ??0CMFCRibbonTabsGroup@@QAA@PAVCMFCRibbonBaseElement@@@Z=stub___0CMFCRibbonTabsGroup__QAA_PAVCMFCRibbonBaseElement___Z @731
    ??0CMFCRibbonTabsGroup@@QAA@XZ=stub___0CMFCRibbonTabsGroup__QAA_XZ @732
    ??0CMFCRibbonUndoButton@@QAA@IPB_WHH@Z=stub___0CMFCRibbonUndoButton__QAA_IPB_WHH_Z @733
    ??0CMFCRibbonUndoButton@@QAA@IPB_WPAUHICON__@@@Z=stub___0CMFCRibbonUndoButton__QAA_IPB_WPAUHICON_____Z @734
    ??0CMFCRibbonUndoButton@@QAA@XZ=stub___0CMFCRibbonUndoButton__QAA_XZ @735
    ??0CMFCShadowRenderer@@QAA@XZ=stub___0CMFCShadowRenderer__QAA_XZ @736
    ??0CMFCShellListCtrl@@QAA@XZ=stub___0CMFCShellListCtrl__QAA_XZ @737
    ??0CMFCShellTreeCtrl@@QAA@XZ=stub___0CMFCShellTreeCtrl__QAA_XZ @738
    ??0CMFCShowAllButton@@QAA@XZ=stub___0CMFCShowAllButton__QAA_XZ @739
    ??0CMFCSpinButtonCtrl@@QAA@XZ=stub___0CMFCSpinButtonCtrl__QAA_XZ @740
    ??0CMFCStandardColorsPropertyPage@@QAA@XZ=stub___0CMFCStandardColorsPropertyPage__QAA_XZ @741
    ??0CMFCStatusBar@@QAA@XZ=stub___0CMFCStatusBar__QAA_XZ @742
    ??0CMFCTabCtrl@@QAA@XZ=stub___0CMFCTabCtrl__QAA_XZ @743
    ??0CMFCTasksPane@@QAA@XZ=stub___0CMFCTasksPane__QAA_XZ @744
    ??0CMFCTasksPaneFrameWnd@@QAA@XZ=stub___0CMFCTasksPaneFrameWnd__QAA_XZ @745
    ??0CMFCToolBar@@QAA@XZ=stub___0CMFCToolBar__QAA_XZ @746
    ??0CMFCToolBarButton@@QAA@IHPB_WHH@Z=stub___0CMFCToolBarButton__QAA_IHPB_WHH_Z @747
    ??0CMFCToolBarButton@@QAA@XZ=stub___0CMFCToolBarButton__QAA_XZ @748
    ??0CMFCToolBarButtonCustomizeDialog@@QAA@PAVCMFCToolBarButton@@PAVCMFCToolBarImages@@PAVCWnd@@HH@Z=stub___0CMFCToolBarButtonCustomizeDialog__QAA_PAVCMFCToolBarButton__PAVCMFCToolBarImages__PAVCWnd__HH_Z @749
    ??0CMFCToolBarButtonsListButton@@QAA@XZ=stub___0CMFCToolBarButtonsListButton__QAA_XZ @750
    ??0CMFCToolBarComboBoxButton@@QAA@IHKH@Z=stub___0CMFCToolBarComboBoxButton__QAA_IHKH_Z @751
    ??0CMFCToolBarComboBoxButton@@QAA@XZ=stub___0CMFCToolBarComboBoxButton__QAA_XZ @752
    ??0CMFCToolBarComboBoxEdit@@QAA@AAVCMFCToolBarComboBoxButton@@@Z=stub___0CMFCToolBarComboBoxEdit__QAA_AAVCMFCToolBarComboBoxButton___Z @753
    ??0CMFCToolBarDateTimeCtrl@@QAA@IHKH@Z=stub___0CMFCToolBarDateTimeCtrl__QAA_IHKH_Z @754
    ??0CMFCToolBarDateTimeCtrl@@QAA@XZ=stub___0CMFCToolBarDateTimeCtrl__QAA_XZ @755
    ??0CMFCToolBarDropSource@@QAA@XZ=stub___0CMFCToolBarDropSource__QAA_XZ @756
    ??0CMFCToolBarDropTarget@@QAA@XZ=stub___0CMFCToolBarDropTarget__QAA_XZ @757
    ??0CMFCToolBarEditBoxButton@@QAA@IHKH@Z=stub___0CMFCToolBarEditBoxButton__QAA_IHKH_Z @758
    ??0CMFCToolBarEditBoxButton@@QAA@XZ=stub___0CMFCToolBarEditBoxButton__QAA_XZ @759
    ??0CMFCToolBarEditCtrl@@QAA@AAVCMFCToolBarEditBoxButton@@@Z=stub___0CMFCToolBarEditCtrl__QAA_AAVCMFCToolBarEditBoxButton___Z @760
    ??0CMFCToolBarFontComboBox@@IAA@PAVCObList@@HEE@Z=stub___0CMFCToolBarFontComboBox__IAA_PAVCObList__HEE_Z @761
    ??0CMFCToolBarFontComboBox@@IAA@XZ=stub___0CMFCToolBarFontComboBox__IAA_XZ @762
    ??0CMFCToolBarFontComboBox@@QAA@IHHEKHE@Z=stub___0CMFCToolBarFontComboBox__QAA_IHHEKHE_Z @763
    ??0CMFCToolBarFontSizeComboBox@@IAA@XZ=stub___0CMFCToolBarFontSizeComboBox__IAA_XZ @764
    ??0CMFCToolBarFontSizeComboBox@@QAA@IHKH@Z=stub___0CMFCToolBarFontSizeComboBox__QAA_IHKH_Z @765
    ??0CMFCToolBarImages@@QAA@H@Z=stub___0CMFCToolBarImages__QAA_H_Z @766
    ??0CMFCToolBarImages@@QAA@XZ=stub___0CMFCToolBarImages__QAA_XZ @767
    ??0CMFCToolBarInfo@@QAA@XZ=stub___0CMFCToolBarInfo__QAA_XZ @768
    ??0CMFCToolBarMenuButton@@QAA@ABV0@@Z=stub___0CMFCToolBarMenuButton__QAA_ABV0__Z @769
    ??0CMFCToolBarMenuButton@@QAA@IPAUHMENU__@@HPB_WH@Z=stub___0CMFCToolBarMenuButton__QAA_IPAUHMENU____HPB_WH_Z @770
    ??0CMFCToolBarMenuButton@@QAA@XZ=stub___0CMFCToolBarMenuButton__QAA_XZ @771
    ??0CMFCToolBarMenuButtonsButton@@QAA@I@Z=stub___0CMFCToolBarMenuButtonsButton__QAA_I_Z @772
    ??0CMFCToolBarMenuButtonsButton@@QAA@XZ=stub___0CMFCToolBarMenuButtonsButton__QAA_XZ @773
    ??0CMFCToolBarNameDialog@@QAA@PAVCWnd@@@Z=stub___0CMFCToolBarNameDialog__QAA_PAVCWnd___Z @774
    ??0CMFCToolBarsCommandsListBox@@QAA@XZ=stub___0CMFCToolBarsCommandsListBox__QAA_XZ @775
    ??0CMFCToolBarsCommandsPropertyPage@@QAA@XZ=stub___0CMFCToolBarsCommandsPropertyPage__QAA_XZ @776
    ??0CMFCToolBarsCustomizeDialog@@QAA@PAVCFrameWnd@@HIPAV?$CList@PAUCRuntimeClass@@PAU1@@@@Z=stub___0CMFCToolBarsCustomizeDialog__QAA_PAVCFrameWnd__HIPAV__CList_PAUCRuntimeClass__PAU1____Z @777
    ??0CMFCToolBarsKeyboardPropertyPage@@QAA@PAVCFrameWnd@@H@Z=stub___0CMFCToolBarsKeyboardPropertyPage__QAA_PAVCFrameWnd__H_Z @778
    ??0CMFCToolBarsListCheckBox@@QAA@XZ=stub___0CMFCToolBarsListCheckBox__QAA_XZ @779
    ??0CMFCToolBarsListPropertyPage@@QAA@PAVCFrameWnd@@@Z=stub___0CMFCToolBarsListPropertyPage__QAA_PAVCFrameWnd___Z @780
    ??0CMFCToolBarsMenuPropertyPage@@QAA@PAVCFrameWnd@@H@Z=stub___0CMFCToolBarsMenuPropertyPage__QAA_PAVCFrameWnd__H_Z @781
    ??0CMFCToolBarsOptionsPropertyPage@@QAA@H@Z=stub___0CMFCToolBarsOptionsPropertyPage__QAA_H_Z @782
    ??0CMFCToolBarSpinEditBoxButton@@QAA@IHKH@Z=stub___0CMFCToolBarSpinEditBoxButton__QAA_IHKH_Z @783
    ??0CMFCToolBarSpinEditBoxButton@@QAA@XZ=stub___0CMFCToolBarSpinEditBoxButton__QAA_XZ @784
    ??0CMFCToolBarsToolsPropertyPage@@QAA@XZ=stub___0CMFCToolBarsToolsPropertyPage__QAA_XZ @785
    ??0CMFCToolBarSystemMenuButton@@QAA@PAUHMENU__@@PAUHICON__@@@Z=stub___0CMFCToolBarSystemMenuButton__QAA_PAUHMENU____PAUHICON_____Z @786
    ??0CMFCToolBarSystemMenuButton@@QAA@XZ=stub___0CMFCToolBarSystemMenuButton__QAA_XZ @787
    ??0CMFCToolTipCtrl@@QAA@PAVCMFCToolTipInfo@@@Z=stub___0CMFCToolTipCtrl__QAA_PAVCMFCToolTipInfo___Z @788
    ??0CMFCVisualManager@@QAA@H@Z=stub___0CMFCVisualManager__QAA_H_Z @789
    ??0CMFCVisualManagerBitmapCache@@QAA@XZ=stub___0CMFCVisualManagerBitmapCache__QAA_XZ @790
    ??0CMFCVisualManagerBitmapCacheItem@CMFCVisualManagerBitmapCache@@QAA@XZ=stub___0CMFCVisualManagerBitmapCacheItem_CMFCVisualManagerBitmapCache__QAA_XZ @791
    ??0CMFCVisualManagerOffice2003@@QAA@XZ=stub___0CMFCVisualManagerOffice2003__QAA_XZ @792
    ??0CMFCVisualManagerOffice2007@@IAA@XZ=stub___0CMFCVisualManagerOffice2007__IAA_XZ @793
    ??0CMFCVisualManagerOfficeXP@@IAA@H@Z=stub___0CMFCVisualManagerOfficeXP__IAA_H_Z @794
    ??0CMFCVisualManagerVS2005@@QAA@XZ=stub___0CMFCVisualManagerVS2005__QAA_XZ @795
    ??0CMFCVisualManagerVS2008@@QAA@XZ=stub___0CMFCVisualManagerVS2008__QAA_XZ @796
    ??0CMFCVisualManagerWindows@@QAA@H@Z=stub___0CMFCVisualManagerWindows__QAA_H_Z @797
    ??0CMFCVisualManagerWindows7@@QAA@XZ=stub___0CMFCVisualManagerWindows7__QAA_XZ @798
    ??0CMFCWindowsManagerDialog@@QAA@PAVCMDIFrameWndEx@@H@Z=stub___0CMFCWindowsManagerDialog__QAA_PAVCMDIFrameWndEx__H_Z @799
    ??0CMFCZoomKernel@@QAA@XZ=stub___0CMFCZoomKernel__QAA_XZ @800
    ??0CMiniDockFrameWnd@@QAA@XZ=stub___0CMiniDockFrameWnd__QAA_XZ @801
    ??0CMiniFrameWnd@@QAA@XZ=stub___0CMiniFrameWnd__QAA_XZ @802
    ??0CMouseManager@@QAA@XZ=stub___0CMouseManager__QAA_XZ @803
    ??0CMultiDocTemplate@@QAA@IPAUCRuntimeClass@@00@Z=stub___0CMultiDocTemplate__QAA_IPAUCRuntimeClass__00_Z @804
    ??0CMultiLock@@QAA@QAPAVCSyncObject@@KH@Z=stub___0CMultiLock__QAA_QAPAVCSyncObject__KH_Z @805
    ??0CMultiPageDHtmlDialog@@QAA@IIPAVCWnd@@@Z=stub___0CMultiPageDHtmlDialog__QAA_IIPAVCWnd___Z @806
    ??0CMultiPageDHtmlDialog@@QAA@PB_W0PAVCWnd@@@Z=stub___0CMultiPageDHtmlDialog__QAA_PB_W0PAVCWnd___Z @807
    ??0CMultiPageDHtmlDialog@@QAA@XZ=stub___0CMultiPageDHtmlDialog__QAA_XZ @808
    ??0CMultiPaneFrameWnd@@QAA@XZ=stub___0CMultiPaneFrameWnd__QAA_XZ @809
    ??0CMutex@@QAA@HPB_WPAU_SECURITY_ATTRIBUTES@@@Z=stub___0CMutex__QAA_HPB_WPAU_SECURITY_ATTRIBUTES___Z @810
    ??0CObArray@@QAA@XZ=stub___0CObArray__QAA_XZ @811
    ??0CObList@@QAA@H@Z=stub___0CObList__QAA_H_Z @812
    ??0COleBusyDialog@@QAA@PAUHTASK__@@HKPAVCWnd@@@Z=stub___0COleBusyDialog__QAA_PAUHTASK____HKPAVCWnd___Z @813
    ??0COleChangeIconDialog@@QAA@PAVCOleClientItem@@KPAVCWnd@@@Z=stub___0COleChangeIconDialog__QAA_PAVCOleClientItem__KPAVCWnd___Z @814
    ??0COleChangeSourceDialog@@QAA@PAVCOleClientItem@@PAVCWnd@@@Z=stub___0COleChangeSourceDialog__QAA_PAVCOleClientItem__PAVCWnd___Z @815
    ??0COleClientItem@@QAA@PAVCOleDocument@@@Z=stub___0COleClientItem__QAA_PAVCOleDocument___Z @816
    ??0COleCmdUI@@QAA@PAU_tagOLECMD@@KPBU_GUID@@@Z=stub___0COleCmdUI__QAA_PAU_tagOLECMD__KPBU_GUID___Z @817
    ??0COleCntrFrameWnd@@QAA@PAVCOleIPFrameWnd@@@Z=stub___0COleCntrFrameWnd__QAA_PAVCOleIPFrameWnd___Z @818
    ??0COleCntrFrameWndEx@@QAA@PAVCOleIPFrameWnd@@@Z=stub___0COleCntrFrameWndEx__QAA_PAVCOleIPFrameWnd___Z @819
    ??0COleControl@@QAA@XZ=stub___0COleControl__QAA_XZ @820
    ??0COleControlContainer@@QAA@PAVCWnd@@@Z=stub___0COleControlContainer__QAA_PAVCWnd___Z @821
    ??0COleControlLock@@QAA@ABU_GUID@@@Z=stub___0COleControlLock__QAA_ABU_GUID___Z @822
    ??0COleControlSite@@QAA@PAVCOleControlContainer@@@Z=stub___0COleControlSite__QAA_PAVCOleControlContainer___Z @823
    ??0COleControlSiteOrWnd@@QAA@PAUHWND__@@H@Z=stub___0COleControlSiteOrWnd__QAA_PAUHWND____H_Z @824
    ??0COleControlSiteOrWnd@@QAA@PAVCOleControlSite@@@Z=stub___0COleControlSiteOrWnd__QAA_PAVCOleControlSite___Z @825
    ??0COleControlSiteOrWnd@@QAA@XZ=stub___0COleControlSiteOrWnd__QAA_XZ @826
    ??0COleConvertDialog@@QAA@PAVCOleClientItem@@KPAU_GUID@@PAVCWnd@@@Z=stub___0COleConvertDialog__QAA_PAVCOleClientItem__KPAU_GUID__PAVCWnd___Z @827
    ??0COleCurrency@@QAA@JJ@Z=stub___0COleCurrency__QAA_JJ_Z @828
    ??0COleDataObject@@QAA@XZ=stub___0COleDataObject__QAA_XZ @829
    ??0COleDataSource@@QAA@XZ=stub___0COleDataSource__QAA_XZ @830
    ??0COleDialog@@QAA@PAVCWnd@@@Z=stub___0COleDialog__QAA_PAVCWnd___Z @831
    ??0COleDispatchDriver@@QAA@ABV0@@Z=stub___0COleDispatchDriver__QAA_ABV0__Z @832
    ??0COleDispatchDriver@@QAA@PAUIDispatch@@H@Z=stub___0COleDispatchDriver__QAA_PAUIDispatch__H_Z @833
    ??0COleDispatchDriver@@QAA@XZ=stub___0COleDispatchDriver__QAA_XZ @834
    ??0COleDispatchException@@QAA@PB_WIG@Z=stub___0COleDispatchException__QAA_PB_WIG_Z @835
    ??0COleDocIPFrameWnd@@QAA@XZ=stub___0COleDocIPFrameWnd__QAA_XZ @836
    ??0COleDocIPFrameWndEx@@IAA@XZ=stub___0COleDocIPFrameWndEx__IAA_XZ @837
    ??0COleDocObjectItem@@QAA@PAVCOleDocument@@@Z=stub___0COleDocObjectItem__QAA_PAVCOleDocument___Z @838
    ??0COleDocument@@QAA@XZ=stub___0COleDocument__QAA_XZ @839
    ??0COleDropSource@@QAA@XZ=stub___0COleDropSource__QAA_XZ @840
    ??0COleDropTarget@@QAA@XZ=stub___0COleDropTarget__QAA_XZ @841
    ??0COleFrameHook@@QAA@PAVCFrameWnd@@PAVCOleClientItem@@@Z=stub___0COleFrameHook__QAA_PAVCFrameWnd__PAVCOleClientItem___Z @842
    ??0COleInsertDialog@@QAA@KPAVCWnd@@@Z=stub___0COleInsertDialog__QAA_KPAVCWnd___Z @843
    ??0COleIPFrameWnd@@QAA@XZ=stub___0COleIPFrameWnd__QAA_XZ @844
    ??0COleIPFrameWndEx@@IAA@XZ=stub___0COleIPFrameWndEx__IAA_XZ @845
    ??0COleLinkingDoc@@QAA@XZ=stub___0COleLinkingDoc__QAA_XZ @846
    ??0COleLinksDialog@@QAA@PAVCOleDocument@@PAVCView@@KPAVCWnd@@@Z=stub___0COleLinksDialog__QAA_PAVCOleDocument__PAVCView__KPAVCWnd___Z @847
    ??0COleMessageFilter@@QAA@XZ=stub___0COleMessageFilter__QAA_XZ @848
    ??0COleObjectFactory@@QAA@ABU_GUID@@PAUCRuntimeClass@@HHPB_W@Z=stub___0COleObjectFactory__QAA_ABU_GUID__PAUCRuntimeClass__HHPB_W_Z @849
    ??0COleObjectFactory@@QAA@ABU_GUID@@PAUCRuntimeClass@@HPB_W@Z=stub___0COleObjectFactory__QAA_ABU_GUID__PAUCRuntimeClass__HPB_W_Z @850
    ??0COlePasteSpecialDialog@@QAA@KPAVCOleDataObject@@PAVCWnd@@@Z=stub___0COlePasteSpecialDialog__QAA_KPAVCOleDataObject__PAVCWnd___Z @851
    ??0COlePropertiesDialog@@QAA@PAVCOleClientItem@@IIPAVCWnd@@@Z=stub___0COlePropertiesDialog__QAA_PAVCOleClientItem__IIPAVCWnd___Z @852
    ??0COlePropertyPage@@QAA@II@Z=stub___0COlePropertyPage__QAA_II_Z @853
    ??0COleResizeBar@@QAA@XZ=stub___0COleResizeBar__QAA_XZ @854
    ??0COleSafeArray@@QAA@ABUtagSAFEARRAY@@G@Z=stub___0COleSafeArray__QAA_ABUtagSAFEARRAY__G_Z @855
    ??0COleSafeArray@@QAA@ABUtagVARIANT@@@Z=stub___0COleSafeArray__QAA_ABUtagVARIANT___Z @856
    ??0COleSafeArray@@QAA@ABV0@@Z=stub___0COleSafeArray__QAA_ABV0__Z @857
    ??0COleSafeArray@@QAA@ABVCOleVariant@@@Z=stub___0COleSafeArray__QAA_ABVCOleVariant___Z @858
    ??0COleSafeArray@@QAA@PBUtagSAFEARRAY@@G@Z=stub___0COleSafeArray__QAA_PBUtagSAFEARRAY__G_Z @859
    ??0COleSafeArray@@QAA@PBUtagVARIANT@@@Z=stub___0COleSafeArray__QAA_PBUtagVARIANT___Z @860
    ??0COleServerDoc@@QAA@XZ=stub___0COleServerDoc__QAA_XZ @861
    ??0COleServerDocEx@@IAA@XZ=stub___0COleServerDocEx__IAA_XZ @862
    ??0COleServerItem@@IAA@PAVCOleServerDoc@@H@Z=stub___0COleServerItem__IAA_PAVCOleServerDoc__H_Z @863
    ??0COleStreamFile@@QAA@PAUIStream@@@Z=stub___0COleStreamFile__QAA_PAUIStream___Z @864
    ??0COleTemplateServer@@QAA@XZ=stub___0COleTemplateServer__QAA_XZ @865
    ??0COleUILinkInfo@@QAA@PAVCOleClientItem@@@Z=stub___0COleUILinkInfo__QAA_PAVCOleClientItem___Z @866
    ??0COleUILinkInfo@@QAA@PAVCOleDocument@@@Z=stub___0COleUILinkInfo__QAA_PAVCOleDocument___Z @867
    ??0COleUpdateDialog@@QAA@PAVCOleDocument@@HHPAVCWnd@@@Z=stub___0COleUpdateDialog__QAA_PAVCOleDocument__HHPAVCWnd___Z @868
    ??0COleVariant@@QAA@ABUtagVARIANT@@@Z=stub___0COleVariant__QAA_ABUtagVARIANT___Z @869
    ??0COleVariant@@QAA@ABV0@@Z=stub___0COleVariant__QAA_ABV0__Z @870
    ??0COleVariant@@QAA@FG@Z=stub___0COleVariant__QAA_FG_Z @871
    ??0COleVariant@@QAA@JG@Z=stub___0COleVariant__QAA_JG_Z @872
    ??0COleVariant@@QAA@PB_WG@Z=stub___0COleVariant__QAA_PB_WG_Z @873
    ??0COleVariant@@QAA@PBUtagVARIANT@@@Z=stub___0COleVariant__QAA_PBUtagVARIANT___Z @874
    ??0COleVariant@@QAA@PFBU_ITEMIDLIST@@@Z=stub___0COleVariant__QAA_PFBU_ITEMIDLIST___Z @875
    ??0COutlookOptionsDlg@@QAA@AAVCMFCOutlookBarTabCtrl@@@Z=stub___0COutlookOptionsDlg__QAA_AAVCMFCOutlookBarTabCtrl___Z @876
    ??0CPageSetupDialog@@QAA@KPAVCWnd@@@Z=stub___0CPageSetupDialog__QAA_KPAVCWnd___Z @877
    ??0CPaintDC@@QAA@PAVCWnd@@@Z=stub___0CPaintDC__QAA_PAVCWnd___Z @878
    ??0CPane@@IAA@XZ=stub___0CPane__IAA_XZ @879
    ??0CPaneContainer@@QAA@PAVCPaneContainerManager@@PAVCDockablePane@@1PAVCPaneDivider@@@Z=stub___0CPaneContainer__QAA_PAVCPaneContainerManager__PAVCDockablePane__1PAVCPaneDivider___Z @880
    ??0CPaneContainerManager@@QAA@XZ=stub___0CPaneContainerManager__QAA_XZ @881
    ??0CPaneDialog@@QAA@XZ=stub___0CPaneDialog__QAA_XZ @882
    ??0CPaneDivider@@QAA@HPAVCWnd@@@Z=stub___0CPaneDivider__QAA_HPAVCWnd___Z @883
    ??0CPaneDivider@@QAA@XZ=stub___0CPaneDivider__QAA_XZ @884
    ??0CPaneFrameWnd@@QAA@XZ=stub___0CPaneFrameWnd__QAA_XZ @885
    ??0CPen@@QAA@HHK@Z=stub___0CPen__QAA_HHK_Z @886
    ??0CPen@@QAA@HHPBUtagLOGBRUSH@@HPBK@Z=stub___0CPen__QAA_HHPBUtagLOGBRUSH__HPBK_Z @887
    ??0CPictureHolder@@QAA@XZ=stub___0CPictureHolder__QAA_XZ @888
    ??0CPngImage@@QAA@XZ=stub___0CPngImage__QAA_XZ @889
    ??0CPreviewDC@@QAA@XZ=stub___0CPreviewDC__QAA_XZ @890
    ??0CPreviewView@@QAA@XZ=stub___0CPreviewView__QAA_XZ @891
    ??0CPreviewViewEx@@IAA@XZ=stub___0CPreviewViewEx__IAA_XZ @892
    ??0CPrintDialog@@IAA@AAUtagPDW@@@Z=stub___0CPrintDialog__IAA_AAUtagPDW___Z @893
    ??0CPrintDialog@@QAA@HKPAVCWnd@@@Z=stub___0CPrintDialog__QAA_HKPAVCWnd___Z @894
    ??0CPrintDialogEx@@QAA@KPAVCWnd@@@Z=stub___0CPrintDialogEx__QAA_KPAVCWnd___Z @895
    ??0CPrintInfo@@QAA@XZ=stub___0CPrintInfo__QAA_XZ @896
    ??0CPrintPreviewState@@QAA@XZ=stub___0CPrintPreviewState__QAA_XZ @897
    ??0CPropbagPropExchange@@QAA@PAUIPropertyBag@@PAUIErrorLog@@HH@Z=stub___0CPropbagPropExchange__QAA_PAUIPropertyBag__PAUIErrorLog__HH_Z @898
    ??0CProperty@@QAA@KQAXK@Z=stub___0CProperty__QAA_KQAXK_Z @899
    ??0CProperty@@QAA@XZ=stub___0CProperty__QAA_XZ @900
    ??0CPropertyPage@@QAA@IIIIK@Z=stub___0CPropertyPage__QAA_IIIIK_Z @901
    ??0CPropertyPage@@QAA@IIK@Z=stub___0CPropertyPage__QAA_IIK_Z @902
    ??0CPropertyPage@@QAA@PB_WIIIK@Z=stub___0CPropertyPage__QAA_PB_WIIIK_Z @903
    ??0CPropertyPage@@QAA@PB_WIK@Z=stub___0CPropertyPage__QAA_PB_WIK_Z @904
    ??0CPropertyPage@@QAA@XZ=stub___0CPropertyPage__QAA_XZ @905
    ??0CPropertySection@@QAA@U_GUID@@@Z=stub___0CPropertySection__QAA_U_GUID___Z @906
    ??0CPropertySection@@QAA@XZ=stub___0CPropertySection__QAA_XZ @907
    ??0CPropertySet@@QAA@U_GUID@@@Z=stub___0CPropertySet__QAA_U_GUID___Z @908
    ??0CPropertySet@@QAA@XZ=stub___0CPropertySet__QAA_XZ @909
    ??0CPropertySheet@@QAA@IPAVCWnd@@I@Z=stub___0CPropertySheet__QAA_IPAVCWnd__I_Z @910
    ??0CPropertySheet@@QAA@IPAVCWnd@@IPAUHBITMAP__@@PAUHPALETTE__@@1@Z=stub___0CPropertySheet__QAA_IPAVCWnd__IPAUHBITMAP____PAUHPALETTE____1_Z @911
    ??0CPropertySheet@@QAA@PB_WPAVCWnd@@I@Z=stub___0CPropertySheet__QAA_PB_WPAVCWnd__I_Z @912
    ??0CPropertySheet@@QAA@PB_WPAVCWnd@@IPAUHBITMAP__@@PAUHPALETTE__@@2@Z=stub___0CPropertySheet__QAA_PB_WPAVCWnd__IPAUHBITMAP____PAUHPALETTE____2_Z @913
    ??0CPropertySheet@@QAA@XZ=stub___0CPropertySheet__QAA_XZ @914
    ??0CPropsetPropExchange@@QAA@AAVCPropertySection@@PAUIStorage@@H@Z=stub___0CPropsetPropExchange__QAA_AAVCPropertySection__PAUIStorage__H_Z @915
    ??0CPtrArray@@QAA@XZ=stub___0CPtrArray__QAA_XZ @916
    ??0CPtrList@@QAA@H@Z=stub___0CPtrList__QAA_H_Z @917
    ??0CReBar@@QAA@XZ=stub___0CReBar__QAA_XZ @918
    ??0CRecentDockSiteInfo@@QAA@PAVCPane@@@Z=stub___0CRecentDockSiteInfo__QAA_PAVCPane___Z @919
    ??0CRecentFileList@@QAA@IPB_W0HH@Z=stub___0CRecentFileList__QAA_IPB_W0HH_Z @920
    ??0CRecentPaneContainerInfo@@QAA@XZ=stub___0CRecentPaneContainerInfo__QAA_XZ @921
    ??0CRecordset@@QAA@PAVCDatabase@@@Z=stub___0CRecordset__QAA_PAVCDatabase___Z @922
    ??0CRecordView@@IAA@I@Z=stub___0CRecordView__IAA_I_Z @923
    ??0CRecordView@@IAA@PB_W@Z=stub___0CRecordView__IAA_PB_W_Z @924
    ??0CRectTracker@@QAA@PBUtagRECT@@I@Z=stub___0CRectTracker__QAA_PBUtagRECT__I_Z @925
    ??0CRenderTarget@@QAA@XZ=stub___0CRenderTarget__QAA_XZ @926
    ??0CReObject@@QAA@PAVCRichEditCntrItem@@@Z=stub___0CReObject__QAA_PAVCRichEditCntrItem___Z @927
    ??0CReObject@@QAA@XZ=stub___0CReObject__QAA_XZ @928
    ??0CResetPropExchange@@QAA@XZ=stub___0CResetPropExchange__QAA_XZ @929
    ??0CRibbonCategoryScroll@@AAA@XZ=stub___0CRibbonCategoryScroll__AAA_XZ @930
    ??0CRichEditCntrItem@@QAA@PAU_reobject@@PAVCRichEditDoc@@@Z=stub___0CRichEditCntrItem__QAA_PAU_reobject__PAVCRichEditDoc___Z @931
    ??0CRichEditDoc@@IAA@XZ=stub___0CRichEditDoc__IAA_XZ @932
    ??0CRichEditView@@QAA@XZ=stub___0CRichEditView__QAA_XZ @933
    ??0CScreenWnd@@QAA@XZ=stub___0CScreenWnd__QAA_XZ @934
    ??0CScrollView@@IAA@XZ=stub___0CScrollView__IAA_XZ @935
    ??0CSemaphore@@QAA@JJPB_WPAU_SECURITY_ATTRIBUTES@@@Z=stub___0CSemaphore__QAA_JJPB_WPAU_SECURITY_ATTRIBUTES___Z @936
    ??0CSettingsStore@@IAA@XZ=stub___0CSettingsStore__IAA_XZ @937
    ??0CSettingsStore@@QAA@HH@Z=stub___0CSettingsStore__QAA_HH_Z @938
    ??0CSharedFile@@QAA@II@Z=stub___0CSharedFile__QAA_II_Z @939
    ??0CShellManager@@QAA@XZ=stub___0CShellManager__QAA_XZ @940
    ??0CSingleDocTemplate@@QAA@IPAUCRuntimeClass@@00@Z=stub___0CSingleDocTemplate__QAA_IPAUCRuntimeClass__00_Z @941
    ??0CSingleLock@@QAA@PAVCSyncObject@@H@Z=stub___0CSingleLock__QAA_PAVCSyncObject__H_Z @942
    ??0CSmartDockingGroupGuide@@QAA@XZ=stub___0CSmartDockingGroupGuide__QAA_XZ @943
    ??0CSmartDockingGroupGuidesManager@@QAA@XZ=stub___0CSmartDockingGroupGuidesManager__QAA_XZ @944
    ??0CSmartDockingGroupGuidesWnd@@IAA@XZ=stub___0CSmartDockingGroupGuidesWnd__IAA_XZ @945
    ??0CSmartDockingHighlighterWnd@@QAA@XZ=stub___0CSmartDockingHighlighterWnd__QAA_XZ @946
    ??0CSmartDockingInfo@@QAA@XZ=stub___0CSmartDockingInfo__QAA_XZ @947
    ??0CSmartDockingManager@@QAA@XZ=stub___0CSmartDockingManager__QAA_XZ @948
    ??0CSmartDockingStandaloneGuide@@QAA@XZ=stub___0CSmartDockingStandaloneGuide__QAA_XZ @949
    ??0CSmartDockingStandaloneGuideWnd@@QAA@XZ=stub___0CSmartDockingStandaloneGuideWnd__QAA_XZ @950
    ??0CSocket@@QAA@XZ=stub___0CSocket__QAA_XZ @951
    ??0CSocketFile@@QAA@PAVCSocket@@H@Z=stub___0CSocketFile__QAA_PAVCSocket__H_Z @952
    ??0CSocketWnd@@QAA@XZ=stub___0CSocketWnd__QAA_XZ @953
    ??0CSplitterWnd@@QAA@XZ=stub___0CSplitterWnd__QAA_XZ @954
    ??0CSplitterWndEx@@QAA@XZ=stub___0CSplitterWndEx__QAA_XZ @955
    ??0CStatusBar@@QAA@XZ=stub___0CStatusBar__QAA_XZ @956
    ??0CStdioFile@@QAA@PAU_iobuf@@@Z=stub___0CStdioFile__QAA_PAU_iobuf___Z @957
    ??0CStdioFile@@QAA@PAVCAtlTransactionManager@ATL@@@Z=stub___0CStdioFile__QAA_PAVCAtlTransactionManager_ATL___Z @958
    ??0CStdioFile@@QAA@PB_WI@Z=stub___0CStdioFile__QAA_PB_WI_Z @959
    ??0CStdioFile@@QAA@PB_WIPAVCAtlTransactionManager@ATL@@@Z=stub___0CStdioFile__QAA_PB_WIPAVCAtlTransactionManager_ATL___Z @960
    ??0CStdioFile@@QAA@XZ=stub___0CStdioFile__QAA_XZ @961
    ??0CStringArray@@QAA@XZ=stub___0CStringArray__QAA_XZ @962
    ??0CStringList@@QAA@H@Z=stub___0CStringList__QAA_H_Z @963
    ??0CSyncObject@@QAA@PB_W@Z=stub___0CSyncObject__QAA_PB_W_Z @964
    ??0CTabbedPane@@QAA@H@Z=stub___0CTabbedPane__QAA_H_Z @965
    ??0CTabView@@IAA@XZ=stub___0CTabView__IAA_XZ @966
    ??0CTagManager@@QAA@PB_W@Z=stub___0CTagManager__QAA_PB_W_Z @967
    ??0CTaskDialog@@QAA@ABV?$CStringT@_WV?$StrTraitMFC_DLL@_WV?$ChTraitsCRT@_W@ATL@@@@@ATL@@00HH0@Z=stub___0CTaskDialog__QAA_ABV__CStringT__WV__StrTraitMFC_DLL__WV__ChTraitsCRT__W_ATL_____ATL__00HH0_Z @968
    ??0CTaskDialog@@QAA@ABV?$CStringT@_WV?$StrTraitMFC_DLL@_WV?$ChTraitsCRT@_W@ATL@@@@@ATL@@00HHHH0@Z=stub___0CTaskDialog__QAA_ABV__CStringT__WV__StrTraitMFC_DLL__WV__ChTraitsCRT__W_ATL_____ATL__00HHHH0_Z @969
    ??0CTestCmdUI@@QAA@XZ=stub___0CTestCmdUI__QAA_XZ @970
    ??0CThreadSlotData@@QAA@XZ=stub___0CThreadSlotData__QAA_XZ @971
    ??0CToolBar@@QAA@XZ=stub___0CToolBar__QAA_XZ @972
    ??0CToolTipCtrl@@QAA@XZ=stub___0CToolTipCtrl__QAA_XZ @973
    ??0CTooltipManager@@QAA@XZ=stub___0CTooltipManager__QAA_XZ @974
    ??0CUIntArray@@QAA@XZ=stub___0CUIntArray__QAA_XZ @975
    ??0CUserTool@@QAA@XZ=stub___0CUserTool__QAA_XZ @976
    ??0CUserToolsManager@@QAA@IIIPAUCRuntimeClass@@II@Z=stub___0CUserToolsManager__QAA_IIIPAUCRuntimeClass__II_Z @977
    ??0CUserToolsManager@@QAA@XZ=stub___0CUserToolsManager__QAA_XZ @978
    ??0CView@@IAA@XZ=stub___0CView__IAA_XZ @979
    ??0CVSListBox@@QAA@XZ=stub___0CVSListBox__QAA_XZ @980
    ??0CVSListBoxBase@@IAA@XZ=stub___0CVSListBoxBase__IAA_XZ @981
    ??0CVSListBoxEditCtrl@@QAA@XZ=stub___0CVSListBoxEditCtrl__QAA_XZ @982
    ??0CWinApp@@QAA@PB_W@Z=stub___0CWinApp__QAA_PB_W_Z @983
    ??0CWinAppEx@@QAA@H@Z=stub___0CWinAppEx__QAA_H_Z @984
    ??0CWindowDC@@QAA@PAVCWnd@@@Z=stub___0CWindowDC__QAA_PAVCWnd___Z @985
    ??0CWindowlessDC@@QAA@PAUHDC__@@AAVCPoint@@@Z=stub___0CWindowlessDC__QAA_PAUHDC____AAVCPoint___Z @986
    ??0CWinThread@@QAA@P6AIPAX@Z0@Z=stub___0CWinThread__QAA_P6AIPAX_Z0_Z @987
    ??0CWinThread@@QAA@XZ=stub___0CWinThread__QAA_XZ @988
    ??0CWnd@@AAA@PAUHWND__@@@Z=stub___0CWnd__AAA_PAUHWND_____Z @989
    ??0CWnd@@QAA@XZ=stub___0CWnd__QAA_XZ @990
    ??0CWordArray@@QAA@XZ=stub___0CWordArray__QAA_XZ @991
    ??0CXMLParserCollection@@IAA@PAUIXMLDOMNodeList@@@Z=stub___0CXMLParserCollection__IAA_PAUIXMLDOMNodeList___Z @992
    ??0PAGE_INFO@CPreviewView@@QAA@XZ=stub___0PAGE_INFO_CPreviewView__QAA_XZ @993
    ??0XBase@CMFCRibbonInfo@@IAA@W4XElementType@1@@Z=stub___0XBase_CMFCRibbonInfo__IAA_W4XElementType_1__Z @994
    ??0XCategory@CMFCRibbonInfo@@QAA@XZ=stub___0XCategory_CMFCRibbonInfo__QAA_XZ @995
    ??0XCategoryMain@CMFCRibbonInfo@@QAA@XZ=stub___0XCategoryMain_CMFCRibbonInfo__QAA_XZ @996
    ??0XContext@CMFCRibbonInfo@@QAA@XZ=stub___0XContext_CMFCRibbonInfo__QAA_XZ @997
    ??0XElement@CMFCRibbonInfo@@IAA@W4XElementType@1@@Z=stub___0XElement_CMFCRibbonInfo__IAA_W4XElementType_1__Z @998
    ??0XElementButton@CMFCRibbonInfo@@IAA@W4XElementType@1@@Z=stub___0XElementButton_CMFCRibbonInfo__IAA_W4XElementType_1__Z @999
    ??0XElementButton@CMFCRibbonInfo@@QAA@XZ=stub___0XElementButton_CMFCRibbonInfo__QAA_XZ @1000
    ??0XElementButtonApplication@CMFCRibbonInfo@@QAA@XZ=stub___0XElementButtonApplication_CMFCRibbonInfo__QAA_XZ @1001
    ??0XElementButtonCheck@CMFCRibbonInfo@@QAA@XZ=stub___0XElementButtonCheck_CMFCRibbonInfo__QAA_XZ @1002
    ??0XElementButtonColor@CMFCRibbonInfo@@QAA@XZ=stub___0XElementButtonColor_CMFCRibbonInfo__QAA_XZ @1003
    ??0XElementButtonGallery@CMFCRibbonInfo@@IAA@W4XElementType@1@@Z=stub___0XElementButtonGallery_CMFCRibbonInfo__IAA_W4XElementType_1__Z @1004
    ??0XElementButtonGallery@CMFCRibbonInfo@@QAA@XZ=stub___0XElementButtonGallery_CMFCRibbonInfo__QAA_XZ @1005
    ??0XElementButtonLaunch@CMFCRibbonInfo@@QAA@XZ=stub___0XElementButtonLaunch_CMFCRibbonInfo__QAA_XZ @1006
    ??0XElementButtonLinkCtrl@CMFCRibbonInfo@@QAA@XZ=stub___0XElementButtonLinkCtrl_CMFCRibbonInfo__QAA_XZ @1007
    ??0XElementButtonMainPanel@CMFCRibbonInfo@@QAA@XZ=stub___0XElementButtonMainPanel_CMFCRibbonInfo__QAA_XZ @1008
    ??0XElementButtonUndo@CMFCRibbonInfo@@QAA@XZ=stub___0XElementButtonUndo_CMFCRibbonInfo__QAA_XZ @1009
    ??0XElementComboBox@CMFCRibbonInfo@@IAA@W4XElementType@1@@Z=stub___0XElementComboBox_CMFCRibbonInfo__IAA_W4XElementType_1__Z @1010
    ??0XElementComboBox@CMFCRibbonInfo@@QAA@XZ=stub___0XElementComboBox_CMFCRibbonInfo__QAA_XZ @1011
    ??0XElementEdit@CMFCRibbonInfo@@IAA@W4XElementType@1@@Z=stub___0XElementEdit_CMFCRibbonInfo__IAA_W4XElementType_1__Z @1012
    ??0XElementEdit@CMFCRibbonInfo@@QAA@XZ=stub___0XElementEdit_CMFCRibbonInfo__QAA_XZ @1013
    ??0XElementFontComboBox@CMFCRibbonInfo@@QAA@XZ=stub___0XElementFontComboBox_CMFCRibbonInfo__QAA_XZ @1014
    ??0XElementGroup@CMFCRibbonInfo@@QAA@XZ=stub___0XElementGroup_CMFCRibbonInfo__QAA_XZ @1015
    ??0XElementLabel@CMFCRibbonInfo@@QAA@XZ=stub___0XElementLabel_CMFCRibbonInfo__QAA_XZ @1016
    ??0XElementProgressBar@CMFCRibbonInfo@@QAA@XZ=stub___0XElementProgressBar_CMFCRibbonInfo__QAA_XZ @1017
    ??0XElementSeparator@CMFCRibbonInfo@@QAA@XZ=stub___0XElementSeparator_CMFCRibbonInfo__QAA_XZ @1018
    ??0XElementSlider@CMFCRibbonInfo@@QAA@XZ=stub___0XElementSlider_CMFCRibbonInfo__QAA_XZ @1019
    ??0XGalleryGroup@XElementButtonGallery@CMFCRibbonInfo@@QAA@XZ=stub___0XGalleryGroup_XElementButtonGallery_CMFCRibbonInfo__QAA_XZ @1020
    ??0XID@CMFCRibbonInfo@@QAA@XZ=stub___0XID_CMFCRibbonInfo__QAA_XZ @1021
    ??0XImage@CMFCRibbonInfo@@QAA@XZ=stub___0XImage_CMFCRibbonInfo__QAA_XZ @1022
    ??0XInfoError@CMFCRibbonInfo@@QAA@XZ=stub___0XInfoError_CMFCRibbonInfo__QAA_XZ @1023
    ??0XPanel@CMFCRibbonInfo@@QAA@XZ=stub___0XPanel_CMFCRibbonInfo__QAA_XZ @1024
    ??0XQAT@CMFCRibbonInfo@@QAA@XZ=stub___0XQAT_CMFCRibbonInfo__QAA_XZ @1025
    ??0XQATItem@XQAT@CMFCRibbonInfo@@QAA@XZ=stub___0XQATItem_XQAT_CMFCRibbonInfo__QAA_XZ @1026
    ??0XRibbonBar@CMFCRibbonInfo@@QAA@XZ=stub___0XRibbonBar_CMFCRibbonInfo__QAA_XZ @1027
    ??0XRibbonInfoParser@CMFCRibbonInfo@@IAA@XZ=stub___0XRibbonInfoParser_CMFCRibbonInfo__IAA_XZ @1028
    ??0XRibbonInfoParserCollection@CMFCRibbonInfo@@IAA@XZ=stub___0XRibbonInfoParserCollection_CMFCRibbonInfo__IAA_XZ @1029
    ??0XRibbonInfoParserRoot@CMFCRibbonInfo@@IAA@XZ=stub___0XRibbonInfoParserRoot_CMFCRibbonInfo__IAA_XZ @1030
    ??1?$CSimpleStringT@_W$00@ATL@@QAA@XZ=stub___1__CSimpleStringT__W_00_ATL__QAA_XZ @1031
    ??1?$CSimpleStringT@D$00@ATL@@QAA@XZ=stub___1__CSimpleStringT_D_00_ATL__QAA_XZ @1032
    ??1?$CStringT@_WV?$StrTraitMFC_DLL@_WV?$ChTraitsCRT@_W@ATL@@@@@ATL@@QAA@XZ=stub___1__CStringT__WV__StrTraitMFC_DLL__WV__ChTraitsCRT__W_ATL_____ATL__QAA_XZ @1033
    ??1?$CStringT@DV?$StrTraitMFC_DLL@DV?$ChTraitsCRT@D@ATL@@@@@ATL@@QAA@XZ=stub___1__CStringT_DV__StrTraitMFC_DLL_DV__ChTraitsCRT_D_ATL_____ATL__QAA_XZ @1034
    ??1_AFX_D2D_STATE@@UAA@XZ=stub___1_AFX_D2D_STATE__UAA_XZ @1035
    ??1_AFX_THREAD_STATE@@UAA@XZ=stub___1_AFX_THREAD_STATE__UAA_XZ @1036
    ??1AFX_GLOBAL_DATA@@QAA@XZ=stub___1AFX_GLOBAL_DATA__QAA_XZ @1037
    ??1AFX_MAINTAIN_STATE@@QAA@XZ=stub___1AFX_MAINTAIN_STATE__QAA_XZ @1038
    ??1AFX_MAINTAIN_STATE2@@QAA@XZ=stub___1AFX_MAINTAIN_STATE2__QAA_XZ @1039
    ??1AFX_MODULE_STATE@@UAA@XZ=stub___1AFX_MODULE_STATE__UAA_XZ @1040
    ??1AFX_MODULE_THREAD_STATE@@UAA@XZ=stub___1AFX_MODULE_THREAD_STATE__UAA_XZ @1041
    ??1CAnimateCtrl@@UAA@XZ=stub___1CAnimateCtrl__UAA_XZ @1042
    ??1CAnimationBaseObject@@UAA@XZ=stub___1CAnimationBaseObject__UAA_XZ @1043
    ??1CAnimationController@@UAA@XZ=stub___1CAnimationController__UAA_XZ @1044
    ??1CAnimationGroup@@QAA@XZ=stub___1CAnimationGroup__QAA_XZ @1045
    ??1CAnimationVariable@@UAA@XZ=stub___1CAnimationVariable__UAA_XZ @1046
    ??1CArchive@@QAA@XZ=stub___1CArchive__QAA_XZ @1047
    ??1CAsyncMonikerFile@@UAA@XZ=stub___1CAsyncMonikerFile__UAA_XZ @1048
    ??1CAsyncSocket@@UAA@XZ=stub___1CAsyncSocket__UAA_XZ @1049
    ??1CAutoHideDockSite@@UAA@XZ=stub___1CAutoHideDockSite__UAA_XZ @1050
    ??1CBasePane@@UAA@XZ=stub___1CBasePane__UAA_XZ @1051
    ??1CBaseTabbedPane@@UAA@XZ=stub___1CBaseTabbedPane__UAA_XZ @1052
    ??1CButton@@UAA@XZ=stub___1CButton__UAA_XZ @1053
    ??1CByteArray@@UAA@XZ=stub___1CByteArray__UAA_XZ @1054
    ??1CClientDC@@UAA@XZ=stub___1CClientDC__UAA_XZ @1055
    ??1CCmdTarget@@UAA@XZ=stub___1CCmdTarget__UAA_XZ @1056
    ??1CComboBox@@UAA@XZ=stub___1CComboBox__UAA_XZ @1057
    ??1CComboBoxEx@@UAA@XZ=stub___1CComboBoxEx__UAA_XZ @1058
    ??1CCommandLineInfo@@UAA@XZ=stub___1CCommandLineInfo__UAA_XZ @1059
    ??1CCommandManager@@UAA@XZ=stub___1CCommandManager__UAA_XZ @1060
    ??1CConnectionPoint@@UAA@XZ=stub___1CConnectionPoint__UAA_XZ @1061
    ??1CContextMenuManager@@UAA@XZ=stub___1CContextMenuManager__UAA_XZ @1062
    ??1CControlBar@@UAA@XZ=stub___1CControlBar__UAA_XZ @1063
    ??1CControlSiteFactoryMgr@@UAA@XZ=stub___1CControlSiteFactoryMgr__UAA_XZ @1064
    ??1CCtrlView@@UAA@XZ=stub___1CCtrlView__UAA_XZ @1065
    ??1CD2DBitmap@@UAA@XZ=stub___1CD2DBitmap__UAA_XZ @1066
    ??1CD2DBitmapBrush@@UAA@XZ=stub___1CD2DBitmapBrush__UAA_XZ @1067
    ??1CD2DBrush@@MAA@XZ=stub___1CD2DBrush__MAA_XZ @1068
    ??1CD2DGeometry@@UAA@XZ=stub___1CD2DGeometry__UAA_XZ @1069
    ??1CD2DGeometrySink@@UAA@XZ=stub___1CD2DGeometrySink__UAA_XZ @1070
    ??1CD2DGradientBrush@@UAA@XZ=stub___1CD2DGradientBrush__UAA_XZ @1071
    ??1CD2DLayer@@UAA@XZ=stub___1CD2DLayer__UAA_XZ @1072
    ??1CD2DLinearGradientBrush@@UAA@XZ=stub___1CD2DLinearGradientBrush__UAA_XZ @1073
    ??1CD2DMesh@@UAA@XZ=stub___1CD2DMesh__UAA_XZ @1074
    ??1CD2DRadialGradientBrush@@UAA@XZ=stub___1CD2DRadialGradientBrush__UAA_XZ @1075
    ??1CD2DResource@@MAA@XZ=stub___1CD2DResource__MAA_XZ @1076
    ??1CD2DSolidColorBrush@@UAA@XZ=stub___1CD2DSolidColorBrush__UAA_XZ @1077
    ??1CD2DTextFormat@@UAA@XZ=stub___1CD2DTextFormat__UAA_XZ @1078
    ??1CD2DTextLayout@@UAA@XZ=stub___1CD2DTextLayout__UAA_XZ @1079
    ??1CDatabase@@UAA@XZ=stub___1CDatabase__UAA_XZ @1080
    ??1CDataRecoveryHandler@@UAA@XZ=stub___1CDataRecoveryHandler__UAA_XZ @1081
    ??1CDateTimeCtrl@@UAA@XZ=stub___1CDateTimeCtrl__UAA_XZ @1083
    ??1CDBException@@UAA@XZ=stub___1CDBException__UAA_XZ @1084
    ??1CDBVariant@@UAA@XZ=stub___1CDBVariant__UAA_XZ @1085
    ??1CDC@@UAA@XZ=stub___1CDC__UAA_XZ @1086
    ??1CDHtmlControlSink@@UAA@XZ=stub___1CDHtmlControlSink__UAA_XZ @1087
    ??1CDHtmlDialog@@UAA@XZ=stub___1CDHtmlDialog__UAA_XZ @1088
    ??1CDialog@@UAA@XZ=stub___1CDialog__UAA_XZ @1089
    ??1CDialogBar@@UAA@XZ=stub___1CDialogBar__UAA_XZ @1090
    ??1CDialogImpl@@MAA@XZ=stub___1CDialogImpl__MAA_XZ @1091
    ??1CDialogTemplate@@QAA@XZ=stub___1CDialogTemplate__QAA_XZ @1092
    ??1CDocItem@@UAA@XZ=stub___1CDocItem__UAA_XZ @1093
    ??1CDockablePane@@UAA@XZ=stub___1CDockablePane__UAA_XZ @1094
    ??1CDockablePaneAdapter@@UAA@XZ=stub___1CDockablePaneAdapter__UAA_XZ @1095
    ??1CDockBar@@UAA@XZ=stub___1CDockBar__UAA_XZ @1096
    ??1CDockContext@@UAA@XZ=stub___1CDockContext__UAA_XZ @1097
    ??1CDockingManager@@UAA@XZ=stub___1CDockingManager__UAA_XZ @1098
    ??1CDockingPanesRow@@UAA@XZ=stub___1CDockingPanesRow__UAA_XZ @1099
    ??1CDockSite@@UAA@XZ=stub___1CDockSite__UAA_XZ @1100
    ??1CDockState@@UAA@XZ=stub___1CDockState__UAA_XZ @1101
    ??1CDocManager@@UAA@XZ=stub___1CDocManager__UAA_XZ @1102
    ??1CDocObjectServer@@UAA@XZ=stub___1CDocObjectServer__UAA_XZ @1103
    ??1CDocObjectServerItem@@UAA@XZ=stub___1CDocObjectServerItem__UAA_XZ @1104
    ??1CDocTemplate@@UAA@XZ=stub___1CDocTemplate__UAA_XZ @1105
    ??1CDocument@@UAA@XZ=stub___1CDocument__UAA_XZ @1106
    ??1CDragListBox@@UAA@XZ=stub___1CDragListBox__UAA_XZ @1107
    ??1CDrawingManager@@UAA@XZ=stub___1CDrawingManager__UAA_XZ @1108
    ??1CDWordArray@@UAA@XZ=stub___1CDWordArray__UAA_XZ @1109
    ??1CDynLinkLibrary@@UAA@XZ=stub___1CDynLinkLibrary__UAA_XZ @1110
    ??1CEdit@@UAA@XZ=stub___1CEdit__UAA_XZ @1111
    ??1CEditView@@UAA@XZ=stub___1CEditView__UAA_XZ @1112
    ??1CEnumArray@@UAA@XZ=stub___1CEnumArray__UAA_XZ @1113
    ??1CEnumConnections@@UAA@XZ=stub___1CEnumConnections__UAA_XZ @1114
    ??1CEnumConnPoints@@UAA@XZ=stub___1CEnumConnPoints__UAA_XZ @1115
    ??1CEnumFormatEtc@@UAA@XZ=stub___1CEnumFormatEtc__UAA_XZ @1116
    ??1CEnumOleVerb@@UAA@XZ=stub___1CEnumOleVerb__UAA_XZ @1117
    ??1CEnumUnknown@@UAA@XZ=stub___1CEnumUnknown__UAA_XZ @1118
    ??1CEvent@@UAA@XZ=stub___1CEvent__UAA_XZ @1119
    ??1CFile@@UAA@XZ=stub___1CFile__UAA_XZ @1120
    ??1CFileDialog@@UAA@XZ=stub___1CFileDialog__UAA_XZ @1121
    ??1CFileFind@@UAA@XZ=stub___1CFileFind__UAA_XZ @1122
    ??1CFixedAlloc@@QAA@XZ=stub___1CFixedAlloc__QAA_XZ @1123
    ??1CFixedAllocNoSync@@QAA@XZ=stub___1CFixedAllocNoSync__QAA_XZ @1124
    ??1CFolderPickerDialog@@UAA@XZ=stub___1CFolderPickerDialog__UAA_XZ @1125
    ??1CFontHolder@@QAA@XZ=stub___1CFontHolder__QAA_XZ @1126
    ??1CFormView@@UAA@XZ=stub___1CFormView__UAA_XZ @1127
    ??1CFrameImpl@@UAA@XZ=stub___1CFrameImpl__UAA_XZ @1128
    ??1CFrameWnd@@UAA@XZ=stub___1CFrameWnd__UAA_XZ @1129
    ??1CFrameWndEx@@MAA@XZ=stub___1CFrameWndEx__MAA_XZ @1130
    ??1CFtpConnection@@UAA@XZ=stub___1CFtpConnection__UAA_XZ @1131
    ??1CFtpFileFind@@UAA@XZ=stub___1CFtpFileFind__UAA_XZ @1132
    ??1CFullScreenImpl@@UAA@XZ=stub___1CFullScreenImpl__UAA_XZ @1133
    ??1CGestureConfig@@UAA@XZ=stub___1CGestureConfig__UAA_XZ @1134
    ??1CGlobalUtils@@UAA@XZ=stub___1CGlobalUtils__UAA_XZ @1135
    ??1CGopherConnection@@UAA@XZ=stub___1CGopherConnection__UAA_XZ @1136
    ??1CGopherFile@@UAA@XZ=stub___1CGopherFile__UAA_XZ @1137
    ??1CGopherFileFind@@UAA@XZ=stub___1CGopherFileFind__UAA_XZ @1138
    ??1CGopherLocator@@UAA@XZ=stub___1CGopherLocator__UAA_XZ @1139
    ??1CHeaderCtrl@@UAA@XZ=stub___1CHeaderCtrl__UAA_XZ @1140
    ??1CHotKeyCtrl@@UAA@XZ=stub___1CHotKeyCtrl__UAA_XZ @1141
    ??1CHtmlControlSite@@UAA@XZ=stub___1CHtmlControlSite__UAA_XZ @1142
    ??1CHtmlEditCtrl@@UAA@XZ=stub___1CHtmlEditCtrl__UAA_XZ @1143
    ??1CHtmlEditDoc@@UAA@XZ=stub___1CHtmlEditDoc__UAA_XZ @1144
    ??1CHtmlEditView@@UAA@XZ=stub___1CHtmlEditView__UAA_XZ @1145
    ??1CHtmlView@@UAA@XZ=stub___1CHtmlView__UAA_XZ @1146
    ??1CHttpConnection@@UAA@XZ=stub___1CHttpConnection__UAA_XZ @1147
    ??1CHttpFile@@UAA@XZ=stub___1CHttpFile__UAA_XZ @1148
    ??1CImageList@@UAA@XZ=stub___1CImageList__UAA_XZ @1149
    ??1CInternetConnection@@UAA@XZ=stub___1CInternetConnection__UAA_XZ @1150
    ??1CInternetException@@UAA@XZ=stub___1CInternetException__UAA_XZ @1151
    ??1CInternetFile@@UAA@XZ=stub___1CInternetFile__UAA_XZ @1152
    ??1CInternetSession@@UAA@XZ=stub___1CInternetSession__UAA_XZ @1153
    ??1CIPAddressCtrl@@UAA@XZ=stub___1CIPAddressCtrl__UAA_XZ @1154
    ??1CJumpList@@QAA@XZ=stub___1CJumpList__QAA_XZ @1155
    ??1CKeyboardManager@@UAA@XZ=stub___1CKeyboardManager__UAA_XZ @1156
    ??1CListBox@@UAA@XZ=stub___1CListBox__UAA_XZ @1157
    ??1CListCtrl@@UAA@XZ=stub___1CListCtrl__UAA_XZ @1158
    ??1CLongBinary@@UAA@XZ=stub___1CLongBinary__UAA_XZ @1159
    ??1CMapPtrToPtr@@UAA@XZ=stub___1CMapPtrToPtr__UAA_XZ @1160
    ??1CMapPtrToWord@@UAA@XZ=stub___1CMapPtrToWord__UAA_XZ @1161
    ??1CMapStringToOb@@UAA@XZ=stub___1CMapStringToOb__UAA_XZ @1162
    ??1CMapStringToPtr@@UAA@XZ=stub___1CMapStringToPtr__UAA_XZ @1163
    ??1CMapStringToString@@UAA@XZ=stub___1CMapStringToString__UAA_XZ @1164
    ??1CMapWordToOb@@UAA@XZ=stub___1CMapWordToOb__UAA_XZ @1165
    ??1CMapWordToPtr@@UAA@XZ=stub___1CMapWordToPtr__UAA_XZ @1166
    ??1CMDIChildWndEx@@MAA@XZ=stub___1CMDIChildWndEx__MAA_XZ @1167
    ??1CMDIClientAreaWnd@@UAA@XZ=stub___1CMDIClientAreaWnd__UAA_XZ @1168
    ??1CMDIFrameWndEx@@MAA@XZ=stub___1CMDIFrameWndEx__MAA_XZ @1169
    ??1CMDITabProxyWnd@@UAA@XZ=stub___1CMDITabProxyWnd__UAA_XZ @1170
    ??1CMemDC@@UAA@XZ=stub___1CMemDC__UAA_XZ @1171
    ??1CMemFile@@UAA@XZ=stub___1CMemFile__UAA_XZ @1172
    ??1CMenuHash@@UAA@XZ=stub___1CMenuHash__UAA_XZ @1173
    ??1CMenuTearOffManager@@UAA@XZ=stub___1CMenuTearOffManager__UAA_XZ @1174
    ??1CMetaFileDC@@UAA@XZ=stub___1CMetaFileDC__UAA_XZ @1175
    ??1CMFCAcceleratorKey@@UAA@XZ=stub___1CMFCAcceleratorKey__UAA_XZ @1176
    ??1CMFCAcceleratorKeyAssignCtrl@@UAA@XZ=stub___1CMFCAcceleratorKeyAssignCtrl__UAA_XZ @1177
    ??1CMFCAutoHideBar@@UAA@XZ=stub___1CMFCAutoHideBar__UAA_XZ @1178
    ??1CMFCAutoHideButton@@UAA@XZ=stub___1CMFCAutoHideButton__UAA_XZ @1179
    ??1CMFCBaseAccessibleObject@@UAA@XZ=stub___1CMFCBaseAccessibleObject__UAA_XZ @1180
    ??1CMFCBaseTabCtrl@@UAA@XZ=stub___1CMFCBaseTabCtrl__UAA_XZ @1181
    ??1CMFCBaseToolBar@@UAA@XZ=stub___1CMFCBaseToolBar__UAA_XZ @1182
    ??1CMFCBaseVisualManager@@UAA@XZ=stub___1CMFCBaseVisualManager__UAA_XZ @1183
    ??1CMFCButton@@UAA@XZ=stub___1CMFCButton__UAA_XZ @1184
    ??1CMFCCaptionBar@@UAA@XZ=stub___1CMFCCaptionBar__UAA_XZ @1185
    ??1CMFCCaptionButton@@UAA@XZ=stub___1CMFCCaptionButton__UAA_XZ @1186
    ??1CMFCCaptionButtonEx@@UAA@XZ=stub___1CMFCCaptionButtonEx__UAA_XZ @1187
    ??1CMFCCaptionMenuButton@@UAA@XZ=stub___1CMFCCaptionMenuButton__UAA_XZ @1188
    ??1CMFCCmdUsageCount@@UAA@XZ=stub___1CMFCCmdUsageCount__UAA_XZ @1189
    ??1CMFCColorBar@@UAA@XZ=stub___1CMFCColorBar__UAA_XZ @1190
    ??1CMFCColorButton@@UAA@XZ=stub___1CMFCColorButton__UAA_XZ @1191
    ??1CMFCColorDialog@@UAA@XZ=stub___1CMFCColorDialog__UAA_XZ @1192
    ??1CMFCColorMenuButton@@UAA@XZ=stub___1CMFCColorMenuButton__UAA_XZ @1193
    ??1CMFCColorPickerCtrl@@UAA@XZ=stub___1CMFCColorPickerCtrl__UAA_XZ @1194
    ??1CMFCColorPopupMenu@@UAA@XZ=stub___1CMFCColorPopupMenu__UAA_XZ @1195
    ??1CMFCColorPropertySheet@@UAA@XZ=stub___1CMFCColorPropertySheet__UAA_XZ @1196
    ??1CMFCControlBarImpl@@UAA@XZ=stub___1CMFCControlBarImpl__UAA_XZ @1197
    ??1CMFCControlContainer@@UAA@XZ=stub___1CMFCControlContainer__UAA_XZ @1198
    ??1CMFCControlRenderer@@UAA@XZ=stub___1CMFCControlRenderer__UAA_XZ @1199
    ??1CMFCControlRendererInfo@@QAA@XZ=stub___1CMFCControlRendererInfo__QAA_XZ @1200
    ??1CMFCCustomizeButton@@UAA@XZ=stub___1CMFCCustomizeButton__UAA_XZ @1201
    ??1CMFCCustomizeMenuButton@@UAA@XZ=stub___1CMFCCustomizeMenuButton__UAA_XZ @1202
    ??1CMFCDesktopAlertDialog@@UAA@XZ=stub___1CMFCDesktopAlertDialog__UAA_XZ @1203
    ??1CMFCDesktopAlertWnd@@UAA@XZ=stub___1CMFCDesktopAlertWnd__UAA_XZ @1204
    ??1CMFCDragFrameImpl@@UAA@XZ=stub___1CMFCDragFrameImpl__UAA_XZ @1205
    ??1CMFCDropDownFrame@@UAA@XZ=stub___1CMFCDropDownFrame__UAA_XZ @1206
    ??1CMFCDropDownListBox@@UAA@XZ=stub___1CMFCDropDownListBox__UAA_XZ @1207
    ??1CMFCDropDownToolbarButton@@UAA@XZ=stub___1CMFCDropDownToolbarButton__UAA_XZ @1208
    ??1CMFCEditBrowseCtrl@@UAA@XZ=stub___1CMFCEditBrowseCtrl__UAA_XZ @1209
    ??1CMFCFilterChunkValueImpl@@UAA@XZ=stub___1CMFCFilterChunkValueImpl__UAA_XZ @1210
    ??1CMFCFontComboBox@@UAA@XZ=stub___1CMFCFontComboBox__UAA_XZ @1211
    ??1CMFCHeaderCtrl@@UAA@XZ=stub___1CMFCHeaderCtrl__UAA_XZ @1212
    ??1CMFCImagePaintArea@@UAA@XZ=stub___1CMFCImagePaintArea__UAA_XZ @1213
    ??1CMFCKeyMapDialog@@UAA@XZ=stub___1CMFCKeyMapDialog__UAA_XZ @1214
    ??1CMFCLinkCtrl@@UAA@XZ=stub___1CMFCLinkCtrl__UAA_XZ @1215
    ??1CMFCListCtrl@@UAA@XZ=stub___1CMFCListCtrl__UAA_XZ @1216
    ??1CMFCMaskedEdit@@UAA@XZ=stub___1CMFCMaskedEdit__UAA_XZ @1217
    ??1CMFCMenuBar@@UAA@XZ=stub___1CMFCMenuBar__UAA_XZ @1218
    ??1CMFCMenuButton@@UAA@XZ=stub___1CMFCMenuButton__UAA_XZ @1219
    ??1CMFCMousePropertyPage@@UAA@XZ=stub___1CMFCMousePropertyPage__UAA_XZ @1220
    ??1CMFCOutlookBar@@UAA@XZ=stub___1CMFCOutlookBar__UAA_XZ @1221
    ??1CMFCOutlookBarPane@@UAA@XZ=stub___1CMFCOutlookBarPane__UAA_XZ @1222
    ??1CMFCOutlookBarPaneAdapter@@UAA@XZ=stub___1CMFCOutlookBarPaneAdapter__UAA_XZ @1223
    ??1CMFCOutlookBarPaneButton@@UAA@XZ=stub___1CMFCOutlookBarPaneButton__UAA_XZ @1224
    ??1CMFCOutlookBarTabCtrl@@UAA@XZ=stub___1CMFCOutlookBarTabCtrl__UAA_XZ @1225
    ??1CMFCPopupMenu@@UAA@XZ=stub___1CMFCPopupMenu__UAA_XZ @1226
    ??1CMFCPopupMenuBar@@UAA@XZ=stub___1CMFCPopupMenuBar__UAA_XZ @1227
    ??1CMFCPreviewCtrlImpl@@UAA@XZ=stub___1CMFCPreviewCtrlImpl__UAA_XZ @1228
    ??1CMFCPropertyGridColorProperty@@UAA@XZ=stub___1CMFCPropertyGridColorProperty__UAA_XZ @1229
    ??1CMFCPropertyGridCtrl@@UAA@XZ=stub___1CMFCPropertyGridCtrl__UAA_XZ @1230
    ??1CMFCPropertyGridFileProperty@@UAA@XZ=stub___1CMFCPropertyGridFileProperty__UAA_XZ @1231
    ??1CMFCPropertyGridFontProperty@@UAA@XZ=stub___1CMFCPropertyGridFontProperty__UAA_XZ @1232
    ??1CMFCPropertyGridProperty@@UAA@XZ=stub___1CMFCPropertyGridProperty__UAA_XZ @1233
    ??1CMFCPropertyGridToolTipCtrl@@UAA@XZ=stub___1CMFCPropertyGridToolTipCtrl__UAA_XZ @1234
    ??1CMFCPropertyPage@@UAA@XZ=stub___1CMFCPropertyPage__UAA_XZ @1235
    ??1CMFCPropertySheet@@UAA@XZ=stub___1CMFCPropertySheet__UAA_XZ @1236
    ??1CMFCPropertySheetCategoryInfo@@UAA@XZ=stub___1CMFCPropertySheetCategoryInfo__UAA_XZ @1237
    ??1CMFCRibbonBar@@UAA@XZ=stub___1CMFCRibbonBar__UAA_XZ @1238
    ??1CMFCRibbonBaseElement@@UAA@XZ=stub___1CMFCRibbonBaseElement__UAA_XZ @1239
    ??1CMFCRibbonButton@@UAA@XZ=stub___1CMFCRibbonButton__UAA_XZ @1240
    ??1CMFCRibbonButtonsGroup@@UAA@XZ=stub___1CMFCRibbonButtonsGroup__UAA_XZ @1241
    ??1CMFCRibbonCategory@@UAA@XZ=stub___1CMFCRibbonCategory__UAA_XZ @1242
    ??1CMFCRibbonCheckBox@@UAA@XZ=stub___1CMFCRibbonCheckBox__UAA_XZ @1243
    ??1CMFCRibbonCollector@@UAA@XZ=stub___1CMFCRibbonCollector__UAA_XZ @1244
    ??1CMFCRibbonColorButton@@UAA@XZ=stub___1CMFCRibbonColorButton__UAA_XZ @1245
    ??1CMFCRibbonComboBox@@UAA@XZ=stub___1CMFCRibbonComboBox__UAA_XZ @1246
    ??1CMFCRibbonCommandsListBox@@UAA@XZ=stub___1CMFCRibbonCommandsListBox__UAA_XZ @1247
    ??1CMFCRibbonConstructor@@UAA@XZ=stub___1CMFCRibbonConstructor__UAA_XZ @1248
    ??1CMFCRibbonCustomizeDialog@@UAA@XZ=stub___1CMFCRibbonCustomizeDialog__UAA_XZ @1249
    ??1CMFCRibbonCustomizePropertyPage@@UAA@XZ=stub___1CMFCRibbonCustomizePropertyPage__UAA_XZ @1250
    ??1CMFCRibbonEdit@@UAA@XZ=stub___1CMFCRibbonEdit__UAA_XZ @1251
    ??1CMFCRibbonFontComboBox@@UAA@XZ=stub___1CMFCRibbonFontComboBox__UAA_XZ @1252
    ??1CMFCRibbonGallery@@UAA@XZ=stub___1CMFCRibbonGallery__UAA_XZ @1253
    ??1CMFCRibbonGalleryMenuButton@@UAA@XZ=stub___1CMFCRibbonGalleryMenuButton__UAA_XZ @1254
    ??1CMFCRibbonInfo@@UAA@XZ=stub___1CMFCRibbonInfo__UAA_XZ @1255
    ??1CMFCRibbonInfoLoader@@UAA@XZ=stub___1CMFCRibbonInfoLoader__UAA_XZ @1256
    ??1CMFCRibbonKeyboardCustomizeDialog@@UAA@XZ=stub___1CMFCRibbonKeyboardCustomizeDialog__UAA_XZ @1257
    ??1CMFCRibbonKeyTip@@UAA@XZ=stub___1CMFCRibbonKeyTip__UAA_XZ @1258
    ??1CMFCRibbonLabel@@UAA@XZ=stub___1CMFCRibbonLabel__UAA_XZ @1259
    ??1CMFCRibbonLinkCtrl@@UAA@XZ=stub___1CMFCRibbonLinkCtrl__UAA_XZ @1260
    ??1CMFCRibbonMainPanel@@UAA@XZ=stub___1CMFCRibbonMainPanel__UAA_XZ @1261
    ??1CMFCRibbonMainPanelButton@@UAA@XZ=stub___1CMFCRibbonMainPanelButton__UAA_XZ @1262
    ??1CMFCRibbonMiniToolBar@@UAA@XZ=stub___1CMFCRibbonMiniToolBar__UAA_XZ @1263
    ??1CMFCRibbonPanel@@UAA@XZ=stub___1CMFCRibbonPanel__UAA_XZ @1264
    ??1CMFCRibbonPanelMenu@@UAA@XZ=stub___1CMFCRibbonPanelMenu__UAA_XZ @1265
    ??1CMFCRibbonPanelMenuBar@@UAA@XZ=stub___1CMFCRibbonPanelMenuBar__UAA_XZ @1266
    ??1CMFCRibbonProgressBar@@UAA@XZ=stub___1CMFCRibbonProgressBar__UAA_XZ @1267
    ??1CMFCRibbonQuickAccessToolBar@@UAA@XZ=stub___1CMFCRibbonQuickAccessToolBar__UAA_XZ @1268
    ??1CMFCRibbonRichEditCtrl@@UAA@XZ=stub___1CMFCRibbonRichEditCtrl__UAA_XZ @1269
    ??1CMFCRibbonSlider@@UAA@XZ=stub___1CMFCRibbonSlider__UAA_XZ @1270
    ??1CMFCRibbonStatusBar@@UAA@XZ=stub___1CMFCRibbonStatusBar__UAA_XZ @1271
    ??1CMFCRibbonStatusBarPane@@UAA@XZ=stub___1CMFCRibbonStatusBarPane__UAA_XZ @1272
    ??1CMFCRibbonTabsGroup@@UAA@XZ=stub___1CMFCRibbonTabsGroup__UAA_XZ @1273
    ??1CMFCRibbonUndoButton@@UAA@XZ=stub___1CMFCRibbonUndoButton__UAA_XZ @1274
    ??1CMFCShadowRenderer@@UAA@XZ=stub___1CMFCShadowRenderer__UAA_XZ @1275
    ??1CMFCShellListCtrl@@UAA@XZ=stub___1CMFCShellListCtrl__UAA_XZ @1276
    ??1CMFCShellTreeCtrl@@UAA@XZ=stub___1CMFCShellTreeCtrl__UAA_XZ @1277
    ??1CMFCShowAllButton@@UAA@XZ=stub___1CMFCShowAllButton__UAA_XZ @1278
    ??1CMFCSpinButtonCtrl@@UAA@XZ=stub___1CMFCSpinButtonCtrl__UAA_XZ @1279
    ??1CMFCStatusBar@@UAA@XZ=stub___1CMFCStatusBar__UAA_XZ @1280
    ??1CMFCTabCtrl@@UAA@XZ=stub___1CMFCTabCtrl__UAA_XZ @1281
    ??1CMFCTasksPane@@UAA@XZ=stub___1CMFCTasksPane__UAA_XZ @1282
    ??1CMFCTasksPaneFrameWnd@@UAA@XZ=stub___1CMFCTasksPaneFrameWnd__UAA_XZ @1283
    ??1CMFCToolBar@@UAA@XZ=stub___1CMFCToolBar__UAA_XZ @1284
    ??1CMFCToolBarButton@@UAA@XZ=stub___1CMFCToolBarButton__UAA_XZ @1285
    ??1CMFCToolBarButtonCustomizeDialog@@UAA@XZ=stub___1CMFCToolBarButtonCustomizeDialog__UAA_XZ @1286
    ??1CMFCToolBarButtonsListButton@@UAA@XZ=stub___1CMFCToolBarButtonsListButton__UAA_XZ @1287
    ??1CMFCToolBarComboBoxButton@@UAA@XZ=stub___1CMFCToolBarComboBoxButton__UAA_XZ @1288
    ??1CMFCToolBarComboBoxEdit@@UAA@XZ=stub___1CMFCToolBarComboBoxEdit__UAA_XZ @1289
    ??1CMFCToolBarDateTimeCtrl@@UAA@XZ=stub___1CMFCToolBarDateTimeCtrl__UAA_XZ @1290
    ??1CMFCToolBarDropSource@@UAA@XZ=stub___1CMFCToolBarDropSource__UAA_XZ @1291
    ??1CMFCToolBarDropTarget@@UAA@XZ=stub___1CMFCToolBarDropTarget__UAA_XZ @1292
    ??1CMFCToolBarEditBoxButton@@UAA@XZ=stub___1CMFCToolBarEditBoxButton__UAA_XZ @1293
    ??1CMFCToolBarEditCtrl@@UAA@XZ=stub___1CMFCToolBarEditCtrl__UAA_XZ @1294
    ??1CMFCToolBarFontComboBox@@UAA@XZ=stub___1CMFCToolBarFontComboBox__UAA_XZ @1295
    ??1CMFCToolBarFontSizeComboBox@@UAA@XZ=stub___1CMFCToolBarFontSizeComboBox__UAA_XZ @1296
    ??1CMFCToolBarImages@@UAA@XZ=stub___1CMFCToolBarImages__UAA_XZ @1297
    ??1CMFCToolBarMenuButton@@UAA@XZ=stub___1CMFCToolBarMenuButton__UAA_XZ @1298
    ??1CMFCToolBarMenuButtonsButton@@UAA@XZ=stub___1CMFCToolBarMenuButtonsButton__UAA_XZ @1299
    ??1CMFCToolBarsCommandsListBox@@UAA@XZ=stub___1CMFCToolBarsCommandsListBox__UAA_XZ @1300
    ??1CMFCToolBarsCommandsPropertyPage@@UAA@XZ=stub___1CMFCToolBarsCommandsPropertyPage__UAA_XZ @1301
    ??1CMFCToolBarsCustomizeDialog@@UAA@XZ=stub___1CMFCToolBarsCustomizeDialog__UAA_XZ @1302
    ??1CMFCToolBarsKeyboardPropertyPage@@UAA@XZ=stub___1CMFCToolBarsKeyboardPropertyPage__UAA_XZ @1303
    ??1CMFCToolBarsListCheckBox@@UAA@XZ=stub___1CMFCToolBarsListCheckBox__UAA_XZ @1304
    ??1CMFCToolBarsListPropertyPage@@UAA@XZ=stub___1CMFCToolBarsListPropertyPage__UAA_XZ @1305
    ??1CMFCToolBarsMenuPropertyPage@@UAA@XZ=stub___1CMFCToolBarsMenuPropertyPage__UAA_XZ @1306
    ??1CMFCToolBarsOptionsPropertyPage@@UAA@XZ=stub___1CMFCToolBarsOptionsPropertyPage__UAA_XZ @1307
    ??1CMFCToolBarSpinEditBoxButton@@UAA@XZ=stub___1CMFCToolBarSpinEditBoxButton__UAA_XZ @1308
    ??1CMFCToolBarsToolsPropertyPage@@UAA@XZ=stub___1CMFCToolBarsToolsPropertyPage__UAA_XZ @1309
    ??1CMFCToolBarSystemMenuButton@@UAA@XZ=stub___1CMFCToolBarSystemMenuButton__UAA_XZ @1310
    ??1CMFCToolTipCtrl@@UAA@XZ=stub___1CMFCToolTipCtrl__UAA_XZ @1311
    ??1CMFCVisualManager@@UAA@XZ=stub___1CMFCVisualManager__UAA_XZ @1312
    ??1CMFCVisualManagerBitmapCache@@UAA@XZ=stub___1CMFCVisualManagerBitmapCache__UAA_XZ @1313
    ??1CMFCVisualManagerBitmapCacheItem@CMFCVisualManagerBitmapCache@@UAA@XZ=stub___1CMFCVisualManagerBitmapCacheItem_CMFCVisualManagerBitmapCache__UAA_XZ @1314
    ??1CMFCVisualManagerOffice2003@@UAA@XZ=stub___1CMFCVisualManagerOffice2003__UAA_XZ @1315
    ??1CMFCVisualManagerOffice2007@@MAA@XZ=stub___1CMFCVisualManagerOffice2007__MAA_XZ @1316
    ??1CMFCVisualManagerOfficeXP@@UAA@XZ=stub___1CMFCVisualManagerOfficeXP__UAA_XZ @1317
    ??1CMFCVisualManagerVS2005@@UAA@XZ=stub___1CMFCVisualManagerVS2005__UAA_XZ @1318
    ??1CMFCVisualManagerVS2008@@UAA@XZ=stub___1CMFCVisualManagerVS2008__UAA_XZ @1319
    ??1CMFCVisualManagerWindows@@UAA@XZ=stub___1CMFCVisualManagerWindows__UAA_XZ @1320
    ??1CMFCVisualManagerWindows7@@UAA@XZ=stub___1CMFCVisualManagerWindows7__UAA_XZ @1321
    ??1CMFCZoomKernel@@UAA@XZ=stub___1CMFCZoomKernel__UAA_XZ @1322
    ??1CMiniFrameWnd@@UAA@XZ=stub___1CMiniFrameWnd__UAA_XZ @1323
    ??1CMonikerFile@@UAA@XZ=stub___1CMonikerFile__UAA_XZ @1324
    ??1CMonthCalCtrl@@UAA@XZ=stub___1CMonthCalCtrl__UAA_XZ @1325
    ??1CMouseManager@@UAA@XZ=stub___1CMouseManager__UAA_XZ @1326
    ??1CMultiDocTemplate@@UAA@XZ=stub___1CMultiDocTemplate__UAA_XZ @1327
    ??1CMultiLock@@QAA@XZ=stub___1CMultiLock__QAA_XZ @1328
    ??1CMultiPageDHtmlDialog@@UAA@XZ=stub___1CMultiPageDHtmlDialog__UAA_XZ @1329
    ??1CMultiPaneFrameWnd@@UAA@XZ=stub___1CMultiPaneFrameWnd__UAA_XZ @1330
    ??1CMutex@@UAA@XZ=stub___1CMutex__UAA_XZ @1331
    ??1CObArray@@UAA@XZ=stub___1CObArray__UAA_XZ @1332
    ??1CObList@@UAA@XZ=stub___1CObList__UAA_XZ @1333
    ??1COleBusyDialog@@UAA@XZ=stub___1COleBusyDialog__UAA_XZ @1334
    ??1COleChangeIconDialog@@UAA@XZ=stub___1COleChangeIconDialog__UAA_XZ @1335
    ??1COleChangeSourceDialog@@UAA@XZ=stub___1COleChangeSourceDialog__UAA_XZ @1336
    ??1COleClientItem@@UAA@XZ=stub___1COleClientItem__UAA_XZ @1337
    ??1COleCntrFrameWnd@@UAA@XZ=stub___1COleCntrFrameWnd__UAA_XZ @1338
    ??1COleCntrFrameWndEx@@MAA@XZ=stub___1COleCntrFrameWndEx__MAA_XZ @1339
    ??1COleControl@@UAA@XZ=stub___1COleControl__UAA_XZ @1340
    ??1COleControlContainer@@UAA@XZ=stub___1COleControlContainer__UAA_XZ @1341
    ??1COleControlLock@@UAA@XZ=stub___1COleControlLock__UAA_XZ @1342
    ??1COleControlSite@@UAA@XZ=stub___1COleControlSite__UAA_XZ @1343
    ??1COleControlSiteOrWnd@@QAA@XZ=stub___1COleControlSiteOrWnd__QAA_XZ @1344
    ??1COleConvertDialog@@UAA@XZ=stub___1COleConvertDialog__UAA_XZ @1345
    ??1COleDataSource@@UAA@XZ=stub___1COleDataSource__UAA_XZ @1346
    ??1COleDispatchException@@UAA@XZ=stub___1COleDispatchException__UAA_XZ @1347
    ??1COleDocIPFrameWnd@@UAA@XZ=stub___1COleDocIPFrameWnd__UAA_XZ @1348
    ??1COleDocIPFrameWndEx@@MAA@XZ=stub___1COleDocIPFrameWndEx__MAA_XZ @1349
    ??1COleDocObjectItem@@UAA@XZ=stub___1COleDocObjectItem__UAA_XZ @1350
    ??1COleDocument@@UAA@XZ=stub___1COleDocument__UAA_XZ @1351
    ??1COleDropTarget@@UAA@XZ=stub___1COleDropTarget__UAA_XZ @1352
    ??1COleFrameHook@@UAA@XZ=stub___1COleFrameHook__UAA_XZ @1353
    ??1COleInsertDialog@@UAA@XZ=stub___1COleInsertDialog__UAA_XZ @1354
    ??1COleIPFrameWnd@@UAA@XZ=stub___1COleIPFrameWnd__UAA_XZ @1355
    ??1COleIPFrameWndEx@@MAA@XZ=stub___1COleIPFrameWndEx__MAA_XZ @1356
    ??1COleLinkingDoc@@UAA@XZ=stub___1COleLinkingDoc__UAA_XZ @1357
    ??1COleLinksDialog@@UAA@XZ=stub___1COleLinksDialog__UAA_XZ @1358
    ??1COleMessageFilter@@UAA@XZ=stub___1COleMessageFilter__UAA_XZ @1359
    ??1COleObjectFactory@@UAA@XZ=stub___1COleObjectFactory__UAA_XZ @1360
    ??1COlePasteSpecialDialog@@UAA@XZ=stub___1COlePasteSpecialDialog__UAA_XZ @1361
    ??1COlePropertyPage@@UAA@XZ=stub___1COlePropertyPage__UAA_XZ @1362
    ??1COleResizeBar@@UAA@XZ=stub___1COleResizeBar__UAA_XZ @1363
    ??1COleServerDoc@@UAA@XZ=stub___1COleServerDoc__UAA_XZ @1364
    ??1COleServerDocEx@@UAA@XZ=stub___1COleServerDocEx__UAA_XZ @1365
    ??1COleServerItem@@UAA@XZ=stub___1COleServerItem__UAA_XZ @1366
    ??1COleStreamFile@@UAA@XZ=stub___1COleStreamFile__UAA_XZ @1367
    ??1COleUpdateDialog@@UAA@XZ=stub___1COleUpdateDialog__UAA_XZ @1368
    ??1CPaintDC@@UAA@XZ=stub___1CPaintDC__UAA_XZ @1369
    ??1CPane@@UAA@XZ=stub___1CPane__UAA_XZ @1370
    ??1CPaneContainer@@UAA@XZ=stub___1CPaneContainer__UAA_XZ @1371
    ??1CPaneContainerManager@@UAA@XZ=stub___1CPaneContainerManager__UAA_XZ @1372
    ??1CPaneDialog@@UAA@XZ=stub___1CPaneDialog__UAA_XZ @1373
    ??1CPaneDivider@@UAA@XZ=stub___1CPaneDivider__UAA_XZ @1374
    ??1CPaneFrameWnd@@UAA@XZ=stub___1CPaneFrameWnd__UAA_XZ @1375
    ??1CPictureHolder@@QAA@XZ=stub___1CPictureHolder__QAA_XZ @1376
    ??1CPngImage@@UAA@XZ=stub___1CPngImage__UAA_XZ @1377
    ??1CPreviewDC@@UAA@XZ=stub___1CPreviewDC__UAA_XZ @1378
    ??1CPreviewView@@UAA@XZ=stub___1CPreviewView__UAA_XZ @1379
    ??1CPreviewViewEx@@MAA@XZ=stub___1CPreviewViewEx__MAA_XZ @1380
    ??1CPrintInfo@@QAA@XZ=stub___1CPrintInfo__QAA_XZ @1381
    ??1CProcessLocalObject@@QAA@XZ=stub___1CProcessLocalObject__QAA_XZ @1382
    ??1CProgressCtrl@@UAA@XZ=stub___1CProgressCtrl__UAA_XZ @1383
    ??1CPropbagPropExchange@@UAA@XZ=stub___1CPropbagPropExchange__UAA_XZ @1384
    ??1CProperty@@QAA@XZ=stub___1CProperty__QAA_XZ @1385
    ??1CPropertyPage@@UAA@XZ=stub___1CPropertyPage__UAA_XZ @1386
    ??1CPropertySection@@QAA@XZ=stub___1CPropertySection__QAA_XZ @1387
    ??1CPropertySet@@QAA@XZ=stub___1CPropertySet__QAA_XZ @1388
    ??1CPropertySheet@@UAA@XZ=stub___1CPropertySheet__UAA_XZ @1389
    ??1CPtrArray@@UAA@XZ=stub___1CPtrArray__UAA_XZ @1390
    ??1CPtrList@@UAA@XZ=stub___1CPtrList__UAA_XZ @1391
    ??1CReBarCtrl@@UAA@XZ=stub___1CReBarCtrl__UAA_XZ @1392
    ??1CRecentDockSiteInfo@@UAA@XZ=stub___1CRecentDockSiteInfo__UAA_XZ @1393
    ??1CRecentFileList@@UAA@XZ=stub___1CRecentFileList__UAA_XZ @1394
    ??1CRecentPaneContainerInfo@@UAA@XZ=stub___1CRecentPaneContainerInfo__UAA_XZ @1395
    ??1CRecordset@@UAA@XZ=stub___1CRecordset__UAA_XZ @1396
    ??1CRecordView@@UAA@XZ=stub___1CRecordView__UAA_XZ @1397
    ??1CRectTracker@@UAA@XZ=stub___1CRectTracker__UAA_XZ @1398
    ??1CRenderTarget@@UAA@XZ=stub___1CRenderTarget__UAA_XZ @1399
    ??1CReObject@@QAA@XZ=stub___1CReObject__QAA_XZ @1400
    ??1CRichEditCntrItem@@UAA@XZ=stub___1CRichEditCntrItem__UAA_XZ @1401
    ??1CRichEditCtrl@@UAA@XZ=stub___1CRichEditCtrl__UAA_XZ @1402
    ??1CScreenWnd@@UAA@XZ=stub___1CScreenWnd__UAA_XZ @1403
    ??1CScrollBar@@UAA@XZ=stub___1CScrollBar__UAA_XZ @1404
    ??1CScrollView@@UAA@XZ=stub___1CScrollView__UAA_XZ @1405
    ??1CSemaphore@@UAA@XZ=stub___1CSemaphore__UAA_XZ @1406
    ??1CSettingsStore@@UAA@XZ=stub___1CSettingsStore__UAA_XZ @1407
    ??1CSharedFile@@UAA@XZ=stub___1CSharedFile__UAA_XZ @1408
    ??1CShellManager@@UAA@XZ=stub___1CShellManager__UAA_XZ @1409
    ??1CSingleDocTemplate@@UAA@XZ=stub___1CSingleDocTemplate__UAA_XZ @1410
    ??1CSliderCtrl@@UAA@XZ=stub___1CSliderCtrl__UAA_XZ @1411
    ??1CSmartDockingGroupGuide@@UAA@XZ=stub___1CSmartDockingGroupGuide__UAA_XZ @1412
    ??1CSmartDockingGroupGuidesManager@@UAA@XZ=stub___1CSmartDockingGroupGuidesManager__UAA_XZ @1413
    ??1CSmartDockingHighlighterWnd@@UAA@XZ=stub___1CSmartDockingHighlighterWnd__UAA_XZ @1414
    ??1CSmartDockingManager@@UAA@XZ=stub___1CSmartDockingManager__UAA_XZ @1415
    ??1CSmartDockingStandaloneGuide@@UAA@XZ=stub___1CSmartDockingStandaloneGuide__UAA_XZ @1416
    ??1CSmartDockingStandaloneGuideWnd@@UAA@XZ=stub___1CSmartDockingStandaloneGuideWnd__UAA_XZ @1417
    ??1CSocket@@UAA@XZ=stub___1CSocket__UAA_XZ @1418
    ??1CSocketFile@@UAA@XZ=stub___1CSocketFile__UAA_XZ @1419
    ??1CSpinButtonCtrl@@UAA@XZ=stub___1CSpinButtonCtrl__UAA_XZ @1420
    ??1CSplitButton@@UAA@XZ=stub___1CSplitButton__UAA_XZ @1421
    ??1CSplitterWnd@@UAA@XZ=stub___1CSplitterWnd__UAA_XZ @1422
    ??1CSplitterWndEx@@UAA@XZ=stub___1CSplitterWndEx__UAA_XZ @1423
    ??1CStatic@@UAA@XZ=stub___1CStatic__UAA_XZ @1424
    ??1CStatusBar@@UAA@XZ=stub___1CStatusBar__UAA_XZ @1425
    ??1CStatusBarCtrl@@UAA@XZ=stub___1CStatusBarCtrl__UAA_XZ @1426
    ??1CStdioFile@@UAA@XZ=stub___1CStdioFile__UAA_XZ @1427
    ??1CStringArray@@UAA@XZ=stub___1CStringArray__UAA_XZ @1428
    ??1CStringList@@UAA@XZ=stub___1CStringList__UAA_XZ @1429
    ??1CSyncObject@@UAA@XZ=stub___1CSyncObject__UAA_XZ @1430
    ??1CTabbedPane@@UAA@XZ=stub___1CTabbedPane__UAA_XZ @1431
    ??1CTabCtrl@@UAA@XZ=stub___1CTabCtrl__UAA_XZ @1432
    ??1CTabView@@MAA@XZ=stub___1CTabView__MAA_XZ @1433
    ??1CTagManager@@UAA@XZ=stub___1CTagManager__UAA_XZ @1434
    ??1CTaskDialog@@UAA@XZ=stub___1CTaskDialog__UAA_XZ @1435
    ??1CThreadLocalObject@@QAA@XZ=stub___1CThreadLocalObject__QAA_XZ @1436
    ??1CThreadSlotData@@QAA@XZ=stub___1CThreadSlotData__QAA_XZ @1437
    ??1CToolBar@@UAA@XZ=stub___1CToolBar__UAA_XZ @1438
    ??1CToolBarCtrl@@UAA@XZ=stub___1CToolBarCtrl__UAA_XZ @1439
    ??1CToolTipCtrl@@UAA@XZ=stub___1CToolTipCtrl__UAA_XZ @1440
    ??1CTooltipManager@@UAA@XZ=stub___1CTooltipManager__UAA_XZ @1441
    ??1CTreeCtrl@@UAA@XZ=stub___1CTreeCtrl__UAA_XZ @1442
    ??1CUIntArray@@UAA@XZ=stub___1CUIntArray__UAA_XZ @1443
    ??1CUserTool@@UAA@XZ=stub___1CUserTool__UAA_XZ @1444
    ??1CUserToolsManager@@UAA@XZ=stub___1CUserToolsManager__UAA_XZ @1445
    ??1CView@@UAA@XZ=stub___1CView__UAA_XZ @1446
    ??1CVSListBox@@UAA@XZ=stub___1CVSListBox__UAA_XZ @1447
    ??1CVSListBoxBase@@UAA@XZ=stub___1CVSListBoxBase__UAA_XZ @1448
    ??1CVSListBoxEditCtrl@@UAA@XZ=stub___1CVSListBoxEditCtrl__UAA_XZ @1449
    ??1CWinApp@@UAA@XZ=stub___1CWinApp__UAA_XZ @1450
    ??1CWinAppEx@@UAA@XZ=stub___1CWinAppEx__UAA_XZ @1451
    ??1CWindowDC@@UAA@XZ=stub___1CWindowDC__UAA_XZ @1452
    ??1CWinThread@@UAA@XZ=stub___1CWinThread__UAA_XZ @1453
    ??1CWnd@@UAA@XZ=stub___1CWnd__UAA_XZ @1454
    ??1CWordArray@@UAA@XZ=stub___1CWordArray__UAA_XZ @1455
    ??1XBase@CMFCRibbonInfo@@UAA@XZ=stub___1XBase_CMFCRibbonInfo__UAA_XZ @1456
    ??1XCategory@CMFCRibbonInfo@@UAA@XZ=stub___1XCategory_CMFCRibbonInfo__UAA_XZ @1457
    ??1XCategoryMain@CMFCRibbonInfo@@UAA@XZ=stub___1XCategoryMain_CMFCRibbonInfo__UAA_XZ @1458
    ??1XContext@CMFCRibbonInfo@@UAA@XZ=stub___1XContext_CMFCRibbonInfo__UAA_XZ @1459
    ??1XElement@CMFCRibbonInfo@@UAA@XZ=stub___1XElement_CMFCRibbonInfo__UAA_XZ @1460
    ??1XElementButton@CMFCRibbonInfo@@UAA@XZ=stub___1XElementButton_CMFCRibbonInfo__UAA_XZ @1461
    ??1XElementButtonApplication@CMFCRibbonInfo@@UAA@XZ=stub___1XElementButtonApplication_CMFCRibbonInfo__UAA_XZ @1462
    ??1XElementButtonCheck@CMFCRibbonInfo@@UAA@XZ=stub___1XElementButtonCheck_CMFCRibbonInfo__UAA_XZ @1463
    ??1XElementButtonColor@CMFCRibbonInfo@@UAA@XZ=stub___1XElementButtonColor_CMFCRibbonInfo__UAA_XZ @1464
    ??1XElementButtonGallery@CMFCRibbonInfo@@UAA@XZ=stub___1XElementButtonGallery_CMFCRibbonInfo__UAA_XZ @1465
    ??1XElementButtonLaunch@CMFCRibbonInfo@@UAA@XZ=stub___1XElementButtonLaunch_CMFCRibbonInfo__UAA_XZ @1466
    ??1XElementButtonLinkCtrl@CMFCRibbonInfo@@UAA@XZ=stub___1XElementButtonLinkCtrl_CMFCRibbonInfo__UAA_XZ @1467
    ??1XElementButtonMainPanel@CMFCRibbonInfo@@UAA@XZ=stub___1XElementButtonMainPanel_CMFCRibbonInfo__UAA_XZ @1468
    ??1XElementButtonUndo@CMFCRibbonInfo@@UAA@XZ=stub___1XElementButtonUndo_CMFCRibbonInfo__UAA_XZ @1469
    ??1XElementComboBox@CMFCRibbonInfo@@UAA@XZ=stub___1XElementComboBox_CMFCRibbonInfo__UAA_XZ @1470
    ??1XElementEdit@CMFCRibbonInfo@@UAA@XZ=stub___1XElementEdit_CMFCRibbonInfo__UAA_XZ @1471
    ??1XElementFontComboBox@CMFCRibbonInfo@@UAA@XZ=stub___1XElementFontComboBox_CMFCRibbonInfo__UAA_XZ @1472
    ??1XElementGroup@CMFCRibbonInfo@@UAA@XZ=stub___1XElementGroup_CMFCRibbonInfo__UAA_XZ @1473
    ??1XElementLabel@CMFCRibbonInfo@@UAA@XZ=stub___1XElementLabel_CMFCRibbonInfo__UAA_XZ @1474
    ??1XElementProgressBar@CMFCRibbonInfo@@UAA@XZ=stub___1XElementProgressBar_CMFCRibbonInfo__UAA_XZ @1475
    ??1XElementSeparator@CMFCRibbonInfo@@UAA@XZ=stub___1XElementSeparator_CMFCRibbonInfo__UAA_XZ @1476
    ??1XElementSlider@CMFCRibbonInfo@@UAA@XZ=stub___1XElementSlider_CMFCRibbonInfo__UAA_XZ @1477
    ??1XGalleryGroup@XElementButtonGallery@CMFCRibbonInfo@@QAA@XZ=stub___1XGalleryGroup_XElementButtonGallery_CMFCRibbonInfo__QAA_XZ @1478
    ??1XID@CMFCRibbonInfo@@QAA@XZ=stub___1XID_CMFCRibbonInfo__QAA_XZ @1479
    ??1XImage@CMFCRibbonInfo@@QAA@XZ=stub___1XImage_CMFCRibbonInfo__QAA_XZ @1480
    ??1XInfoError@CMFCRibbonInfo@@QAA@XZ=stub___1XInfoError_CMFCRibbonInfo__QAA_XZ @1481
    ??1XPanel@CMFCRibbonInfo@@UAA@XZ=stub___1XPanel_CMFCRibbonInfo__UAA_XZ @1482
    ??1XQAT@CMFCRibbonInfo@@UAA@XZ=stub___1XQAT_CMFCRibbonInfo__UAA_XZ @1483
    ??1XQATItem@XQAT@CMFCRibbonInfo@@QAA@XZ=stub___1XQATItem_XQAT_CMFCRibbonInfo__QAA_XZ @1484
    ??1XRibbonBar@CMFCRibbonInfo@@UAA@XZ=stub___1XRibbonBar_CMFCRibbonInfo__UAA_XZ @1485
    ??1XRibbonInfoParser@CMFCRibbonInfo@@UAA@XZ=stub___1XRibbonInfoParser_CMFCRibbonInfo__UAA_XZ @1486
    ??1XRibbonInfoParserCollection@CMFCRibbonInfo@@UAA@XZ=stub___1XRibbonInfoParserCollection_CMFCRibbonInfo__UAA_XZ @1487
    ??1XRibbonInfoParserRoot@CMFCRibbonInfo@@UAA@XZ=stub___1XRibbonInfoParserRoot_CMFCRibbonInfo__UAA_XZ @1488
    ??2@YAPAXI@Z=stub___2_YAPAXI_Z @1489
    ??2CNoTrackObject@@SAPAXI@Z=stub___2CNoTrackObject__SAPAXI_Z @1490
    ??3@YAXPAX@Z=stub___3_YAXPAX_Z @1491
    ??3CNoTrackObject@@SAXPAX@Z=stub___3CNoTrackObject__SAXPAX_Z @1492
    ??4?$CSimpleStringT@_W$00@ATL@@QAAAAV01@ABV?$CSimpleStringT@_W$0A@@1@@Z=stub___4__CSimpleStringT__W_00_ATL__QAAAAV01_ABV__CSimpleStringT__W_0A__1__Z @1493
    ??4?$CSimpleStringT@_W$00@ATL@@QAAAAV01@ABV01@@Z=stub___4__CSimpleStringT__W_00_ATL__QAAAAV01_ABV01__Z @1494
    ??4?$CSimpleStringT@_W$00@ATL@@QAAAAV01@PB_W@Z=stub___4__CSimpleStringT__W_00_ATL__QAAAAV01_PB_W_Z @1495
    ??4?$CSimpleStringT@D$00@ATL@@QAAAAV01@ABV?$CSimpleStringT@D$0A@@1@@Z=stub___4__CSimpleStringT_D_00_ATL__QAAAAV01_ABV__CSimpleStringT_D_0A__1__Z @1496
    ??4?$CSimpleStringT@D$00@ATL@@QAAAAV01@ABV01@@Z=stub___4__CSimpleStringT_D_00_ATL__QAAAAV01_ABV01__Z @1497
    ??4?$CSimpleStringT@D$00@ATL@@QAAAAV01@PBD@Z=stub___4__CSimpleStringT_D_00_ATL__QAAAAV01_PBD_Z @1498
    ??4?$CStringT@_WV?$StrTraitMFC_DLL@_WV?$ChTraitsCRT@_W@ATL@@@@@ATL@@QAAAAV01@_W@Z=stub___4__CStringT__WV__StrTraitMFC_DLL__WV__ChTraitsCRT__W_ATL_____ATL__QAAAAV01__W_Z @1499
    ??4?$CStringT@_WV?$StrTraitMFC_DLL@_WV?$ChTraitsCRT@_W@ATL@@@@@ATL@@QAAAAV01@ABUtagVARIANT@@@Z=stub___4__CStringT__WV__StrTraitMFC_DLL__WV__ChTraitsCRT__W_ATL_____ATL__QAAAAV01_ABUtagVARIANT___Z @1500
    ??4?$CStringT@_WV?$StrTraitMFC_DLL@_WV?$ChTraitsCRT@_W@ATL@@@@@ATL@@QAAAAV01@ABV01@@Z=stub___4__CStringT__WV__StrTraitMFC_DLL__WV__ChTraitsCRT__W_ATL_____ATL__QAAAAV01_ABV01__Z @1501
    ??4?$CStringT@_WV?$StrTraitMFC_DLL@_WV?$ChTraitsCRT@_W@ATL@@@@@ATL@@QAAAAV01@D@Z=stub___4__CStringT__WV__StrTraitMFC_DLL__WV__ChTraitsCRT__W_ATL_____ATL__QAAAAV01_D_Z @1502
    ??4?$CStringT@_WV?$StrTraitMFC_DLL@_WV?$ChTraitsCRT@_W@ATL@@@@@ATL@@QAAAAV01@PB_W@Z=stub___4__CStringT__WV__StrTraitMFC_DLL__WV__ChTraitsCRT__W_ATL_____ATL__QAAAAV01_PB_W_Z @1503
    ??4?$CStringT@_WV?$StrTraitMFC_DLL@_WV?$ChTraitsCRT@_W@ATL@@@@@ATL@@QAAAAV01@PBD@Z=stub___4__CStringT__WV__StrTraitMFC_DLL__WV__ChTraitsCRT__W_ATL_____ATL__QAAAAV01_PBD_Z @1504
    ??4?$CStringT@_WV?$StrTraitMFC_DLL@_WV?$ChTraitsCRT@_W@ATL@@@@@ATL@@QAAAAV01@PBE@Z=stub___4__CStringT__WV__StrTraitMFC_DLL__WV__ChTraitsCRT__W_ATL_____ATL__QAAAAV01_PBE_Z @1505
    ??4?$CStringT@DV?$StrTraitMFC_DLL@DV?$ChTraitsCRT@D@ATL@@@@@ATL@@QAAAAV01@_W@Z=stub___4__CStringT_DV__StrTraitMFC_DLL_DV__ChTraitsCRT_D_ATL_____ATL__QAAAAV01__W_Z @1506
    ??4?$CStringT@DV?$StrTraitMFC_DLL@DV?$ChTraitsCRT@D@ATL@@@@@ATL@@QAAAAV01@ABUtagVARIANT@@@Z=stub___4__CStringT_DV__StrTraitMFC_DLL_DV__ChTraitsCRT_D_ATL_____ATL__QAAAAV01_ABUtagVARIANT___Z @1507
    ??4?$CStringT@DV?$StrTraitMFC_DLL@DV?$ChTraitsCRT@D@ATL@@@@@ATL@@QAAAAV01@ABV01@@Z=stub___4__CStringT_DV__StrTraitMFC_DLL_DV__ChTraitsCRT_D_ATL_____ATL__QAAAAV01_ABV01__Z @1508
    ??4?$CStringT@DV?$StrTraitMFC_DLL@DV?$ChTraitsCRT@D@ATL@@@@@ATL@@QAAAAV01@D@Z=stub___4__CStringT_DV__StrTraitMFC_DLL_DV__ChTraitsCRT_D_ATL_____ATL__QAAAAV01_D_Z @1509
    ??4?$CStringT@DV?$StrTraitMFC_DLL@DV?$ChTraitsCRT@D@ATL@@@@@ATL@@QAAAAV01@PB_W@Z=stub___4__CStringT_DV__StrTraitMFC_DLL_DV__ChTraitsCRT_D_ATL_____ATL__QAAAAV01_PB_W_Z @1510
    ??4?$CStringT@DV?$StrTraitMFC_DLL@DV?$ChTraitsCRT@D@ATL@@@@@ATL@@QAAAAV01@PBD@Z=stub___4__CStringT_DV__StrTraitMFC_DLL_DV__ChTraitsCRT_D_ATL_____ATL__QAAAAV01_PBD_Z @1511
    ??4?$CStringT@DV?$StrTraitMFC_DLL@DV?$ChTraitsCRT@D@ATL@@@@@ATL@@QAAAAV01@PBE@Z=stub___4__CStringT_DV__StrTraitMFC_DLL_DV__ChTraitsCRT_D_ATL_____ATL__QAAAAV01_PBE_Z @1512
    ??4CMFCControlRendererInfo@@QAAAAV0@ABV0@@Z=stub___4CMFCControlRendererInfo__QAAAAV0_ABV0__Z @1513
    ??4COleCurrency@@QAAABV0@ABUtagVARIANT@@@Z=stub___4COleCurrency__QAAABV0_ABUtagVARIANT___Z @1514
    ??4COleCurrency@@QAAABV0@ABV0@@Z=stub___4COleCurrency__QAAABV0_ABV0__Z @1515
    ??4COleCurrency@@QAAABV0@TtagCY@@@Z=stub___4COleCurrency__QAAABV0_TtagCY___Z @1516
    ??4COleDispatchDriver@@QAAABV0@ABV0@@Z=stub___4COleDispatchDriver__QAAABV0_ABV0__Z @1517
    ??4COleSafeArray@@QAAAAV0@ABUtagVARIANT@@@Z=stub___4COleSafeArray__QAAAAV0_ABUtagVARIANT___Z @1518
    ??4COleSafeArray@@QAAAAV0@ABV0@@Z=stub___4COleSafeArray__QAAAAV0_ABV0__Z @1519
    ??4COleSafeArray@@QAAAAV0@ABVCOleVariant@@@Z=stub___4COleSafeArray__QAAAAV0_ABVCOleVariant___Z @1520
    ??4COleSafeArray@@QAAAAV0@PBUtagVARIANT@@@Z=stub___4COleSafeArray__QAAAAV0_PBUtagVARIANT___Z @1521
    ??4COleVariant@@QAAABV0@_J@Z=stub___4COleVariant__QAAABV0__J_Z @1522
    ??4COleVariant@@QAAABV0@_K@Z=stub___4COleVariant__QAAABV0__K_Z @1523
    ??4COleVariant@@QAAABV0@ABUtagVARIANT@@@Z=stub___4COleVariant__QAAABV0_ABUtagVARIANT___Z @1524
    ??4COleVariant@@QAAABV0@ABV?$CStringT@_WV?$StrTraitMFC_DLL@_WV?$ChTraitsCRT@_W@ATL@@@@@ATL@@@Z=stub___4COleVariant__QAAABV0_ABV__CStringT__WV__StrTraitMFC_DLL__WV__ChTraitsCRT__W_ATL_____ATL___Z @1525
    ??4COleVariant@@QAAABV0@ABV0@@Z=stub___4COleVariant__QAAABV0_ABV0__Z @1526
    ??4COleVariant@@QAAABV0@ABVCByteArray@@@Z=stub___4COleVariant__QAAABV0_ABVCByteArray___Z @1527
    ??4COleVariant@@QAAABV0@ABVCLongBinary@@@Z=stub___4COleVariant__QAAABV0_ABVCLongBinary___Z @1528
    ??4COleVariant@@QAAABV0@ABVCOleCurrency@@@Z=stub___4COleVariant__QAAABV0_ABVCOleCurrency___Z @1529
    ??4COleVariant@@QAAABV0@ABVCOleDateTime@ATL@@@Z=stub___4COleVariant__QAAABV0_ABVCOleDateTime_ATL___Z @1530
    ??4COleVariant@@QAAABV0@E@Z=stub___4COleVariant__QAAABV0_E_Z @1531
    ??4COleVariant@@QAAABV0@F@Z=stub___4COleVariant__QAAABV0_F_Z @1532
    ??4COleVariant@@QAAABV0@J@Z=stub___4COleVariant__QAAABV0_J_Z @1533
    ??4COleVariant@@QAAABV0@M@Z=stub___4COleVariant__QAAABV0_M_Z @1534
    ??4COleVariant@@QAAABV0@N@Z=stub___4COleVariant__QAAABV0_N_Z @1535
    ??4COleVariant@@QAAABV0@PBUtagVARIANT@@@Z=stub___4COleVariant__QAAABV0_PBUtagVARIANT___Z @1536
    ??4COleVariant@@QAAABV0@QB_W@Z=stub___4COleVariant__QAAABV0_QB_W_Z @1537
    ??4CRecentDockSiteInfo@@QAAAAV0@AAV0@@Z=stub___4CRecentDockSiteInfo__QAAAAV0_AAV0__Z @1538
    ??4CRecentPaneContainerInfo@@QAAAAV0@AAV0@@Z=stub___4CRecentPaneContainerInfo__QAAAAV0_AAV0__Z @1539
    ??5@YAAAVCArchive@@AAV0@AAPAVCByteArray@@@Z=stub___5_YAAAVCArchive__AAV0_AAPAVCByteArray___Z @1540
    ??5@YAAAVCArchive@@AAV0@AAPAVCDocItem@@@Z=stub___5_YAAAVCArchive__AAV0_AAPAVCDocItem___Z @1541
    ??5@YAAAVCArchive@@AAV0@AAPAVCDockablePane@@@Z=stub___5_YAAAVCArchive__AAV0_AAPAVCDockablePane___Z @1542
    ??5@YAAAVCArchive@@AAV0@AAPAVCDockablePaneAdapter@@@Z=stub___5_YAAAVCArchive__AAV0_AAPAVCDockablePaneAdapter___Z @1543
    ??5@YAAAVCArchive@@AAV0@AAPAVCDockState@@@Z=stub___5_YAAAVCArchive__AAV0_AAPAVCDockState___Z @1544
    ??5@YAAAVCArchive@@AAV0@AAPAVCDWordArray@@@Z=stub___5_YAAAVCArchive__AAV0_AAPAVCDWordArray___Z @1545
    ??5@YAAAVCArchive@@AAV0@AAPAVCHelpComboBoxButton@@@Z=stub___5_YAAAVCArchive__AAV0_AAPAVCHelpComboBoxButton___Z @1546
    ??5@YAAAVCArchive@@AAV0@AAPAVCMapStringToOb@@@Z=stub___5_YAAAVCArchive__AAV0_AAPAVCMapStringToOb___Z @1547
    ??5@YAAAVCArchive@@AAV0@AAPAVCMapStringToString@@@Z=stub___5_YAAAVCArchive__AAV0_AAPAVCMapStringToString___Z @1548
    ??5@YAAAVCArchive@@AAV0@AAPAVCMapWordToOb@@@Z=stub___5_YAAAVCArchive__AAV0_AAPAVCMapWordToOb___Z @1549
    ??5@YAAAVCArchive@@AAV0@AAPAVCMFCColorBar@@@Z=stub___5_YAAAVCArchive__AAV0_AAPAVCMFCColorBar___Z @1550
    ??5@YAAAVCArchive@@AAV0@AAPAVCMFCColorMenuButton@@@Z=stub___5_YAAAVCArchive__AAV0_AAPAVCMFCColorMenuButton___Z @1551
    ??5@YAAAVCArchive@@AAV0@AAPAVCMFCCustomizeButton@@@Z=stub___5_YAAAVCArchive__AAV0_AAPAVCMFCCustomizeButton___Z @1552
    ??5@YAAAVCArchive@@AAV0@AAPAVCMFCDropDownFrame@@@Z=stub___5_YAAAVCArchive__AAV0_AAPAVCMFCDropDownFrame___Z @1553
    ??5@YAAAVCArchive@@AAV0@AAPAVCMFCDropDownToolBar@@@Z=stub___5_YAAAVCArchive__AAV0_AAPAVCMFCDropDownToolBar___Z @1554
    ??5@YAAAVCArchive@@AAV0@AAPAVCMFCDropDownToolbarButton@@@Z=stub___5_YAAAVCArchive__AAV0_AAPAVCMFCDropDownToolbarButton___Z @1555
    ??5@YAAAVCArchive@@AAV0@AAPAVCMFCMenuBar@@@Z=stub___5_YAAAVCArchive__AAV0_AAPAVCMFCMenuBar___Z @1556
    ??5@YAAAVCArchive@@AAV0@AAPAVCMFCOutlookBar@@@Z=stub___5_YAAAVCArchive__AAV0_AAPAVCMFCOutlookBar___Z @1557
    ??5@YAAAVCArchive@@AAV0@AAPAVCMFCOutlookBarPane@@@Z=stub___5_YAAAVCArchive__AAV0_AAPAVCMFCOutlookBarPane___Z @1558
    ??5@YAAAVCArchive@@AAV0@AAPAVCMFCOutlookBarPaneAdapter@@@Z=stub___5_YAAAVCArchive__AAV0_AAPAVCMFCOutlookBarPaneAdapter___Z @1559
    ??5@YAAAVCArchive@@AAV0@AAPAVCMFCOutlookBarPaneButton@@@Z=stub___5_YAAAVCArchive__AAV0_AAPAVCMFCOutlookBarPaneButton___Z @1560
    ??5@YAAAVCArchive@@AAV0@AAPAVCMFCPopupMenu@@@Z=stub___5_YAAAVCArchive__AAV0_AAPAVCMFCPopupMenu___Z @1561
    ??5@YAAAVCArchive@@AAV0@AAPAVCMFCPopupMenuBar@@@Z=stub___5_YAAAVCArchive__AAV0_AAPAVCMFCPopupMenuBar___Z @1562
    ??5@YAAAVCArchive@@AAV0@AAPAVCMFCTasksPane@@@Z=stub___5_YAAAVCArchive__AAV0_AAPAVCMFCTasksPane___Z @1563
    ??5@YAAAVCArchive@@AAV0@AAPAVCMFCTasksPaneFrameWnd@@@Z=stub___5_YAAAVCArchive__AAV0_AAPAVCMFCTasksPaneFrameWnd___Z @1564
    ??5@YAAAVCArchive@@AAV0@AAPAVCMFCTasksPaneToolBar@@@Z=stub___5_YAAAVCArchive__AAV0_AAPAVCMFCTasksPaneToolBar___Z @1565
    ??5@YAAAVCArchive@@AAV0@AAPAVCMFCToolBar@@@Z=stub___5_YAAAVCArchive__AAV0_AAPAVCMFCToolBar___Z @1566
    ??5@YAAAVCArchive@@AAV0@AAPAVCMFCToolBarButton@@@Z=stub___5_YAAAVCArchive__AAV0_AAPAVCMFCToolBarButton___Z @1567
    ??5@YAAAVCArchive@@AAV0@AAPAVCMFCToolBarColorButton@@@Z=stub___5_YAAAVCArchive__AAV0_AAPAVCMFCToolBarColorButton___Z @1568
    ??5@YAAAVCArchive@@AAV0@AAPAVCMFCToolBarComboBoxButton@@@Z=stub___5_YAAAVCArchive__AAV0_AAPAVCMFCToolBarComboBoxButton___Z @1569
    ??5@YAAAVCArchive@@AAV0@AAPAVCMFCToolBarDateTimeCtrl@@@Z=stub___5_YAAAVCArchive__AAV0_AAPAVCMFCToolBarDateTimeCtrl___Z @1570
    ??5@YAAAVCArchive@@AAV0@AAPAVCMFCToolBarEditBoxButton@@@Z=stub___5_YAAAVCArchive__AAV0_AAPAVCMFCToolBarEditBoxButton___Z @1571
    ??5@YAAAVCArchive@@AAV0@AAPAVCMFCToolBarFontComboBox@@@Z=stub___5_YAAAVCArchive__AAV0_AAPAVCMFCToolBarFontComboBox___Z @1572
    ??5@YAAAVCArchive@@AAV0@AAPAVCMFCToolBarFontSizeComboBox@@@Z=stub___5_YAAAVCArchive__AAV0_AAPAVCMFCToolBarFontSizeComboBox___Z @1573
    ??5@YAAAVCArchive@@AAV0@AAPAVCMFCToolBarMenuButton@@@Z=stub___5_YAAAVCArchive__AAV0_AAPAVCMFCToolBarMenuButton___Z @1574
    ??5@YAAAVCArchive@@AAV0@AAPAVCMFCToolBarSpinEditBoxButton@@@Z=stub___5_YAAAVCArchive__AAV0_AAPAVCMFCToolBarSpinEditBoxButton___Z @1575
    ??5@YAAAVCArchive@@AAV0@AAPAVCMFCToolBarSystemMenuButton@@@Z=stub___5_YAAAVCArchive__AAV0_AAPAVCMFCToolBarSystemMenuButton___Z @1576
    ??5@YAAAVCArchive@@AAV0@AAPAVCMouseManager@@@Z=stub___5_YAAAVCArchive__AAV0_AAPAVCMouseManager___Z @1577
    ??5@YAAAVCArchive@@AAV0@AAPAVCMultiPaneFrameWnd@@@Z=stub___5_YAAAVCArchive__AAV0_AAPAVCMultiPaneFrameWnd___Z @1578
    ??5@YAAAVCArchive@@AAV0@AAPAVCObArray@@@Z=stub___5_YAAAVCArchive__AAV0_AAPAVCObArray___Z @1579
    ??5@YAAAVCArchive@@AAV0@AAPAVCObList@@@Z=stub___5_YAAAVCArchive__AAV0_AAPAVCObList___Z @1580
    ??5@YAAAVCArchive@@AAV0@AAPAVCPaneDialog@@@Z=stub___5_YAAAVCArchive__AAV0_AAPAVCPaneDialog___Z @1581
    ??5@YAAAVCArchive@@AAV0@AAPAVCPaneFrameWnd@@@Z=stub___5_YAAAVCArchive__AAV0_AAPAVCPaneFrameWnd___Z @1582
    ??5@YAAAVCArchive@@AAV0@AAPAVCRichEditCntrItem@@@Z=stub___5_YAAAVCArchive__AAV0_AAPAVCRichEditCntrItem___Z @1583
    ??5@YAAAVCArchive@@AAV0@AAPAVCStringArray@@@Z=stub___5_YAAAVCArchive__AAV0_AAPAVCStringArray___Z @1584
    ??5@YAAAVCArchive@@AAV0@AAPAVCStringList@@@Z=stub___5_YAAAVCArchive__AAV0_AAPAVCStringList___Z @1585
    ??5@YAAAVCArchive@@AAV0@AAPAVCTabbedPane@@@Z=stub___5_YAAAVCArchive__AAV0_AAPAVCTabbedPane___Z @1586
    ??5@YAAAVCArchive@@AAV0@AAPAVCTasksPaneHistoryButton@@@Z=stub___5_YAAAVCArchive__AAV0_AAPAVCTasksPaneHistoryButton___Z @1587
    ??5@YAAAVCArchive@@AAV0@AAPAVCTasksPaneMenuButton@@@Z=stub___5_YAAAVCArchive__AAV0_AAPAVCTasksPaneMenuButton___Z @1588
    ??5@YAAAVCArchive@@AAV0@AAPAVCTasksPaneNavigateButton@@@Z=stub___5_YAAAVCArchive__AAV0_AAPAVCTasksPaneNavigateButton___Z @1589
    ??5@YAAAVCArchive@@AAV0@AAPAVCUserTool@@@Z=stub___5_YAAAVCArchive__AAV0_AAPAVCUserTool___Z @1590
    ??5@YAAAVCArchive@@AAV0@AAPAVCWordArray@@@Z=stub___5_YAAAVCArchive__AAV0_AAPAVCWordArray___Z @1591
    ??5@YAAAVCArchive@@AAV0@AAVCComBSTR@ATL@@@Z=stub___5_YAAAVCArchive__AAV0_AAVCComBSTR_ATL___Z @1592
    ??5@YAAAVCArchive@@AAV0@AAVCOleCurrency@@@Z=stub___5_YAAAVCArchive__AAV0_AAVCOleCurrency___Z @1593
    ??5@YAAAVCArchive@@AAV0@AAVCOleDateTime@ATL@@@Z=stub___5_YAAAVCArchive__AAV0_AAVCOleDateTime_ATL___Z @1594
    ??5@YAAAVCArchive@@AAV0@AAVCOleDateTimeSpan@ATL@@@Z=stub___5_YAAAVCArchive__AAV0_AAVCOleDateTimeSpan_ATL___Z @1595
    ??5@YAAAVCArchive@@AAV0@AAVCOleVariant@@@Z=stub___5_YAAAVCArchive__AAV0_AAVCOleVariant___Z @1596
    ??5@YAAAVCArchive@@AAV0@AAVCTime@ATL@@@Z=stub___5_YAAAVCArchive__AAV0_AAVCTime_ATL___Z @1597
    ??5@YAAAVCArchive@@AAV0@AAVCTimeSpan@ATL@@@Z=stub___5_YAAAVCArchive__AAV0_AAVCTimeSpan_ATL___Z @1598
    ??6@YAAAVCArchive@@AAV0@VCComBSTR@ATL@@@Z=stub___6_YAAAVCArchive__AAV0_VCComBSTR_ATL___Z @1599
    ??6@YAAAVCArchive@@AAV0@VCOleCurrency@@@Z=stub___6_YAAAVCArchive__AAV0_VCOleCurrency___Z @1600
    ??6@YAAAVCArchive@@AAV0@VCOleDateTime@ATL@@@Z=stub___6_YAAAVCArchive__AAV0_VCOleDateTime_ATL___Z @1601
    ??6@YAAAVCArchive@@AAV0@VCOleDateTimeSpan@ATL@@@Z=stub___6_YAAAVCArchive__AAV0_VCOleDateTimeSpan_ATL___Z @1602
    ??6@YAAAVCArchive@@AAV0@VCOleVariant@@@Z=stub___6_YAAAVCArchive__AAV0_VCOleVariant___Z @1603
    ??6@YAAAVCArchive@@AAV0@VCTime@ATL@@@Z=stub___6_YAAAVCArchive__AAV0_VCTime_ATL___Z @1604
    ??6@YAAAVCArchive@@AAV0@VCTimeSpan@ATL@@@Z=stub___6_YAAAVCArchive__AAV0_VCTimeSpan_ATL___Z @1605
    ??6CDumpContext@@QAAAAV0@_J@Z=stub___6CDumpContext__QAAAAV0__J_Z @1606
    ??6CDumpContext@@QAAAAV0@_K@Z=stub___6CDumpContext__QAAAAV0__K_Z @1607
    ??6CDumpContext@@QAAAAV0@ABVCObject@@@Z=stub___6CDumpContext__QAAAAV0_ABVCObject___Z @1608
    ??6CDumpContext@@QAAAAV0@E@Z=stub___6CDumpContext__QAAAAV0_E_Z @1609
    ??6CDumpContext@@QAAAAV0@G@Z=stub___6CDumpContext__QAAAAV0_G_Z @1610
    ??6CDumpContext@@QAAAAV0@H@Z=stub___6CDumpContext__QAAAAV0_H_Z @1611
    ??6CDumpContext@@QAAAAV0@I@Z=stub___6CDumpContext__QAAAAV0_I_Z @1612
    ??6CDumpContext@@QAAAAV0@J@Z=stub___6CDumpContext__QAAAAV0_J_Z @1613
    ??6CDumpContext@@QAAAAV0@K@Z=stub___6CDumpContext__QAAAAV0_K_Z @1614
    ??6CDumpContext@@QAAAAV0@PAUHACCEL__@@@Z=stub___6CDumpContext__QAAAAV0_PAUHACCEL_____Z @1615
    ??6CDumpContext@@QAAAAV0@PAUHDC__@@@Z=stub___6CDumpContext__QAAAAV0_PAUHDC_____Z @1616
    ??6CDumpContext@@QAAAAV0@PAUHFONT__@@@Z=stub___6CDumpContext__QAAAAV0_PAUHFONT_____Z @1617
    ??6CDumpContext@@QAAAAV0@PAUHMENU__@@@Z=stub___6CDumpContext__QAAAAV0_PAUHMENU_____Z @1618
    ??6CDumpContext@@QAAAAV0@PAUHWND__@@@Z=stub___6CDumpContext__QAAAAV0_PAUHWND_____Z @1619
    ??6CDumpContext@@QAAAAV0@PB_W@Z=stub___6CDumpContext__QAAAAV0_PB_W_Z @1620
    ??6CDumpContext@@QAAAAV0@PBD@Z=stub___6CDumpContext__QAAAAV0_PBD_Z @1621
    ??6CDumpContext@@QAAAAV0@PBVCObject@@@Z=stub___6CDumpContext__QAAAAV0_PBVCObject___Z @1622
    ??6CDumpContext@@QAAAAV0@PBX@Z=stub___6CDumpContext__QAAAAV0_PBX_Z @1623
    ??8COleSafeArray@@QBAHABUtagSAFEARRAY@@@Z=stub___8COleSafeArray__QBAHABUtagSAFEARRAY___Z @1624
    ??8COleSafeArray@@QBAHABUtagVARIANT@@@Z=stub___8COleSafeArray__QBAHABUtagVARIANT___Z @1625
    ??8COleSafeArray@@QBAHABV0@@Z=stub___8COleSafeArray__QBAHABV0__Z @1626
    ??8COleSafeArray@@QBAHABVCOleVariant@@@Z=stub___8COleSafeArray__QBAHABVCOleVariant___Z @1627
    ??8COleSafeArray@@QBAHPBUtagSAFEARRAY@@@Z=stub___8COleSafeArray__QBAHPBUtagSAFEARRAY___Z @1628
    ??8COleSafeArray@@QBAHPBUtagVARIANT@@@Z=stub___8COleSafeArray__QBAHPBUtagVARIANT___Z @1629
    ??8COleVariant@@QBAHABUtagVARIANT@@@Z=stub___8COleVariant__QBAHABUtagVARIANT___Z @1630
    ??A?$CSimpleStringT@_W$00@ATL@@QBA_WH@Z=stub___A__CSimpleStringT__W_00_ATL__QBA_WH_Z @1631
    ??A?$CSimpleStringT@D$00@ATL@@QBADH@Z=stub___A__CSimpleStringT_D_00_ATL__QBADH_Z @1632
    ??ACMapPtrToPtr@@QAAAAPAXPAX@Z=stub___ACMapPtrToPtr__QAAAAPAXPAX_Z @1633
    ??ACMapPtrToWord@@QAAAAGPAX@Z=stub___ACMapPtrToWord__QAAAAGPAX_Z @1634
    ??ACMapStringToOb@@QAAAAPAVCObject@@PB_W@Z=stub___ACMapStringToOb__QAAAAPAVCObject__PB_W_Z @1635
    ??ACMapStringToPtr@@QAAAAPAXPB_W@Z=stub___ACMapStringToPtr__QAAAAPAXPB_W_Z @1636
    ??ACMapStringToString@@QAAAAV?$CStringT@_WV?$StrTraitMFC_DLL@_WV?$ChTraitsCRT@_W@ATL@@@@@ATL@@PB_W@Z=stub___ACMapStringToString__QAAAAV__CStringT__WV__StrTraitMFC_DLL__WV__ChTraitsCRT__W_ATL_____ATL__PB_W_Z @1637
    ??ACMapWordToOb@@QAAAAPAVCObject@@G@Z=stub___ACMapWordToOb__QAAAAPAVCObject__G_Z @1638
    ??ACMapWordToPtr@@QAAAAPAXG@Z=stub___ACMapWordToPtr__QAAAAPAXG_Z @1639
    ??B?$CSimpleStringT@_W$00@ATL@@QAAAAV?$CSimpleStringT@_W$0A@@1@XZ=stub___B__CSimpleStringT__W_00_ATL__QAAAAV__CSimpleStringT__W_0A__1_XZ @1640
    ??B?$CSimpleStringT@_W$00@ATL@@QBAPB_WXZ=stub___B__CSimpleStringT__W_00_ATL__QBAPB_WXZ @1641
    ??B?$CSimpleStringT@D$00@ATL@@QAAAAV?$CSimpleStringT@D$0A@@1@XZ=stub___B__CSimpleStringT_D_00_ATL__QAAAAV__CSimpleStringT_D_0A__1_XZ @1642
    ??B?$CSimpleStringT@D$00@ATL@@QBAPBDXZ=stub___B__CSimpleStringT_D_00_ATL__QBAPBDXZ @1643
    ??B?$CStringT@_WV?$StrTraitMFC_DLL@_WV?$ChTraitsCRT@_W@ATL@@@@@ATL@@QAAAAV?$CSimpleStringT@_W$0A@@1@XZ=stub___B__CStringT__WV__StrTraitMFC_DLL__WV__ChTraitsCRT__W_ATL_____ATL__QAAAAV__CSimpleStringT__W_0A__1_XZ @1644
    ??B?$CStringT@DV?$StrTraitMFC_DLL@DV?$ChTraitsCRT@D@ATL@@@@@ATL@@QAAAAV?$CSimpleStringT@D$0A@@1@XZ=stub___B__CStringT_DV__StrTraitMFC_DLL_DV__ChTraitsCRT_D_ATL_____ATL__QAAAAV__CSimpleStringT_D_0A__1_XZ @1645
    ??DCOleCurrency@@QBA?AV0@J@Z=stub___DCOleCurrency__QBA_AV0_J_Z @1646
    ??GCOleCurrency@@QBA?AV0@ABV0@@Z=stub___GCOleCurrency__QBA_AV0_ABV0__Z @1647
    ??GCOleCurrency@@QBA?AV0@XZ=stub___GCOleCurrency__QBA_AV0_XZ @1648
    ??HCOleCurrency@@QBA?AV0@ABV0@@Z=stub___HCOleCurrency__QBA_AV0_ABV0__Z @1649
    ??KCOleCurrency@@QBA?AV0@J@Z=stub___KCOleCurrency__QBA_AV0_J_Z @1650
    ??MCOleCurrency@@QBAHABV0@@Z=stub___MCOleCurrency__QBAHABV0__Z @1651
    ??NCOleCurrency@@QBAHABV0@@Z=stub___NCOleCurrency__QBAHABV0__Z @1652
    ??OCOleCurrency@@QBAHABV0@@Z=stub___OCOleCurrency__QBAHABV0__Z @1653
    ??PCOleCurrency@@QBAHABV0@@Z=stub___PCOleCurrency__QBAHABV0__Z @1654
    ??Y?$CSimpleStringT@_W$00@ATL@@QAAAAV01@_W@Z=stub___Y__CSimpleStringT__W_00_ATL__QAAAAV01__W_Z @1655
    ??Y?$CSimpleStringT@_W$00@ATL@@QAAAAV01@ABV01@@Z=stub___Y__CSimpleStringT__W_00_ATL__QAAAAV01_ABV01__Z @1656
    ??Y?$CSimpleStringT@_W$00@ATL@@QAAAAV01@D@Z=stub___Y__CSimpleStringT__W_00_ATL__QAAAAV01_D_Z @1657
    ??Y?$CSimpleStringT@_W$00@ATL@@QAAAAV01@E@Z=stub___Y__CSimpleStringT__W_00_ATL__QAAAAV01_E_Z @1658
    ??Y?$CSimpleStringT@_W$00@ATL@@QAAAAV01@PB_W@Z=stub___Y__CSimpleStringT__W_00_ATL__QAAAAV01_PB_W_Z @1659
    ??Y?$CSimpleStringT@D$00@ATL@@QAAAAV01@_W@Z=stub___Y__CSimpleStringT_D_00_ATL__QAAAAV01__W_Z @1660
    ??Y?$CSimpleStringT@D$00@ATL@@QAAAAV01@ABV01@@Z=stub___Y__CSimpleStringT_D_00_ATL__QAAAAV01_ABV01__Z @1661
    ??Y?$CSimpleStringT@D$00@ATL@@QAAAAV01@D@Z=stub___Y__CSimpleStringT_D_00_ATL__QAAAAV01_D_Z @1662
    ??Y?$CSimpleStringT@D$00@ATL@@QAAAAV01@E@Z=stub___Y__CSimpleStringT_D_00_ATL__QAAAAV01_E_Z @1663
    ??Y?$CSimpleStringT@D$00@ATL@@QAAAAV01@PBD@Z=stub___Y__CSimpleStringT_D_00_ATL__QAAAAV01_PBD_Z @1664
    ??Y?$CStringT@_WV?$StrTraitMFC_DLL@_WV?$ChTraitsCRT@_W@ATL@@@@@ATL@@QAAAAV01@_W@Z=stub___Y__CStringT__WV__StrTraitMFC_DLL__WV__ChTraitsCRT__W_ATL_____ATL__QAAAAV01__W_Z @1665
    ??Y?$CStringT@_WV?$StrTraitMFC_DLL@_WV?$ChTraitsCRT@_W@ATL@@@@@ATL@@QAAAAV01@ABUtagVARIANT@@@Z=stub___Y__CStringT__WV__StrTraitMFC_DLL__WV__ChTraitsCRT__W_ATL_____ATL__QAAAAV01_ABUtagVARIANT___Z @1666
    ??Y?$CStringT@_WV?$StrTraitMFC_DLL@_WV?$ChTraitsCRT@_W@ATL@@@@@ATL@@QAAAAV01@ABV?$CSimpleStringT@_W$00@1@@Z=stub___Y__CStringT__WV__StrTraitMFC_DLL__WV__ChTraitsCRT__W_ATL_____ATL__QAAAAV01_ABV__CSimpleStringT__W_00_1__Z @1667
    ??Y?$CStringT@_WV?$StrTraitMFC_DLL@_WV?$ChTraitsCRT@_W@ATL@@@@@ATL@@QAAAAV01@D@Z=stub___Y__CStringT__WV__StrTraitMFC_DLL__WV__ChTraitsCRT__W_ATL_____ATL__QAAAAV01_D_Z @1668
    ??Y?$CStringT@_WV?$StrTraitMFC_DLL@_WV?$ChTraitsCRT@_W@ATL@@@@@ATL@@QAAAAV01@E@Z=stub___Y__CStringT__WV__StrTraitMFC_DLL__WV__ChTraitsCRT__W_ATL_____ATL__QAAAAV01_E_Z @1669
    ??Y?$CStringT@_WV?$StrTraitMFC_DLL@_WV?$ChTraitsCRT@_W@ATL@@@@@ATL@@QAAAAV01@PB_W@Z=stub___Y__CStringT__WV__StrTraitMFC_DLL__WV__ChTraitsCRT__W_ATL_____ATL__QAAAAV01_PB_W_Z @1670
    ??Y?$CStringT@_WV?$StrTraitMFC_DLL@_WV?$ChTraitsCRT@_W@ATL@@@@@ATL@@QAAAAV01@PBD@Z=stub___Y__CStringT__WV__StrTraitMFC_DLL__WV__ChTraitsCRT__W_ATL_____ATL__QAAAAV01_PBD_Z @1671
    ??Y?$CStringT@DV?$StrTraitMFC_DLL@DV?$ChTraitsCRT@D@ATL@@@@@ATL@@QAAAAV01@_W@Z=stub___Y__CStringT_DV__StrTraitMFC_DLL_DV__ChTraitsCRT_D_ATL_____ATL__QAAAAV01__W_Z @1672
    ??Y?$CStringT@DV?$StrTraitMFC_DLL@DV?$ChTraitsCRT@D@ATL@@@@@ATL@@QAAAAV01@ABUtagVARIANT@@@Z=stub___Y__CStringT_DV__StrTraitMFC_DLL_DV__ChTraitsCRT_D_ATL_____ATL__QAAAAV01_ABUtagVARIANT___Z @1673
    ??Y?$CStringT@DV?$StrTraitMFC_DLL@DV?$ChTraitsCRT@D@ATL@@@@@ATL@@QAAAAV01@ABV?$CSimpleStringT@D$00@1@@Z=stub___Y__CStringT_DV__StrTraitMFC_DLL_DV__ChTraitsCRT_D_ATL_____ATL__QAAAAV01_ABV__CSimpleStringT_D_00_1__Z @1674
    ??Y?$CStringT@DV?$StrTraitMFC_DLL@DV?$ChTraitsCRT@D@ATL@@@@@ATL@@QAAAAV01@D@Z=stub___Y__CStringT_DV__StrTraitMFC_DLL_DV__ChTraitsCRT_D_ATL_____ATL__QAAAAV01_D_Z @1675
    ??Y?$CStringT@DV?$StrTraitMFC_DLL@DV?$ChTraitsCRT@D@ATL@@@@@ATL@@QAAAAV01@E@Z=stub___Y__CStringT_DV__StrTraitMFC_DLL_DV__ChTraitsCRT_D_ATL_____ATL__QAAAAV01_E_Z @1676
    ??Y?$CStringT@DV?$StrTraitMFC_DLL@DV?$ChTraitsCRT@D@ATL@@@@@ATL@@QAAAAV01@PB_W@Z=stub___Y__CStringT_DV__StrTraitMFC_DLL_DV__ChTraitsCRT_D_ATL_____ATL__QAAAAV01_PB_W_Z @1677
    ??Y?$CStringT@DV?$StrTraitMFC_DLL@DV?$ChTraitsCRT@D@ATL@@@@@ATL@@QAAAAV01@PBD@Z=stub___Y__CStringT_DV__StrTraitMFC_DLL_DV__ChTraitsCRT_D_ATL_____ATL__QAAAAV01_PBD_Z @1678
    ?_AfxAbortProc@@YAHPAUHDC__@@H@Z=stub___AfxAbortProc__YAHPAUHDC____H_Z @1679
    ?_AfxDeleteRegKey@@YAHPB_W@Z=stub___AfxDeleteRegKey__YAHPB_W_Z @1680
    ?_AfxFindSiteOrWnd@@YAPAUCOleControlSiteOrWnd@@PAVCWnd@@0@Z=stub___AfxFindSiteOrWnd__YAPAUCOleControlSiteOrWnd__PAVCWnd__0_Z @1681
    ?_AfxSocketInit@@YAHPAUWSAData@@@Z=stub___AfxSocketInit__YAHPAUWSAData___Z @1682
    ?Abort@CArchive@@QAAXXZ=stub__Abort_CArchive__QAAXXZ @1683
    ?Abort@CFile@@UAAXXZ=stub__Abort_CFile__UAAXXZ @1684
    ?Abort@CInternetFile@@UAAXXZ=stub__Abort_CInternetFile__UAAXXZ @1685
    ?Abort@CMemFile@@UAAXXZ=stub__Abort_CMemFile__UAAXXZ @1686
    ?Abort@CMirrorFile@@UAAXXZ=stub__Abort_CMirrorFile__UAAXXZ @1687
    ?Abort@COleStreamFile@@UAAXXZ=stub__Abort_COleStreamFile__UAAXXZ @1688
    ?Abort@CSocketFile@@UAAXXZ=stub__Abort_CSocketFile__UAAXXZ @1689
    ?Abort@CStdioFile@@UAAXXZ=stub__Abort_CStdioFile__UAAXXZ @1690
    ?AboutToDo@XNotifyDBEvents@COleControlSite@@UAAJKKQAUtagDBNOTIFYREASON@@@Z=stub__AboutToDo_XNotifyDBEvents_COleControlSite__UAAJKKQAUtagDBNOTIFYREASON___Z @1691
    ?accDoDefaultAction@CCheckListBox@@MAAJUtagVARIANT@@@Z=stub__accDoDefaultAction_CCheckListBox__MAAJUtagVARIANT___Z @1692
    ?accDoDefaultAction@CMFCBaseAccessibleObject@@UAAJUtagVARIANT@@@Z=stub__accDoDefaultAction_CMFCBaseAccessibleObject__UAAJUtagVARIANT___Z @1693
    ?accDoDefaultAction@CMFCRibbonBar@@UAAJUtagVARIANT@@@Z=stub__accDoDefaultAction_CMFCRibbonBar__UAAJUtagVARIANT___Z @1694
    ?accDoDefaultAction@CMFCRibbonBaseElement@@UAAJUtagVARIANT@@@Z=stub__accDoDefaultAction_CMFCRibbonBaseElement__UAAJUtagVARIANT___Z @1695
    ?accDoDefaultAction@CMFCRibbonContextCaption@@MAAJUtagVARIANT@@@Z=stub__accDoDefaultAction_CMFCRibbonContextCaption__MAAJUtagVARIANT___Z @1696
    ?accDoDefaultAction@CMFCRibbonPanel@@MAAJUtagVARIANT@@@Z=stub__accDoDefaultAction_CMFCRibbonPanel__MAAJUtagVARIANT___Z @1697
    ?accDoDefaultAction@CMFCRibbonQuickAccessToolBar@@MAAJUtagVARIANT@@@Z=stub__accDoDefaultAction_CMFCRibbonQuickAccessToolBar__MAAJUtagVARIANT___Z @1698
    ?accDoDefaultAction@CMFCRibbonTabsGroup@@MAAJUtagVARIANT@@@Z=stub__accDoDefaultAction_CMFCRibbonTabsGroup__MAAJUtagVARIANT___Z @1699
    ?accDoDefaultAction@CMFCToolBar@@MAAJUtagVARIANT@@@Z=stub__accDoDefaultAction_CMFCToolBar__MAAJUtagVARIANT___Z @1700
    ?accDoDefaultAction@CWnd@@UAAJUtagVARIANT@@@Z=stub__accDoDefaultAction_CWnd__UAAJUtagVARIANT___Z @1701
    ?accDoDefaultAction@XAccessible@CMFCBaseAccessibleObject@@UAAJUtagVARIANT@@@Z=stub__accDoDefaultAction_XAccessible_CMFCBaseAccessibleObject__UAAJUtagVARIANT___Z @1702
    ?accDoDefaultAction@XAccessible@CWnd@@UAAJUtagVARIANT@@@Z=stub__accDoDefaultAction_XAccessible_CWnd__UAAJUtagVARIANT___Z @1703
    ?Accept@CAsyncSocket@@UAAHAAV1@PAUsockaddr@@PAH@Z=stub__Accept_CAsyncSocket__UAAHAAV1_PAUsockaddr__PAH_Z @1704
    ?Accept@CSocket@@UAAHAAVCAsyncSocket@@PAUsockaddr@@PAH@Z=stub__Accept_CSocket__UAAHAAVCAsyncSocket__PAUsockaddr__PAH_Z @1705
    ?AccessData@COleSafeArray@@QAAXPAPAX@Z=stub__AccessData_COleSafeArray__QAAXPAPAX_Z @1706
    ?AccessibleObjectByIndex@CMFCRibbonBar@@QAAPAVCMFCBaseAccessibleObject@@J@Z=stub__AccessibleObjectByIndex_CMFCRibbonBar__QAAPAVCMFCBaseAccessibleObject__J_Z @1707
    ?AccessibleObjectFromPoint@CMFCRibbonBar@@QAAPAVCMFCBaseAccessibleObject@@VCPoint@@@Z=stub__AccessibleObjectFromPoint_CMFCRibbonBar__QAAPAVCMFCBaseAccessibleObject__VCPoint___Z @1708
    ?AccGetButtonByChildId@CMFCToolBar@@IAAPAVCMFCToolBarButton@@J@Z=stub__AccGetButtonByChildId_CMFCToolBar__IAAPAVCMFCToolBarButton__J_Z @1709
    ?AccGetButtonsCount@CMFCToolBar@@MAAHXZ=stub__AccGetButtonsCount_CMFCToolBar__MAAHXZ @1710
    ?AccGetChildIdByButtonIndex@CMFCToolBar@@IAAHH@Z=stub__AccGetChildIdByButtonIndex_CMFCToolBar__IAAHH_Z @1711
    ?accHitTest@CBasePane@@UAAJJJPAUtagVARIANT@@@Z=stub__accHitTest_CBasePane__UAAJJJPAUtagVARIANT___Z @1712
    ?accHitTest@CMFCBaseAccessibleObject@@UAAJJJPAUtagVARIANT@@@Z=stub__accHitTest_CMFCBaseAccessibleObject__UAAJJJPAUtagVARIANT___Z @1713
    ?accHitTest@CMFCPropertyGridCtrl@@UAAJJJPAUtagVARIANT@@@Z=stub__accHitTest_CMFCPropertyGridCtrl__UAAJJJPAUtagVARIANT___Z @1714
    ?accHitTest@CMFCRibbonBar@@UAAJJJPAUtagVARIANT@@@Z=stub__accHitTest_CMFCRibbonBar__UAAJJJPAUtagVARIANT___Z @1715
    ?accHitTest@CMFCRibbonBaseElement@@UAAJJJPAUtagVARIANT@@@Z=stub__accHitTest_CMFCRibbonBaseElement__UAAJJJPAUtagVARIANT___Z @1716
    ?accHitTest@CMFCRibbonCategory@@UAAJJJPAUtagVARIANT@@@Z=stub__accHitTest_CMFCRibbonCategory__UAAJJJPAUtagVARIANT___Z @1717
    ?accHitTest@CMFCRibbonPanel@@MAAJJJPAUtagVARIANT@@@Z=stub__accHitTest_CMFCRibbonPanel__MAAJJJPAUtagVARIANT___Z @1718
    ?accHitTest@CMFCRibbonQuickAccessToolBar@@MAAJJJPAUtagVARIANT@@@Z=stub__accHitTest_CMFCRibbonQuickAccessToolBar__MAAJJJPAUtagVARIANT___Z @1719
    ?accHitTest@CMFCRibbonTab@@UAAJJJPAUtagVARIANT@@@Z=stub__accHitTest_CMFCRibbonTab__UAAJJJPAUtagVARIANT___Z @1720
    ?accHitTest@CMFCRibbonTabsGroup@@MAAJJJPAUtagVARIANT@@@Z=stub__accHitTest_CMFCRibbonTabsGroup__MAAJJJPAUtagVARIANT___Z @1721
    ?accHitTest@CMFCToolBar@@MAAJJJPAUtagVARIANT@@@Z=stub__accHitTest_CMFCToolBar__MAAJJJPAUtagVARIANT___Z @1722
    ?accHitTest@CWnd@@UAAJJJPAUtagVARIANT@@@Z=stub__accHitTest_CWnd__UAAJJJPAUtagVARIANT___Z @1723
    ?accHitTest@XAccessible@CMFCBaseAccessibleObject@@UAAJJJPAUtagVARIANT@@@Z=stub__accHitTest_XAccessible_CMFCBaseAccessibleObject__UAAJJJPAUtagVARIANT___Z @1724
    ?accHitTest@XAccessible@CWnd@@UAAJJJPAUtagVARIANT@@@Z=stub__accHitTest_XAccessible_CWnd__UAAJJJPAUtagVARIANT___Z @1725
    ?accLocation@CBasePane@@UAAJPAJ000UtagVARIANT@@@Z=stub__accLocation_CBasePane__UAAJPAJ000UtagVARIANT___Z @1726
    ?accLocation@CMFCBaseAccessibleObject@@UAAJPAJ000UtagVARIANT@@@Z=stub__accLocation_CMFCBaseAccessibleObject__UAAJPAJ000UtagVARIANT___Z @1727
    ?accLocation@CMFCPropertyGridCtrl@@UAAJPAJ000UtagVARIANT@@@Z=stub__accLocation_CMFCPropertyGridCtrl__UAAJPAJ000UtagVARIANT___Z @1728
    ?accLocation@CMFCRibbonBar@@UAAJPAJ000UtagVARIANT@@@Z=stub__accLocation_CMFCRibbonBar__UAAJPAJ000UtagVARIANT___Z @1729
    ?accLocation@CMFCRibbonBaseElement@@UAAJPAJ000UtagVARIANT@@@Z=stub__accLocation_CMFCRibbonBaseElement__UAAJPAJ000UtagVARIANT___Z @1730
    ?accLocation@CMFCRibbonCategory@@UAAJPAJ000UtagVARIANT@@@Z=stub__accLocation_CMFCRibbonCategory__UAAJPAJ000UtagVARIANT___Z @1731
    ?accLocation@CMFCRibbonPanel@@MAAJPAJ000UtagVARIANT@@@Z=stub__accLocation_CMFCRibbonPanel__MAAJPAJ000UtagVARIANT___Z @1732
    ?accLocation@CMFCRibbonQuickAccessToolBar@@MAAJPAJ000UtagVARIANT@@@Z=stub__accLocation_CMFCRibbonQuickAccessToolBar__MAAJPAJ000UtagVARIANT___Z @1733
    ?accLocation@CMFCRibbonTab@@UAAJPAJ000UtagVARIANT@@@Z=stub__accLocation_CMFCRibbonTab__UAAJPAJ000UtagVARIANT___Z @1734
    ?accLocation@CWnd@@UAAJPAJ000UtagVARIANT@@@Z=stub__accLocation_CWnd__UAAJPAJ000UtagVARIANT___Z @1735
    ?accLocation@XAccessible@CMFCBaseAccessibleObject@@UAAJPAJ000UtagVARIANT@@@Z=stub__accLocation_XAccessible_CMFCBaseAccessibleObject__UAAJPAJ000UtagVARIANT___Z @1736
    ?accLocation@XAccessible@CWnd@@UAAJPAJ000UtagVARIANT@@@Z=stub__accLocation_XAccessible_CWnd__UAAJPAJ000UtagVARIANT___Z @1737
    ?accNavigate@CMFCBaseAccessibleObject@@UAAJJUtagVARIANT@@PAU2@@Z=stub__accNavigate_CMFCBaseAccessibleObject__UAAJJUtagVARIANT__PAU2__Z @1738
    ?accNavigate@CMFCRibbonApplicationButton@@MAAJJUtagVARIANT@@PAU2@@Z=stub__accNavigate_CMFCRibbonApplicationButton__MAAJJUtagVARIANT__PAU2__Z @1739
    ?accNavigate@CMFCRibbonBar@@UAAJJUtagVARIANT@@PAU2@@Z=stub__accNavigate_CMFCRibbonBar__UAAJJUtagVARIANT__PAU2__Z @1740
    ?accNavigate@CMFCRibbonBaseElement@@UAAJJUtagVARIANT@@PAU2@@Z=stub__accNavigate_CMFCRibbonBaseElement__UAAJJUtagVARIANT__PAU2__Z @1741
    ?accNavigate@CMFCRibbonCategory@@UAAJJUtagVARIANT@@PAU2@@Z=stub__accNavigate_CMFCRibbonCategory__UAAJJUtagVARIANT__PAU2__Z @1742
    ?accNavigate@CMFCRibbonContextCaption@@MAAJJUtagVARIANT@@PAU2@@Z=stub__accNavigate_CMFCRibbonContextCaption__MAAJJUtagVARIANT__PAU2__Z @1743
    ?accNavigate@CMFCRibbonPanel@@MAAJJUtagVARIANT@@PAU2@@Z=stub__accNavigate_CMFCRibbonPanel__MAAJJUtagVARIANT__PAU2__Z @1744
    ?accNavigate@CMFCRibbonQuickAccessToolBar@@MAAJJUtagVARIANT@@PAU2@@Z=stub__accNavigate_CMFCRibbonQuickAccessToolBar__MAAJJUtagVARIANT__PAU2__Z @1745
    ?accNavigate@CMFCRibbonTab@@UAAJJUtagVARIANT@@PAU2@@Z=stub__accNavigate_CMFCRibbonTab__UAAJJUtagVARIANT__PAU2__Z @1746
    ?accNavigate@CMFCRibbonTabsGroup@@MAAJJUtagVARIANT@@PAU2@@Z=stub__accNavigate_CMFCRibbonTabsGroup__MAAJJUtagVARIANT__PAU2__Z @1747
    ?accNavigate@CMFCToolBar@@MAAJJUtagVARIANT@@PAU2@@Z=stub__accNavigate_CMFCToolBar__MAAJJUtagVARIANT__PAU2__Z @1748
    ?accNavigate@CWnd@@UAAJJUtagVARIANT@@PAU2@@Z=stub__accNavigate_CWnd__UAAJJUtagVARIANT__PAU2__Z @1749
    ?accNavigate@XAccessible@CMFCBaseAccessibleObject@@UAAJJUtagVARIANT@@PAU3@@Z=stub__accNavigate_XAccessible_CMFCBaseAccessibleObject__UAAJJUtagVARIANT__PAU3__Z @1750
    ?accNavigate@XAccessible@CWnd@@UAAJJUtagVARIANT@@PAU3@@Z=stub__accNavigate_XAccessible_CWnd__UAAJJUtagVARIANT__PAU3__Z @1751
    ?AccNotifyObjectFocusEvent@CMFCToolBar@@MAAXH@Z=stub__AccNotifyObjectFocusEvent_CMFCToolBar__MAAXH_Z @1752
    ?accSelect@CBasePane@@UAAJJUtagVARIANT@@@Z=stub__accSelect_CBasePane__UAAJJUtagVARIANT___Z @1753
    ?accSelect@CMFCBaseAccessibleObject@@UAAJJUtagVARIANT@@@Z=stub__accSelect_CMFCBaseAccessibleObject__UAAJJUtagVARIANT___Z @1754
    ?accSelect@CMFCPropertyGridCtrl@@UAAJJUtagVARIANT@@@Z=stub__accSelect_CMFCPropertyGridCtrl__UAAJJUtagVARIANT___Z @1755
    ?accSelect@CWnd@@UAAJJUtagVARIANT@@@Z=stub__accSelect_CWnd__UAAJJUtagVARIANT___Z @1756
    ?accSelect@XAccessible@CMFCBaseAccessibleObject@@UAAJJUtagVARIANT@@@Z=stub__accSelect_XAccessible_CMFCBaseAccessibleObject__UAAJJUtagVARIANT___Z @1757
    ?accSelect@XAccessible@CWnd@@UAAJJUtagVARIANT@@@Z=stub__accSelect_XAccessible_CWnd__UAAJJUtagVARIANT___Z @1758
    ?Activate@COleClientItem@@QAAXJPAVCView@@PAUtagMSG@@@Z=stub__Activate_COleClientItem__QAAXJPAVCView__PAUtagMSG___Z @1759
    ?Activate@XPropertyPage@COlePropertyPage@@UAAJPAUHWND__@@PBUtagRECT@@H@Z=stub__Activate_XPropertyPage_COlePropertyPage__UAAJPAUHWND____PBUtagRECT__H_Z @1760
    ?ActivateAndShow@COleDocObjectItem@@IAAXXZ=stub__ActivateAndShow_COleDocObjectItem__IAAXXZ @1761
    ?ActivateAs@COleClientItem@@UAAHPB_WABU_GUID@@1@Z=stub__ActivateAs_COleClientItem__UAAHPB_WABU_GUID__1_Z @1762
    ?ActivateAs@CRichEditCntrItem@@UAAHPB_WABU_GUID@@1@Z=stub__ActivateAs_CRichEditCntrItem__UAAHPB_WABU_GUID__1_Z @1763
    ?ActivateContextCategory@CMFCRibbonBar@@QAAHI@Z=stub__ActivateContextCategory_CMFCRibbonBar__QAAHI_Z @1764
    ?ActivateDocObject@CDocObjectServer@@QAAXXZ=stub__ActivateDocObject_CDocObjectServer__QAAXXZ @1765
    ?ActivateDocObject@COleServerDoc@@QAAXXZ=stub__ActivateDocObject_COleServerDoc__QAAXXZ @1766
    ?ActivateFrame@CFrameWnd@@UAAXH@Z=stub__ActivateFrame_CFrameWnd__UAAXH_Z @1767
    ?ActivateFrame@CMDIChildWnd@@UAAXH@Z=stub__ActivateFrame_CMDIChildWnd__UAAXH_Z @1768
    ?ActivateFrame@CMDIChildWndEx@@UAAXH@Z=stub__ActivateFrame_CMDIChildWndEx__UAAXH_Z @1769
    ?ActivateInPlace@COleServerDoc@@QAAHXZ=stub__ActivateInPlace_COleServerDoc__QAAHXZ @1770
    ?ActivateMDITab@CMFCTabCtrl@@QAAXH@Z=stub__ActivateMDITab_CMFCTabCtrl__QAAXH_Z @1771
    ?ActivateMe@XOleDocumentSite@COleDocObjectItem@@UAAJPAUIOleDocumentView@@@Z=stub__ActivateMe_XOleDocumentSite_COleDocObjectItem__UAAJPAUIOleDocumentView___Z @1772
    ?ActivateNext@CSplitterWnd@@UAAXH@Z=stub__ActivateNext_CSplitterWnd__UAAXH_Z @1773
    ?ActivatePopupMenu@CMFCPopupMenu@@SAHPAVCFrameWnd@@PAV1@@Z=stub__ActivatePopupMenu_CMFCPopupMenu__SAHPAVCFrameWnd__PAV1__Z @1774
    ?ActivateTopLevelFrame@CMDIChildWndEx@@MAAXXZ=stub__ActivateTopLevelFrame_CMDIChildWndEx__MAAXXZ @1775
    ?ActivateTopParent@CWnd@@QAAXXZ=stub__ActivateTopParent_CWnd__QAAXXZ @1776
    ?ActiveItemRecalcLayout@CFrameWndEx@@QAAXXZ=stub__ActiveItemRecalcLayout_CFrameWndEx__QAAXXZ @1777
    ?ActiveItemRecalcLayout@CMDIFrameWndEx@@QAAXXZ=stub__ActiveItemRecalcLayout_CMDIFrameWndEx__QAAXXZ @1778
    ?AdaptColors@CMFCToolBarImages@@QAAXKK@Z=stub__AdaptColors_CMFCToolBarImages__QAAXKK_Z @1779
    ?Add@CMFCRibbonMainPanel@@UAAXPAVCMFCRibbonBaseElement@@@Z=stub__Add_CMFCRibbonMainPanel__UAAXPAVCMFCRibbonBaseElement___Z @1780
    ?Add@CMFCRibbonPanel@@UAAXPAVCMFCRibbonBaseElement@@@Z=stub__Add_CMFCRibbonPanel__UAAXPAVCMFCRibbonBaseElement___Z @1781
    ?Add@CMFCRibbonQuickAccessToolBar@@IAAXPAVCMFCRibbonBaseElement@@@Z=stub__Add_CMFCRibbonQuickAccessToolBar__IAAXPAVCMFCRibbonBaseElement___Z @1782
    ?Add@CRecentFileList@@QAAXPAUIShellItem@@PB_W@Z=stub__Add_CRecentFileList__QAAXPAUIShellItem__PB_W_Z @1783
    ?Add@CRecentFileList@@QAAXPAUIShellLinkW@@PB_W@Z=stub__Add_CRecentFileList__QAAXPAUIShellLinkW__PB_W_Z @1784
    ?Add@CRecentFileList@@QAAXPFAU_ITEMIDLIST@@PB_W@Z=stub__Add_CRecentFileList__QAAXPFAU_ITEMIDLIST__PB_W_Z @1785
    ?Add@CRecentFileList@@UAAXPB_W@Z=stub__Add_CRecentFileList__UAAXPB_W_Z @1786
    ?Add@CRecentFileList@@UAAXPB_W0@Z=stub__Add_CRecentFileList__UAAXPB_W0_Z @1787
    ?AddAnimationObject@CAnimationController@@QAAPAVCAnimationGroup@@PAVCAnimationBaseObject@@@Z=stub__AddAnimationObject_CAnimationController__QAAPAVCAnimationGroup__PAVCAnimationBaseObject___Z @1788
    ?AddArc@CD2DGeometrySink@@QAAXABUD2D1_ARC_SEGMENT@@@Z=stub__AddArc_CD2DGeometrySink__QAAXABUD2D1_ARC_SEGMENT___Z @1789
    ?AddAutoHideWindow@CMFCAutoHideBar@@QAAPAVCMFCAutoHideButton@@PAVCDockablePane@@K@Z=stub__AddAutoHideWindow_CMFCAutoHideBar__QAAPAVCMFCAutoHideButton__PAVCDockablePane__K_Z @1790
    ?AddBar@CMFCReBar@@QAAHPAVCWnd@@KKPB_WK@Z=stub__AddBar_CMFCReBar__QAAHPAVCWnd__KKPB_WK_Z @1791
    ?AddBar@CMFCReBar@@QAAHPAVCWnd@@PB_WPAVCBitmap@@K@Z=stub__AddBar_CMFCReBar__QAAHPAVCWnd__PB_WPAVCBitmap__K_Z @1792
    ?AddBar@CReBar@@QAAHPAVCWnd@@KKPB_WK@Z=stub__AddBar_CReBar__QAAHPAVCWnd__KKPB_WK_Z @1793
    ?AddBar@CReBar@@QAAHPAVCWnd@@PB_WPAVCBitmap@@K@Z=stub__AddBar_CReBar__QAAHPAVCWnd__PB_WPAVCBitmap__K_Z @1794
    ?AddBasicCommand@CMFCToolBar@@SAXI@Z=stub__AddBasicCommand_CMFCToolBar__SAXI_Z @1795
    ?AddBezier@CD2DGeometrySink@@QAAXABUD2D1_BEZIER_SEGMENT@@@Z=stub__AddBezier_CD2DGeometrySink__QAAXABUD2D1_BEZIER_SEGMENT___Z @1796
    ?AddBeziers@CD2DGeometrySink@@QAAXABV?$CArray@UD2D1_BEZIER_SEGMENT@@U1@@@@Z=stub__AddBeziers_CD2DGeometrySink__QAAXABV__CArray_UD2D1_BEZIER_SEGMENT__U1____Z @1797
    ?AddBitmap@CToolBarCtrl@@QAAHHI@Z=stub__AddBitmap_CToolBarCtrl__QAAHHI_Z @1798
    ?AddBitmap@CToolBarCtrl@@QAAHHPAVCBitmap@@@Z=stub__AddBitmap_CToolBarCtrl__QAAHHPAVCBitmap___Z @1799
    ?AddBitmapImage@CMFCOutlookBarPane@@IAAHPAUHBITMAP__@@@Z=stub__AddBitmapImage_CMFCOutlookBarPane__IAAHPAUHBITMAP_____Z @1800
    ?AddButton@CMFCOutlookBarPane@@QAAHIIIH@Z=stub__AddButton_CMFCOutlookBarPane__QAAHIIIH_Z @1801
    ?AddButton@CMFCOutlookBarPane@@QAAHIPB_WIH@Z=stub__AddButton_CMFCOutlookBarPane__QAAHIPB_WIH_Z @1802
    ?AddButton@CMFCOutlookBarPane@@QAAHPAUHBITMAP__@@PB_WIH@Z=stub__AddButton_CMFCOutlookBarPane__QAAHPAUHBITMAP____PB_WIH_Z @1803
    ?AddButton@CMFCOutlookBarPane@@QAAHPAUHICON__@@PB_WIHH@Z=stub__AddButton_CMFCOutlookBarPane__QAAHPAUHICON____PB_WIHH_Z @1804
    ?AddButton@CMFCOutlookBarPane@@QAAHPB_W0IH@Z=stub__AddButton_CMFCOutlookBarPane__QAAHPB_W0IH_Z @1805
    ?AddButton@CMFCRibbonButtonsGroup@@QAAXPAVCMFCRibbonBaseElement@@@Z=stub__AddButton_CMFCRibbonButtonsGroup__QAAXPAVCMFCRibbonBaseElement___Z @1806
    ?AddButton@CMFCTasksPaneFrameWnd@@MAAXI@Z=stub__AddButton_CMFCTasksPaneFrameWnd__MAAXI_Z @1807
    ?AddButton@CMFCToolBarButtonsListButton@@QAAXPAVCMFCToolBarButton@@@Z=stub__AddButton_CMFCToolBarButtonsListButton__QAAXPAVCMFCToolBarButton___Z @1808
    ?AddButton@CMFCToolBarsCustomizeDialog@@QAAXIABVCMFCToolBarButton@@H@Z=stub__AddButton_CMFCToolBarsCustomizeDialog__QAAXIABVCMFCToolBarButton__H_Z @1809
    ?AddButton@CMFCToolBarsCustomizeDialog@@QAAXPB_WABVCMFCToolBarButton@@H@Z=stub__AddButton_CMFCToolBarsCustomizeDialog__QAAXPB_WABVCMFCToolBarButton__H_Z @1810
    ?AddButton@CPaneFrameWnd@@MAAXI@Z=stub__AddButton_CPaneFrameWnd__MAAXI_Z @1811
    ?AddButton@CVSListBoxBase@@QAAHIPB_WGEI@Z=stub__AddButton_CVSListBoxBase__QAAHIPB_WGEI_Z @1812
    ?AddButtons@CMFCRibbonButtonsGroup@@QAAXABV?$CList@PAVCMFCRibbonBaseElement@@PAV1@@@@Z=stub__AddButtons_CMFCRibbonButtonsGroup__QAAXABV__CList_PAVCMFCRibbonBaseElement__PAV1____Z @1813
    ?AddButtons@CMFCRibbonPanelMenuBar@@IAAXPAVCMFCRibbonBar@@ABV?$CArray@PAVCMFCRibbonBaseElement@@PAV1@@@H@Z=stub__AddButtons_CMFCRibbonPanelMenuBar__IAAXPAVCMFCRibbonBar__ABV__CArray_PAVCMFCRibbonBaseElement__PAV1___H_Z @1814
    ?AddCachedData@COleClientItem@@IAAXPAVCOleDataSource@@@Z=stub__AddCachedData_COleClientItem__IAAXPAVCOleDataSource___Z @1815
    ?AddCategory@CMFCRibbonBar@@QAAPAVCMFCRibbonCategory@@PB_WIIVCSize@@1HPAUCRuntimeClass@@@Z=stub__AddCategory_CMFCRibbonBar__QAAPAVCMFCRibbonCategory__PB_WIIVCSize__1HPAUCRuntimeClass___Z @1816
    ?AddCategoryToTree@CMFCPropertySheet@@IAAXPAVCMFCPropertySheetCategoryInfo@@@Z=stub__AddCategoryToTree_CMFCPropertySheet__IAAXPAVCMFCPropertySheetCategoryInfo___Z @1817
    ?AddCheckButton@CFileDialog@@QAAJKABV?$CStringT@_WV?$StrTraitMFC_DLL@_WV?$ChTraitsCRT@_W@ATL@@@@@ATL@@H@Z=stub__AddCheckButton_CFileDialog__QAAJKABV__CStringT__WV__StrTraitMFC_DLL__WV__ChTraitsCRT__W_ATL_____ATL__H_Z @1818
    ?AddClassIDToList@COleInsertDialog@@IAAXAAPAU_GUID@@AAH1PAU2@@Z=stub__AddClassIDToList_COleInsertDialog__IAAXAAPAU_GUID__AAH1PAU2__Z @1819
    ?AddCmd@CMFCCmdUsageCount@@QAAXI@Z=stub__AddCmd_CMFCCmdUsageCount__QAAXI_Z @1820
    ?AddColorsGroup@CMFCRibbonColorButton@@QAAXPB_WABV?$CList@KK@@H@Z=stub__AddColorsGroup_CMFCRibbonColorButton__QAAXPB_WABV__CList_KK__H_Z @1821
    ?AddComboBox@CFileDialog@@QAAJK@Z=stub__AddComboBox_CFileDialog__QAAJK_Z @1822
    ?AddCommand@CMFCRibbonCommandsListBox@@QAAHPAVCMFCRibbonBaseElement@@HH@Z=stub__AddCommand_CMFCRibbonCommandsListBox__QAAHPAVCMFCRibbonBaseElement__HH_Z @1823
    ?AddCommand@CMFCRibbonQuickAccessToolBarDefaultState@@QAAXIH@Z=stub__AddCommand_CMFCRibbonQuickAccessToolBarDefaultState__QAAXIH_Z @1824
    ?AddCommandControl@CTaskDialog@@QAAXHABV?$CStringT@_WV?$StrTraitMFC_DLL@_WV?$ChTraitsCRT@_W@ATL@@@@@ATL@@HH@Z=stub__AddCommandControl_CTaskDialog__QAAXHABV__CStringT__WV__StrTraitMFC_DLL__WV__ChTraitsCRT__W_ATL_____ATL__HH_Z @1825
    ?AddCommandUsage@CMFCToolBar@@SAXI@Z=stub__AddCommandUsage_CMFCToolBar__SAXI_Z @1826
    ?AddConnection@CEnumConnections@@QAAXPAUtagCONNECTDATA@@@Z=stub__AddConnection_CEnumConnections__QAAXPAUtagCONNECTDATA___Z @1827
    ?AddConnPoint@CEnumConnPoints@@QAAXPAUIConnectionPoint@@@Z=stub__AddConnPoint_CEnumConnPoints__QAAXPAUIConnectionPoint___Z @1828
    ?AddContextCategory@CMFCRibbonBar@@QAAPAVCMFCRibbonCategory@@PB_W0IW4AFX_RibbonCategoryColor@@IIVCSize@@2PAUCRuntimeClass@@@Z=stub__AddContextCategory_CMFCRibbonBar__QAAPAVCMFCRibbonCategory__PB_W0IW4AFX_RibbonCategoryColor__IIVCSize__2PAUCRuntimeClass___Z @1829
    ?AddControl@CMFCOutlookBarTabCtrl@@QAAXPAVCWnd@@PB_WHHK@Z=stub__AddControl_CMFCOutlookBarTabCtrl__QAAXPAVCWnd__PB_WHHK_Z @1830
    ?AddControlItem@CFileDialog@@QAAJKKABV?$CStringT@_WV?$StrTraitMFC_DLL@_WV?$ChTraitsCRT@_W@ATL@@@@@ATL@@@Z=stub__AddControlItem_CFileDialog__QAAJKKABV__CStringT__WV__StrTraitMFC_DLL__WV__ChTraitsCRT__W_ATL_____ATL___Z @1831
    ?AddCustomCategory@CMFCRibbonCustomizePropertyPage@@QAAXPB_WABV?$CList@II@@@Z=stub__AddCustomCategory_CMFCRibbonCustomizePropertyPage__QAAXPB_WABV__CList_II___Z @1832
    ?AddDefaultButtonsToCustomizePane@CFrameImpl@@IAAXPAVCMFCPopupMenu@@I@Z=stub__AddDefaultButtonsToCustomizePane_CFrameImpl__IAAXPAVCMFCPopupMenu__I_Z @1833
    ?AddDestination@CJumpList@@QAAHPB_W0@Z=stub__AddDestination_CJumpList__QAAHPB_W0_Z @1834
    ?AddDestination@CJumpList@@QAAHPB_WPAUIShellItem@@@Z=stub__AddDestination_CJumpList__QAAHPB_WPAUIShellItem___Z @1835
    ?AddDestination@CJumpList@@QAAHPB_WPAUIShellLinkW@@@Z=stub__AddDestination_CJumpList__QAAHPB_WPAUIShellLinkW___Z @1836
    ?AddDockSite@CDockingManager@@QAAHABUAFX_DOCKSITE_INFO@@PAPAVCDockSite@@@Z=stub__AddDockSite_CDockingManager__QAAHABUAFX_DOCKSITE_INFO__PAPAVCDockSite___Z @1837
    ?AddDockSite@CFrameWndEx@@QAAXXZ=stub__AddDockSite_CFrameWndEx__QAAXXZ @1838
    ?AddDockSite@CMDIChildWndEx@@QAAXXZ=stub__AddDockSite_CMDIChildWndEx__QAAXXZ @1839
    ?AddDockSite@CMDIFrameWndEx@@QAAXXZ=stub__AddDockSite_CMDIFrameWndEx__QAAXXZ @1840
    ?AddDockSite@COleCntrFrameWndEx@@QAAXXZ=stub__AddDockSite_COleCntrFrameWndEx__QAAXXZ @1841
    ?AddDockSite@COleDocIPFrameWndEx@@QAAXXZ=stub__AddDockSite_COleDocIPFrameWndEx__QAAXXZ @1842
    ?AddDockSite@COleIPFrameWndEx@@QAAXXZ=stub__AddDockSite_COleIPFrameWndEx__QAAXXZ @1843
    ?AddDocTemplate@CDocManager@@UAAXPAVCDocTemplate@@@Z=stub__AddDocTemplate_CDocManager__UAAXPAVCDocTemplate___Z @1844
    ?AddDocTemplate@CWinApp@@QAAXPAVCDocTemplate@@@Z=stub__AddDocTemplate_CWinApp__QAAXPAVCDocTemplate___Z @1845
    ?AddDocument@CDocTemplate@@UAAXPAVCDocument@@@Z=stub__AddDocument_CDocTemplate__UAAXPAVCDocument___Z @1846
    ?AddDocument@CMultiDocTemplate@@UAAXPAVCDocument@@@Z=stub__AddDocument_CMultiDocTemplate__UAAXPAVCDocument___Z @1847
    ?AddDocument@CSingleDocTemplate@@UAAXPAVCDocument@@@Z=stub__AddDocument_CSingleDocTemplate__UAAXPAVCDocument___Z @1848
    ?AddDynamicElement@CMFCRibbonStatusBar@@QAAXPAVCMFCRibbonBaseElement@@@Z=stub__AddDynamicElement_CMFCRibbonStatusBar__QAAXPAVCMFCRibbonBaseElement___Z @1849
    ?AddEditBox@CFileDialog@@QAAJKABV?$CStringT@_WV?$StrTraitMFC_DLL@_WV?$ChTraitsCRT@_W@ATL@@@@@ATL@@@Z=stub__AddEditBox_CFileDialog__QAAJKABV__CStringT__WV__StrTraitMFC_DLL__WV__ChTraitsCRT__W_ATL_____ATL___Z @1850
    ?AddElement@CMFCRibbonStatusBar@@QAAXPAVCMFCRibbonBaseElement@@PB_WH@Z=stub__AddElement_CMFCRibbonStatusBar__QAAXPAVCMFCRibbonBaseElement__PB_WH_Z @1851
    ?AddElementImages@CMFCRibbonInfo@@IAAXAAVXElement@1@AAV?$CArray@PAVXImage@CMFCRibbonInfo@@PAV12@@@@Z=stub__AddElementImages_CMFCRibbonInfo__IAAXAAVXElement_1_AAV__CArray_PAVXImage_CMFCRibbonInfo__PAV12____Z @1852
    ?AddExtendedElement@CMFCRibbonStatusBar@@QAAXPAVCMFCRibbonBaseElement@@PB_WH@Z=stub__AddExtendedElement_CMFCRibbonStatusBar__QAAXPAVCMFCRibbonBaseElement__PB_WH_Z @1853
    ?AddFont@CMFCToolBarFontComboBox@@MAAHPAUtagENUMLOGFONTW@@HPB_W@Z=stub__AddFont_CMFCToolBarFontComboBox__MAAHPAUtagENUMLOGFONTW__HPB_W_Z @1854
    ?AddFormat@CEnumFormatEtc@@QAAXPBUtagFORMATETC@@@Z=stub__AddFormat_CEnumFormatEtc__QAAXPBUtagFORMATETC___Z @1855
    ?AddFormat@COlePasteSpecialDialog@@QAAXABUtagFORMATETC@@PA_W1K@Z=stub__AddFormat_COlePasteSpecialDialog__QAAXABUtagFORMATETC__PA_W1K_Z @1856
    ?AddFormat@COlePasteSpecialDialog@@QAAXIKIHH@Z=stub__AddFormat_COlePasteSpecialDialog__QAAXIKIHH_Z @1857
    ?AddFrame@CFrameImpl@@SAXPAVCFrameWnd@@@Z=stub__AddFrame_CFrameImpl__SAXPAVCFrameWnd___Z @1858
    ?AddFrameLevelUI@COleControl@@MAAXXZ=stub__AddFrameLevelUI_COleControl__MAAXXZ @1859
    ?AddFrameWnd@CFrameWnd@@IAAXXZ=stub__AddFrameWnd_CFrameWnd__IAAXXZ @1860
    ?AddGroup@CMFCRibbonGallery@@QAAXPB_WAAVCMFCToolBarImages@@@Z=stub__AddGroup_CMFCRibbonGallery__QAAXPB_WAAVCMFCToolBarImages___Z @1861
    ?AddGroup@CMFCRibbonGallery@@QAAXPB_WH@Z=stub__AddGroup_CMFCRibbonGallery__QAAXPB_WH_Z @1862
    ?AddGroup@CMFCRibbonGallery@@QAAXPB_WIH@Z=stub__AddGroup_CMFCRibbonGallery__QAAXPB_WIH_Z @1863
    ?AddGroup@CMFCTasksPane@@QAAHHPB_WHHPAUHICON__@@@Z=stub__AddGroup_CMFCTasksPane__QAAHHPB_WHHPAUHICON_____Z @1864
    ?AddHead@CObList@@QAAPAU__POSITION@@PAVCObject@@@Z=stub__AddHead_CObList__QAAPAU__POSITION__PAVCObject___Z @1865
    ?AddHead@CObList@@QAAXPAV1@@Z=stub__AddHead_CObList__QAAXPAV1__Z @1866
    ?AddHead@CPtrList@@QAAPAU__POSITION@@PAX@Z=stub__AddHead_CPtrList__QAAPAU__POSITION__PAX_Z @1867
    ?AddHead@CPtrList@@QAAXPAV1@@Z=stub__AddHead_CPtrList__QAAXPAV1__Z @1868
    ?AddHead@CSimpleList@@QAAXPAX@Z=stub__AddHead_CSimpleList__QAAXPAX_Z @1869
    ?AddHead@CStringList@@QAAPAU__POSITION@@ABV?$CStringT@_WV?$StrTraitMFC_DLL@_WV?$ChTraitsCRT@_W@ATL@@@@@ATL@@@Z=stub__AddHead_CStringList__QAAPAU__POSITION__ABV__CStringT__WV__StrTraitMFC_DLL__WV__ChTraitsCRT__W_ATL_____ATL___Z @1870
    ?AddHead@CStringList@@QAAPAU__POSITION@@PB_W@Z=stub__AddHead_CStringList__QAAPAU__POSITION__PB_W_Z @1871
    ?AddHead@CStringList@@QAAXPAV1@@Z=stub__AddHead_CStringList__QAAXPAV1__Z @1872
    ?AddHidden@CMFCRibbonCategory@@QAAXPAVCMFCRibbonBaseElement@@@Z=stub__AddHidden_CMFCRibbonCategory__QAAXPAVCMFCRibbonBaseElement___Z @1873
    ?AddHiddenMDITabbedBar@CDockingManager@@QAAXPAVCDockablePane@@@Z=stub__AddHiddenMDITabbedBar_CDockingManager__QAAXPAVCDockablePane___Z @1874
    ?AddIcon@CMFCToolBarImages@@QAAHPAUHICON__@@H@Z=stub__AddIcon_CMFCToolBarImages__QAAHPAUHICON____H_Z @1875
    ?AddImage@CMFCToolBarImages@@QAAHABV1@H@Z=stub__AddImage_CMFCToolBarImages__QAAHABV1_H_Z @1876
    ?AddImage@CMFCToolBarImages@@QAAHPAUHBITMAP__@@H@Z=stub__AddImage_CMFCToolBarImages__QAAHPAUHBITMAP____H_Z @1877
    ?AddImage@CMFCVisualManagerBitmapCacheItem@CMFCVisualManagerBitmapCache@@QAAXPAUHBITMAP__@@@Z=stub__AddImage_CMFCVisualManagerBitmapCacheItem_CMFCVisualManagerBitmapCache__QAAXPAUHBITMAP_____Z @1878
    ?AddItem@CMFCRibbonComboBox@@UAAHPB_WK@Z=stub__AddItem_CMFCRibbonComboBox__UAAHPB_WK_Z @1879
    ?AddItem@CMFCToolBarComboBoxButton@@UAAHPB_WK@Z=stub__AddItem_CMFCToolBarComboBoxButton__UAAHPB_WK_Z @1880
    ?AddItem@COleDocument@@UAAXPAVCDocItem@@@Z=stub__AddItem_COleDocument__UAAXPAVCDocItem___Z @1881
    ?AddItem@CVSListBox@@UAAHABV?$CStringT@_WV?$StrTraitMFC_DLL@_WV?$ChTraitsCRT@_W@ATL@@@@@ATL@@KH@Z=stub__AddItem_CVSListBox__UAAHABV__CStringT__WV__StrTraitMFC_DLL__WV__ChTraitsCRT__W_ATL_____ATL__KH_Z @1882
    ?AddItem@XQAT@CMFCRibbonInfo@@QAAHABVXQATItem@12@@Z=stub__AddItem_XQAT_CMFCRibbonInfo__QAAHABVXQATItem_12__Z @1883
    ?AddKeyEntry@CMFCRibbonKeyboardCustomizeDialog@@IAAXPAUtagACCEL@@@Z=stub__AddKeyEntry_CMFCRibbonKeyboardCustomizeDialog__IAAXPAUtagACCEL___Z @1884
    ?AddKeyEntry@CMFCToolBarsKeyboardPropertyPage@@IAAXPAUtagACCEL@@@Z=stub__AddKeyEntry_CMFCToolBarsKeyboardPropertyPage__IAAXPAUtagACCEL___Z @1885
    ?AddKeyframes@CAnimationGroup@@IAAXPAUIUIAnimationStoryboard@@H@Z=stub__AddKeyframes_CAnimationGroup__IAAXPAUIUIAnimationStoryboard__H_Z @1886
    ?AddKeyframeToGroup@CAnimationController@@QAAHIPAVCBaseKeyFrame@@@Z=stub__AddKeyframeToGroup_CAnimationController__QAAHIPAVCBaseKeyFrame___Z @1887
    ?AddKnownCategory@CJumpList@@QAAHW4KNOWNDESTCATEGORY@@@Z=stub__AddKnownCategory_CJumpList__QAAHW4KNOWNDESTCATEGORY___Z @1888
    ?AddLine@CD2DGeometrySink@@QAAXVCD2DPointF@@@Z=stub__AddLine_CD2DGeometrySink__QAAXVCD2DPointF___Z @1889
    ?AddLines@CD2DGeometrySink@@QAAXABV?$CArray@VCD2DPointF@@V1@@@@Z=stub__AddLines_CD2DGeometrySink__QAAXABV__CArray_VCD2DPointF__V1____Z @1890
    ?AddLinkEntry@COlePasteSpecialDialog@@QAA?AW4tagOLEUIPASTEFLAG@@I@Z=stub__AddLinkEntry_COlePasteSpecialDialog__QAA_AW4tagOLEUIPASTEFLAG__I_Z @1891
    ?AddMainCategory@CMFCRibbonBar@@QAAPAVCMFCRibbonMainPanel@@PB_WIIVCSize@@1PAUCRuntimeClass@@@Z=stub__AddMainCategory_CMFCRibbonBar__QAAPAVCMFCRibbonMainPanel__PB_WIIVCSize__1PAUCRuntimeClass___Z @1892
    ?AddMenu@CContextMenuManager@@QAAHII@Z=stub__AddMenu_CContextMenuManager__QAAHII_Z @1893
    ?AddMenu@CContextMenuManager@@QAAHPB_WI@Z=stub__AddMenu_CContextMenuManager__QAAHPB_WI_Z @1894
    ?AddMenu@CFileDialog@@QAAJKABV?$CStringT@_WV?$StrTraitMFC_DLL@_WV?$ChTraitsCRT@_W@ATL@@@@@ATL@@@Z=stub__AddMenu_CFileDialog__QAAJKABV__CStringT__WV__StrTraitMFC_DLL__WV__ChTraitsCRT__W_ATL_____ATL___Z @1895
    ?AddMenu@CMFCToolBarsCustomizeDialog@@QAAHI@Z=stub__AddMenu_CMFCToolBarsCustomizeDialog__QAAHI_Z @1896
    ?AddMenuCommands@CMFCToolBarsCustomizeDialog@@QAAXPBVCMenu@@HPB_W1@Z=stub__AddMenuCommands_CMFCToolBarsCustomizeDialog__QAAXPBVCMenu__HPB_W1_Z @1897
    ?AddMiniFrame@CDockingManager@@UAAHPAVCPaneFrameWnd@@@Z=stub__AddMiniFrame_CDockingManager__UAAHPAVCPaneFrameWnd___Z @1898
    ?AddMRUFilesList@CMFCTasksPane@@QAAHHH@Z=stub__AddMRUFilesList_CMFCTasksPane__QAAHHH_Z @1899
    ?AddNew@CRecordset@@UAAXXZ=stub__AddNew_CRecordset__UAAXXZ @1900
    ?AddNode@CPaneContainer@@IAAXPAV1@@Z=stub__AddNode_CPaneContainer__IAAXPAV1__Z @1901
    ?AddOption@CMFCPropertyGridProperty@@QAAHPB_WH@Z=stub__AddOption_CMFCPropertyGridProperty__QAAHPB_WH_Z @1902
    ?AddOtherClipboardData@COleServerItem@@QAAXPAVCOleDataSource@@@Z=stub__AddOtherClipboardData_COleServerItem__QAAXPAVCOleDataSource___Z @1903
    ?AddPage@CMFCPropertySheet@@QAAXPAVCPropertyPage@@@Z=stub__AddPage_CMFCPropertySheet__QAAXPAVCPropertyPage___Z @1904
    ?AddPage@CMFCTasksPane@@QAAHPB_W@Z=stub__AddPage_CMFCTasksPane__QAAHPB_W_Z @1905
    ?AddPage@CPropertySheet@@QAAXPAVCPropertyPage@@@Z=stub__AddPage_CPropertySheet__QAAXPAVCPropertyPage___Z @1906
    ?AddPageToTree@CMFCPropertySheet@@QAAXPAVCMFCPropertySheetCategoryInfo@@PAVCMFCPropertyPage@@HH@Z=stub__AddPageToTree_CMFCPropertySheet__QAAXPAVCMFCPropertySheetCategoryInfo__PAVCMFCPropertyPage__HH_Z @1907
    ?AddPane@CBasePane@@QAAXPAV1@@Z=stub__AddPane_CBasePane__QAAXPAV1__Z @1908
    ?AddPane@CDockingManager@@QAAHPAVCBasePane@@HHH@Z=stub__AddPane_CDockingManager__QAAHPAVCBasePane__HHH_Z @1909
    ?AddPane@CDockingPanesRow@@UAAXPAVCPane@@W4AFX_DOCK_METHOD@@PBUtagRECT@@H@Z=stub__AddPane_CDockingPanesRow__UAAXPAVCPane__W4AFX_DOCK_METHOD__PBUtagRECT__H_Z @1910
    ?AddPane@CFrameWndEx@@QAAHPAVCBasePane@@H@Z=stub__AddPane_CFrameWndEx__QAAHPAVCBasePane__H_Z @1911
    ?AddPane@CMDIChildWndEx@@QAAHPAVCBasePane@@H@Z=stub__AddPane_CMDIChildWndEx__QAAHPAVCBasePane__H_Z @1912
    ?AddPane@CMDIFrameWndEx@@QAAHPAVCBasePane@@H@Z=stub__AddPane_CMDIFrameWndEx__QAAHPAVCBasePane__H_Z @1913
    ?AddPane@CMultiPaneFrameWnd@@UAAXPAVCBasePane@@@Z=stub__AddPane_CMultiPaneFrameWnd__UAAXPAVCBasePane___Z @1914
    ?AddPane@COleCntrFrameWndEx@@QAAHPAVCBasePane@@H@Z=stub__AddPane_COleCntrFrameWndEx__QAAHPAVCBasePane__H_Z @1915
    ?AddPane@COleDocIPFrameWndEx@@QAAHPAVCBasePane@@H@Z=stub__AddPane_COleDocIPFrameWndEx__QAAHPAVCBasePane__H_Z @1916
    ?AddPane@COleIPFrameWndEx@@QAAHPAVCBasePane@@H@Z=stub__AddPane_COleIPFrameWndEx__QAAHPAVCBasePane__H_Z @1917
    ?AddPane@CPaneContainer@@QAAPAVCDockablePane@@PAV2@@Z=stub__AddPane_CPaneContainer__QAAPAVCDockablePane__PAV2__Z @1918
    ?AddPane@CPaneContainerManager@@UAAXPAVCDockablePane@@@Z=stub__AddPane_CPaneContainerManager__UAAXPAVCDockablePane___Z @1919
    ?AddPane@CPaneDivider@@UAAXPAVCDockablePane@@@Z=stub__AddPane_CPaneDivider__UAAXPAVCDockablePane___Z @1920
    ?AddPane@CPaneFrameWnd@@UAAXPAVCBasePane@@@Z=stub__AddPane_CPaneFrameWnd__UAAXPAVCBasePane___Z @1921
    ?AddPaneAndPaneContainer@CPaneContainerManager@@IAAHPAVCDockablePane@@PAVCPaneContainer@@K@Z=stub__AddPaneAndPaneContainer_CPaneContainerManager__IAAHPAVCDockablePane__PAVCPaneContainer__K_Z @1922
    ?AddPaneAndPaneDivider@CPaneContainerManager@@IAAHPAVCDockablePane@@0PAU__POSITION@@K@Z=stub__AddPaneAndPaneDivider_CPaneContainerManager__IAAHPAVCDockablePane__0PAU__POSITION__K_Z @1923
    ?AddPaneContainer@CPaneDivider@@UAAHAAVCPaneContainerManager@@H@Z=stub__AddPaneContainer_CPaneDivider__UAAHAAVCPaneContainerManager__H_Z @1924
    ?AddPaneContainer@CPaneDivider@@UAAHPAVCDockablePane@@AAVCPaneContainerManager@@K@Z=stub__AddPaneContainer_CPaneDivider__UAAHPAVCDockablePane__AAVCPaneContainerManager__K_Z @1925
    ?AddPaneContainerManager@CPaneContainerManager@@UAAHAAV1@H@Z=stub__AddPaneContainerManager_CPaneContainerManager__UAAHAAV1_H_Z @1926
    ?AddPaneContainerManager@CPaneContainerManager@@UAAHPAVCDockablePane@@KAAV1@H@Z=stub__AddPaneContainerManager_CPaneContainerManager__UAAHPAVCDockablePane__KAAV1_H_Z @1927
    ?AddPaneContainerManagerToDockablePane@CPaneContainerManager@@UAAHPAVCDockablePane@@AAV1@@Z=stub__AddPaneContainerManagerToDockablePane_CPaneContainerManager__UAAHPAVCDockablePane__AAV1__Z @1928
    ?AddPaneFromRow@CDockingPanesRow@@UAAXPAVCPane@@W4AFX_DOCK_METHOD@@@Z=stub__AddPaneFromRow_CDockingPanesRow__UAAXPAVCPane__W4AFX_DOCK_METHOD___Z @1929
    ?AddPanel@CMFCRibbonCategory@@QAAPAVCMFCRibbonPanel@@PB_WPAUHICON__@@PAUCRuntimeClass@@@Z=stub__AddPanel_CMFCRibbonCategory__QAAPAVCMFCRibbonPanel__PB_WPAUHICON____PAUCRuntimeClass___Z @1930
    ?AddPanesToList@CPaneContainerManager@@QAAXPAVCObList@@0@Z=stub__AddPanesToList_CPaneContainerManager__QAAXPAVCObList__0_Z @1931
    ?AddPaneToList@CPaneContainerManager@@QAAXPAVCDockablePane@@@Z=stub__AddPaneToList_CPaneContainerManager__QAAXPAVCDockablePane___Z @1932
    ?AddPaneToRecentPaneContainer@CPaneContainerManager@@UAAPAVCDockablePane@@PAV2@PAVCPaneContainer@@@Z=stub__AddPaneToRecentPaneContainer_CPaneContainerManager__UAAPAVCDockablePane__PAV2_PAVCPaneContainer___Z @1933
    ?AddPlace@CFileDialog@@QAAXPAUIShellItem@@W4FDAP@@@Z=stub__AddPlace_CFileDialog__QAAXPAUIShellItem__W4FDAP___Z @1934
    ?AddPlace@CFileDialog@@QAAXPB_WW4FDAP@@@Z=stub__AddPlace_CFileDialog__QAAXPB_WW4FDAP___Z @1935
    ?AddPrintPreviewCategory@CMFCRibbonBar@@QAAPAVCMFCRibbonCategory@@XZ=stub__AddPrintPreviewCategory_CMFCRibbonBar__QAAPAVCMFCRibbonCategory__XZ @1936
    ?AddProperty@CMFCPropertyGridCtrl@@QAAHPAVCMFCPropertyGridProperty@@HH@Z=stub__AddProperty_CMFCPropertyGridCtrl__QAAHPAVCMFCPropertyGridProperty__HH_Z @1937
    ?AddProperty@CPropertySection@@QAAXPAVCProperty@@@Z=stub__AddProperty_CPropertySection__QAAXPAVCProperty___Z @1938
    ?AddProperty@CPropertySet@@QAAXU_GUID@@PAVCProperty@@@Z=stub__AddProperty_CPropertySet__QAAXU_GUID__PAVCProperty___Z @1939
    ?AddPushButton@CFileDialog@@QAAJKABV?$CStringT@_WV?$StrTraitMFC_DLL@_WV?$ChTraitsCRT@_W@ATL@@@@@ATL@@@Z=stub__AddPushButton_CFileDialog__QAAJKABV__CStringT__WV__StrTraitMFC_DLL__WV__ChTraitsCRT__W_ATL_____ATL___Z @1940
    ?AddQATOnlyCategory@CMFCRibbonBar@@QAAPAVCMFCRibbonCategory@@PB_WIVCSize@@@Z=stub__AddQATOnlyCategory_CMFCRibbonBar__QAAPAVCMFCRibbonCategory__PB_WIVCSize___Z @1941
    ?AddQuadraticBezier@CD2DGeometrySink@@QAAXABUD2D1_QUADRATIC_BEZIER_SEGMENT@@@Z=stub__AddQuadraticBezier_CD2DGeometrySink__QAAXABUD2D1_QUADRATIC_BEZIER_SEGMENT___Z @1942
    ?AddQuadraticBeziers@CD2DGeometrySink@@QAAXABV?$CArray@UD2D1_QUADRATIC_BEZIER_SEGMENT@@U1@@@@Z=stub__AddQuadraticBeziers_CD2DGeometrySink__QAAXABV__CArray_UD2D1_QUADRATIC_BEZIER_SEGMENT__U1____Z @1943
    ?AddRadioButton@CTaskDialog@@QAAXHABV?$CStringT@_WV?$StrTraitMFC_DLL@_WV?$ChTraitsCRT@_W@ATL@@@@@ATL@@H@Z=stub__AddRadioButton_CTaskDialog__QAAXHABV__CStringT__WV__StrTraitMFC_DLL__WV__ChTraitsCRT__W_ATL_____ATL__H_Z @1944
    ?AddRadioButtonList@CFileDialog@@QAAJK@Z=stub__AddRadioButtonList_CFileDialog__QAAJK_Z @1945
    ?AddRecentFilesList@CMFCRibbonMainPanel@@QAAXPB_WH@Z=stub__AddRecentFilesList_CMFCRibbonMainPanel__QAAXPB_WH_Z @1946
    ?AddRecentPane@CMultiPaneFrameWnd@@UAAHPAVCDockablePane@@@Z=stub__AddRecentPane_CMultiPaneFrameWnd__UAAHPAVCDockablePane___Z @1947
    ?AddRecentPane@CPaneDivider@@UAAPAVCDockablePane@@PAV2@@Z=stub__AddRecentPane_CPaneDivider__UAAPAVCDockablePane__PAV2__Z @1948
    ?AddRef@CArchiveStream@@UAAKXZ=stub__AddRef_CArchiveStream__UAAKXZ @1949
    ?AddRef@CBlobProperty@@UAAKXZ=stub__AddRef_CBlobProperty__UAAKXZ @1950
    ?AddRef@CBrowserControlSite@@MAAKXZ=stub__AddRef_CBrowserControlSite__MAAKXZ @1951
    ?AddRef@CDHtmlControlSink@@UAAKXZ=stub__AddRef_CDHtmlControlSink__UAAKXZ @1952
    ?AddRef@CDHtmlElementEventSink@@UAAKXZ=stub__AddRef_CDHtmlElementEventSink__UAAKXZ @1953
    ?AddRef@CDHtmlEventSink@@UAAKXZ=stub__AddRef_CDHtmlEventSink__UAAKXZ @1954
    ?AddRef@CInnerUnknown@@UAAKXZ=stub__AddRef_CInnerUnknown__UAAKXZ @1955
    ?AddRef@COleConnPtContainer@@UAAKXZ=stub__AddRef_COleConnPtContainer__UAAKXZ @1956
    ?AddRef@COleDispatchImpl@@UAAKXZ=stub__AddRef_COleDispatchImpl__UAAKXZ @1957
    ?AddRef@COleUILinkInfo@@UAAKXZ=stub__AddRef_COleUILinkInfo__UAAKXZ @1958
    ?AddRef@CPaneContainer@@QAAXXZ=stub__AddRef_CPaneContainer__QAAXXZ @1959
    ?AddRef@CPrintDialogEx@@UAAKXZ=stub__AddRef_CPrintDialogEx__UAAKXZ @1960
    ?AddRemovePaneFromGlobalList@CPaneFrameWnd@@SAHPAVCBasePane@@H@Z=stub__AddRemovePaneFromGlobalList_CPaneFrameWnd__SAHPAVCBasePane__H_Z @1961
    ?AddRemoveSeparator@CMFCToolBar@@MAAXPBVCMFCToolBarButton@@ABVCPoint@@1@Z=stub__AddRemoveSeparator_CMFCToolBar__MAAXPBVCMFCToolBarButton__ABVCPoint__1_Z @1962
    ?AddReplaceBitmap@CToolBar@@QAAHPAUHBITMAP__@@@Z=stub__AddReplaceBitmap_CToolBar__QAAHPAUHBITMAP_____Z @1963
    ?AddRequestHeaders@CHttpFile@@QAAHAAV?$CStringT@_WV?$StrTraitMFC_DLL@_WV?$ChTraitsCRT@_W@ATL@@@@@ATL@@K@Z=stub__AddRequestHeaders_CHttpFile__QAAHAAV__CStringT__WV__StrTraitMFC_DLL__WV__ChTraitsCRT__W_ATL_____ATL__K_Z @1964
    ?AddRequestHeaders@CHttpFile@@QAAHPB_WKH@Z=stub__AddRequestHeaders_CHttpFile__QAAHPB_WKH_Z @1965
    ?AddRow@CDockSite@@QAAPAVCDockingPanesRow@@PAU__POSITION@@H@Z=stub__AddRow_CDockSite__QAAPAVCDockingPanesRow__PAU__POSITION__H_Z @1966
    ?AddSection@CPropertySet@@QAAPAVCPropertySection@@U_GUID@@@Z=stub__AddSection_CPropertySet__QAAPAVCPropertySection__U_GUID___Z @1967
    ?AddSection@CPropertySet@@QAAXPAVCPropertySection@@@Z=stub__AddSection_CPropertySet__QAAXPAVCPropertySection___Z @1968
    ?AddSeparator@CFileDialog@@QAAJK@Z=stub__AddSeparator_CFileDialog__QAAJK_Z @1969
    ?AddSeparator@CMFCRibbonPanel@@UAAXXZ=stub__AddSeparator_CMFCRibbonPanel__UAAXXZ @1970
    ?AddSeparator@CMFCRibbonStatusBar@@QAAXXZ=stub__AddSeparator_CMFCRibbonStatusBar__QAAXXZ @1971
    ?AddSortedItem@CMFCToolBarComboBoxButton@@UAAHPB_WK@Z=stub__AddSortedItem_CMFCToolBarComboBoxButton__UAAHPB_WK_Z @1972
    ?AddStandardFormats@COlePasteSpecialDialog@@QAAXH@Z=stub__AddStandardFormats_COlePasteSpecialDialog__QAAXH_Z @1973
    ?AddString@CMFCDropDownListBox@@QAAXPB_W@Z=stub__AddString_CMFCDropDownListBox__QAAXPB_W_Z @1974
    ?AddString@CToolBarCtrl@@QAAHI@Z=stub__AddString_CToolBarCtrl__QAAHI_Z @1975
    ?AddSubItem@CMFCPropertyGridProperty@@QAAHPAV1@@Z=stub__AddSubItem_CMFCPropertyGridProperty__QAAHPAV1__Z @1976
    ?AddSubItem@CMFCRibbonButton@@QAAXPAVCMFCRibbonBaseElement@@H@Z=stub__AddSubItem_CMFCRibbonButton__QAAXPAVCMFCRibbonBaseElement__H_Z @1977
    ?AddSubItem@CMFCRibbonGallery@@QAAXPAVCMFCRibbonBaseElement@@HH@Z=stub__AddSubItem_CMFCRibbonGallery__QAAXPAVCMFCRibbonBaseElement__HH_Z @1978
    ?AddSubPaneContainer@CPaneContainer@@QAAHPAV1@H@Z=stub__AddSubPaneContainer_CPaneContainer__QAAHPAV1_H_Z @1979
    ?AddTab@CBaseTabbedPane@@UAAHPAVCWnd@@HHH@Z=stub__AddTab_CBaseTabbedPane__UAAHPAVCWnd__HHH_Z @1980
    ?AddTab@CMFCBaseTabCtrl@@UAAXPAVCWnd@@IIH@Z=stub__AddTab_CMFCBaseTabCtrl__UAAXPAVCWnd__IIH_Z @1981
    ?AddTab@CMFCBaseTabCtrl@@UAAXPAVCWnd@@PB_WIH@Z=stub__AddTab_CMFCBaseTabCtrl__UAAXPAVCWnd__PB_WIH_Z @1982
    ?AddTabbedPane@CMDIChildWndEx@@QAAXPAVCDockablePane@@@Z=stub__AddTabbedPane_CMDIChildWndEx__QAAXPAVCDockablePane___Z @1983
    ?AddTail@CObList@@QAAPAU__POSITION@@PAVCObject@@@Z=stub__AddTail_CObList__QAAPAU__POSITION__PAVCObject___Z @1984
    ?AddTail@CObList@@QAAXPAV1@@Z=stub__AddTail_CObList__QAAXPAV1__Z @1985
    ?AddTail@CPtrList@@QAAPAU__POSITION@@PAX@Z=stub__AddTail_CPtrList__QAAPAU__POSITION__PAX_Z @1986
    ?AddTail@CPtrList@@QAAXPAV1@@Z=stub__AddTail_CPtrList__QAAXPAV1__Z @1987
    ?AddTail@CStringList@@QAAPAU__POSITION@@ABV?$CStringT@_WV?$StrTraitMFC_DLL@_WV?$ChTraitsCRT@_W@ATL@@@@@ATL@@@Z=stub__AddTail_CStringList__QAAPAU__POSITION__ABV__CStringT__WV__StrTraitMFC_DLL__WV__ChTraitsCRT__W_ATL_____ATL___Z @1988
    ?AddTail@CStringList@@QAAPAU__POSITION@@PB_W@Z=stub__AddTail_CStringList__QAAPAU__POSITION__PB_W_Z @1989
    ?AddTail@CStringList@@QAAXPAV1@@Z=stub__AddTail_CStringList__QAAXPAV1__Z @1990
    ?AddTask@CJumpList@@QAAHPAUIShellLinkW@@@Z=stub__AddTask_CJumpList__QAAHPAUIShellLinkW___Z @1991
    ?AddTask@CJumpList@@QAAHPB_W000H@Z=stub__AddTask_CJumpList__QAAHPB_W000H_Z @1992
    ?AddTask@CMFCTasksPane@@QAAHHPB_WHIK@Z=stub__AddTask_CMFCTasksPane__QAAHHPB_WHIK_Z @1993
    ?AddTasks@CJumpList@@QAAHPAUIObjectArray@@@Z=stub__AddTasks_CJumpList__QAAHPAUIObjectArray___Z @1994
    ?AddTaskSeparator@CJumpList@@QAAHXZ=stub__AddTaskSeparator_CJumpList__QAAHXZ @1995
    ?AddTearOffToolbar@CFrameImpl@@IAAXPAVCBasePane@@@Z=stub__AddTearOffToolbar_CFrameImpl__IAAXPAVCBasePane___Z @1996
    ?AddTerminalProp@CMFCPropertyGridProperty@@IAAXAAV?$CList@PAVCMFCPropertyGridProperty@@PAV1@@@@Z=stub__AddTerminalProp_CMFCPropertyGridProperty__IAAXAAV__CList_PAVCMFCPropertyGridProperty__PAV1____Z @1997
    ?AddText@CFileDialog@@QAAJKABV?$CStringT@_WV?$StrTraitMFC_DLL@_WV?$ChTraitsCRT@_W@ATL@@@@@ATL@@@Z=stub__AddText_CFileDialog__QAAJKABV__CStringT__WV__StrTraitMFC_DLL__WV__ChTraitsCRT__W_ATL_____ATL___Z @1998
    ?AddToBottom@CMFCRibbonMainPanel@@QAAXPAVCMFCRibbonMainPanelButton@@@Z=stub__AddToBottom_CMFCRibbonMainPanel__QAAXPAVCMFCRibbonMainPanelButton___Z @1999
    ?AddToKeyList@CMFCRibbonBaseElement@@UAAXAAV?$CArray@PAVCMFCRibbonKeyTip@@PAV1@@@@Z=stub__AddToKeyList_CMFCRibbonBaseElement__UAAXAAV__CArray_PAVCMFCRibbonKeyTip__PAV1____Z @2000
    ?AddToKeyList@CMFCRibbonButtonsGroup@@MAAXAAV?$CArray@PAVCMFCRibbonKeyTip@@PAV1@@@@Z=stub__AddToKeyList_CMFCRibbonButtonsGroup__MAAXAAV__CArray_PAVCMFCRibbonKeyTip__PAV1____Z @2001
    ?AddToListBox@CMFCRibbonBaseElement@@UAAHPAVCMFCRibbonCommandsListBox@@H@Z=stub__AddToListBox_CMFCRibbonBaseElement__UAAHPAVCMFCRibbonCommandsListBox__H_Z @2002
    ?AddToListBox@CMFCRibbonButton@@MAAHPAVCMFCRibbonCommandsListBox@@H@Z=stub__AddToListBox_CMFCRibbonButton__MAAHPAVCMFCRibbonCommandsListBox__H_Z @2003
    ?AddToListBox@CMFCRibbonButtonsGroup@@MAAHPAVCMFCRibbonCommandsListBox@@H@Z=stub__AddToListBox_CMFCRibbonButtonsGroup__MAAHPAVCMFCRibbonCommandsListBox__H_Z @2004
    ?AddToListBox@CMFCRibbonSeparator@@UAAHPAVCMFCRibbonCommandsListBox@@H@Z=stub__AddToListBox_CMFCRibbonSeparator__UAAHPAVCMFCRibbonCommandsListBox__H_Z @2005
    ?AddTool@CToolTipCtrl@@QAAHPAVCWnd@@IPBUtagRECT@@I@Z=stub__AddTool_CToolTipCtrl__QAAHPAVCWnd__IPBUtagRECT__I_Z @2006
    ?AddTool@CToolTipCtrl@@QAAHPAVCWnd@@PB_WPBUtagRECT@@I@Z=stub__AddTool_CToolTipCtrl__QAAHPAVCWnd__PB_WPBUtagRECT__I_Z @2007
    ?AddToolBar@CMFCRibbonPanel@@QAAPAVCMFCRibbonButtonsGroup@@IIII@Z=stub__AddToolBar_CMFCRibbonPanel__QAAPAVCMFCRibbonButtonsGroup__IIII_Z @2008
    ?AddToolBar@CMFCToolBarsCustomizeDialog@@QAAHII@Z=stub__AddToolBar_CMFCToolBarsCustomizeDialog__QAAHII_Z @2009
    ?AddToolBar@CMFCToolBarsCustomizeDialog@@QAAHPB_WI@Z=stub__AddToolBar_CMFCToolBarsCustomizeDialog__QAAHPB_WI_Z @2010
    ?AddToolBarForImageCollection@CMFCToolBar@@SAHIIIIII@Z=stub__AddToolBarForImageCollection_CMFCToolBar__SAHIIIIII_Z @2011
    ?AddToRecentFileList@CWinApp@@UAAXPB_W@Z=stub__AddToRecentFileList_CWinApp__UAAXPB_W_Z @2012
    ?AddToRight@CMFCRibbonMainPanel@@QAAXPAVCMFCRibbonBaseElement@@H@Z=stub__AddToRight_CMFCRibbonMainPanel__QAAXPAVCMFCRibbonBaseElement__H_Z @2013
    ?AddToStoryboard@CBaseKeyFrame@@UAAHPAUIUIAnimationStoryboard@@H@Z=stub__AddToStoryboard_CBaseKeyFrame__UAAHPAUIUIAnimationStoryboard__H_Z @2014
    ?AddToStoryboard@CBaseTransition@@QAAHPAUIUIAnimationStoryboard@@@Z=stub__AddToStoryboard_CBaseTransition__QAAHPAUIUIAnimationStoryboard___Z @2015
    ?AddToStoryboard@CKeyFrame@@UAAHPAUIUIAnimationStoryboard@@H@Z=stub__AddToStoryboard_CKeyFrame__UAAHPAUIUIAnimationStoryboard__H_Z @2016
    ?AddToStoryboardAfterTransition@CKeyFrame@@QAAHPAUIUIAnimationStoryboard@@H@Z=stub__AddToStoryboardAfterTransition_CKeyFrame__QAAHPAUIUIAnimationStoryboard__H_Z @2017
    ?AddToStoryboardAtKeyframes@CBaseTransition@@QAAHPAUIUIAnimationStoryboard@@@Z=stub__AddToStoryboardAtKeyframes_CBaseTransition__QAAHPAUIUIAnimationStoryboard___Z @2018
    ?AddToStoryboardAtOffset@CKeyFrame@@UAAHPAUIUIAnimationStoryboard@@H@Z=stub__AddToStoryboardAtOffset_CKeyFrame__UAAHPAUIUIAnimationStoryboard__H_Z @2019
    ?AddToTabs@CMFCRibbonBar@@QAAXPAVCMFCRibbonBaseElement@@@Z=stub__AddToTabs_CMFCRibbonBar__QAAXPAVCMFCRibbonBaseElement___Z @2020
    ?AddTransition@CAnimationColor@@QAAXPAVCBaseTransition@@00@Z=stub__AddTransition_CAnimationColor__QAAXPAVCBaseTransition__00_Z @2021
    ?AddTransition@CAnimationPoint@@QAAXPAVCBaseTransition@@0@Z=stub__AddTransition_CAnimationPoint__QAAXPAVCBaseTransition__0_Z @2022
    ?AddTransition@CAnimationRect@@QAAXPAVCBaseTransition@@000@Z=stub__AddTransition_CAnimationRect__QAAXPAVCBaseTransition__000_Z @2023
    ?AddTransition@CAnimationSize@@QAAXPAVCBaseTransition@@0@Z=stub__AddTransition_CAnimationSize__QAAXPAVCBaseTransition__0_Z @2024
    ?AddTransition@CAnimationValue@@QAAXPAVCBaseTransition@@@Z=stub__AddTransition_CAnimationValue__QAAXPAVCBaseTransition___Z @2025
    ?AddTransition@CAnimationVariable@@QAAXPAVCBaseTransition@@@Z=stub__AddTransition_CAnimationVariable__QAAXPAVCBaseTransition___Z @2026
    ?AddTransitions@CAnimationGroup@@IAAXPAUIUIAnimationStoryboard@@H@Z=stub__AddTransitions_CAnimationGroup__IAAXPAUIUIAnimationStoryboard__H_Z @2027
    ?AddTreeCategory@CMFCPropertySheet@@QAAPAVCMFCPropertySheetCategoryInfo@@PB_WHHPBV2@@Z=stub__AddTreeCategory_CMFCPropertySheet__QAAPAVCMFCPropertySheetCategoryInfo__PB_WHHPBV2__Z @2028
    ?AddUndoAction@CMFCRibbonUndoButton@@QAAXPB_W@Z=stub__AddUndoAction_CMFCRibbonUndoButton__QAAXPB_W_Z @2029
    ?AddUserTools@CMFCToolBarsCustomizeDialog@@IAAXPB_W@Z=stub__AddUserTools_CMFCToolBarsCustomizeDialog__IAAXPB_W_Z @2030
    ?AddView@CDocument@@QAAXPAVCView@@@Z=stub__AddView_CDocument__QAAXPAVCView___Z @2031
    ?AddView@CMouseManager@@QAAHHII@Z=stub__AddView_CMouseManager__QAAHHII_Z @2032
    ?AddView@CMouseManager@@QAAHHPB_WI@Z=stub__AddView_CMouseManager__QAAHHPB_WI_Z @2033
    ?AddView@CTabView@@QAAHPAUCRuntimeClass@@ABV?$CStringT@_WV?$StrTraitMFC_DLL@_WV?$ChTraitsCRT@_W@ATL@@@@@ATL@@HPAUCCreateContext@@@Z=stub__AddView_CTabView__QAAHPAUCRuntimeClass__ABV__CStringT__WV__StrTraitMFC_DLL__WV__ChTraitsCRT__W_ATL_____ATL__HPAUCCreateContext___Z @2034
    ?AddVirtKeyStr@CMFCAcceleratorKey@@IBAXAAV?$CStringT@_WV?$StrTraitMFC_DLL@_WV?$ChTraitsCRT@_W@ATL@@@@@ATL@@IH@Z=stub__AddVirtKeyStr_CMFCAcceleratorKey__IBAXAAV__CStringT__WV__StrTraitMFC_DLL__WV__ChTraitsCRT__W_ATL_____ATL__IH_Z @2035
    ?AddWindow@CMFCTasksPane@@QAAHHPAUHWND__@@HHK@Z=stub__AddWindow_CMFCTasksPane__QAAHHPAUHWND____HHK_Z @2036
    ?AdjustButtonRect@CMFCPropertyGridProperty@@UAAXXZ=stub__AdjustButtonRect_CMFCPropertyGridProperty__UAAXXZ @2037
    ?AdjustClientArea@CFrameWndEx@@MAAXXZ=stub__AdjustClientArea_CFrameWndEx__MAAXXZ @2038
    ?AdjustClientArea@CMDIChildWndEx@@IAAXXZ=stub__AdjustClientArea_CMDIChildWndEx__IAAXXZ @2039
    ?AdjustClientArea@CMDIFrameWndEx@@UAAXXZ=stub__AdjustClientArea_CMDIFrameWndEx__UAAXXZ @2040
    ?AdjustClientArea@COleCntrFrameWndEx@@QAAXXZ=stub__AdjustClientArea_COleCntrFrameWndEx__QAAXXZ @2041
    ?AdjustControlWidth@CMFCStandardColorsPropertyPage@@AAAXPAVCMFCColorPickerCtrl@@H@Z=stub__AdjustControlWidth_CMFCStandardColorsPropertyPage__AAAXPAVCMFCColorPickerCtrl__H_Z @2042
    ?AdjustCP@CMetaFileDC@@IAAXH@Z=stub__AdjustCP_CMetaFileDC__IAAXH_Z @2043
    ?AdjustDialogPosition@CRichEditView@@QAAXPAVCDialog@@@Z=stub__AdjustDialogPosition_CRichEditView__QAAXPAVCDialog___Z @2044
    ?AdjustDockingLayout@CBasePane@@UAAXPAX@Z=stub__AdjustDockingLayout_CBasePane__UAAXPAX_Z @2045
    ?AdjustDockingLayout@CDockingManager@@UAAXPAX@Z=stub__AdjustDockingLayout_CDockingManager__UAAXPAX_Z @2046
    ?AdjustDockingLayout@CDockSite@@UAAXXZ=stub__AdjustDockingLayout_CDockSite__UAAXXZ @2047
    ?AdjustDockingLayout@CFrameWndEx@@UAAXPAX@Z=stub__AdjustDockingLayout_CFrameWndEx__UAAXPAX_Z @2048
    ?AdjustDockingLayout@CMDIChildWndEx@@UAAXPAX@Z=stub__AdjustDockingLayout_CMDIChildWndEx__UAAXPAX_Z @2049
    ?AdjustDockingLayout@CMDIFrameWndEx@@UAAXPAX@Z=stub__AdjustDockingLayout_CMDIFrameWndEx__UAAXPAX_Z @2050
    ?AdjustDockingLayout@COleCntrFrameWndEx@@UAAXPAX@Z=stub__AdjustDockingLayout_COleCntrFrameWndEx__UAAXPAX_Z @2051
    ?AdjustDockingLayout@COleDocIPFrameWndEx@@UAAXPAX@Z=stub__AdjustDockingLayout_COleDocIPFrameWndEx__UAAXPAX_Z @2052
    ?AdjustDockingLayout@COleIPFrameWndEx@@UAAXPAX@Z=stub__AdjustDockingLayout_COleIPFrameWndEx__UAAXPAX_Z @2053
    ?AdjustFrames@CMFCVisualManager@@SAXXZ=stub__AdjustFrames_CMFCVisualManager__SAXXZ @2054
    ?AdjustInPlaceEditRect@CMFCPropertyGridColorProperty@@MAAXAAVCRect@@0@Z=stub__AdjustInPlaceEditRect_CMFCPropertyGridColorProperty__MAAXAAVCRect__0_Z @2055
    ?AdjustInPlaceEditRect@CMFCPropertyGridProperty@@UAAXAAVCRect@@0@Z=stub__AdjustInPlaceEditRect_CMFCPropertyGridProperty__UAAXAAVCRect__0_Z @2056
    ?AdjustLayout@CDockSite@@UAAXXZ=stub__AdjustLayout_CDockSite__UAAXXZ @2057
    ?AdjustLayout@CMFCCaptionBar@@MAAXXZ=stub__AdjustLayout_CMFCCaptionBar__MAAXXZ @2058
    ?AdjustLayout@CMFCPopupMenuBar@@MAAXXZ=stub__AdjustLayout_CMFCPopupMenuBar__MAAXXZ @2059
    ?AdjustLayout@CMFCPropertyGridCtrl@@UAAXXZ=stub__AdjustLayout_CMFCPropertyGridCtrl__UAAXXZ @2060
    ?AdjustLayout@CMFCTasksPaneToolBar@@MAAXXZ=stub__AdjustLayout_CMFCTasksPaneToolBar__MAAXXZ @2061
    ?AdjustLayout@CMFCToolBar@@UAAXXZ=stub__AdjustLayout_CMFCToolBar__UAAXXZ @2062
    ?AdjustLayout@CPaneFrameWnd@@UAAXXZ=stub__AdjustLayout_CPaneFrameWnd__UAAXXZ @2063
    ?AdjustLayout@CVSListBoxBase@@IAAXXZ=stub__AdjustLayout_CVSListBoxBase__IAAXXZ @2064
    ?AdjustLocations@CMFCColorBar@@MAAXXZ=stub__AdjustLocations_CMFCColorBar__MAAXXZ @2065
    ?AdjustLocations@CMFCMenuBar@@UAAXXZ=stub__AdjustLocations_CMFCMenuBar__UAAXXZ @2066
    ?AdjustLocations@CMFCOutlookBarPane@@MAAXXZ=stub__AdjustLocations_CMFCOutlookBarPane__MAAXXZ @2067
    ?AdjustLocations@CMFCOutlookBarToolBar@@UAAXXZ=stub__AdjustLocations_CMFCOutlookBarToolBar__UAAXXZ @2068
    ?AdjustLocations@CMFCPopupMenuBar@@MAAXXZ=stub__AdjustLocations_CMFCPopupMenuBar__MAAXXZ @2069
    ?AdjustLocations@CMFCRibbonPanelMenuBar@@UAAXXZ=stub__AdjustLocations_CMFCRibbonPanelMenuBar__UAAXXZ @2070
    ?AdjustLocations@CMFCTasksPaneToolBar@@MAAXXZ=stub__AdjustLocations_CMFCTasksPaneToolBar__MAAXXZ @2071
    ?AdjustLocations@CMFCToolBar@@MAAXXZ=stub__AdjustLocations_CMFCToolBar__MAAXXZ @2072
    ?AdjustMDIChildren@CMDIClientAreaWnd@@AAAXPAVCMFCTabCtrl@@@Z=stub__AdjustMDIChildren_CMDIClientAreaWnd__AAAXPAVCMFCTabCtrl___Z @2073
    ?AdjustPaneFrames@CDockingManager@@UAAXXZ=stub__AdjustPaneFrames_CDockingManager__UAAXXZ @2074
    ?AdjustPaneFrames@CMultiPaneFrameWnd@@UAAXXZ=stub__AdjustPaneFrames_CMultiPaneFrameWnd__UAAXXZ @2075
    ?AdjustPaneToPaneContainer@CDockablePane@@MAAXPAVCPaneDivider@@@Z=stub__AdjustPaneToPaneContainer_CDockablePane__MAAXPAVCPaneDivider___Z @2076
    ?AdjustPaneToRowArea@CDockingPanesRow@@IAAXPAVCPane@@ABVCRect@@AAPAX@Z=stub__AdjustPaneToRowArea_CDockingPanesRow__IAAXPAVCPane__ABVCRect__AAPAX_Z @2077
    ?AdjustPos@CSmartDockingGroupGuide@@UAAXVCRect@@@Z=stub__AdjustPos_CSmartDockingGroupGuide__UAAXVCRect___Z @2078
    ?AdjustPos@CSmartDockingGroupGuidesManager@@UAAHVCRect@@H@Z=stub__AdjustPos_CSmartDockingGroupGuidesManager__UAAHVCRect__H_Z @2079
    ?AdjustPos@CSmartDockingStandaloneGuide@@UAAXVCRect@@@Z=stub__AdjustPos_CSmartDockingStandaloneGuide__UAAXVCRect___Z @2080
    ?AdjustRect@CMFCToolBarComboBoxButton@@IAAXXZ=stub__AdjustRect_CMFCToolBarComboBoxButton__IAAXXZ @2081
    ?AdjustRect@CMFCToolBarDateTimeCtrl@@IAAXXZ=stub__AdjustRect_CMFCToolBarDateTimeCtrl__IAAXXZ @2082
    ?AdjustRect@CRectTracker@@UAAXHPAUtagRECT@@@Z=stub__AdjustRect_CRectTracker__UAAXHPAUtagRECT___Z @2083
    ?AdjustRect@XOleIPSite@COleControlSite@@UAAJPAUtagRECT@@@Z=stub__AdjustRect_XOleIPSite_COleControlSite__UAAJPAUtagRECT___Z @2084
    ?AdjustRectToClientArea@CDockingManager@@UAAHAAVCRect@@K@Z=stub__AdjustRectToClientArea_CDockingManager__UAAHAAVCRect__K_Z @2085
    ?AdjustRectToMargin@CMFCCaptionBar@@IAAXAAVCRect@@ABV2@HH@Z=stub__AdjustRectToMargin_CMFCCaptionBar__IAAXAAVCRect__ABV2_HH_Z @2086
    ?AdjustRectToWorkArea@CGlobalUtils@@QAAXAAVCRect@@PAV2@@Z=stub__AdjustRectToWorkArea_CGlobalUtils__QAAXAAVCRect__PAV2__Z @2087
    ?AdjustScroll@CMFCPopupMenu@@IAAHH@Z=stub__AdjustScroll_CMFCPopupMenu__IAAHH_Z @2088
    ?AdjustScroll@CMFCTasksPane@@IAAXXZ=stub__AdjustScroll_CMFCTasksPane__IAAXXZ @2089
    ?AdjustSize@CMFCToolBar@@QAAXXZ=stub__AdjustSize_CMFCToolBar__QAAXXZ @2090
    ?AdjustSizeImmediate@CPane@@UAAXH@Z=stub__AdjustSizeImmediate_CPane__UAAXH_Z @2091
    ?AdjustTabs@CMFCTabCtrl@@MAAXXZ=stub__AdjustTabs_CMFCTabCtrl__MAAXXZ @2092
    ?AdjustTabsScroll@CMFCTabCtrl@@MAAXXZ=stub__AdjustTabsScroll_CMFCTabCtrl__MAAXXZ @2093
    ?AdjustToolbars@CMFCVisualManager@@SAXXZ=stub__AdjustToolbars_CMFCVisualManager__SAXXZ @2094
    ?AdjustWndScroll@CMFCTabCtrl@@MAAXXZ=stub__AdjustWndScroll_CMFCTabCtrl__MAAXXZ @2095
    ?Advise@CDHtmlElementEventSink@@QAAJPAUIUnknown@@ABU_GUID@@@Z=stub__Advise_CDHtmlElementEventSink__QAAJPAUIUnknown__ABU_GUID___Z @2096
    ?Advise@XConnPt@CConnectionPoint@@UAAJPAUIUnknown@@PAK@Z=stub__Advise_XConnPt_CConnectionPoint__UAAJPAUIUnknown__PAK_Z @2097
    ?Advise@XOleObject@CDocObjectServer@@UAAJPAUIAdviseSink@@PAK@Z=stub__Advise_XOleObject_CDocObjectServer__UAAJPAUIAdviseSink__PAK_Z @2098
    ?Advise@XOleObject@COleControl@@UAAJPAUIAdviseSink@@PAK@Z=stub__Advise_XOleObject_COleControl__UAAJPAUIAdviseSink__PAK_Z @2099
    ?Advise@XOleObject@COleServerDoc@@UAAJPAUIAdviseSink@@PAK@Z=stub__Advise_XOleObject_COleServerDoc__UAAJPAUIAdviseSink__PAK_Z @2100
    ?Advise@XOleObject@COleServerItem@@UAAJPAUIAdviseSink@@PAK@Z=stub__Advise_XOleObject_COleServerItem__UAAJPAUIAdviseSink__PAK_Z @2101
    ?AFX_WM_AFTER_TASKBAR_ACTIVATE@@3IA=stub__AFX_WM_AFTER_TASKBAR_ACTIVATE__3IA @2102
    ?AFX_WM_CHANGE_ACTIVE_TAB@@3IA=stub__AFX_WM_CHANGE_ACTIVE_TAB__3IA @2103
    ?AFX_WM_CHANGE_CURRENT_FOLDER@@3IA=stub__AFX_WM_CHANGE_CURRENT_FOLDER__3IA @2104
    ?AFX_WM_CHANGEVISUALMANAGER@@3IA=stub__AFX_WM_CHANGEVISUALMANAGER__3IA @2105
    ?AFX_WM_CHANGING_ACTIVE_TAB@@3IA=stub__AFX_WM_CHANGING_ACTIVE_TAB__3IA @2106
    ?AFX_WM_CHECKEMPTYMINIFRAME@@3IA=stub__AFX_WM_CHECKEMPTYMINIFRAME__3IA @2107
    ?AFX_WM_CREATETOOLBAR@@3IA=stub__AFX_WM_CREATETOOLBAR__3IA @2108
    ?AFX_WM_CUSTOMIZEHELP@@3IA=stub__AFX_WM_CUSTOMIZEHELP__3IA @2109
    ?AFX_WM_CUSTOMIZETOOLBAR@@3IA=stub__AFX_WM_CUSTOMIZETOOLBAR__3IA @2110
    ?AFX_WM_DELETETOOLBAR@@3IA=stub__AFX_WM_DELETETOOLBAR__3IA @2111
    ?AFX_WM_DRAW2D@@3IA=stub__AFX_WM_DRAW2D__3IA @2112
    ?AFX_WM_GETDOCUMENTCOLORS@@3IA=stub__AFX_WM_GETDOCUMENTCOLORS__3IA @2113
    ?AFX_WM_GETDRAGBOUNDS@@3IA=stub__AFX_WM_GETDRAGBOUNDS__3IA @2114
    ?AFX_WM_ON_AFTER_SHELL_COMMAND@@3IA=stub__AFX_WM_ON_AFTER_SHELL_COMMAND__3IA @2115
    ?AFX_WM_ON_BEFORE_SHOW_RIBBON_ITEM_MENU@@3IA=stub__AFX_WM_ON_BEFORE_SHOW_RIBBON_ITEM_MENU__3IA @2116
    ?AFX_WM_ON_CANCELTABMOVE@@3IA=stub__AFX_WM_ON_CANCELTABMOVE__3IA @2117
    ?AFX_WM_ON_CHANGE_RIBBON_CATEGORY@@3IA=stub__AFX_WM_ON_CHANGE_RIBBON_CATEGORY__3IA @2118
    ?AFX_WM_ON_CLOSEPOPUPWINDOW@@3IA=stub__AFX_WM_ON_CLOSEPOPUPWINDOW__3IA @2119
    ?AFX_WM_ON_DRAGCOMPLETE@@3IA=stub__AFX_WM_ON_DRAGCOMPLETE__3IA @2120
    ?AFX_WM_ON_GET_TAB_TOOLTIP@@3IA=stub__AFX_WM_ON_GET_TAB_TOOLTIP__3IA @2121
    ?AFX_WM_ON_HIGHLIGHT_RIBBON_LIST_ITEM@@3IA=stub__AFX_WM_ON_HIGHLIGHT_RIBBON_LIST_ITEM__3IA @2122
    ?AFX_WM_ON_HSCROLL@@3IA=stub__AFX_WM_ON_HSCROLL__3IA @2123
    ?AFX_WM_ON_MOVE_TAB@@3IA=stub__AFX_WM_ON_MOVE_TAB__3IA @2124
    ?AFX_WM_ON_MOVETABCOMPLETE@@3IA=stub__AFX_WM_ON_MOVETABCOMPLETE__3IA @2125
    ?AFX_WM_ON_MOVETOTABGROUP@@3IA=stub__AFX_WM_ON_MOVETOTABGROUP__3IA @2126
    ?AFX_WM_ON_PRESS_CLOSE_BUTTON@@3IA=stub__AFX_WM_ON_PRESS_CLOSE_BUTTON__3IA @2127
    ?AFX_WM_ON_RENAME_TAB@@3IA=stub__AFX_WM_ON_RENAME_TAB__3IA @2128
    ?AFX_WM_ON_RIBBON_CUSTOMIZE@@3IA=stub__AFX_WM_ON_RIBBON_CUSTOMIZE__3IA @2129
    ?AFX_WM_ON_TABGROUPMOUSEMOVE@@3IA=stub__AFX_WM_ON_TABGROUPMOUSEMOVE__3IA @2130
    ?AFX_WM_POSTRECALCLAYOUT@@3IA=stub__AFX_WM_POSTRECALCLAYOUT__3IA @2131
    ?AFX_WM_POSTSETPREVIEWFRAME@@3IA=stub__AFX_WM_POSTSETPREVIEWFRAME__3IA @2132
    ?AFX_WM_PROPERTY_CHANGED@@3IA=stub__AFX_WM_PROPERTY_CHANGED__3IA @2133
    ?AFX_WM_RECREATED2DRESOURCES@@3IA=stub__AFX_WM_RECREATED2DRESOURCES__3IA @2134
    ?AFX_WM_RESETCONTEXTMENU@@3IA=stub__AFX_WM_RESETCONTEXTMENU__3IA @2135
    ?AFX_WM_RESETKEYBOARD@@3IA=stub__AFX_WM_RESETKEYBOARD__3IA @2136
    ?AFX_WM_RESETMENU@@3IA=stub__AFX_WM_RESETMENU__3IA @2137
    ?AFX_WM_RESETRPROMPT@@3IA=stub__AFX_WM_RESETRPROMPT__3IA @2138
    ?AFX_WM_RESETTOOLBAR@@3IA=stub__AFX_WM_RESETTOOLBAR__3IA @2139
    ?AFX_WM_SHOWREGULARMENU@@3IA=stub__AFX_WM_SHOWREGULARMENU__3IA @2140
    ?AFX_WM_TOOLBARMENU@@3IA=stub__AFX_WM_TOOLBARMENU__3IA @2141
    ?AFX_WM_UPDATETOOLTIPS@@3IA=stub__AFX_WM_UPDATETOOLTIPS__3IA @2142
    ?AFX_WM_WINDOW_HELP@@3IA=stub__AFX_WM_WINDOW_HELP__3IA @2143
    ?AfxA2WHelper@@YAPA_WPA_WPBDH@Z=stub__AfxA2WHelper__YAPA_WPA_WPBDH_Z @2144
    ?AfxAbort@@YAXXZ=stub__AfxAbort__YAXXZ @2145
    ?AfxApplicationRecoveryWrapper@@YAKPAX@Z=stub__AfxApplicationRecoveryWrapper__YAKPAX_Z @2146
    ?AfxAutosaveTimerProc@@YAXPAUHWND__@@IIK@Z=stub__AfxAutosaveTimerProc__YAXPAUHWND____IIK_Z @2147
    ?AfxBeginThread@@YAPAVCWinThread@@P6AIPAX@Z0HIKPAU_SECURITY_ATTRIBUTES@@@Z=stub__AfxBeginThread__YAPAVCWinThread__P6AIPAX_Z0HIKPAU_SECURITY_ATTRIBUTES___Z @2148
    ?AfxBeginThread@@YAPAVCWinThread@@PAUCRuntimeClass@@HIKPAU_SECURITY_ATTRIBUTES@@@Z=stub__AfxBeginThread__YAPAVCWinThread__PAUCRuntimeClass__HIKPAU_SECURITY_ATTRIBUTES___Z @2149
    ?AfxBSTR2CString@@YAXPAV?$CStringT@_WV?$StrTraitMFC_DLL@_WV?$ChTraitsCRT@_W@ATL@@@@@ATL@@PA_W@Z=stub__AfxBSTR2CString__YAXPAV__CStringT__WV__StrTraitMFC_DLL__WV__ChTraitsCRT__W_ATL_____ATL__PA_W_Z @2150
    ?AfxCallWndProc@@YAJPAVCWnd@@PAUHWND__@@IIJ@Z=stub__AfxCallWndProc__YAJPAVCWnd__PAUHWND____IIJ_Z @2151
    ?AfxCancelModes@@YAXPAUHWND__@@@Z=stub__AfxCancelModes__YAXPAUHWND_____Z @2152
    ?AfxCheckError@@YAXJ@Z=stub__AfxCheckError__YAXJ_Z @2153
    ?AfxClassInit@@YAXPAUCRuntimeClass@@@Z=stub__AfxClassInit__YAXPAUCRuntimeClass___Z @2154
    ?AfxComparePath@@YAHPB_W0@Z=stub__AfxComparePath__YAHPB_W0_Z @2155
    ?AfxCompareValueByRef@@YAHPAX0H@Z=stub__AfxCompareValueByRef__YAHPAX0H_Z @2156
    ?AfxConnectionAdvise@@YAHPAUIUnknown@@ABU_GUID@@0HPAK@Z=stub__AfxConnectionAdvise__YAHPAUIUnknown__ABU_GUID__0HPAK_Z @2157
    ?AfxConnectionUnadvise@@YAHPAUIUnknown@@ABU_GUID@@0HK@Z=stub__AfxConnectionUnadvise__YAHPAUIUnknown__ABU_GUID__0HK_Z @2158
    ?AfxCopyValueByRef@@YAXPAX0PAJH@Z=stub__AfxCopyValueByRef__YAXPAX0PAJH_Z @2159
    ?AfxCoreInitModule@@YAXXZ=stub__AfxCoreInitModule__YAXXZ @2160
    ?AfxCreateDC@@YAPAUHDC__@@PAX0@Z=stub__AfxCreateDC__YAPAUHDC____PAX0_Z @2161
    ?AfxCriticalInit@@YAHXZ=stub__AfxCriticalInit__YAHXZ @2162
    ?AfxCriticalNewHandler@@YAHI@Z=stub__AfxCriticalNewHandler__YAHI_Z @2163
    ?AfxCriticalTerm@@YAXXZ=stub__AfxCriticalTerm__YAXXZ @2164
    ?AfxCustomLogFont@@YAHIPAUtagLOGFONTW@@@Z=stub__AfxCustomLogFont__YAHIPAUtagLOGFONTW___Z @2165
    ?afxData@@3UAUX_DATA@@A=stub__afxData__3UAUX_DATA__A @2166
    ?AfxDeleteObject@@YAXPAPAX@Z=stub__AfxDeleteObject__YAXPAPAX_Z @2167
    ?AfxDelRegTreeHelper@@YAJPAUHKEY__@@ABV?$CStringT@_WV?$StrTraitMFC_DLL@_WV?$ChTraitsCRT@_W@ATL@@@@@ATL@@PAVCAtlTransactionManager@3@@Z=stub__AfxDelRegTreeHelper__YAJPAUHKEY____ABV__CStringT__WV__StrTraitMFC_DLL__WV__ChTraitsCRT__W_ATL_____ATL__PAVCAtlTransactionManager_3__Z @2168
    ?AfxDlgProc@@YAHPAUHWND__@@IIJ@Z=stub__AfxDlgProc__YAHPAUHWND____IIJ_Z @2169
    ?AfxDllCanUnloadNow@@YAJXZ=stub__AfxDllCanUnloadNow__YAJXZ @2170
    ?AfxDllGetClassObject@@YAJABU_GUID@@0PAPAX@Z=stub__AfxDllGetClassObject__YAJABU_GUID__0PAPAX_Z @2171
    ?AfxDoRegisterMFCControlClass@@YAXPB_W0@Z=stub__AfxDoRegisterMFCControlClass__YAXPB_W0_Z @2172
    ?AfxDrawDitheredBitmap@@YAXPAVCDC@@HHABVCBitmap@@KK@Z=stub__AfxDrawDitheredBitmap__YAXPAVCDC__HHABVCBitmap__KK_Z @2173
    ?AfxDrawGrayBitmap@@YAXPAVCDC@@HHABVCBitmap@@K@Z=stub__AfxDrawGrayBitmap__YAXPAVCDC__HHABVCBitmap__K_Z @2174
    ?AfxDynamicDownCast@@YAPAVCObject@@PAUCRuntimeClass@@PAV1@@Z=stub__AfxDynamicDownCast__YAPAVCObject__PAUCRuntimeClass__PAV1__Z @2175
    ?AfxEditviewTerm@@YAXXZ=stub__AfxEditviewTerm__YAXXZ @2176
    ?AfxEnableControlContainer@@YAXPAVCOccManager@@@Z=stub__AfxEnableControlContainer__YAXPAVCOccManager___Z @2177
    ?AfxEndDeferRegisterClass@@YAHJ@Z=stub__AfxEndDeferRegisterClass__YAHJ_Z @2178
    ?AfxEndThread@@YAXIH@Z=stub__AfxEndThread__YAXIH_Z @2179
    ?AfxEnumMetaFileProc@@YAHPAUHDC__@@PAUtagHANDLETABLE@@PAUtagMETARECORD@@HJ@Z=stub__AfxEnumMetaFileProc__YAHPAUHDC____PAUtagHANDLETABLE__PAUtagMETARECORD__HJ_Z @2180
    ?AfxExtractSubString@@YAHAAV?$CStringT@_WV?$StrTraitMFC_DLL@_WV?$ChTraitsCRT@_W@ATL@@@@@ATL@@PB_WH_W@Z=stub__AfxExtractSubString__YAHAAV__CStringT__WV__StrTraitMFC_DLL__WV__ChTraitsCRT__W_ATL_____ATL__PB_WH_W_Z @2181
    ?AfxFailMaxChars@@YAXPAVCDataExchange@@H@Z=stub__AfxFailMaxChars__YAXPAVCDataExchange__H_Z @2182
    ?AfxFailRadio@@YAXPAVCDataExchange@@@Z=stub__AfxFailRadio__YAXPAVCDataExchange___Z @2183
    ?AfxFieldText@@YAHPAVCDataExchange@@HPAXPAVCRecordset@@@Z=stub__AfxFieldText__YAHPAVCDataExchange__HPAXPAVCRecordset___Z @2184
    ?AfxFindMessageEntry@@YAPBUAFX_MSGMAP_ENTRY@@PBU1@III@Z=stub__AfxFindMessageEntry__YAPBUAFX_MSGMAP_ENTRY__PBU1_III_Z @2185
    ?AfxFindResourceHandle@@YAPAUHINSTANCE__@@PB_W0@Z=stub__AfxFindResourceHandle__YAPAUHINSTANCE____PB_W0_Z @2186
    ?AfxFindStringResourceHandle@@YAPAUHINSTANCE__@@I@Z=stub__AfxFindStringResourceHandle__YAPAUHINSTANCE____I_Z @2187
    ?AfxFormatString1@@YAXAAV?$CStringT@_WV?$StrTraitMFC_DLL@_WV?$ChTraitsCRT@_W@ATL@@@@@ATL@@IPB_W@Z=stub__AfxFormatString1__YAXAAV__CStringT__WV__StrTraitMFC_DLL__WV__ChTraitsCRT__W_ATL_____ATL__IPB_W_Z @2188
    ?AfxFormatString2@@YAXAAV?$CStringT@_WV?$StrTraitMFC_DLL@_WV?$ChTraitsCRT@_W@ATL@@@@@ATL@@IPB_W1@Z=stub__AfxFormatString2__YAXAAV__CStringT__WV__StrTraitMFC_DLL__WV__ChTraitsCRT__W_ATL_____ATL__IPB_W1_Z @2189
    ?AfxFormatStrings@@YAXAAV?$CStringT@_WV?$StrTraitMFC_DLL@_WV?$ChTraitsCRT@_W@ATL@@@@@ATL@@IPBQB_WH@Z=stub__AfxFormatStrings__YAXAAV__CStringT__WV__StrTraitMFC_DLL__WV__ChTraitsCRT__W_ATL_____ATL__IPBQB_WH_Z @2190
    ?AfxFormatStrings@@YAXAAV?$CStringT@_WV?$StrTraitMFC_DLL@_WV?$ChTraitsCRT@_W@ATL@@@@@ATL@@PB_WPBQB_WH@Z=stub__AfxFormatStrings__YAXAAV__CStringT__WV__StrTraitMFC_DLL__WV__ChTraitsCRT__W_ATL_____ATL__PB_WPBQB_WH_Z @2191
    ?AfxFreeLibrary@@YAHPAUHINSTANCE__@@@Z=stub__AfxFreeLibrary__YAHPAUHINSTANCE_____Z @2192
    ?AfxFullPath@@YAHPA_WPB_W@Z=stub__AfxFullPath__YAHPA_WPB_W_Z @2193
    ?AfxGetAfxWndProc@@YAP6AJPAUHWND__@@IIJ@ZXZ=stub__AfxGetAfxWndProc__YAP6AJPAUHWND____IIJ_ZXZ @2194
    ?AfxGetAppModuleState@@YAPAVAFX_MODULE_STATE@@XZ=stub__AfxGetAppModuleState__YAPAVAFX_MODULE_STATE__XZ @2195
    ?AfxGetClassIDFromString@@YAJPB_WPAU_GUID@@@Z=stub__AfxGetClassIDFromString__YAJPB_WPAU_GUID___Z @2196
    ?AfxGetCurrentMessage@@YAPAUtagMSG@@XZ=stub__AfxGetCurrentMessage__YAPAUtagMSG__XZ @2197
    ?AfxGetD2DState@@YAPAV_AFX_D2D_STATE@@XZ=stub__AfxGetD2DState__YAPAV_AFX_D2D_STATE__XZ @2198
    ?AfxGetDitheredBitmap@@YAXABVCBitmap@@PAV1@KK@Z=stub__AfxGetDitheredBitmap__YAXABVCBitmap__PAV1_KK_Z @2199
    ?AfxGetDlgItemStartFromHWND@@YAPAUHWND__@@HPAU1@@Z=stub__AfxGetDlgItemStartFromHWND__YAPAUHWND____HPAU1__Z @2200
    ?AfxGetDllVersion@@YAKXZ=stub__AfxGetDllVersion__YAKXZ @2201
    ?AfxGetFileName@@YAIPB_WPA_WI@Z=stub__AfxGetFileName__YAIPB_WPA_WI_Z @2202
    ?AfxGetFileTitle@@YAIPB_WPA_WI@Z=stub__AfxGetFileTitle__YAIPB_WPA_WI_Z @2203
    ?AfxGetGrayBitmap@@YAXABVCBitmap@@PAV1@K@Z=stub__AfxGetGrayBitmap__YAXABVCBitmap__PAV1_K_Z @2204
    ?AfxGetHENV@@YAPAXXZ=stub__AfxGetHENV__YAPAXXZ @2205
    ?AfxGetInProcServer@@YAHPB_WAAV?$CStringT@_WV?$StrTraitMFC_DLL@_WV?$ChTraitsCRT@_W@ATL@@@@@ATL@@@Z=stub__AfxGetInProcServer__YAHPB_WAAV__CStringT__WV__StrTraitMFC_DLL__WV__ChTraitsCRT__W_ATL_____ATL___Z @2206
    ?AfxGetInstanceHandleHelper@@YAPAUHINSTANCE__@@XZ=stub__AfxGetInstanceHandleHelper__YAPAUHINSTANCE____XZ @2207
    ?AfxGetInternetHandleType@@YAKPAX@Z=stub__AfxGetInternetHandleType__YAKPAX_Z @2208
    ?AfxGetModuleFileName@@YAXPAUHINSTANCE__@@AAV?$CStringT@_WV?$StrTraitMFC_DLL@_WV?$ChTraitsCRT@_W@ATL@@@@@ATL@@@Z=stub__AfxGetModuleFileName__YAXPAUHINSTANCE____AAV__CStringT__WV__StrTraitMFC_DLL__WV__ChTraitsCRT__W_ATL_____ATL___Z @2209
    ?AfxGetModuleShortFileName@@YAXPAUHINSTANCE__@@AAV?$CStringT@_WV?$StrTraitMFC_DLL@_WV?$ChTraitsCRT@_W@ATL@@@@@ATL@@@Z=stub__AfxGetModuleShortFileName__YAXPAUHINSTANCE____AAV__CStringT__WV__StrTraitMFC_DLL__WV__ChTraitsCRT__W_ATL_____ATL___Z @2210
    ?AfxGetModuleState@@YAPAVAFX_MODULE_STATE@@XZ=stub__AfxGetModuleState__YAPAVAFX_MODULE_STATE__XZ @2211
    ?AfxGetModuleThreadState@@YAPAVAFX_MODULE_THREAD_STATE@@XZ=stub__AfxGetModuleThreadState__YAPAVAFX_MODULE_THREAD_STATE__XZ @2212
    ?AfxGetNewHandler@@YAP6AHI@ZXZ=stub__AfxGetNewHandler__YAP6AHI_ZXZ @2213
    ?AFXGetParentFrame@@YAPAVCFrameWnd@@PBVCWnd@@@Z=stub__AFXGetParentFrame__YAPAVCFrameWnd__PBVCWnd___Z @2214
    ?AfxGetParentOwner@@YAPAUHWND__@@PAU1@@Z=stub__AfxGetParentOwner__YAPAUHWND____PAU1__Z @2215
    ?AfxGetPerUserRegistration@@YAHXZ=stub__AfxGetPerUserRegistration__YAHXZ @2216
    ?AfxGetPropSheetFont@@YAHAAV?$CStringT@_WV?$StrTraitMFC_DLL@_WV?$ChTraitsCRT@_W@ATL@@@@@ATL@@AAGH@Z=stub__AfxGetPropSheetFont__YAHAAV__CStringT__WV__StrTraitMFC_DLL__WV__ChTraitsCRT__W_ATL_____ATL__AAGH_Z @2217
    ?AFXGetRegPath@@YA?AV?$CStringT@_WV?$StrTraitMFC_DLL@_WV?$ChTraitsCRT@_W@ATL@@@@@ATL@@PB_W0@Z=stub__AFXGetRegPath__YA_AV__CStringT__WV__StrTraitMFC_DLL__WV__ChTraitsCRT__W_ATL_____ATL__PB_W0_Z @2218
    ?AfxGetRoot@@YAXPB_WAAV?$CStringT@_WV?$StrTraitMFC_DLL@_WV?$ChTraitsCRT@_W@ATL@@@@@ATL@@@Z=stub__AfxGetRoot__YAXPB_WAAV__CStringT__WV__StrTraitMFC_DLL__WV__ChTraitsCRT__W_ATL_____ATL___Z @2219
    ?AfxGetStringManager@@YAPAUIAtlStringMgr@ATL@@XZ=stub__AfxGetStringManager__YAPAUIAtlStringMgr_ATL__XZ @2220
    ?AfxGetThread@@YAPAVCWinThread@@XZ=stub__AfxGetThread__YAPAVCWinThread__XZ @2221
    ?AfxGetThreadState@@YAPAV_AFX_THREAD_STATE@@XZ=stub__AfxGetThreadState__YAPAV_AFX_THREAD_STATE__XZ @2222
    ?AfxGetTypeLibCache@@YAPAVCTypeLibCache@@PBU_GUID@@@Z=stub__AfxGetTypeLibCache__YAPAVCTypeLibCache__PBU_GUID___Z @2223
    ?afxGlobalData@@3UAFX_GLOBAL_DATA@@A=stub__afxGlobalData__3UAFX_GLOBAL_DATA__A @2224
    ?AfxGlobalFree@@YAXPAX@Z=stub__AfxGlobalFree__YAXPAX_Z @2225
    ?AfxGlobalsAddRef@@YAXXZ=stub__AfxGlobalsAddRef__YAXXZ @2226
    ?AfxGlobalsRelease@@YAXXZ=stub__AfxGlobalsRelease__YAXXZ @2227
    ?afxGlobalUtils@@3VCGlobalUtils@@A=stub__afxGlobalUtils__3VCGlobalUtils__A @2228
    ?AfxHelpEnabled@@YAHXZ=stub__AfxHelpEnabled__YAHXZ @2229
    ?AfxHookWindowCreate@@YAXPAVCWnd@@@Z=stub__AfxHookWindowCreate__YAXPAVCWnd___Z @2230
    ?AfxHtmlHelp@@YAPAUHWND__@@PAU1@PB_WIK@Z=stub__AfxHtmlHelp__YAPAUHWND____PAU1_PB_WIK_Z @2231
    ?AfxInitCurrentStateApp@@YAHXZ=stub__AfxInitCurrentStateApp__YAHXZ @2232
    ?AfxInitExtensionModule@@YAHAAUAFX_EXTENSION_MODULE@@PAUHINSTANCE__@@@Z=stub__AfxInitExtensionModule__YAHAAUAFX_EXTENSION_MODULE__PAUHINSTANCE_____Z @2233
    ?AfxInitLocalData@@YAXPAUHINSTANCE__@@@Z=stub__AfxInitLocalData__YAXPAUHINSTANCE_____Z @2234
    ?AfxInitNetworkAddressControl@@YAHXZ=stub__AfxInitNetworkAddressControl__YAHXZ @2235
    ?AfxInitRichEdit@@YAHXZ=stub__AfxInitRichEdit__YAHXZ @2236
    ?AfxInitRichEdit2@@YAHXZ=stub__AfxInitRichEdit2__YAHXZ @2237
    ?AfxInitRichEdit5@@YAHXZ=stub__AfxInitRichEdit5__YAHXZ @2238
    ?AfxInitThread@@YAXXZ=stub__AfxInitThread__YAXXZ @2239
    ?AfxInternalIsIdleMessage@@YAHPAUtagMSG@@@Z=stub__AfxInternalIsIdleMessage__YAHPAUtagMSG___Z @2240
    ?AfxInternalPreTranslateMessage@@YAHPAUtagMSG@@@Z=stub__AfxInternalPreTranslateMessage__YAHPAUtagMSG___Z @2241
    ?AfxInternalProcessWndProcException@@YAJPAVCException@@PBUtagMSG@@@Z=stub__AfxInternalProcessWndProcException__YAJPAVCException__PBUtagMSG___Z @2242
    ?AfxInternalPumpMessage@@YAHXZ=stub__AfxInternalPumpMessage__YAHXZ @2243
    ?AfxInternetStatusCallback@@YAXPAXKK0K@Z=stub__AfxInternetStatusCallback__YAXPAXKK0K_Z @2244
    ?AfxIsDescendant@@YAHPAUHWND__@@0@Z=stub__AfxIsDescendant__YAHPAUHWND____0_Z @2245
    ?AfxIsExtendedFrameClass@@YAHPAVCWnd@@@Z=stub__AfxIsExtendedFrameClass__YAHPAVCWnd___Z @2246
    ?AfxIsIdleMessage@@YAHPAUtagMSG@@@Z=stub__AfxIsIdleMessage__YAHPAUtagMSG___Z @2247
    ?AfxIsMFCToolBar@@YAHPAVCWnd@@@Z=stub__AfxIsMFCToolBar__YAHPAVCWnd___Z @2248
    ?AfxIsModuleDll@@YAHXZ=stub__AfxIsModuleDll__YAHXZ @2249
    ?AfxIsValidAddress@@YAHPBXIH@Z=stub__AfxIsValidAddress__YAHPBXIH_Z @2250
    ?AfxIsValidAtom@@YAHG@Z=stub__AfxIsValidAtom__YAHG_Z @2251
    ?AfxIsValidAtom@@YAHPB_W@Z=stub__AfxIsValidAtom__YAHPB_W_Z @2252
    ?AfxIsValidString@@YAHPB_WH@Z=stub__AfxIsValidString__YAHPB_WH_Z @2253
    ?AfxIsValidString@@YAHPBDH@Z=stub__AfxIsValidString__YAHPBDH_Z @2254
    ?afxKeyboardManager@@3PAVCKeyboardManager@@A=stub__afxKeyboardManager__3PAVCKeyboardManager__A @2255
    ?AfxLoadField@@YAXAAVCRecordset@@IPAXPAJ@Z=stub__AfxLoadField__YAXAAVCRecordset__IPAXPAJ_Z @2256
    ?AfxLoadLangResourceDLL@@YAPAUHINSTANCE__@@PB_W@Z=stub__AfxLoadLangResourceDLL__YAPAUHINSTANCE____PB_W_Z @2257
    ?AfxLoadLangResourceDLL@@YAPAUHINSTANCE__@@PB_W0@Z=stub__AfxLoadLangResourceDLL__YAPAUHINSTANCE____PB_W0_Z @2258
    ?AfxLoadLibrary@@YAPAUHINSTANCE__@@PB_W@Z=stub__AfxLoadLibrary__YAPAUHINSTANCE____PB_W_Z @2259
    ?AfxLoadLibraryEx@@YAPAUHINSTANCE__@@PB_WPAXK@Z=stub__AfxLoadLibraryEx__YAPAUHINSTANCE____PB_WPAXK_Z @2260
    ?AfxLoadString@@YAHIPA_WI@Z=stub__AfxLoadString__YAHIPA_WI_Z @2261
    ?AfxLoadString@@YAHIPADI@Z=stub__AfxLoadString__YAHIPADI_Z @2262
    ?AfxLoadSysColorBitmap@@YAPAUHBITMAP__@@PAUHINSTANCE__@@PAUHRSRC__@@H@Z=stub__AfxLoadSysColorBitmap__YAPAUHBITMAP____PAUHINSTANCE____PAUHRSRC____H_Z @2263
    ?AfxLockGlobals@@YAXH@Z=stub__AfxLockGlobals__YAXH_Z @2264
    ?AfxLockTempMaps@@YAXXZ=stub__AfxLockTempMaps__YAXXZ @2265
    ?afxMapHDC@@YAPAVCHandleMap@@H@Z=stub__afxMapHDC__YAPAVCHandleMap__H_Z @2266
    ?afxMapHGDIOBJ@@YAPAVCHandleMap@@H@Z=stub__afxMapHGDIOBJ__YAPAVCHandleMap__H_Z @2267
    ?afxMapHIMAGELIST@@YAPAVCHandleMap@@H@Z=stub__afxMapHIMAGELIST__YAPAVCHandleMap__H_Z @2268
    ?afxMapHMENU@@YAPAVCHandleMap@@H@Z=stub__afxMapHMENU__YAPAVCHandleMap__H_Z @2269
    ?afxMapHWND@@YAPAVCHandleMap@@H@Z=stub__afxMapHWND__YAPAVCHandleMap__H_Z @2270
    ?afxMenuHash@@3VCMenuHash@@A=stub__afxMenuHash__3VCMenuHash__A @2271
    ?AfxMergeMenus@@YAPAUHMENU__@@PAU1@0PAJHH@Z=stub__AfxMergeMenus__YAPAUHMENU____PAU1_0PAJHH_Z @2272
    ?AfxMessageBox@@YAHIII@Z=stub__AfxMessageBox__YAHIII_Z @2273
    ?AfxMessageBox@@YAHPB_WII@Z=stub__AfxMessageBox__YAHPB_WII_Z @2274
    ?AfxOleCanExitApp@@YAHXZ=stub__AfxOleCanExitApp__YAHXZ @2275
    ?AfxOleGetUserCtrl@@YAHXZ=stub__AfxOleGetUserCtrl__YAHXZ @2276
    ?AfxOleHookProc@@YAIPAUHWND__@@IIJ@Z=stub__AfxOleHookProc__YAIPAUHWND____IIJ_Z @2277
    ?AfxOleInit@@YAHXZ=stub__AfxOleInit__YAHXZ @2278
    ?AfxOleInprocRegisterHelper@@YAHPAUHKEY__@@0H@Z=stub__AfxOleInprocRegisterHelper__YAHPAUHKEY____0H_Z @2279
    ?AfxOleLockApp@@YAXXZ=stub__AfxOleLockApp__YAXXZ @2280
    ?AfxOleLockControl@@YAHABU_GUID@@@Z=stub__AfxOleLockControl__YAHABU_GUID___Z @2281
    ?AfxOleLockControl@@YAHPB_W@Z=stub__AfxOleLockControl__YAHPB_W_Z @2282
    ?AfxOleOnReleaseAllObjects@@YAXXZ=stub__AfxOleOnReleaseAllObjects__YAXXZ @2283
    ?AfxOleRegisterControlClass@@YAHPAUHINSTANCE__@@ABU_GUID@@PB_WIIHK1GG@Z=stub__AfxOleRegisterControlClass__YAHPAUHINSTANCE____ABU_GUID__PB_WIIHK1GG_Z @2284
    ?AfxOleRegisterHelper@@YAHPBQB_W0HHPAUHKEY__@@@Z=stub__AfxOleRegisterHelper__YAHPBQB_W0HHPAUHKEY_____Z @2285
    ?AfxOleRegisterPropertyPageClass@@YAHPAUHINSTANCE__@@ABU_GUID@@I@Z=stub__AfxOleRegisterPropertyPageClass__YAHPAUHINSTANCE____ABU_GUID__I_Z @2286
    ?AfxOleRegisterPropertyPageClass@@YAHPAUHINSTANCE__@@ABU_GUID@@IH@Z=stub__AfxOleRegisterPropertyPageClass__YAHPAUHINSTANCE____ABU_GUID__IH_Z @2287
    ?AfxOleRegisterServerClass@@YAHABU_GUID@@PB_W11W4OLE_APPTYPE@@PAPB_W3H1@Z=stub__AfxOleRegisterServerClass__YAHABU_GUID__PB_W11W4OLE_APPTYPE__PAPB_W3H1_Z @2288
    ?AfxOleRegisterServerClass@@YAHABU_GUID@@PB_W11W4OLE_APPTYPE@@PAPB_W3H11@Z=stub__AfxOleRegisterServerClass__YAHABU_GUID__PB_W11W4OLE_APPTYPE__PAPB_W3H11_Z @2289
    ?AfxOleRegisterTypeLib@@YAHPAUHINSTANCE__@@ABU_GUID@@PB_W2@Z=stub__AfxOleRegisterTypeLib__YAHPAUHINSTANCE____ABU_GUID__PB_W2_Z @2290
    ?AfxOleSetEditMenu@@YAXPAVCOleClientItem@@PAVCMenu@@IIII@Z=stub__AfxOleSetEditMenu__YAXPAVCOleClientItem__PAVCMenu__IIII_Z @2291
    ?AfxOleSetUserCtrl@@YAXH@Z=stub__AfxOleSetUserCtrl__YAXH_Z @2292
    ?AfxOleTerm@@YAXH@Z=stub__AfxOleTerm__YAXH_Z @2293
    ?AfxOleTermOrFreeLib@@YAXHH@Z=stub__AfxOleTermOrFreeLib__YAXHH_Z @2294
    ?AfxOleUnlockAllControls@@YAXXZ=stub__AfxOleUnlockAllControls__YAXXZ @2295
    ?AfxOleUnlockApp@@YAXXZ=stub__AfxOleUnlockApp__YAXXZ @2296
    ?AfxOleUnlockControl@@YAHABU_GUID@@@Z=stub__AfxOleUnlockControl__YAHABU_GUID___Z @2297
    ?AfxOleUnlockControl@@YAHPB_W@Z=stub__AfxOleUnlockControl__YAHPB_W_Z @2298
    ?AfxOleUnregisterClass@@YAHABU_GUID@@PB_W@Z=stub__AfxOleUnregisterClass__YAHABU_GUID__PB_W_Z @2299
    ?AfxOleUnregisterHelper@@YAHPBQB_W0HPAUHKEY__@@@Z=stub__AfxOleUnregisterHelper__YAHPBQB_W0HPAUHKEY_____Z @2300
    ?AfxOleUnregisterServerClass@@YAHABU_GUID@@PB_W11W4OLE_APPTYPE@@PAPB_W3@Z=stub__AfxOleUnregisterServerClass__YAHABU_GUID__PB_W11W4OLE_APPTYPE__PAPB_W3_Z @2301
    ?AfxOleUnregisterTypeLib@@YAHABU_GUID@@GGK@Z=stub__AfxOleUnregisterTypeLib__YAHABU_GUID__GGK_Z @2302
    ?AfxParseURL@@YAHPB_WAAKAAV?$CStringT@_WV?$StrTraitMFC_DLL@_WV?$ChTraitsCRT@_W@ATL@@@@@ATL@@2AAG@Z=stub__AfxParseURL__YAHPB_WAAKAAV__CStringT__WV__StrTraitMFC_DLL__WV__ChTraitsCRT__W_ATL_____ATL__2AAG_Z @2303
    ?AfxParseURLEx@@YAHPB_WAAKAAV?$CStringT@_WV?$StrTraitMFC_DLL@_WV?$ChTraitsCRT@_W@ATL@@@@@ATL@@2AAG22K@Z=stub__AfxParseURLEx__YAHPB_WAAKAAV__CStringT__WV__StrTraitMFC_DLL__WV__ChTraitsCRT__W_ATL_____ATL__2AAG22K_Z @2304
    ?AFXPlaySystemSound@@YAXH@Z=stub__AFXPlaySystemSound__YAXH_Z @2305
    ?AfxPostQuitMessage@@YAXH@Z=stub__AfxPostQuitMessage__YAXH_Z @2306
    ?AfxPreTranslateMessage@@YAHPAUtagMSG@@@Z=stub__AfxPreTranslateMessage__YAHPAUtagMSG___Z @2307
    ?AFXPrintPreview@@YAXPAVCView@@@Z=stub__AFXPrintPreview__YAXPAVCView___Z @2308
    ?AfxProcessWndProcException@@YAJPAVCException@@PBUtagMSG@@@Z=stub__AfxProcessWndProcException__YAJPAVCException__PBUtagMSG___Z @2309
    ?AfxPropPageCallback@@YAIPAUHWND__@@IPAU_PROPSHEETPAGEW@@@Z=stub__AfxPropPageCallback__YAIPAUHWND____IPAU_PROPSHEETPAGEW___Z @2310
    ?AfxPropSheetCallback@@YAHPAUHWND__@@IJ@Z=stub__AfxPropSheetCallback__YAHPAUHWND____IJ_Z @2311
    ?AfxPumpMessage@@YAHXZ=stub__AfxPumpMessage__YAHXZ @2312
    ?AfxReadStringLength@@YAIAAVCArchive@@AAH@Z=stub__AfxReadStringLength__YAIAAVCArchive__AAH_Z @2313
    ?AfxRegCreateKey@@YAJPAUHKEY__@@PB_WPAPAU1@PAVCAtlTransactionManager@ATL@@@Z=stub__AfxRegCreateKey__YAJPAUHKEY____PB_WPAPAU1_PAVCAtlTransactionManager_ATL___Z @2314
    ?AfxRegDeleteKey@@YAJPAUHKEY__@@PB_WPAVCAtlTransactionManager@ATL@@@Z=stub__AfxRegDeleteKey__YAJPAUHKEY____PB_WPAVCAtlTransactionManager_ATL___Z @2315
    ?AfxRegisterClass@@YAHPAUtagWNDCLASSW@@@Z=stub__AfxRegisterClass__YAHPAUtagWNDCLASSW___Z @2316
    ?AfxRegisterMFCCtrlClasses@@YAXXZ=stub__AfxRegisterMFCCtrlClasses__YAXXZ @2317
    ?AfxRegisterPreviewHandler@@YAHPB_W00@Z=stub__AfxRegisterPreviewHandler__YAHPB_W00_Z @2318
    ?AfxRegisterSiteFactory@@YAHPAVIControlSiteFactory@@@Z=stub__AfxRegisterSiteFactory__YAHPAVIControlSiteFactory___Z @2319
    ?AfxRegisterThumbnailHandler@@YAHPB_W0K@Z=stub__AfxRegisterThumbnailHandler__YAHPB_W0K_Z @2320
    ?AfxRegisterWndClass@@YAPB_WIPAUHICON__@@PAUHBRUSH__@@0@Z=stub__AfxRegisterWndClass__YAPB_WIPAUHICON____PAUHBRUSH____0_Z @2321
    ?AfxRegOpenKey@@YAJPAUHKEY__@@PB_WPAPAU1@PAVCAtlTransactionManager@ATL@@@Z=stub__AfxRegOpenKey__YAJPAUHKEY____PB_WPAPAU1_PAVCAtlTransactionManager_ATL___Z @2322
    ?AfxRegOpenKeyEx@@YAJPAUHKEY__@@PB_WKKPAPAU1@PAVCAtlTransactionManager@ATL@@@Z=stub__AfxRegOpenKeyEx__YAJPAUHKEY____PB_WKKPAPAU1_PAVCAtlTransactionManager_ATL___Z @2323
    ?AfxRegQueryValue@@YAJPAUHKEY__@@PB_WPA_WPAJ@Z=stub__AfxRegQueryValue__YAJPAUHKEY____PB_WPA_WPAJ_Z @2324
    ?AfxRegSetValue@@YAJPAUHKEY__@@PB_WK1K@Z=stub__AfxRegSetValue__YAJPAUHKEY____PB_WK1K_Z @2325
    ?AfxReleaseD2DRefs@@YAXXZ=stub__AfxReleaseD2DRefs__YAXXZ @2326
    ?AfxRepositionWindow@@YAXPAUAFX_SIZEPARENTPARAMS@@PAUHWND__@@PBUtagRECT@@@Z=stub__AfxRepositionWindow__YAXPAUAFX_SIZEPARENTPARAMS__PAUHWND____PBUtagRECT___Z @2327
    ?AfxResetMsgCache@@YAXXZ=stub__AfxResetMsgCache__YAXXZ @2328
    ?AfxResolveShortcut@@YAHPAVCWnd@@PB_WPA_WH@Z=stub__AfxResolveShortcut__YAHPAVCWnd__PB_WPA_WH_Z @2329
    ?AfxRFXBulkDefault@@YAXPAVCFieldExchange@@PB_WPAXPAJHK@Z=stub__AfxRFXBulkDefault__YAXPAVCFieldExchange__PB_WPAXPAJHK_Z @2330
    ?AfxSafeArrayInit@@YAXPAVCOleSafeArray@@@Z=stub__AfxSafeArrayInit__YAXPAVCOleSafeArray___Z @2331
    ?AfxSetModuleState@@YAPAVAFX_MODULE_STATE@@PAV1@@Z=stub__AfxSetModuleState__YAPAVAFX_MODULE_STATE__PAV1__Z @2332
    ?AfxSetNewHandler@@YAP6AHI@ZP6AHI@Z@Z=stub__AfxSetNewHandler__YAP6AHI_ZP6AHI_Z_Z @2333
    ?AfxSetPerUserRegistration@@YAXH@Z=stub__AfxSetPerUserRegistration__YAXH_Z @2334
    ?AfxSetWindowText@@YAXPAUHWND__@@PB_W@Z=stub__AfxSetWindowText__YAXPAUHWND____PB_W_Z @2335
    ?AfxSocketTerm@@YAXXZ=stub__AfxSocketTerm__YAXXZ @2336
    ?AFXSoundThreadProc@@YAXPAX@Z=stub__AFXSoundThreadProc__YAXPAX_Z @2337
    ?AfxStoreField@@YAXAAVCRecordset@@IPAX@Z=stub__AfxStoreField__YAXAAVCRecordset__IPAX_Z @2338
    ?AfxStringFromCLSID@@YA?AV?$CStringT@_WV?$StrTraitMFC_DLL@_WV?$ChTraitsCRT@_W@ATL@@@@@ATL@@ABU_GUID@@@Z=stub__AfxStringFromCLSID__YA_AV__CStringT__WV__StrTraitMFC_DLL__WV__ChTraitsCRT__W_ATL_____ATL__ABU_GUID___Z @2339
    ?AfxTermExtensionModule@@YAXAAUAFX_EXTENSION_MODULE@@H@Z=stub__AfxTermExtensionModule__YAXAAUAFX_EXTENSION_MODULE__H_Z @2340
    ?AfxTermLocalData@@YAXPAUHINSTANCE__@@H@Z=stub__AfxTermLocalData__YAXPAUHINSTANCE____H_Z @2341
    ?AfxTermThread@@YAXPAUHINSTANCE__@@@Z=stub__AfxTermThread__YAXPAUHINSTANCE_____Z @2342
    ?AfxTextFloatFormat@@YAXPAVCDataExchange@@HPAXNH@Z=stub__AfxTextFloatFormat__YAXPAVCDataExchange__HPAXNH_Z @2343
    ?AfxThrowArchiveException@@YAXHPB_W@Z=stub__AfxThrowArchiveException__YAXHPB_W_Z @2344
    ?AfxThrowDBException@@YAXFPAVCDatabase@@PAX@Z=stub__AfxThrowDBException__YAXFPAVCDatabase__PAX_Z @2345
    ?AfxThrowFileException@@YAXHJPB_W@Z=stub__AfxThrowFileException__YAXHJPB_W_Z @2346
    ?AfxThrowInternetException@@YAXKK@Z=stub__AfxThrowInternetException__YAXKK_Z @2347
    ?AfxThrowInvalidArgException@@YAXXZ=stub__AfxThrowInvalidArgException__YAXXZ @2348
    ?AfxThrowLastCleanup@@YAXXZ=stub__AfxThrowLastCleanup__YAXXZ @2349
    ?AfxThrowMemoryException@@YAXXZ=stub__AfxThrowMemoryException__YAXXZ @2350
    ?AfxThrowNotSupportedException@@YAXXZ=stub__AfxThrowNotSupportedException__YAXXZ @2351
    ?AfxThrowOleDispatchException@@YAXGII@Z=stub__AfxThrowOleDispatchException__YAXGII_Z @2352
    ?AfxThrowOleDispatchException@@YAXGPB_WI@Z=stub__AfxThrowOleDispatchException__YAXGPB_WI_Z @2353
    ?AfxThrowOleException@@YAXJ@Z=stub__AfxThrowOleException__YAXJ_Z @2354
    ?AfxThrowResourceException@@YAXXZ=stub__AfxThrowResourceException__YAXXZ @2355
    ?AfxThrowUserException@@YAXXZ=stub__AfxThrowUserException__YAXXZ @2356
    ?AfxTimeToFileTime@@YAXABVCTime@ATL@@PAU_FILETIME@@@Z=stub__AfxTimeToFileTime__YAXABVCTime_ATL__PAU_FILETIME___Z @2357
    ?AfxTlsAddRef@@YAXXZ=stub__AfxTlsAddRef__YAXXZ @2358
    ?AfxTlsRelease@@YAXXZ=stub__AfxTlsRelease__YAXXZ @2359
    ?AfxTrackerTerm@@YAXXZ=stub__AfxTrackerTerm__YAXXZ @2360
    ?AfxTryCleanup@@YAXXZ=stub__AfxTryCleanup__YAXXZ @2361
    ?AfxUnhookWindowCreate@@YAHXZ=stub__AfxUnhookWindowCreate__YAHXZ @2362
    ?AfxUnlockGlobals@@YAXH@Z=stub__AfxUnlockGlobals__YAXH_Z @2363
    ?AfxUnlockTempMaps@@YAHH@Z=stub__AfxUnlockTempMaps__YAHH_Z @2364
    ?AfxUnmergeMenus@@YAXPAUHMENU__@@00@Z=stub__AfxUnmergeMenus__YAXPAUHMENU____00_Z @2365
    ?AfxUnRegisterPreviewHandler@@YAHPB_W@Z=stub__AfxUnRegisterPreviewHandler__YAHPB_W_Z @2366
    ?AfxUnregisterSiteFactory@@YAHPAVIControlSiteFactory@@@Z=stub__AfxUnregisterSiteFactory__YAHPAVIControlSiteFactory___Z @2367
    ?AfxUnregisterWndClasses@@YAXXZ=stub__AfxUnregisterWndClasses__YAXXZ @2368
    ?afxUserToolsManager@@3PAVCUserToolsManager@@A=stub__afxUserToolsManager__3PAVCUserToolsManager__A @2369
    ?AfxVariantInit@@YAXPAUtagVARIANT@@@Z=stub__AfxVariantInit__YAXPAUtagVARIANT___Z @2370
    ?AfxVerifyLicFile@@YAHPAUHINSTANCE__@@PB_W1I@Z=stub__AfxVerifyLicFile__YAHPAUHINSTANCE____PB_W1I_Z @2371
    ?AfxW2AHelper@@YAPADPADPB_WH@Z=stub__AfxW2AHelper__YAPADPADPB_WH_Z @2372
    ?AfxWinInit@@YAHPAUHINSTANCE__@@0PA_WH@Z=stub__AfxWinInit__YAHPAUHINSTANCE____0PA_WH_Z @2373
    ?AfxWinMain@@YAHPAUHINSTANCE__@@0PA_WH@Z=stub__AfxWinMain__YAHPAUHINSTANCE____0PA_WH_Z @2374
    ?AfxWinTerm@@YAXXZ=stub__AfxWinTerm__YAXXZ @2375
    ?AfxWndProc@@YAJPAUHWND__@@IIJ@Z=stub__AfxWndProc__YAJPAUHWND____IIJ_Z @2376
    ?AfxWndProcBase@@YAJPAUHWND__@@IIJ@Z=stub__AfxWndProcBase__YAJPAUHWND____IIJ_Z @2377
    ?AfxWndProcDllOle@@YAJPAUHWND__@@IIJ@Z=stub__AfxWndProcDllOle__YAJPAUHWND____IIJ_Z @2378
    ?AfxWriteStringLength@@YAXAAVCArchive@@IH@Z=stub__AfxWriteStringLength__YAXAAVCArchive__IH_Z @2379
    ?AlignAutoHidePane@CDockingManager@@QAAXPAVCPaneDivider@@H@Z=stub__AlignAutoHidePane_CDockingManager__QAAXPAVCPaneDivider__H_Z @2380
    ?AlignByRect@CDockingManager@@IAAXABVCRect@@AAV2@KHH@Z=stub__AlignByRect_CDockingManager__IAAXABVCRect__AAV2_KHH_Z @2381
    ?AlignDockSite@CDockSite@@QAAXABVCRect@@AAV2@H@Z=stub__AlignDockSite_CDockSite__QAAXABVCRect__AAV2_H_Z @2382
    ?Alloc@CFixedAlloc@@QAAPAXXZ=stub__Alloc_CFixedAlloc__QAAPAXXZ @2383
    ?Alloc@CFixedAllocNoSync@@QAAPAXXZ=stub__Alloc_CFixedAllocNoSync__QAAPAXXZ @2384
    ?Alloc@CMemFile@@MAAPAEK@Z=stub__Alloc_CMemFile__MAAPAEK_Z @2385
    ?Alloc@CSharedFile@@MAAPAEK@Z=stub__Alloc_CSharedFile__MAAPAEK_Z @2386
    ?AllocAndCacheFieldInfo@CRecordset@@IAAXXZ=stub__AllocAndCacheFieldInfo_CRecordset__IAAXXZ @2387
    ?Allocate@CAfxStringMgr@@UAAPAUCStringData@ATL@@HH@Z=stub__Allocate_CAfxStringMgr__UAAPAUCStringData_ATL__HH_Z @2388
    ?AllocConnect@CDatabase@@IAAXK@Z=stub__AllocConnect_CDatabase__IAAXK_Z @2389
    ?AllocData@COleSafeArray@@QAAXXZ=stub__AllocData_COleSafeArray__QAAXXZ @2390
    ?AllocDataCache@CRecordset@@QAAXXZ=stub__AllocDataCache_CRecordset__QAAXXZ @2391
    ?AllocDescriptor@COleSafeArray@@QAAXK@Z=stub__AllocDescriptor_COleSafeArray__QAAXK_Z @2392
    ?AllocElements@CControlBar@@QAAHHH@Z=stub__AllocElements_CControlBar__QAAHHH_Z @2393
    ?AllocElements@CPane@@QAAHHH@Z=stub__AllocElements_CPane__QAAHHH_Z @2394
    ?AllocElements@CStatusBar@@QAAHHH@Z=stub__AllocElements_CStatusBar__QAAHHH_Z @2395
    ?AllocHstmt@CRecordset@@IAAHXZ=stub__AllocHstmt_CRecordset__IAAHXZ @2396
    ?AllocPSP@CPropertyPage@@IAAXK@Z=stub__AllocPSP_CPropertyPage__IAAXK_Z @2397
    ?AllocRowset@CRecordset@@IAAXXZ=stub__AllocRowset_CRecordset__IAAXXZ @2398
    ?AllocSlot@CThreadSlotData@@QAAHXZ=stub__AllocSlot_CThreadSlotData__QAAHXZ @2399
    ?AllocStatusArrays@CRecordset@@QAAXXZ=stub__AllocStatusArrays_CRecordset__QAAXXZ @2400
    ?AllocSysString@?$CStringT@_WV?$StrTraitMFC_DLL@_WV?$ChTraitsCRT@_W@ATL@@@@@ATL@@QBAPA_WXZ=stub__AllocSysString___CStringT__WV__StrTraitMFC_DLL__WV__ChTraitsCRT__W_ATL_____ATL__QBAPA_WXZ @2401
    ?AllocSysString@?$CStringT@DV?$StrTraitMFC_DLL@DV?$ChTraitsCRT@D@ATL@@@@@ATL@@QBAPA_WXZ=stub__AllocSysString___CStringT_DV__StrTraitMFC_DLL_DV__ChTraitsCRT_D_ATL_____ATL__QBAPA_WXZ @2402
    ?AllocValue@CProperty@@AAAPAXK@Z=stub__AllocValue_CProperty__AAAPAXK_Z @2403
    ?AmbientAppearance@COleControl@@QAAFXZ=stub__AmbientAppearance_COleControl__QAAFXZ @2404
    ?AmbientBackColor@COleControl@@QAAKXZ=stub__AmbientBackColor_COleControl__QAAKXZ @2405
    ?AmbientDisplayName@COleControl@@QAA?AV?$CStringT@_WV?$StrTraitMFC_DLL@_WV?$ChTraitsCRT@_W@ATL@@@@@ATL@@XZ=stub__AmbientDisplayName_COleControl__QAA_AV__CStringT__WV__StrTraitMFC_DLL__WV__ChTraitsCRT__W_ATL_____ATL__XZ @2406
    ?AmbientFont@COleControl@@QAAPAUIFontDisp@@XZ=stub__AmbientFont_COleControl__QAAPAUIFontDisp__XZ @2407
    ?AmbientForeColor@COleControl@@QAAKXZ=stub__AmbientForeColor_COleControl__QAAKXZ @2408
    ?AmbientLocaleID@COleControl@@QAAKXZ=stub__AmbientLocaleID_COleControl__QAAKXZ @2409
    ?AmbientScaleUnits@COleControl@@QAA?AV?$CStringT@_WV?$StrTraitMFC_DLL@_WV?$ChTraitsCRT@_W@ATL@@@@@ATL@@XZ=stub__AmbientScaleUnits_COleControl__QAA_AV__CStringT__WV__StrTraitMFC_DLL__WV__ChTraitsCRT__W_ATL_____ATL__XZ @2410
    ?AmbientShowGrabHandles@COleControl@@QAAHXZ=stub__AmbientShowGrabHandles_COleControl__QAAHXZ @2411
    ?AmbientShowHatching@COleControl@@QAAHXZ=stub__AmbientShowHatching_COleControl__QAAHXZ @2412
    ?AmbientTextAlign@COleControl@@QAAFXZ=stub__AmbientTextAlign_COleControl__QAAFXZ @2413
    ?AmbientUIDead@COleControl@@QAAHXZ=stub__AmbientUIDead_COleControl__QAAHXZ @2414
    ?AmbientUserMode@COleControl@@QAAHXZ=stub__AmbientUserMode_COleControl__QAAHXZ @2415
    ?Animate@CAnimationGroup@@QAAHPAUIUIAnimationManager@@PAUIUIAnimationTimer@@H@Z=stub__Animate_CAnimationGroup__QAAHPAUIUIAnimationManager__PAUIUIAnimationTimer__H_Z @2416
    ?AnimateGroup@CAnimationController@@QAAHIH@Z=stub__AnimateGroup_CAnimationController__QAAHIH_Z @2417
    ?AnimTimerProc@CMFCRibbonStatusBarPane@@KAXPAUHWND__@@IIK@Z=stub__AnimTimerProc_CMFCRibbonStatusBarPane__KAXPAUHWND____IIK_Z @2418
    ?Append@?$CSimpleStringT@_W$00@ATL@@QAAXABV12@@Z=stub__Append___CSimpleStringT__W_00_ATL__QAAXABV12__Z @2419
    ?Append@?$CSimpleStringT@_W$00@ATL@@QAAXPB_W@Z=stub__Append___CSimpleStringT__W_00_ATL__QAAXPB_W_Z @2420
    ?Append@?$CSimpleStringT@_W$00@ATL@@QAAXPB_WH@Z=stub__Append___CSimpleStringT__W_00_ATL__QAAXPB_WH_Z @2421
    ?Append@?$CSimpleStringT@D$00@ATL@@QAAXABV12@@Z=stub__Append___CSimpleStringT_D_00_ATL__QAAXABV12__Z @2422
    ?Append@?$CSimpleStringT@D$00@ATL@@QAAXPBD@Z=stub__Append___CSimpleStringT_D_00_ATL__QAAXPBD_Z @2423
    ?Append@?$CSimpleStringT@D$00@ATL@@QAAXPBDH@Z=stub__Append___CSimpleStringT_D_00_ATL__QAAXPBDH_Z @2424
    ?Append@CByteArray@@QAAHABV1@@Z=stub__Append_CByteArray__QAAHABV1__Z @2425
    ?Append@CDWordArray@@QAAHABV1@@Z=stub__Append_CDWordArray__QAAHABV1__Z @2426
    ?Append@CObArray@@QAAHABV1@@Z=stub__Append_CObArray__QAAHABV1__Z @2427
    ?Append@CPtrArray@@QAAHABV1@@Z=stub__Append_CPtrArray__QAAHABV1__Z @2428
    ?Append@CStringArray@@QAAHABV1@@Z=stub__Append_CStringArray__QAAHABV1__Z @2429
    ?Append@CUIntArray@@QAAHABV1@@Z=stub__Append_CUIntArray__QAAHABV1__Z @2430
    ?Append@CWordArray@@QAAHABV1@@Z=stub__Append_CWordArray__QAAHABV1__Z @2431
    ?AppendChar@?$CSimpleStringT@_W$00@ATL@@QAAX_W@Z=stub__AppendChar___CSimpleStringT__W_00_ATL__QAAX_W_Z @2432
    ?AppendChar@?$CSimpleStringT@D$00@ATL@@QAAXD@Z=stub__AppendChar___CSimpleStringT_D_00_ATL__QAAXD_Z @2433
    ?AppendFilterAndSortSQL@CRecordset@@IAAXXZ=stub__AppendFilterAndSortSQL_CRecordset__IAAXXZ @2434
    ?AppendFormat@?$CStringT@_WV?$StrTraitMFC_DLL@_WV?$ChTraitsCRT@_W@ATL@@@@@ATL@@QAAXIZZ=stub__AppendFormat___CStringT__WV__StrTraitMFC_DLL__WV__ChTraitsCRT__W_ATL_____ATL__QAAXIZZ @2435
    ?AppendFormat@?$CStringT@_WV?$StrTraitMFC_DLL@_WV?$ChTraitsCRT@_W@ATL@@@@@ATL@@QAAXPB_WZZ=stub__AppendFormat___CStringT__WV__StrTraitMFC_DLL__WV__ChTraitsCRT__W_ATL_____ATL__QAAXPB_WZZ @2436
    ?AppendFormat@?$CStringT@DV?$StrTraitMFC_DLL@DV?$ChTraitsCRT@D@ATL@@@@@ATL@@QAAXIZZ=stub__AppendFormat___CStringT_DV__StrTraitMFC_DLL_DV__ChTraitsCRT_D_ATL_____ATL__QAAXIZZ @2437
    ?AppendFormat@?$CStringT@DV?$StrTraitMFC_DLL@DV?$ChTraitsCRT@D@ATL@@@@@ATL@@QAAXPBDZZ=stub__AppendFormat___CStringT_DV__StrTraitMFC_DLL_DV__ChTraitsCRT_D_ATL_____ATL__QAAXPBDZZ @2438
    ?AppendFormatV@?$CStringT@_WV?$StrTraitMFC_DLL@_WV?$ChTraitsCRT@_W@ATL@@@@@ATL@@QAAXPB_WPAD@Z=stub__AppendFormatV___CStringT__WV__StrTraitMFC_DLL__WV__ChTraitsCRT__W_ATL_____ATL__QAAXPB_WPAD_Z @2439
    ?AppendFormatV@?$CStringT@DV?$StrTraitMFC_DLL@DV?$ChTraitsCRT@D@ATL@@@@@ATL@@QAAXPBDPAD@Z=stub__AppendFormatV___CStringT_DV__StrTraitMFC_DLL_DV__ChTraitsCRT_D_ATL_____ATL__QAAXPBDPAD_Z @2440
    ?AppendNames@CRecordset@@QAAIPAV?$CStringT@_WV?$StrTraitMFC_DLL@_WV?$ChTraitsCRT@_W@ATL@@@@@ATL@@PB_W@Z=stub__AppendNames_CRecordset__QAAIPAV__CStringT__WV__StrTraitMFC_DLL__WV__ChTraitsCRT__W_ATL_____ATL__PB_W_Z @2441
    ?AppendNamesValues@CRecordset@@QAAIPAXPAV?$CStringT@_WV?$StrTraitMFC_DLL@_WV?$ChTraitsCRT@_W@ATL@@@@@ATL@@PB_W@Z=stub__AppendNamesValues_CRecordset__QAAIPAXPAV__CStringT__WV__StrTraitMFC_DLL__WV__ChTraitsCRT__W_ATL_____ATL__PB_W_Z @2442
    ?AppendValues@CRecordset@@QAAIPAXPAV?$CStringT@_WV?$StrTraitMFC_DLL@_WV?$ChTraitsCRT@_W@ATL@@@@@ATL@@PB_W@Z=stub__AppendValues_CRecordset__QAAIPAXPAV__CStringT__WV__StrTraitMFC_DLL__WV__ChTraitsCRT__W_ATL_____ATL__PB_W_Z @2443
    ?ApplicationRecoveryCallback@CWinApp@@UAAKPAX@Z=stub__ApplicationRecoveryCallback_CWinApp__UAAKPAX_Z @2444
    ?Apply@XPropertyPage@COlePropertyPage@@UAAJXZ=stub__Apply_XPropertyPage_COlePropertyPage__UAAJXZ @2445
    ?ApplyOFNToShellDialog@CFileDialog@@QAAXXZ=stub__ApplyOFNToShellDialog_CFileDialog__QAAXXZ @2446
    ?ApplyParams@CMDIClientAreaWnd@@AAAXPAVCMFCTabCtrl@@@Z=stub__ApplyParams_CMDIClientAreaWnd__AAAXPAVCMFCTabCtrl___Z @2447
    ?ApplyPrintDevice@COleDocument@@QAAHPBUtagDVTARGETDEVICE@@@Z=stub__ApplyPrintDevice_COleDocument__QAAHPBUtagDVTARGETDEVICE___Z @2448
    ?ApplyPrintDevice@COleDocument@@QAAHPBUtagPDW@@@Z=stub__ApplyPrintDevice_COleDocument__QAAHPBUtagPDW___Z @2449
    ?ApplyRestoredTabInfo@CBaseTabbedPane@@UAAXH@Z=stub__ApplyRestoredTabInfo_CBaseTabbedPane__UAAXH_Z @2450
    ?ApplyRestoredTabInfo@CMFCBaseTabCtrl@@UAAXH@Z=stub__ApplyRestoredTabInfo_CMFCBaseTabCtrl__UAAXH_Z @2451
    ?ApplyTransitions@CAnimationBaseObject@@UAAHPAUIUIAnimationStoryboard@@H@Z=stub__ApplyTransitions_CAnimationBaseObject__UAAHPAUIUIAnimationStoryboard__H_Z @2452
    ?ApplyTransitions@CAnimationGroup@@QAAXXZ=stub__ApplyTransitions_CAnimationGroup__QAAXXZ @2453
    ?ApplyTransitions@CAnimationVariable@@QAAXPAVCAnimationController@@PAUIUIAnimationStoryboard@@H@Z=stub__ApplyTransitions_CAnimationVariable__QAAXPAVCAnimationController__PAUIUIAnimationStoryboard__H_Z @2454
    ?ApplyViewState@XOleDocumentView@CDocObjectServer@@UAAJPAUIStream@@@Z=stub__ApplyViewState_XOleDocumentView_CDocObjectServer__UAAJPAUIStream___Z @2455
    ?ArcTo@CDC@@QAAHHHHHHHHH@Z=stub__ArcTo_CDC__QAAHHHHHHHHH_Z @2456
    ?ArrangeCaptionButtons@CPaneFrameWnd@@IAAXXZ=stub__ArrangeCaptionButtons_CPaneFrameWnd__IAAXXZ @2457
    ?ArrangePanes@CDockingPanesRow@@UAAXHH@Z=stub__ArrangePanes_CDockingPanesRow__UAAXHH_Z @2458
    ?ArrangePanes@CDockingPanesRow@@UAAXPAVCPane@@@Z=stub__ArrangePanes_CDockingPanesRow__UAAXPAVCPane___Z @2459
    ?ArrangePanesRect@CDockingPanesRow@@IAAXPAVCPane@@@Z=stub__ArrangePanesRect_CDockingPanesRow__IAAXPAVCPane___Z @2460
    ?Assign@CSmartDockingStandaloneGuideWnd@@QAAHPAUHBITMAP__@@H@Z=stub__Assign_CSmartDockingStandaloneGuideWnd__QAAHPAUHBITMAP____H_Z @2461
    ?AssignInstance@CThreadSlotData@@QAAXPAUHINSTANCE__@@@Z=stub__AssignInstance_CThreadSlotData__QAAXPAUHINSTANCE_____Z @2462
    ?AsyncSelect@CAsyncSocket@@QAAHJ@Z=stub__AsyncSelect_CAsyncSocket__QAAHJ_Z @2463
    ?Attach@?$CSimpleStringT@_W$00@ATL@@AAAXPAUCStringData@2@@Z=stub__Attach___CSimpleStringT__W_00_ATL__AAAXPAUCStringData_2__Z @2464
    ?Attach@?$CSimpleStringT@D$00@ATL@@AAAXPAUCStringData@2@@Z=stub__Attach___CSimpleStringT_D_00_ATL__AAAXPAUCStringData_2__Z @2465
    ?Attach@CAsyncSocket@@QAAHIJ@Z=stub__Attach_CAsyncSocket__QAAHIJ_Z @2466
    ?Attach@CBitmapRenderTarget@@QAAXPAUID2D1BitmapRenderTarget@@@Z=stub__Attach_CBitmapRenderTarget__QAAXPAUID2D1BitmapRenderTarget___Z @2467
    ?Attach@CD2DBitmap@@QAAXPAUID2D1Bitmap@@@Z=stub__Attach_CD2DBitmap__QAAXPAUID2D1Bitmap___Z @2468
    ?Attach@CD2DBitmapBrush@@QAAXPAUID2D1BitmapBrush@@@Z=stub__Attach_CD2DBitmapBrush__QAAXPAUID2D1BitmapBrush___Z @2469
    ?Attach@CD2DBrush@@QAAXPAUID2D1Brush@@@Z=stub__Attach_CD2DBrush__QAAXPAUID2D1Brush___Z @2470
    ?Attach@CD2DGeometry@@QAAXPAUID2D1Geometry@@@Z=stub__Attach_CD2DGeometry__QAAXPAUID2D1Geometry___Z @2471
    ?Attach@CD2DLayer@@QAAXPAUID2D1Layer@@@Z=stub__Attach_CD2DLayer__QAAXPAUID2D1Layer___Z @2472
    ?Attach@CD2DLinearGradientBrush@@QAAXPAUID2D1LinearGradientBrush@@@Z=stub__Attach_CD2DLinearGradientBrush__QAAXPAUID2D1LinearGradientBrush___Z @2473
    ?Attach@CD2DMesh@@QAAXPAUID2D1Mesh@@@Z=stub__Attach_CD2DMesh__QAAXPAUID2D1Mesh___Z @2474
    ?Attach@CD2DPathGeometry@@QAAXPAUID2D1PathGeometry@@@Z=stub__Attach_CD2DPathGeometry__QAAXPAUID2D1PathGeometry___Z @2475
    ?Attach@CD2DRadialGradientBrush@@QAAXPAUID2D1RadialGradientBrush@@@Z=stub__Attach_CD2DRadialGradientBrush__QAAXPAUID2D1RadialGradientBrush___Z @2476
    ?Attach@CD2DSolidColorBrush@@QAAXPAUID2D1SolidColorBrush@@@Z=stub__Attach_CD2DSolidColorBrush__QAAXPAUID2D1SolidColorBrush___Z @2477
    ?Attach@CDC@@QAAHPAUHDC__@@@Z=stub__Attach_CDC__QAAHPAUHDC_____Z @2478
    ?Attach@CDCRenderTarget@@QAAXPAUID2D1DCRenderTarget@@@Z=stub__Attach_CDCRenderTarget__QAAXPAUID2D1DCRenderTarget___Z @2479
    ?Attach@CGdiObject@@QAAHPAX@Z=stub__Attach_CGdiObject__QAAHPAX_Z @2480
    ?Attach@CHwndRenderTarget@@QAAXPAUID2D1HwndRenderTarget@@@Z=stub__Attach_CHwndRenderTarget__QAAXPAUID2D1HwndRenderTarget___Z @2481
    ?Attach@CImageList@@QAAHPAU_IMAGELIST@@@Z=stub__Attach_CImageList__QAAHPAU_IMAGELIST___Z @2482
    ?Attach@CMemFile@@QAAXPAEII@Z=stub__Attach_CMemFile__QAAXPAEII_Z @2483
    ?Attach@CMenu@@QAAHPAUHMENU__@@@Z=stub__Attach_CMenu__QAAHPAUHMENU_____Z @2484
    ?Attach@CMonikerFile@@IAAHPAUIMoniker@@PAUIBindHost@@PAUIBindStatusCallback@@PAUIBindCtx@@PAVCFileException@@@Z=stub__Attach_CMonikerFile__IAAHPAUIMoniker__PAUIBindHost__PAUIBindStatusCallback__PAUIBindCtx__PAVCFileException___Z @2485
    ?Attach@CMonikerFile@@IAAHPB_WPAUIBindHost@@PAUIBindStatusCallback@@PAUIBindCtx@@PAVCFileException@@@Z=stub__Attach_CMonikerFile__IAAHPB_WPAUIBindHost__PAUIBindStatusCallback__PAUIBindCtx__PAVCFileException___Z @2486
    ?Attach@COleDataObject@@QAAXPAUIDataObject@@H@Z=stub__Attach_COleDataObject__QAAXPAUIDataObject__H_Z @2487
    ?Attach@COleSafeArray@@QAAXAAUtagVARIANT@@@Z=stub__Attach_COleSafeArray__QAAXAAUtagVARIANT___Z @2488
    ?Attach@COleStreamFile@@QAAXPAUIStream@@@Z=stub__Attach_COleStreamFile__QAAXPAUIStream___Z @2489
    ?Attach@COleVariant@@QAAXAAUtagVARIANT@@@Z=stub__Attach_COleVariant__QAAXAAUtagVARIANT___Z @2490
    ?Attach@CRenderTarget@@QAAXPAUID2D1RenderTarget@@@Z=stub__Attach_CRenderTarget__QAAXPAUID2D1RenderTarget___Z @2491
    ?Attach@CWnd@@QAAHPAUHWND__@@@Z=stub__Attach_CWnd__QAAHPAUHWND_____Z @2492
    ?AttachClipboard@COleDataObject@@QAAHXZ=stub__AttachClipboard_COleDataObject__QAAHXZ @2493
    ?AttachControlSite@COleControlContainer@@QAAXPAVCWnd@@I@Z=stub__AttachControlSite_COleControlContainer__QAAXPAVCWnd__I_Z @2494
    ?AttachControlSite@CWnd@@IAAXPAVCHandleMap@@@Z=stub__AttachControlSite_CWnd__IAAXPAVCHandleMap___Z @2495
    ?AttachControlSite@CWnd@@QAAXPAV1@I@Z=stub__AttachControlSite_CWnd__QAAXPAV1_I_Z @2496
    ?AttachDataObject@COleClientItem@@QBAXAAVCOleDataObject@@@Z=stub__AttachDataObject_COleClientItem__QBAXAAVCOleDataObject___Z @2497
    ?AttachDispatch@COleDispatchDriver@@QAAXPAUIDispatch@@H@Z=stub__AttachDispatch_COleDispatchDriver__QAAXPAUIDispatch__H_Z @2498
    ?AttachHandle@CAsyncSocket@@SAXIPAV1@H@Z=stub__AttachHandle_CAsyncSocket__SAXIPAV1_H_Z @2499
    ?AttachOnSetup@CPrintDialog@@MAAPAV1@XZ=stub__AttachOnSetup_CPrintDialog__MAAPAV1_XZ @2500
    ?AttachToTabWnd@CDockablePane@@UAAPAV1@PAV1@W4AFX_DOCK_METHOD@@HPAPAV1@@Z=stub__AttachToTabWnd_CDockablePane__UAAPAV1_PAV1_W4AFX_DOCK_METHOD__HPAPAV1__Z @2501
    ?AttachWindow@COleControlSite@@QAAXXZ=stub__AttachWindow_COleControlSite__QAAXXZ @2502
    ?AutoGrayInactiveImages@CMFCToolBar@@SAXHHH@Z=stub__AutoGrayInactiveImages_CMFCToolBar__SAXHHH_Z @2503
    ?AutoHidePane@CDockingManager@@QAAPAVCMFCAutoHideBar@@PAVCDockablePane@@PAV2@@Z=stub__AutoHidePane_CDockingManager__QAAPAVCMFCAutoHideBar__PAVCDockablePane__PAV2__Z @2504
    ?AutoLoad@CBitmapButton@@QAAHIPAVCWnd@@@Z=stub__AutoLoad_CBitmapButton__QAAHIPAVCWnd___Z @2505
    ?AutosaveAllDocumentInfo@CDataRecoveryHandler@@UAAHXZ=stub__AutosaveAllDocumentInfo_CDataRecoveryHandler__UAAHXZ @2506
    ?AutosaveDocumentInfo@CDataRecoveryHandler@@UAAHPAVCDocument@@H@Z=stub__AutosaveDocumentInfo_CDataRecoveryHandler__UAAHPAVCDocument__H_Z @2507
    ?AuxQueueAdd@CSocket@@KAXIIJ@Z=stub__AuxQueueAdd_CSocket__KAXIIJ_Z @2508
    ?BeforeNavigate2@CHtmlView@@MAAXPAUIDispatch@@PAUtagVARIANT@@1111PAF@Z=stub__BeforeNavigate2_CHtmlView__MAAXPAUIDispatch__PAUtagVARIANT__1111PAF_Z @2509
    ?BeginBusyState@COleMessageFilter@@UAAXXZ=stub__BeginBusyState_COleMessageFilter__UAAXXZ @2510
    ?BeginDrag@CDragListBox@@UAAHVCPoint@@@Z=stub__BeginDrag_CDragListBox__UAAHVCPoint___Z @2511
    ?BeginDraw@CRenderTarget@@QAAXXZ=stub__BeginDraw_CRenderTarget__QAAXXZ @2512
    ?BeginEnumFormats@COleDataObject@@QAAXXZ=stub__BeginEnumFormats_COleDataObject__QAAXXZ @2513
    ?BeginFigure@CD2DGeometrySink@@QAAXVCD2DPointF@@W4D2D1_FIGURE_BEGIN@@@Z=stub__BeginFigure_CD2DGeometrySink__QAAXVCD2DPointF__W4D2D1_FIGURE_BEGIN___Z @2514
    ?BeginModalState@CFrameWnd@@UAAXXZ=stub__BeginModalState_CFrameWnd__UAAXXZ @2515
    ?BeginReadChunks@CDocument@@UAAXXZ=stub__BeginReadChunks_CDocument__UAAXXZ @2516
    ?BeginTrans@CDatabase@@QAAHXZ=stub__BeginTrans_CDatabase__QAAHXZ @2517
    ?BeginTrans@CDockingPanesRow@@IAAXXZ=stub__BeginTrans_CDockingPanesRow__IAAXXZ @2518
    ?BeginWaitCursor@CCmdTarget@@QAAXXZ=stub__BeginWaitCursor_CCmdTarget__QAAXXZ @2519
    ?Bind@CAsyncSocket@@QAAHIPB_W@Z=stub__Bind_CAsyncSocket__QAAHIPB_W_Z @2520
    ?BindColumns@CDataSourceControl@@UAAXXZ=stub__BindColumns_CDataSourceControl__UAAXXZ @2521
    ?BindControls@COccManager@@IAAXPAVCWnd@@@Z=stub__BindControls_COccManager__IAAXPAVCWnd___Z @2522
    ?BindDC@CDCRenderTarget@@QAAHABVCDC@@ABVCRect@@@Z=stub__BindDC_CDCRenderTarget__QAAHABVCDC__ABVCRect___Z @2523
    ?BindDefaultProperty@COleControlSite@@UAAXJGPB_WPAVCWnd@@@Z=stub__BindDefaultProperty_COleControlSite__UAAXJGPB_WPAVCWnd___Z @2524
    ?BindDefaultProperty@CWnd@@QAAXJGPB_WPAV1@@Z=stub__BindDefaultProperty_CWnd__QAAXJGPB_WPAV1__Z @2525
    ?BindFieldsForUpdate@CRecordset@@QAAXXZ=stub__BindFieldsForUpdate_CRecordset__QAAXXZ @2526
    ?BindFieldsToColumns@CRecordset@@QAAIXZ=stub__BindFieldsToColumns_CRecordset__QAAIXZ @2527
    ?BindParameters@CDatabase@@UAAXPAX@Z=stub__BindParameters_CDatabase__UAAXPAX_Z @2528
    ?BindParams@CRecordset@@QAAIPAX@Z=stub__BindParams_CRecordset__QAAIPAX_Z @2529
    ?BindProp@CDataSourceControl@@UAAXPAVCDataBoundProperty@@H@Z=stub__BindProp_CDataSourceControl__UAAXPAVCDataBoundProperty__H_Z @2530
    ?BindProp@CDataSourceControl@@UAAXPAVCOleControlSite@@H@Z=stub__BindProp_CDataSourceControl__UAAXPAVCOleControlSite__H_Z @2531
    ?BindProperty@COleControlSite@@UAAXJPAVCWnd@@@Z=stub__BindProperty_COleControlSite__UAAXJPAVCWnd___Z @2532
    ?BindProperty@CWnd@@QAAXJPAV1@@Z=stub__BindProperty_CWnd__QAAXJPAV1__Z @2533
    ?BitmapToClient@CMFCImagePaintArea@@IAAXAAVCRect@@@Z=stub__BitmapToClient_CMFCImagePaintArea__IAAXAAVCRect___Z @2534
    ?BoundPropertyChanged@COleControl@@QAAXJ@Z=stub__BoundPropertyChanged_COleControl__QAAXJ_Z @2535
    ?BoundPropertyRequestEdit@COleControl@@QAAHJ@Z=stub__BoundPropertyRequestEdit_COleControl__QAAHJ_Z @2536
    ?BringBarsToTop@CDockingManager@@QAAXKH@Z=stub__BringBarsToTop_CDockingManager__QAAXKH_Z @2537
    ?BringToTop@CFrameWnd@@IAAXH@Z=stub__BringToTop_CFrameWnd__IAAXH_Z @2538
    ?BroadcastAmbientPropertyChange@COleControlContainer@@UAAXJ@Z=stub__BroadcastAmbientPropertyChange_COleControlContainer__UAAXJ_Z @2539
    ?BrowseCallbackProc@CShellManager@@KAHPAUHWND__@@IJJ@Z=stub__BrowseCallbackProc_CShellManager__KAHPAUHWND____IJJ_Z @2540
    ?BrowseForFolder@CShellManager@@QAAHAAV?$CStringT@_WV?$StrTraitMFC_DLL@_WV?$ChTraitsCRT@_W@ATL@@@@@ATL@@PAVCWnd@@PB_W2IPAH@Z=stub__BrowseForFolder_CShellManager__QAAHAAV__CStringT__WV__StrTraitMFC_DLL__WV__ChTraitsCRT__W_ATL_____ATL__PAVCWnd__PB_W2IPAH_Z @2541
    ?Build@CMenuTearOffManager@@QAAXIAAV?$CStringT@_WV?$StrTraitMFC_DLL@_WV?$ChTraitsCRT@_W@ATL@@@@@ATL@@@Z=stub__Build_CMenuTearOffManager__QAAXIAAV__CStringT__WV__StrTraitMFC_DLL__WV__ChTraitsCRT__W_ATL_____ATL___Z @2542
    ?BuildErrorString@CDBException@@UAAXPAVCDatabase@@PAXH@Z=stub__BuildErrorString_CDBException__UAAXPAVCDatabase__PAXH_Z @2543
    ?BuildFonts@CMFCRibbonFontComboBox@@QAAXHEE@Z=stub__BuildFonts_CMFCRibbonFontComboBox__QAAXHEE_Z @2544
    ?BuildOrigItems@CMFCMenuBar@@MAAHI@Z=stub__BuildOrigItems_CMFCMenuBar__MAAHI_Z @2545
    ?BuildOrigItems@CMFCPopupMenuBar@@QAAHI@Z=stub__BuildOrigItems_CMFCPopupMenuBar__QAAHI_Z @2546
    ?BuildPanesMenu@CDockingManager@@QAAXAAVCMenu@@H@Z=stub__BuildPanesMenu_CDockingManager__QAAXAAVCMenu__H_Z @2547
    ?BuildPropPageArray@CPropertySheet@@UAAXXZ=stub__BuildPropPageArray_CPropertySheet__UAAXXZ @2548
    ?BuildSelectSQL@CRecordset@@IAAXXZ=stub__BuildSelectSQL_CRecordset__IAAXXZ @2549
    ?BuildSharedMenu@COleControl@@MAAHXZ=stub__BuildSharedMenu_COleControl__MAAHXZ @2550
    ?BuildSharedMenu@COleDocIPFrameWnd@@MAAHXZ=stub__BuildSharedMenu_COleDocIPFrameWnd__MAAHXZ @2551
    ?BuildSharedMenu@COleIPFrameWnd@@MAAHXZ=stub__BuildSharedMenu_COleIPFrameWnd__MAAHXZ @2552
    ?BuildSQL@CRecordset@@IAAXPB_W@Z=stub__BuildSQL_CRecordset__IAAXPB_W_Z @2553
    ?BuildUpdateSQL@CRecordset@@IAAXXZ=stub__BuildUpdateSQL_CRecordset__IAAXXZ @2554
    ?ButtonDblClk@COleControl@@IAAXGIVCPoint@@@Z=stub__ButtonDblClk_COleControl__IAAXGIVCPoint___Z @2555
    ?ButtonDown@COleControl@@IAAXGIVCPoint@@@Z=stub__ButtonDown_COleControl__IAAXGIVCPoint___Z @2556
    ?ButtonFromAutoHideWindow@CMFCAutoHideBar@@IAAPAVCMFCAutoHideButton@@PAVCDockablePane@@@Z=stub__ButtonFromAutoHideWindow_CMFCAutoHideBar__IAAPAVCMFCAutoHideButton__PAVCDockablePane___Z @2557
    ?ButtonFromPoint@CMFCAutoHideBar@@IAAPAVCMFCAutoHideButton@@VCPoint@@@Z=stub__ButtonFromPoint_CMFCAutoHideBar__IAAPAVCMFCAutoHideButton__VCPoint___Z @2558
    ?ButtonToIndex@CMFCToolBar@@QBAHPBVCMFCToolBarButton@@@Z=stub__ButtonToIndex_CMFCToolBar__QBAHPBVCMFCToolBarButton___Z @2559
    ?ButtonUp@COleControl@@IAAXGIVCPoint@@@Z=stub__ButtonUp_COleControl__IAAXGIVCPoint___Z @2560
    ?Cache@CMFCVisualManagerBitmapCache@@QAAHABVCSize@@AAVCMFCControlRenderer@@@Z=stub__Cache_CMFCVisualManagerBitmapCache__QAAHABVCSize__AAVCMFCControlRenderer___Z @2561
    ?Cache@CMFCVisualManagerBitmapCacheItem@CMFCVisualManagerBitmapCache@@QAAXABVCSize@@AAVCMFCControlRenderer@@@Z=stub__Cache_CMFCVisualManagerBitmapCacheItem_CMFCVisualManagerBitmapCache__QAAXABVCSize__AAVCMFCControlRenderer___Z @2562
    ?Cache@CTypeLibCache@@QAAXKPAUITypeLib@@@Z=stub__Cache_CTypeLibCache__QAAXKPAUITypeLib___Z @2563
    ?Cache@XOleCache@COleControl@@UAAJPAUtagFORMATETC@@KPAK@Z=stub__Cache_XOleCache_COleControl__UAAJPAUtagFORMATETC__KPAK_Z @2564
    ?CacheData@COleDataSource@@QAAXGPAUtagSTGMEDIUM@@PAUtagFORMATETC@@@Z=stub__CacheData_COleDataSource__QAAXGPAUtagSTGMEDIUM__PAUtagFORMATETC___Z @2565
    ?CacheGlobalData@COleDataSource@@QAAXGPAXPAUtagFORMATETC@@@Z=stub__CacheGlobalData_COleDataSource__QAAXGPAXPAUtagFORMATETC___Z @2566
    ?CacheTypeInfo@CTypeLibCache@@QAAXKABU_GUID@@PAUITypeInfo@@@Z=stub__CacheTypeInfo_CTypeLibCache__QAAXKABU_GUID__PAUITypeInfo___Z @2567
    ?CacheY@CMFCVisualManagerBitmapCache@@QAAHHAAVCMFCControlRenderer@@@Z=stub__CacheY_CMFCVisualManagerBitmapCache__QAAHHAAVCMFCControlRenderer___Z @2568
    ?CalcAvailablePaneSpace@CPaneContainer@@UAAHHPAVCPane@@PAV1@H@Z=stub__CalcAvailablePaneSpace_CPaneContainer__UAAHHPAVCPane__PAV1_H_Z @2569
    ?CalcAvailableSize@CPane@@UAA?AVCSize@@VCRect@@@Z=stub__CalcAvailableSize_CPane__UAA_AVCSize__VCRect___Z @2570
    ?CalcAvailableSpace@CPaneContainer@@UAA?AVCSize@@V2@H@Z=stub__CalcAvailableSpace_CPaneContainer__UAA_AVCSize__V2_H_Z @2571
    ?CalcBorders@CMiniFrameWnd@@SAXPAUtagRECT@@KK@Z=stub__CalcBorders_CMiniFrameWnd__SAXPAUtagRECT__KK_Z @2572
    ?CalcBorderSize@CMFCTasksPaneFrameWnd@@UBAXAAVCRect@@@Z=stub__CalcBorderSize_CMFCTasksPaneFrameWnd__UBAXAAVCRect___Z @2573
    ?CalcBorderSize@CPaneFrameWnd@@UBAXAAVCRect@@@Z=stub__CalcBorderSize_CPaneFrameWnd__UBAXAAVCRect___Z @2574
    ?CalcCorrectOffset@CDockablePane@@IAA?AVCPoint@@VCRect@@H@Z=stub__CalcCorrectOffset_CDockablePane__IAA_AVCPoint__VCRect__H_Z @2575
    ?CalcDynamicLayout@CControlBar@@UAA?AVCSize@@HK@Z=stub__CalcDynamicLayout_CControlBar__UAA_AVCSize__HK_Z @2576
    ?CalcDynamicLayout@CReBar@@UAA?AVCSize@@HK@Z=stub__CalcDynamicLayout_CReBar__UAA_AVCSize__HK_Z @2577
    ?CalcDynamicLayout@CToolBar@@UAA?AVCSize@@HK@Z=stub__CalcDynamicLayout_CToolBar__UAA_AVCSize__HK_Z @2578
    ?CalcEditMargin@CMFCPropertyGridCtrl@@IAAXXZ=stub__CalcEditMargin_CMFCPropertyGridCtrl__IAAXXZ @2579
    ?CalcExpectedDockedRect@CDockingManager@@QAAXPAVCWnd@@VCPoint@@AAVCRect@@AAHPAPAVCDockablePane@@@Z=stub__CalcExpectedDockedRect_CDockingManager__QAAXPAVCWnd__VCPoint__AAVCRect__AAHPAPAVCDockablePane___Z @2580
    ?CalcExpectedDockedRect@CGlobalUtils@@QAAXAAVCPaneContainerManager@@PAVCWnd@@VCPoint@@AAVCRect@@AAHPAPAVCDockablePane@@@Z=stub__CalcExpectedDockedRect_CGlobalUtils__QAAXAAVCPaneContainerManager__PAVCWnd__VCPoint__AAVCRect__AAHPAPAVCDockablePane___Z @2581
    ?CalcExpectedDockedRect@CMultiPaneFrameWnd@@UAAXPAVCWnd@@VCPoint@@AAVCRect@@AAHPAPAVCDockablePane@@@Z=stub__CalcExpectedDockedRect_CMultiPaneFrameWnd__UAAXPAVCWnd__VCPoint__AAVCRect__AAHPAPAVCDockablePane___Z @2582
    ?CalcExpectedDockedRect@CPaneDivider@@UAAXPAVCWnd@@VCPoint@@AAVCRect@@AAHPAPAVCDockablePane@@@Z=stub__CalcExpectedDockedRect_CPaneDivider__UAAXPAVCWnd__VCPoint__AAVCRect__AAHPAPAVCDockablePane___Z @2583
    ?CalcFixedLayout@CControlBar@@UAA?AVCSize@@HH@Z=stub__CalcFixedLayout_CControlBar__UAA_AVCSize__HH_Z @2584
    ?CalcFixedLayout@CDialogBar@@UAA?AVCSize@@HH@Z=stub__CalcFixedLayout_CDialogBar__UAA_AVCSize__HH_Z @2585
    ?CalcFixedLayout@CDockablePane@@UAA?AVCSize@@HH@Z=stub__CalcFixedLayout_CDockablePane__UAA_AVCSize__HH_Z @2586
    ?CalcFixedLayout@CDockBar@@UAA?AVCSize@@HH@Z=stub__CalcFixedLayout_CDockBar__UAA_AVCSize__HH_Z @2587
    ?CalcFixedLayout@CDockingPanesRow@@UAA?AVCSize@@HH@Z=stub__CalcFixedLayout_CDockingPanesRow__UAA_AVCSize__HH_Z @2588
    ?CalcFixedLayout@CDockSite@@UAA?AVCSize@@HH@Z=stub__CalcFixedLayout_CDockSite__UAA_AVCSize__HH_Z @2589
    ?CalcFixedLayout@CMFCAutoHideBar@@UAA?AVCSize@@HH@Z=stub__CalcFixedLayout_CMFCAutoHideBar__UAA_AVCSize__HH_Z @2590
    ?CalcFixedLayout@CMFCCaptionBar@@MAA?AVCSize@@HH@Z=stub__CalcFixedLayout_CMFCCaptionBar__MAA_AVCSize__HH_Z @2591
    ?CalcFixedLayout@CMFCMenuBar@@UAA?AVCSize@@HH@Z=stub__CalcFixedLayout_CMFCMenuBar__UAA_AVCSize__HH_Z @2592
    ?CalcFixedLayout@CMFCOutlookBarPane@@MAA?AVCSize@@HH@Z=stub__CalcFixedLayout_CMFCOutlookBarPane__MAA_AVCSize__HH_Z @2593
    ?CalcFixedLayout@CMFCReBar@@UAA?AVCSize@@HH@Z=stub__CalcFixedLayout_CMFCReBar__UAA_AVCSize__HH_Z @2594
    ?CalcFixedLayout@CMFCRibbonBar@@MAA?AVCSize@@HH@Z=stub__CalcFixedLayout_CMFCRibbonBar__MAA_AVCSize__HH_Z @2595
    ?CalcFixedLayout@CMFCRibbonStatusBar@@MAA?AVCSize@@HH@Z=stub__CalcFixedLayout_CMFCRibbonStatusBar__MAA_AVCSize__HH_Z @2596
    ?CalcFixedLayout@CMFCStatusBar@@UAA?AVCSize@@HH@Z=stub__CalcFixedLayout_CMFCStatusBar__UAA_AVCSize__HH_Z @2597
    ?CalcFixedLayout@CMFCToolBar@@UAA?AVCSize@@HH@Z=stub__CalcFixedLayout_CMFCToolBar__UAA_AVCSize__HH_Z @2598
    ?CalcFixedLayout@CPaneDivider@@UAA?AVCSize@@HH@Z=stub__CalcFixedLayout_CPaneDivider__UAA_AVCSize__HH_Z @2599
    ?CalcFixedLayout@CReBar@@UAA?AVCSize@@HH@Z=stub__CalcFixedLayout_CReBar__UAA_AVCSize__HH_Z @2600
    ?CalcFixedLayout@CStatusBar@@UAA?AVCSize@@HH@Z=stub__CalcFixedLayout_CStatusBar__UAA_AVCSize__HH_Z @2601
    ?CalcFixedLayout@CToolBar@@UAA?AVCSize@@HH@Z=stub__CalcFixedLayout_CToolBar__UAA_AVCSize__HH_Z @2602
    ?CalcInsideRect@CControlBar@@UBAXAAVCRect@@H@Z=stub__CalcInsideRect_CControlBar__UBAXAAVCRect__H_Z @2603
    ?CalcInsideRect@CPane@@QBAXAAVCRect@@H@Z=stub__CalcInsideRect_CPane__QBAXAAVCRect__H_Z @2604
    ?CalcInsideRect@CStatusBar@@UBAXAAVCRect@@H@Z=stub__CalcInsideRect_CStatusBar__UBAXAAVCRect__H_Z @2605
    ?CalcLastPaneOffset@CDockingPanesRow@@IAAHXZ=stub__CalcLastPaneOffset_CDockingPanesRow__IAAHXZ @2606
    ?CalcLayout@CMFCMenuBar@@UAA?AVCSize@@KH@Z=stub__CalcLayout_CMFCMenuBar__UAA_AVCSize__KH_Z @2607
    ?CalcLayout@CMFCToolBar@@MAA?AVCSize@@KH@Z=stub__CalcLayout_CMFCToolBar__MAA_AVCSize__KH_Z @2608
    ?CalcLayout@CToolBar@@IAA?AVCSize@@KH@Z=stub__CalcLayout_CToolBar__IAA_AVCSize__KH_Z @2609
    ?CalcMaxButtonHeight@CMFCMenuBar@@UAAHXZ=stub__CalcMaxButtonHeight_CMFCMenuBar__UAAHXZ @2610
    ?CalcMaxButtonHeight@CMFCToolBar@@MAAHXZ=stub__CalcMaxButtonHeight_CMFCToolBar__MAAHXZ @2611
    ?CalcMinimumItemHeight@CCheckListBox@@IAAHXZ=stub__CalcMinimumItemHeight_CCheckListBox__IAAHXZ @2612
    ?CalcMinSize@CPaneFrameWnd@@MAAXAAVCSize@@PAUtagMINMAXINFO@@@Z=stub__CalcMinSize_CPaneFrameWnd__MAAXAAVCSize__PAUtagMINMAXINFO___Z @2613
    ?CalcNcSize@CMFCControlBarImpl@@IAAXPAUtagNCCALCSIZE_PARAMS@@@Z=stub__CalcNcSize_CMFCControlBarImpl__IAAXPAUtagNCCALCSIZE_PARAMS___Z @2614
    ?CalcPageDisplaySize@CPreviewView@@IAA?AVCSize@@XZ=stub__CalcPageDisplaySize_CPreviewView__IAA_AVCSize__XZ @2615
    ?CalcPaneOffset@CDockingManager@@IAAXPAVCAutoHideDockSite@@@Z=stub__CalcPaneOffset_CDockingManager__IAAXPAVCAutoHideDockSite___Z @2616
    ?CalcRecentDockedRect@CPane@@QAAXXZ=stub__CalcRecentDockedRect_CPane__QAAXXZ @2617
    ?CalcRectForSliding@CDockablePane@@IAAXAAVCRect@@0H@Z=stub__CalcRectForSliding_CDockablePane__IAAXAAVCRect__0H_Z @2618
    ?CalcRects@CPaneContainerManager@@QAAXAAVCRect@@00AAKKVCSize@@2@Z=stub__CalcRects_CPaneContainerManager__QAAXAAVCRect__00AAKKVCSize__2_Z @2619
    ?CalcScaleRatio@CPreviewView@@MAA?AVCSize@@V2@0@Z=stub__CalcScaleRatio_CPreviewView__MAA_AVCSize__V2_0_Z @2620
    ?CalcSize@CMFCColorBar@@MAA?AVCSize@@H@Z=stub__CalcSize_CMFCColorBar__MAA_AVCSize__H_Z @2621
    ?CalcSize@CMFCPopupMenuBar@@MAA?AVCSize@@H@Z=stub__CalcSize_CMFCPopupMenuBar__MAA_AVCSize__H_Z @2622
    ?CalcSize@CMFCRibbonPanelMenuBar@@UAA?AVCSize@@H@Z=stub__CalcSize_CMFCRibbonPanelMenuBar__UAA_AVCSize__H_Z @2623
    ?CalcSize@CMFCToolBar@@UAA?AVCSize@@H@Z=stub__CalcSize_CMFCToolBar__UAA_AVCSize__H_Z @2624
    ?CalcSize@CToolBar@@IAA?AVCSize@@PAU_TBBUTTON@@H@Z=stub__CalcSize_CToolBar__IAA_AVCSize__PAU_TBBUTTON__H_Z @2625
    ?CalcSysButtonSize@CMFCMenuBar@@IAAXXZ=stub__CalcSysButtonSize_CMFCMenuBar__IAAXXZ @2626
    ?CalcTotalWidth@CMFCRibbonPanel@@IAAHXZ=stub__CalcTotalWidth_CMFCRibbonPanel__IAAHXZ @2627
    ?CalculateRecentSize@CPaneContainer@@QAAXXZ=stub__CalculateRecentSize_CPaneContainer__QAAXXZ @2628
    ?CalcWindowRect@CDockSite@@MAAXPAUtagRECT@@I@Z=stub__CalcWindowRect_CDockSite__MAAXPAUtagRECT__I_Z @2629
    ?CalcWindowRect@CEditView@@MAAXPAUtagRECT@@I@Z=stub__CalcWindowRect_CEditView__MAAXPAUtagRECT__I_Z @2630
    ?CalcWindowRect@CMDIClientAreaWnd@@MAAXPAUtagRECT@@I@Z=stub__CalcWindowRect_CMDIClientAreaWnd__MAAXPAUtagRECT__I_Z @2631
    ?CalcWindowRect@CScrollView@@UAAXPAUtagRECT@@I@Z=stub__CalcWindowRect_CScrollView__UAAXPAUtagRECT__I_Z @2632
    ?CalcWindowRect@CView@@UAAXPAUtagRECT@@I@Z=stub__CalcWindowRect_CView__UAAXPAUtagRECT__I_Z @2633
    ?CalcWindowRect@CWnd@@UAAXPAUtagRECT@@I@Z=stub__CalcWindowRect_CWnd__UAAXPAUtagRECT__I_Z @2634
    ?CalcWindowRectForMDITabbedGroups@CMDIClientAreaWnd@@QAAXPAUtagRECT@@I@Z=stub__CalcWindowRectForMDITabbedGroups_CMDIClientAreaWnd__QAAXPAUtagRECT__I_Z @2635
    ?CallMemberFunc@CCmdTarget@@IAAJPBUAFX_DISPMAP_ENTRY@@GPAUtagVARIANT@@PAUtagDISPPARAMS@@PAI@Z=stub__CallMemberFunc_CCmdTarget__IAAJPBUAFX_DISPMAP_ENTRY__GPAUtagVARIANT__PAUtagDISPPARAMS__PAI_Z @2636
    ?CanAcceptMiniFrame@CDockablePane@@UBAHPAVCPaneFrameWnd@@@Z=stub__CanAcceptMiniFrame_CDockablePane__UBAHPAVCPaneFrameWnd___Z @2637
    ?CanAcceptPane@CAutoHideDockSite@@UBAHPBVCBasePane@@@Z=stub__CanAcceptPane_CAutoHideDockSite__UBAHPBVCBasePane___Z @2638
    ?CanAcceptPane@CDockSite@@UBAHPBVCBasePane@@@Z=stub__CanAcceptPane_CDockSite__UBAHPBVCBasePane___Z @2639
    ?CanAcceptPane@CMFCOutlookBar@@UBAHPBVCBasePane@@@Z=stub__CanAcceptPane_CMFCOutlookBar__UBAHPBVCBasePane___Z @2640
    ?CanAccessExternal@CDHtmlDialog@@UAAHXZ=stub__CanAccessExternal_CDHtmlDialog__UAAHXZ @2641
    ?CanActivate@COleClientItem@@MAAHXZ=stub__CanActivate_COleClientItem__MAAHXZ @2642
    ?CanActivate@CRichEditCntrItem@@UAAHXZ=stub__CanActivate_CRichEditCntrItem__UAAHXZ @2643
    ?CanActivateNext@CSplitterWnd@@UAAHH@Z=stub__CanActivateNext_CSplitterWnd__UAAHH_Z @2644
    ?CanAutoHide@CDockablePane@@UBAHXZ=stub__CanAutoHide_CDockablePane__UBAHXZ @2645
    ?CanBeAddedToQuickAccessToolBar@CMFCRibbonBaseElement@@UBAHXZ=stub__CanBeAddedToQuickAccessToolBar_CMFCRibbonBaseElement__UBAHXZ @2646
    ?CanBeAttached@CGlobalUtils@@QBAHPAVCWnd@@@Z=stub__CanBeAttached_CGlobalUtils__QBAHPAVCWnd___Z @2647
    ?CanBeAttached@CPaneContainerManager@@UBAHXZ=stub__CanBeAttached_CPaneContainerManager__UBAHXZ @2648
    ?CanBeDockedToPane@CMultiPaneFrameWnd@@UBAHPBVCDockablePane@@@Z=stub__CanBeDockedToPane_CMultiPaneFrameWnd__UBAHPBVCDockablePane___Z @2649
    ?CanBeDockedToPane@CPaneFrameWnd@@UBAHPBVCDockablePane@@@Z=stub__CanBeDockedToPane_CPaneFrameWnd__UBAHPBVCDockablePane___Z @2650
    ?CanBeDropped@CMFCOutlookBarPaneButton@@UAAHPAVCMFCToolBar@@@Z=stub__CanBeDropped_CMFCOutlookBarPaneButton__UAAHPAVCMFCToolBar___Z @2651
    ?CanBeRestored@CMFCToolBar@@UBAHXZ=stub__CanBeRestored_CMFCToolBar__UBAHXZ @2652
    ?CanBeStretched@CMFCRibbonButton@@UAAHXZ=stub__CanBeStretched_CMFCRibbonButton__UAAHXZ @2653
    ?CanBeTabbedDocument@CPane@@UBAHXZ=stub__CanBeTabbedDocument_CPane__UBAHXZ @2654
    ?CanBookmark@CRecordset@@QBAHXZ=stub__CanBookmark_CRecordset__QBAHXZ @2655
    ?Cancel@CDatabase@@QAAXXZ=stub__Cancel_CDatabase__QAAXXZ @2656
    ?Cancel@CRecordset@@QAAXXZ=stub__Cancel_CRecordset__QAAXXZ @2657
    ?CancelBlockingCall@CSocket@@QAAXXZ=stub__CancelBlockingCall_CSocket__QAAXXZ @2658
    ?CancelDrag@CDragListBox@@UAAXVCPoint@@@Z=stub__CancelDrag_CDragListBox__UAAXVCPoint___Z @2659
    ?Cancelled@XNotifyDBEvents@COleControlSite@@UAAJKKQAUtagDBNOTIFYREASON@@@Z=stub__Cancelled_XNotifyDBEvents_COleControlSite__UAAJKKQAUtagDBNOTIFYREASON___Z @2660
    ?CancelLink@COleUILinkInfo@@UAAJK@Z=stub__CancelLink_COleUILinkInfo__UAAJK_Z @2661
    ?CancelLoop@CDockContext@@QAAXXZ=stub__CancelLoop_CDockContext__QAAXXZ @2662
    ?CancelMode@CMFCRibbonPanel@@IAAXXZ=stub__CancelMode_CMFCRibbonPanel__IAAXXZ @2663
    ?CancelToClose@CPropertyPage@@QAAXXZ=stub__CancelToClose_CPropertyPage__QAAXXZ @2664
    ?CancelToolTips@CWnd@@SAXH@Z=stub__CancelToolTips_CWnd__SAXH_Z @2665
    ?CancelUpdate@CRecordset@@QAAXXZ=stub__CancelUpdate_CRecordset__QAAXXZ @2666
    ?CanCloseFrame@CDocument@@UAAHPAVCFrameWnd@@@Z=stub__CanCloseFrame_CDocument__UAAHPAVCFrameWnd___Z @2667
    ?CanCloseFrame@COleServerDoc@@UAAHPAVCFrameWnd@@@Z=stub__CanCloseFrame_COleServerDoc__UAAHPAVCFrameWnd___Z @2668
    ?CanCreateFromData@COleClientItem@@SAHPBVCOleDataObject@@@Z=stub__CanCreateFromData_COleClientItem__SAHPBVCOleDataObject___Z @2669
    ?CanCreateLinkFromData@COleClientItem@@SAHPBVCOleDataObject@@@Z=stub__CanCreateLinkFromData_COleClientItem__SAHPBVCOleDataObject___Z @2670
    ?CanDock@CDockContext@@QAAKXZ=stub__CanDock_CDockContext__QAAKXZ @2671
    ?CanDock@CFrameWnd@@QAAKVCRect@@KPAPAVCDockBar@@@Z=stub__CanDock_CFrameWnd__QAAKVCRect__KPAPAVCDockBar___Z @2672
    ?CanEnterHelpMode@CFrameWnd@@QAAHXZ=stub__CanEnterHelpMode_CFrameWnd__QAAHXZ @2673
    ?CanFloat@CBasePane@@UBAHXZ=stub__CanFloat_CBasePane__UBAHXZ @2674
    ?CanFloat@CBaseTabbedPane@@UBAHXZ=stub__CanFloat_CBaseTabbedPane__UBAHXZ @2675
    ?CanHandleSiblings@CMFCToolBar@@QAAHXZ=stub__CanHandleSiblings_CMFCToolBar__QAAHXZ @2676
    ?CanInPlaceActivate@XOleIPSite@COleClientItem@@UAAJXZ=stub__CanInPlaceActivate_XOleIPSite_COleClientItem__UAAJXZ @2677
    ?CanInPlaceActivate@XOleIPSite@COleControlSite@@UAAJXZ=stub__CanInPlaceActivate_XOleIPSite_COleControlSite__UAAJXZ @2678
    ?CanPaneBeInFloatingMultiPaneFrameWnd@CGlobalUtils@@QBAHPAVCWnd@@@Z=stub__CanPaneBeInFloatingMultiPaneFrameWnd_CGlobalUtils__QBAHPAVCWnd___Z @2679
    ?CanPaste@COleClientItem@@SAHXZ=stub__CanPaste_COleClientItem__SAHXZ @2680
    ?CanPaste@CRichEditCtrl@@QBAHI@Z=stub__CanPaste_CRichEditCtrl__QBAHI_Z @2681
    ?CanPaste@CRichEditView@@QBAHXZ=stub__CanPaste_CRichEditView__QBAHXZ @2682
    ?CanPasteLink@COleClientItem@@SAHXZ=stub__CanPasteLink_COleClientItem__SAHXZ @2683
    ?CanShowFewerPageButtons@CMFCOutlookBarTabCtrl@@UBAHXZ=stub__CanShowFewerPageButtons_CMFCOutlookBarTabCtrl__UBAHXZ @2684
    ?CanShowMorePageButtons@CMFCOutlookBarTabCtrl@@UBAHXZ=stub__CanShowMorePageButtons_CMFCOutlookBarTabCtrl__UBAHXZ @2685
    ?CanWindowlessActivate@XOleIPSite@COleControlSite@@UAAJXZ=stub__CanWindowlessActivate_XOleIPSite_COleControlSite__UAAJXZ @2686
    ?CauseCancelMode@CSmartDockingManager@@QAAXXZ=stub__CauseCancelMode_CSmartDockingManager__QAAXXZ @2687
    ?CDHtmlSinkHandlerQueryInterface@CDHtmlEventSink@@UAAJABU_GUID@@PAPAX@Z=stub__CDHtmlSinkHandlerQueryInterface_CDHtmlEventSink__UAAJABU_GUID__PAPAX_Z @2688
    ?CenterElementsInColumn@CMFCRibbonPanel@@IAAXHHH@Z=stub__CenterElementsInColumn_CMFCRibbonPanel__IAAXHHH_Z @2689
    ?CenterOnPoint@CScrollView@@IAAXVCPoint@@@Z=stub__CenterOnPoint_CScrollView__IAAXVCPoint___Z @2690
    ?CenterWindow@CWnd@@QAAXPAV1@@Z=stub__CenterWindow_CWnd__QAAXPAV1__Z @2691
    ?ChangeActivePage@CMFCTasksPane@@IAAXHH@Z=stub__ChangeActivePage_CMFCTasksPane__IAAXHH_Z @2692
    ?ChangeType@COleVariant@@QAAXGPAUtagVARIANT@@@Z=stub__ChangeType_COleVariant__QAAXGPAUtagVARIANT___Z @2693
    ?CharToItem@CListBox@@UAAHII@Z=stub__CharToItem_CListBox__UAAHII_Z @2694
    ?CharToOemA@?$CStringT@DV?$StrTraitMFC_DLL@DV?$ChTraitsCRT@D@ATL@@@@@ATL@@QAAXXZ=stub__CharToOemA___CStringT_DV__StrTraitMFC_DLL_DV__ChTraitsCRT_D_ATL_____ATL__QAAXXZ @2695
    ?Check@CDatabase@@UBAHF@Z=stub__Check_CDatabase__UBAHF_Z @2696
    ?Check@CRecordset@@UBAHF@Z=stub__Check_CRecordset__UBAHF_Z @2697
    ?CheckAlignment@CGlobalUtils@@QBAHVCPoint@@PAVCBasePane@@HPBVCDockingManager@@HAAKKPBUtagRECT@@@Z=stub__CheckAlignment_CGlobalUtils__QBAHVCPoint__PAVCBasePane__HPBVCDockingManager__HAAKKPBUtagRECT___Z @2698
    ?CheckAndRemoveNonValidPane@CPaneContainerManager@@QAAHPAVCWnd@@@Z=stub__CheckAndRemoveNonValidPane_CPaneContainerManager__QAAHPAVCWnd___Z @2699
    ?CheckArea@CMFCPopupMenu@@QBA?AW4MENUAREA_TYPE@1@ABVCPoint@@@Z=stub__CheckArea_CMFCPopupMenu__QBA_AW4MENUAREA_TYPE_1_ABVCPoint___Z @2700
    ?CheckAutoCenter@CDialog@@UAAHXZ=stub__CheckAutoCenter_CDialog__UAAHXZ @2701
    ?CheckAutoCenter@CWnd@@UAAHXZ=stub__CheckAutoCenter_CWnd__UAAHXZ @2702
    ?CheckAutoHideCondition@CDockablePane@@MAAHXZ=stub__CheckAutoHideCondition_CDockablePane__MAAHXZ @2703
    ?CheckChar@CMFCMaskedEdit@@AAAH_WH@Z=stub__CheckChar_CMFCMaskedEdit__AAAH_WH_Z @2704
    ?CheckCount@CArchive@@QAAXXZ=stub__CheckCount_CArchive__QAAXXZ @2705
    ?CheckDlgButton@COleControlContainer@@UAAXHI@Z=stub__CheckDlgButton_COleControlContainer__UAAXHI_Z @2706
    ?CheckDlgButton@CWnd@@QAAXHI@Z=stub__CheckDlgButton_CWnd__QAAXHI_Z @2707
    ?CheckForMiniFrameAndCaption@CPaneContainerManager@@UAAHVCPoint@@PAPAVCDockablePane@@@Z=stub__CheckForMiniFrameAndCaption_CPaneContainerManager__UAAHVCPoint__PAPAVCDockablePane___Z @2708
    ?CheckFromPoint@CCheckListBox@@IAAHVCPoint@@AAH@Z=stub__CheckFromPoint_CCheckListBox__IAAHVCPoint__AAH_Z @2709
    ?CheckGeneral@COleClientItem@@MAAXJ@Z=stub__CheckGeneral_COleClientItem__MAAXJ_Z @2710
    ?CheckGripperVisibility@CMultiPaneFrameWnd@@UAAXXZ=stub__CheckGripperVisibility_CMultiPaneFrameWnd__UAAXXZ @2711
    ?CheckHstmt@CDatabase@@QBAHFPAX@Z=stub__CheckHstmt_CDatabase__QBAHFPAX_Z @2712
    ?CheckImplicitLoad@?$CStringT@_WV?$StrTraitMFC_DLL@_WV?$ChTraitsCRT@_W@ATL@@@@@ATL@@AAA_NPBX@Z=stub__CheckImplicitLoad___CStringT__WV__StrTraitMFC_DLL__WV__ChTraitsCRT__W_ATL_____ATL__AAA_NPBX_Z @2713
    ?CheckImplicitLoad@?$CStringT@DV?$StrTraitMFC_DLL@DV?$ChTraitsCRT@D@ATL@@@@@ATL@@AAA_NPBX@Z=stub__CheckImplicitLoad___CStringT_DV__StrTraitMFC_DLL_DV__ChTraitsCRT_D_ATL_____ATL__AAA_NPBX_Z @2714
    ?CheckNextPrevRadioButton@CMFCButton@@IAAHH@Z=stub__CheckNextPrevRadioButton_CMFCButton__IAAHH_Z @2715
    ?CheckPaneDividerVisibility@CPaneContainer@@QAAXXZ=stub__CheckPaneDividerVisibility_CPaneContainer__QAAXXZ @2716
    ?CheckPanes@CDockingPanesRow@@IAAHAAVCRect@@PAVCPane@@_NVCPoint@@HAAPAX@Z=stub__CheckPanes_CDockingPanesRow__IAAHAAVCRect__PAVCPane___NVCPoint__HAAPAX_Z @2717
    ?CheckRadioButton@COleControlContainer@@UAAXHHH@Z=stub__CheckRadioButton_COleControlContainer__UAAXHHH_Z @2718
    ?CheckRadioButton@CWnd@@QAAXHHH@Z=stub__CheckRadioButton_CWnd__QAAXHHH_Z @2719
    ?CheckRectangle@CMFCCaptionBar@@IAAHAAVCRect@@ABV2@H@Z=stub__CheckRectangle_CMFCCaptionBar__IAAHAAVCRect__ABV2_H_Z @2720
    ?CheckRemovedItems@CJumpList@@IAAPAUIObjectCollection@@PAU2@@Z=stub__CheckRemovedItems_CJumpList__IAAPAUIObjectCollection__PAU2__Z @2721
    ?CheckRowsetCurrencyStatus@CRecordset@@QAAXGJ@Z=stub__CheckRowsetCurrencyStatus_CRecordset__QAAXGJ_Z @2722
    ?CheckRowsetError@CRecordset@@UAAXF@Z=stub__CheckRowsetError_CRecordset__UAAXF_Z @2723
    ?CheckScrollBars@CScrollView@@QBAXAAH0@Z=stub__CheckScrollBars_CScrollView__QBAXAAH0_Z @2724
    ?CheckStopSlideCondition@CDockablePane@@MAAHH@Z=stub__CheckStopSlideCondition_CDockablePane__MAAHH_Z @2725
    ?CheckTabbedBarAlignment@CTabbedPane@@MAAHXZ=stub__CheckTabbedBarAlignment_CTabbedPane__MAAHXZ @2726
    ?CheckVisibility@CPaneDivider@@UAAHXZ=stub__CheckVisibility_CPaneDivider__UAAHXZ @2727
    ?ChWindowFromPoint@@YAPAUHWND__@@PAU1@UtagPOINT@@@Z=stub__ChWindowFromPoint__YAPAUHWND____PAU1_UtagPOINT___Z @2728
    ?classCDatabase@CDatabase@@2UCRuntimeClass@@B=stub__classCDatabase_CDatabase__2UCRuntimeClass__B @2729
    ?classCDBException@CDBException@@2UCRuntimeClass@@B=stub__classCDBException_CDBException__2UCRuntimeClass__B @2730
    ?classCLongBinary@CLongBinary@@2UCRuntimeClass@@B=stub__classCLongBinary_CLongBinary__2UCRuntimeClass__B @2731
    ?classCOleDBRecordView@COleDBRecordView@@2UCRuntimeClass@@B=stub__classCOleDBRecordView_COleDBRecordView__2UCRuntimeClass__B @2732
    ?classCRecordset@CRecordset@@2UCRuntimeClass@@B=stub__classCRecordset_CRecordset__2UCRuntimeClass__B @2733
    ?classCRecordView@CRecordView@@2UCRuntimeClass@@B=stub__classCRecordView_CRecordView__2UCRuntimeClass__B @2734
    ?CleanState@CWinAppEx@@UAAHPB_W@Z=stub__CleanState_CWinAppEx__UAAHPB_W_Z @2735
    ?CleanStyle@CMFCVisualManagerOffice2007@@SAXXZ=stub__CleanStyle_CMFCVisualManagerOffice2007__SAXXZ @2736
    ?CleanStyle@CMFCVisualManagerWindows7@@SAXXZ=stub__CleanStyle_CMFCVisualManagerWindows7__SAXXZ @2737
    ?CleanUp@AFX_GLOBAL_DATA@@QAAXXZ=stub__CleanUp_AFX_GLOBAL_DATA__QAAXXZ @2738
    ?CleanUp@CCommandManager@@QAAXXZ=stub__CleanUp_CCommandManager__QAAXXZ @2739
    ?CleanUp@CKeyboardManager@@SAXXZ=stub__CleanUp_CKeyboardManager__SAXXZ @2740
    ?CleanUp@CMenuHash@@QAAXXZ=stub__CleanUp_CMenuHash__QAAXXZ @2741
    ?CleanUp@CMenuImages@@SAXXZ=stub__CleanUp_CMenuImages__SAXXZ @2742
    ?CleanUp@CMFCBaseTabCtrl@@UAAXXZ=stub__CleanUp_CMFCBaseTabCtrl__UAAXXZ @2743
    ?CleanUp@CMFCButton@@UAAXXZ=stub__CleanUp_CMFCButton__UAAXXZ @2744
    ?CleanUp@CMFCControlRenderer@@UAAXXZ=stub__CleanUp_CMFCControlRenderer__UAAXXZ @2745
    ?CleanUp@CMFCFontComboBox@@IAAXXZ=stub__CleanUp_CMFCFontComboBox__IAAXXZ @2746
    ?CleanUp@CMFCToolBarImages@@SAXXZ=stub__CleanUp_CMFCToolBarImages__SAXXZ @2747
    ?CleanUp@CMFCVisualManagerOffice2007@@MAAXXZ=stub__CleanUp_CMFCVisualManagerOffice2007__MAAXXZ @2748
    ?CleanUp@CMFCVisualManagerWindows7@@UAAXXZ=stub__CleanUp_CMFCVisualManagerWindows7__UAAXXZ @2749
    ?CleanUp@CPaneContainer@@IAAXXZ=stub__CleanUp_CPaneContainer__IAAXXZ @2750
    ?Cleanup@CPropertyPage@@IAAXXZ=stub__Cleanup_CPropertyPage__IAAXXZ @2751
    ?CleanUp@CRecentDockSiteInfo@@QAAXXZ=stub__CleanUp_CRecentDockSiteInfo__QAAXXZ @2752
    ?Cleanup@CSplitButton@@IAAXXZ=stub__Cleanup_CSplitButton__IAAXXZ @2753
    ?CleanUpAutoHideButtons@CMFCAutoHideBar@@IAAXXZ=stub__CleanUpAutoHideButtons_CMFCAutoHideBar__IAAXXZ @2754
    ?CleanUpCustomizeItems@CMFCRibbonStatusBar@@IAAXXZ=stub__CleanUpCustomizeItems_CMFCRibbonStatusBar__IAAXXZ @2755
    ?CleanUpGroup@CAnimationController@@IAAXPAVCAnimationGroup@@@Z=stub__CleanUpGroup_CAnimationController__IAAXPAVCAnimationGroup___Z @2756
    ?CleanUpGroup@CAnimationController@@QAAXI@Z=stub__CleanUpGroup_CAnimationController__QAAXI_Z @2757
    ?CleanUpImages@CMFCToolBar@@SAXXZ=stub__CleanUpImages_CMFCToolBar__SAXXZ @2758
    ?CleanUpLockedImages@CMFCToolBar@@QAAXXZ=stub__CleanUpLockedImages_CMFCToolBar__QAAXXZ @2759
    ?CleanupObjectArray@COlePropertyPage@@IAAXXZ=stub__CleanupObjectArray_COlePropertyPage__IAAXXZ @2760
    ?CleanUpSizes@CMFCRibbonButtonsGroup@@MAAXXZ=stub__CleanUpSizes_CMFCRibbonButtonsGroup__MAAXXZ @2761
    ?CleanUpSizes@CMFCRibbonCategory@@IAAXXZ=stub__CleanUpSizes_CMFCRibbonCategory__IAAXXZ @2762
    ?CleanUpSizes@CMFCRibbonPanel@@IAAXXZ=stub__CleanUpSizes_CMFCRibbonPanel__IAAXXZ @2763
    ?CleanUpThemes@CMFCBaseVisualManager@@IAAXXZ=stub__CleanUpThemes_CMFCBaseVisualManager__IAAXXZ @2764
    ?CleanUpUndoList@CMFCRibbonUndoButton@@QAAXXZ=stub__CleanUpUndoList_CMFCRibbonUndoButton__QAAXXZ @2765
    ?Clear@CDBVariant@@QAAXXZ=stub__Clear_CDBVariant__QAAXXZ @2766
    ?Clear@CDockState@@QAAXXZ=stub__Clear_CDockState__QAAXXZ @2767
    ?Clear@CMFCFilterChunkValueImpl@@UAAXXZ=stub__Clear_CMFCFilterChunkValueImpl__UAAXXZ @2768
    ?Clear@CMFCRibbonGallery@@UAAXXZ=stub__Clear_CMFCRibbonGallery__UAAXXZ @2769
    ?Clear@CMFCToolBarImages@@QAAXXZ=stub__Clear_CMFCToolBarImages__QAAXXZ @2770
    ?Clear@CMFCVisualManagerBitmapCache@@QAAXXZ=stub__Clear_CMFCVisualManagerBitmapCache__QAAXXZ @2771
    ?Clear@CRenderTarget@@QAAXU_D3DCOLORVALUE@@@Z=stub__Clear_CRenderTarget__QAAXU_D3DCOLORVALUE___Z @2772
    ?ClearAll@CJumpList@@QAAXXZ=stub__ClearAll_CJumpList__QAAXXZ @2773
    ?ClearAll@CMFCOutlookBarPane@@QAAXXZ=stub__ClearAll_CMFCOutlookBarPane__QAAXXZ @2774
    ?ClearAllCmdImages@CCommandManager@@QAAXXZ=stub__ClearAllCmdImages_CCommandManager__QAAXXZ @2775
    ?ClearAllDestinations@CJumpList@@QAAXXZ=stub__ClearAllDestinations_CJumpList__QAAXXZ @2776
    ?ClearChunkList@CDocument@@UAAXXZ=stub__ClearChunkList_CDocument__UAAXXZ @2777
    ?ClearCmdImage@CCommandManager@@QAAXI@Z=stub__ClearCmdImage_CCommandManager__QAAXI_Z @2778
    ?ClearControlData@CMFCControlContainer@@QAAXXZ=stub__ClearControlData_CMFCControlContainer__QAAXXZ @2779
    ?ClearData@CMFCRibbonComboBox@@MAAXXZ=stub__ClearData_CMFCRibbonComboBox__MAAXXZ @2780
    ?ClearData@CMFCRibbonFontComboBox@@MAAXXZ=stub__ClearData_CMFCRibbonFontComboBox__MAAXXZ @2781
    ?ClearDirtyFieldStatus@CRecordset@@QAAXK@Z=stub__ClearDirtyFieldStatus_CRecordset__QAAXK_Z @2782
    ?ClearFieldStatus@CRecordset@@QAAXXZ=stub__ClearFieldStatus_CRecordset__QAAXXZ @2783
    ?ClearFonts@CMFCToolBarFontComboBox@@KAXXZ=stub__ClearFonts_CMFCToolBarFontComboBox__KAXXZ @2784
    ?ClearImageList@CMFCBaseTabCtrl@@UAAXXZ=stub__ClearImageList_CMFCBaseTabCtrl__UAAXXZ @2785
    ?ClearImages@CMFCButton@@IAAXH@Z=stub__ClearImages_CMFCButton__IAAXH_Z @2786
    ?ClearNullFieldStatus@CRecordset@@QAAXK@Z=stub__ClearNullFieldStatus_CRecordset__QAAXK_Z @2787
    ?ClearNullParamStatus@CRecordset@@QAAXK@Z=stub__ClearNullParamStatus_CRecordset__QAAXK_Z @2788
    ?ClearPathName@CDocument@@UAAXXZ=stub__ClearPathName_CDocument__UAAXXZ @2789
    ?ClearTransitions@CAnimationBaseObject@@UAAXH@Z=stub__ClearTransitions_CAnimationBaseObject__UAAXH_Z @2790
    ?ClearTransitions@CAnimationVariable@@QAAXH@Z=stub__ClearTransitions_CAnimationVariable__QAAXH_Z @2791
    ?ClearUserCmdImages@CCommandManager@@QAAXXZ=stub__ClearUserCmdImages_CCommandManager__QAAXXZ @2792
    ?ClickCommandControl@CTaskDialog@@IBAXH@Z=stub__ClickCommandControl_CTaskDialog__IBAXH_Z @2793
    ?ClickRadioButton@CTaskDialog@@IBAXH@Z=stub__ClickRadioButton_CTaskDialog__IBAXH_Z @2794
    ?ClientToParent@COleControl@@UBAXPBUtagRECT@@PAUtagPOINT@@@Z=stub__ClientToParent_COleControl__UBAXPBUtagRECT__PAUtagPOINT___Z @2795
    ?ClientToScreen@CWnd@@QBAXPAUtagRECT@@@Z=stub__ClientToScreen_CWnd__QBAXPAUtagRECT___Z @2796
    ?ClipCaretRect@COleControl@@QAAHPAUtagRECT@@@Z=stub__ClipCaretRect_COleControl__QAAHPAUtagRECT___Z @2797
    ?ClipToPage@CPreviewDC@@QAAXXZ=stub__ClipToPage_CPreviewDC__QAAXXZ @2798
    ?Clone@CAfxStringMgr@@UAAPAUIAtlStringMgr@ATL@@XZ=stub__Clone_CAfxStringMgr__UAAPAUIAtlStringMgr_ATL__XZ @2799
    ?Clone@CArchiveStream@@UAAJPAPAUIStream@@@Z=stub__Clone_CArchiveStream__UAAJPAPAUIStream___Z @2800
    ?Clone@XEnumVOID@CEnumArray@@UAAJPAPAUIEnumVOID@@@Z=stub__Clone_XEnumVOID_CEnumArray__UAAJPAPAUIEnumVOID___Z @2801
    ?Clone@XOleDocumentView@CDocObjectServer@@UAAJPAUIOleInPlaceSite@@PAPAUIOleDocumentView@@@Z=stub__Clone_XOleDocumentView_CDocObjectServer__UAAJPAUIOleInPlaceSite__PAPAUIOleDocumentView___Z @2802
    ?CloneData@?$CSimpleStringT@_W$00@ATL@@CAPAUCStringData@2@PAU32@@Z=stub__CloneData___CSimpleStringT__W_00_ATL__CAPAUCStringData_2_PAU32__Z @2803
    ?CloneData@?$CSimpleStringT@D$00@ATL@@CAPAUCStringData@2@PAU32@@Z=stub__CloneData___CSimpleStringT_D_00_ATL__CAPAUCStringData_2_PAU32__Z @2804
    ?Close@CArchive@@QAAXXZ=stub__Close_CArchive__QAAXXZ @2805
    ?Close@CAsyncMonikerFile@@UAAXXZ=stub__Close_CAsyncMonikerFile__UAAXXZ @2806
    ?Close@CAsyncSocket@@UAAXXZ=stub__Close_CAsyncSocket__UAAXXZ @2807
    ?Close@CCachedDataPathProperty@@UAAXXZ=stub__Close_CCachedDataPathProperty__UAAXXZ @2808
    ?Close@CD2DGeometrySink@@QAAHXZ=stub__Close_CD2DGeometrySink__QAAHXZ @2809
    ?Close@CDatabase@@UAAXXZ=stub__Close_CDatabase__UAAXXZ @2810
    ?Close@CFile@@UAAXXZ=stub__Close_CFile__UAAXXZ @2811
    ?Close@CFileFind@@QAAXXZ=stub__Close_CFileFind__QAAXXZ @2812
    ?Close@CInternetConnection@@UAAXXZ=stub__Close_CInternetConnection__UAAXXZ @2813
    ?Close@CInternetFile@@UAAXXZ=stub__Close_CInternetFile__UAAXXZ @2814
    ?Close@CInternetSession@@UAAXXZ=stub__Close_CInternetSession__UAAXXZ @2815
    ?Close@CMemFile@@UAAXXZ=stub__Close_CMemFile__UAAXXZ @2816
    ?Close@CMirrorFile@@UAAXXZ=stub__Close_CMirrorFile__UAAXXZ @2817
    ?Close@CMonikerFile@@UAAXXZ=stub__Close_CMonikerFile__UAAXXZ @2818
    ?Close@COleClientItem@@QAAXW4tagOLECLOSE@@@Z=stub__Close_COleClientItem__QAAXW4tagOLECLOSE___Z @2819
    ?Close@COleStreamFile@@UAAXXZ=stub__Close_COleStreamFile__UAAXXZ @2820
    ?Close@CRecordset@@UAAXXZ=stub__Close_CRecordset__UAAXXZ @2821
    ?Close@CSettingsStore@@UAAXXZ=stub__Close_CSettingsStore__UAAXXZ @2822
    ?Close@CSocket@@UAAXXZ=stub__Close_CSocket__UAAXXZ @2823
    ?Close@CSocketFile@@UAAXXZ=stub__Close_CSocketFile__UAAXXZ @2824
    ?Close@CStdioFile@@UAAXXZ=stub__Close_CStdioFile__UAAXXZ @2825
    ?Close@XOleObject@CDocObjectServer@@UAAJK@Z=stub__Close_XOleObject_CDocObjectServer__UAAJK_Z @2826
    ?Close@XOleObject@COleControl@@UAAJK@Z=stub__Close_XOleObject_COleControl__UAAJK_Z @2827
    ?Close@XOleObject@COleServerDoc@@UAAJK@Z=stub__Close_XOleObject_COleServerDoc__UAAJK_Z @2828
    ?Close@XOleObject@COleServerItem@@UAAJK@Z=stub__Close_XOleObject_COleServerItem__UAAJK_Z @2829
    ?CloseAllDocuments@CDocManager@@UAAXH@Z=stub__CloseAllDocuments_CDocManager__UAAXH_Z @2830
    ?CloseAllDocuments@CDocTemplate@@UAAXH@Z=stub__CloseAllDocuments_CDocTemplate__UAAXH_Z @2831
    ?CloseAllDocuments@CWinApp@@QAAXH@Z=stub__CloseAllDocuments_CWinApp__QAAXH_Z @2832
    ?CloseAllWindows@CMDIClientAreaWnd@@QAAXPAVCMFCTabCtrl@@@Z=stub__CloseAllWindows_CMDIClientAreaWnd__QAAXPAVCMFCTabCtrl___Z @2833
    ?CloseColorPopup@CMFCPropertyGridCtrl@@UAAXXZ=stub__CloseColorPopup_CMFCPropertyGridCtrl__UAAXXZ @2834
    ?CloseContext@CFileFind@@MAAXXZ=stub__CloseContext_CFileFind__MAAXXZ @2835
    ?CloseContext@CFtpFileFind@@MAAXXZ=stub__CloseContext_CFtpFileFind__MAAXXZ @2836
    ?CloseContext@CGopherFileFind@@MAAXXZ=stub__CloseContext_CGopherFileFind__MAAXXZ @2837
    ?CloseContextMenu@CMFCToolBarsMenuPropertyPage@@QAAXPAVCMFCPopupMenu@@@Z=stub__CloseContextMenu_CMFCToolBarsMenuPropertyPage__QAAXPAVCMFCPopupMenu___Z @2838
    ?CloseDelayedSubMenu@CMFCPopupMenuBar@@UAAXXZ=stub__CloseDelayedSubMenu_CMFCPopupMenuBar__UAAXXZ @2839
    ?CloseDelayedSubMenu@CMFCRibbonPanelMenuBar@@UAAXXZ=stub__CloseDelayedSubMenu_CMFCRibbonPanelMenuBar__UAAXXZ @2840
    ?CloseMenu@CMFCPopupMenu@@QAAXH@Z=stub__CloseMenu_CMFCPopupMenu__QAAXH_Z @2841
    ?CloseMiniFrame@CMultiPaneFrameWnd@@UAAXXZ=stub__CloseMiniFrame_CMultiPaneFrameWnd__UAAXXZ @2842
    ?CloseMiniFrame@CPaneFrameWnd@@MAAXXZ=stub__CloseMiniFrame_CPaneFrameWnd__MAAXXZ @2843
    ?ClosePopupMenu@CMFCRibbonBaseElement@@UAAXXZ=stub__ClosePopupMenu_CMFCRibbonBaseElement__UAAXXZ @2844
    ?ClosePopupMenu@CMFCRibbonButton@@UAAXXZ=stub__ClosePopupMenu_CMFCRibbonButton__UAAXXZ @2845
    ?CloseView@XOleDocumentView@CDocObjectServer@@UAAJK@Z=stub__CloseView_XOleDocumentView_CDocObjectServer__UAAJK_Z @2846
    ?CollapseAllGroups@CMFCTasksPane@@QAAXH@Z=stub__CollapseAllGroups_CMFCTasksPane__QAAXH_Z @2847
    ?CollapseAllGroups@CMFCTasksPane@@QAAXHH@Z=stub__CollapseAllGroups_CMFCTasksPane__QAAXHH_Z @2848
    ?CollapseGroup@CMFCTasksPane@@QAAHPAVCMFCTasksPaneTaskGroup@@H@Z=stub__CollapseGroup_CMFCTasksPane__QAAHPAVCMFCTasksPaneTaskGroup__H_Z @2849
    ?CollapseSubmenus@CMFCPopupMenu@@IAAXXZ=stub__CollapseSubmenus_CMFCPopupMenu__IAAXXZ @2850
    ?Collate@?$CStringT@_WV?$StrTraitMFC_DLL@_WV?$ChTraitsCRT@_W@ATL@@@@@ATL@@QBAHPB_W@Z=stub__Collate___CStringT__WV__StrTraitMFC_DLL__WV__ChTraitsCRT__W_ATL_____ATL__QBAHPB_W_Z @2851
    ?Collate@?$CStringT@DV?$StrTraitMFC_DLL@DV?$ChTraitsCRT@D@ATL@@@@@ATL@@QBAHPBD@Z=stub__Collate___CStringT_DV__StrTraitMFC_DLL_DV__ChTraitsCRT_D_ATL_____ATL__QBAHPBD_Z @2852
    ?CollateNoCase@?$CStringT@_WV?$StrTraitMFC_DLL@_WV?$ChTraitsCRT@_W@ATL@@@@@ATL@@QBAHPB_W@Z=stub__CollateNoCase___CStringT__WV__StrTraitMFC_DLL__WV__ChTraitsCRT__W_ATL_____ATL__QBAHPB_W_Z @2853
    ?CollateNoCase@?$CStringT@DV?$StrTraitMFC_DLL@DV?$ChTraitsCRT@D@ATL@@@@@ATL@@QBAHPBD@Z=stub__CollateNoCase___CStringT_DV__StrTraitMFC_DLL_DV__ChTraitsCRT_D_ATL_____ATL__QBAHPBD_Z @2854
    ?CollectBaseElement@CMFCRibbonCollector@@MAAXABVCMFCRibbonBaseElement@@AAVXElement@CMFCRibbonInfo@@H@Z=stub__CollectBaseElement_CMFCRibbonCollector__MAAXABVCMFCRibbonBaseElement__AAVXElement_CMFCRibbonInfo__H_Z @2855
    ?CollectCategory@CMFCRibbonCollector@@MAAXABVCMFCRibbonCategory@@AAVXCategory@CMFCRibbonInfo@@@Z=stub__CollectCategory_CMFCRibbonCollector__MAAXABVCMFCRibbonCategory__AAVXCategory_CMFCRibbonInfo___Z @2856
    ?CollectCategoryMain@CMFCRibbonCollector@@MAAXABVCMFCRibbonBar@@AAVXCategoryMain@CMFCRibbonInfo@@@Z=stub__CollectCategoryMain_CMFCRibbonCollector__MAAXABVCMFCRibbonBar__AAVXCategoryMain_CMFCRibbonInfo___Z @2857
    ?CollectElement@CMFCRibbonCollector@@MAAPAVXElement@CMFCRibbonInfo@@ABVCMFCRibbonBaseElement@@@Z=stub__CollectElement_CMFCRibbonCollector__MAAPAVXElement_CMFCRibbonInfo__ABVCMFCRibbonBaseElement___Z @2858
    ?CollectElement@CMFCRibbonCollector@@MAAXABVCMFCRibbonBaseElement@@AAVXElement@CMFCRibbonInfo@@@Z=stub__CollectElement_CMFCRibbonCollector__MAAXABVCMFCRibbonBaseElement__AAVXElement_CMFCRibbonInfo___Z @2859
    ?CollectImageInfo@CMFCRibbonCollector@@MAAXAAVCMFCToolBarImages@@AAVXImage@CMFCRibbonInfo@@H@Z=stub__CollectImageInfo_CMFCRibbonCollector__MAAXAAVCMFCToolBarImages__AAVXImage_CMFCRibbonInfo__H_Z @2860
    ?CollectPanel@CMFCRibbonCollector@@MAAXABVCMFCRibbonPanel@@AAVXPanel@CMFCRibbonInfo@@@Z=stub__CollectPanel_CMFCRibbonCollector__MAAXABVCMFCRibbonPanel__AAVXPanel_CMFCRibbonInfo___Z @2861
    ?CollectQATElements@CMFCRibbonCollector@@MAAXABVCMFCRibbonBar@@AAVXRibbonBar@CMFCRibbonInfo@@@Z=stub__CollectQATElements_CMFCRibbonCollector__MAAXABVCMFCRibbonBar__AAVXRibbonBar_CMFCRibbonInfo___Z @2862
    ?CollectRibbonBar@CMFCRibbonCollector@@MAAXABVCMFCRibbonBar@@AAVXRibbonBar@CMFCRibbonInfo@@@Z=stub__CollectRibbonBar_CMFCRibbonCollector__MAAXABVCMFCRibbonBar__AAVXRibbonBar_CMFCRibbonInfo___Z @2863
    ?CollectRibbonBar@CMFCRibbonCollector@@UAAXABVCMFCRibbonBar@@@Z=stub__CollectRibbonBar_CMFCRibbonCollector__UAAXABVCMFCRibbonBar___Z @2864
    ?COLORREF_TO_D2DCOLOR@CRenderTarget@@SA?AU_D3DCOLORVALUE@@KH@Z=stub__COLORREF_TO_D2DCOLOR_CRenderTarget__SA_AU_D3DCOLORVALUE__KH_Z @2865
    ?CombineWithGeometry@CD2DGeometry@@QBAHAAV1@W4D2D1_COMBINE_MODE@@ABUD2D_MATRIX_3X2_F@@PAUID2D1SimplifiedGeometrySink@@M@Z=stub__CombineWithGeometry_CD2DGeometry__QBAHAAV1_W4D2D1_COMBINE_MODE__ABUD2D_MATRIX_3X2_F__PAUID2D1SimplifiedGeometrySink__M_Z @2866
    ?Command@CFtpConnection@@QAAPAVCInternetFile@@PB_WW4CmdResponseType@1@KK@Z=stub__Command_CFtpConnection__QAAPAVCInternetFile__PB_WW4CmdResponseType_1_KK_Z @2867
    ?CommandToIndex@CMFCStatusBar@@QBAHI@Z=stub__CommandToIndex_CMFCStatusBar__QBAHI_Z @2868
    ?CommandToIndex@CMFCToolBar@@QBAHIH@Z=stub__CommandToIndex_CMFCToolBar__QBAHIH_Z @2869
    ?CommandToIndex@CStatusBar@@QBAHI@Z=stub__CommandToIndex_CStatusBar__QBAHI_Z @2870
    ?CommandToIndex@CToolBar@@QBAHI@Z=stub__CommandToIndex_CToolBar__QBAHI_Z @2871
    ?Commit@CArchiveStream@@UAAJK@Z=stub__Commit_CArchiveStream__UAAJK_Z @2872
    ?CommitItem@COleClientItem@@UAAXH@Z=stub__CommitItem_COleClientItem__UAAXH_Z @2873
    ?CommitItems@COleDocument@@QAAXHPAUIStorage@@@Z=stub__CommitItems_COleDocument__QAAXHPAUIStorage___Z @2874
    ?CommitList@CJumpList@@QAAHXZ=stub__CommitList_CJumpList__QAAHXZ @2875
    ?CommitTrans@CDatabase@@QAAHXZ=stub__CommitTrans_CDatabase__QAAHXZ @2876
    ?CommitTrans@CDockingPanesRow@@IAAXXZ=stub__CommitTrans_CDockingPanesRow__IAAXXZ @2877
    ?CommonBaseInit@CFile@@IAAXPAXPAVCAtlTransactionManager@ATL@@@Z=stub__CommonBaseInit_CFile__IAAXPAXPAVCAtlTransactionManager_ATL___Z @2878
    ?CommonBaseInit@CStdioFile@@IAAXPAU_iobuf@@PAVCAtlTransactionManager@ATL@@@Z=stub__CommonBaseInit_CStdioFile__IAAXPAU_iobuf__PAVCAtlTransactionManager_ATL___Z @2879
    ?CommonConstruct@CDialogEx@@IAAXXZ=stub__CommonConstruct_CDialogEx__IAAXXZ @2880
    ?CommonConstruct@COleObjectFactory@@IAAXABU_GUID@@PAUCRuntimeClass@@HHPB_W@Z=stub__CommonConstruct_COleObjectFactory__IAAXABU_GUID__PAUCRuntimeClass__HHPB_W_Z @2881
    ?CommonConstruct@CPropertyPage@@IAAXPB_WI@Z=stub__CommonConstruct_CPropertyPage__IAAXPB_WI_Z @2882
    ?CommonConstruct@CPropertyPage@@IAAXPB_WIII@Z=stub__CommonConstruct_CPropertyPage__IAAXPB_WIII_Z @2883
    ?CommonConstruct@CPropertySheet@@QAAXPAVCWnd@@I@Z=stub__CommonConstruct_CPropertySheet__QAAXPAVCWnd__I_Z @2884
    ?CommonConstruct@CPropertySheet@@QAAXPAVCWnd@@IPAUHBITMAP__@@PAUHPALETTE__@@1@Z=stub__CommonConstruct_CPropertySheet__QAAXPAVCWnd__IPAUHBITMAP____PAUHPALETTE____1_Z @2885
    ?CommonConstruct@CWinThread@@QAAXXZ=stub__CommonConstruct_CWinThread__QAAXXZ @2886
    ?CommonCreate@CMFCDesktopAlertWnd@@IAAHVCPoint@@PAVCMFCDesktopAlertWndInfo@@@Z=stub__CommonCreate_CMFCDesktopAlertWnd__IAAHVCPoint__PAVCMFCDesktopAlertWndInfo___Z @2887
    ?CommonInit@CD2DBitmap@@IAAXXZ=stub__CommonInit_CD2DBitmap__IAAXXZ @2888
    ?CommonInit@CD2DBitmapBrush@@IAAXPAUD2D1_BITMAP_BRUSH_PROPERTIES@@@Z=stub__CommonInit_CD2DBitmapBrush__IAAXPAUD2D1_BITMAP_BRUSH_PROPERTIES___Z @2889
    ?CommonInit@CD2DBrushProperties@@IAAXXZ=stub__CommonInit_CD2DBrushProperties__IAAXXZ @2890
    ?CommonInit@CFile@@IAAXPB_WIPAVCAtlTransactionManager@ATL@@@Z=stub__CommonInit_CFile__IAAXPB_WIPAVCAtlTransactionManager_ATL___Z @2891
    ?CommonInit@CMFCControlRendererInfo@@QAAXXZ=stub__CommonInit_CMFCControlRendererInfo__QAAXXZ @2892
    ?CommonInit@CMFCCustomizeButton@@IAAXXZ=stub__CommonInit_CMFCCustomizeButton__IAAXXZ @2893
    ?CommonInit@CMFCDropDownListBox@@IAAXXZ=stub__CommonInit_CMFCDropDownListBox__IAAXXZ @2894
    ?CommonInit@CMFCHeaderCtrl@@IAAXXZ=stub__CommonInit_CMFCHeaderCtrl__IAAXXZ @2895
    ?CommonInit@CMFCPropertyPage@@IAAXXZ=stub__CommonInit_CMFCPropertyPage__IAAXXZ @2896
    ?CommonInit@CMFCPropertySheet@@IAAXXZ=stub__CommonInit_CMFCPropertySheet__IAAXXZ @2897
    ?CommonInit@CMFCRibbonButton@@IAAXXZ=stub__CommonInit_CMFCRibbonButton__IAAXXZ @2898
    ?CommonInit@CMFCRibbonCategory@@IAAXPAVCMFCRibbonBar@@PB_WIIVCSize@@2@Z=stub__CommonInit_CMFCRibbonCategory__IAAXPAVCMFCRibbonBar__PB_WIIVCSize__2_Z @2899
    ?CommonInit@CMFCRibbonColorButton@@IAAXXZ=stub__CommonInit_CMFCRibbonColorButton__IAAXXZ @2900
    ?CommonInit@CMFCRibbonComboBox@@IAAXXZ=stub__CommonInit_CMFCRibbonComboBox__IAAXXZ @2901
    ?CommonInit@CMFCRibbonEdit@@IAAXXZ=stub__CommonInit_CMFCRibbonEdit__IAAXXZ @2902
    ?CommonInit@CMFCRibbonGallery@@IAAXXZ=stub__CommonInit_CMFCRibbonGallery__IAAXXZ @2903
    ?CommonInit@CMFCRibbonGalleryMenuButton@@IAAXXZ=stub__CommonInit_CMFCRibbonGalleryMenuButton__IAAXXZ @2904
    ?CommonInit@CMFCRibbonPanel@@IAAXPB_WPAUHICON__@@@Z=stub__CommonInit_CMFCRibbonPanel__IAAXPB_WPAUHICON_____Z @2905
    ?CommonInit@CMFCRibbonPanelMenuBar@@IAAXXZ=stub__CommonInit_CMFCRibbonPanelMenuBar__IAAXXZ @2906
    ?CommonInit@CMFCRibbonProgressBar@@IAAXXZ=stub__CommonInit_CMFCRibbonProgressBar__IAAXXZ @2907
    ?CommonInit@CMFCRibbonSlider@@IAAXXZ=stub__CommonInit_CMFCRibbonSlider__IAAXXZ @2908
    ?CommonInit@CMFCRibbonStatusBarPane@@IAAXXZ=stub__CommonInit_CMFCRibbonStatusBarPane__IAAXXZ @2909
    ?CommonInit@CMFCRibbonUndoButton@@IAAXXZ=stub__CommonInit_CMFCRibbonUndoButton__IAAXXZ @2910
    ?CommonInit@CMFCToolBarImages@@QAAXH@Z=stub__CommonInit_CMFCToolBarImages__QAAXH_Z @2911
    ?CommonInit@CStdioFile@@IAAXPB_WIPAVCAtlTransactionManager@ATL@@@Z=stub__CommonInit_CStdioFile__IAAXPB_WIPAVCAtlTransactionManager_ATL___Z @2912
    ?Compare@?$CStringT@_WV?$StrTraitMFC_DLL@_WV?$ChTraitsCRT@_W@ATL@@@@@ATL@@QBAHPB_W@Z=stub__Compare___CStringT__WV__StrTraitMFC_DLL__WV__ChTraitsCRT__W_ATL_____ATL__QBAHPB_W_Z @2913
    ?Compare@?$CStringT@DV?$StrTraitMFC_DLL@DV?$ChTraitsCRT@D@ATL@@@@@ATL@@QBAHPBD@Z=stub__Compare___CStringT_DV__StrTraitMFC_DLL_DV__ChTraitsCRT_D_ATL_____ATL__QBAHPBD_Z @2914
    ?Compare@CMFCToolBarComboBoxButton@@UAAHPB_W0@Z=stub__Compare_CMFCToolBarComboBoxButton__UAAHPB_W0_Z @2915
    ?CompareItem@CComboBox@@UAAHPAUtagCOMPAREITEMSTRUCT@@@Z=stub__CompareItem_CComboBox__UAAHPAUtagCOMPAREITEMSTRUCT___Z @2916
    ?CompareItem@CListBox@@UAAHPAUtagCOMPAREITEMSTRUCT@@@Z=stub__CompareItem_CListBox__UAAHPAUtagCOMPAREITEMSTRUCT___Z @2917
    ?CompareItem@CMFCFontComboBox@@UAAHPAUtagCOMPAREITEMSTRUCT@@@Z=stub__CompareItem_CMFCFontComboBox__UAAHPAUtagCOMPAREITEMSTRUCT___Z @2918
    ?CompareNoCase@?$CStringT@_WV?$StrTraitMFC_DLL@_WV?$ChTraitsCRT@_W@ATL@@@@@ATL@@QBAHPB_W@Z=stub__CompareNoCase___CStringT__WV__StrTraitMFC_DLL__WV__ChTraitsCRT__W_ATL_____ATL__QBAHPB_W_Z @2919
    ?CompareNoCase@?$CStringT@DV?$StrTraitMFC_DLL@DV?$ChTraitsCRT@D@ATL@@@@@ATL@@QBAHPBD@Z=stub__CompareNoCase___CStringT_DV__StrTraitMFC_DLL_DV__ChTraitsCRT_D_ATL_____ATL__QBAHPBD_Z @2920
    ?CompareProc@CMFCListCtrl@@KAHJJJ@Z=stub__CompareProc_CMFCListCtrl__KAHJJJ_Z @2921
    ?CompareProc@CMFCShellTreeCtrl@@KAHJJJ@Z=stub__CompareProc_CMFCShellTreeCtrl__KAHJJJ_Z @2922
    ?CompareProps@CMFCPropertyGridCtrl@@MBAHPBVCMFCPropertyGridProperty@@0@Z=stub__CompareProps_CMFCPropertyGridCtrl__MBAHPBVCMFCPropertyGridProperty__0_Z @2923
    ?CompareWith@CMFCToolBarButton@@UBAHABV1@@Z=stub__CompareWith_CMFCToolBarButton__UBAHABV1__Z @2924
    ?CompareWith@CMFCToolBarMenuButton@@UBAHABVCMFCToolBarButton@@@Z=stub__CompareWith_CMFCToolBarMenuButton__UBAHABVCMFCToolBarButton___Z @2925
    ?CompareWithGeometry@CD2DGeometry@@QBA?AW4D2D1_GEOMETRY_RELATION@@AAV1@ABUD2D_MATRIX_3X2_F@@M@Z=stub__CompareWithGeometry_CD2DGeometry__QBA_AW4D2D1_GEOMETRY_RELATION__AAV1_ABUD2D_MATRIX_3X2_F__M_Z @2926
    ?ComputeArea@CD2DGeometry@@QBAHABUD2D_MATRIX_3X2_F@@AAMM@Z=stub__ComputeArea_CD2DGeometry__QBAHABUD2D_MATRIX_3X2_F__AAMM_Z @2927
    ?ComputeDeltas@CPreviewDC@@IAA?AVCSize@@AAHPB_WAAIHIPAHHPA_W30@Z=stub__ComputeDeltas_CPreviewDC__IAA_AVCSize__AAHPB_WAAIHIPAHHPA_W30_Z @2928
    ?ComputeLength@CD2DGeometry@@QBAHABUD2D_MATRIX_3X2_F@@AAMM@Z=stub__ComputeLength_CD2DGeometry__QBAHABUD2D_MATRIX_3X2_F__AAMM_Z @2929
    ?ComputePointAtLength@CD2DGeometry@@QBAHMABUD2D_MATRIX_3X2_F@@AAVCD2DPointF@@1M@Z=stub__ComputePointAtLength_CD2DGeometry__QBAHMABUD2D_MATRIX_3X2_F__AAVCD2DPointF__1M_Z @2930
    ?Concatenate@?$CSimpleStringT@_W$00@ATL@@KAXAAV12@PB_WH1H@Z=stub__Concatenate___CSimpleStringT__W_00_ATL__KAXAAV12_PB_WH1H_Z @2931
    ?Concatenate@?$CSimpleStringT@D$00@ATL@@KAXAAV12@PBDH1H@Z=stub__Concatenate___CSimpleStringT_D_00_ATL__KAXAAV12_PBDH1H_Z @2932
    ?ConcatenateItem@CShellManager@@QAAPFAU_ITEMIDLIST@@PFBU2@0@Z=stub__ConcatenateItem_CShellManager__QAAPFAU_ITEMIDLIST__PFBU2_0_Z @2933
    ?Connect@CAsyncSocket@@QAAHPB_WI@Z=stub__Connect_CAsyncSocket__QAAHPB_WI_Z @2934
    ?Connect@CDatabase@@IAAHK@Z=stub__Connect_CDatabase__IAAHK_Z @2935
    ?ConnectDHtmlElementEvents@CDHtmlDialog@@IAAJK@Z=stub__ConnectDHtmlElementEvents_CDHtmlDialog__IAAJK_Z @2936
    ?ConnectDHtmlEvents@CDHtmlDialog@@IAAJPAUIUnknown@@@Z=stub__ConnectDHtmlEvents_CDHtmlDialog__IAAJPAUIUnknown___Z @2937
    ?ConnectHelper@CAsyncSocket@@MAAHPBUsockaddr@@H@Z=stub__ConnectHelper_CAsyncSocket__MAAHPBUsockaddr__H_Z @2938
    ?ConnectHelper@CSocket@@MAAHPBUsockaddr@@H@Z=stub__ConnectHelper_CSocket__MAAHPBUsockaddr__H_Z @2939
    ?ConnectSink@COleControlSite@@IAAKABU_GUID@@PAUIUnknown@@@Z=stub__ConnectSink_COleControlSite__IAAKABU_GUID__PAUIUnknown___Z @2940
    ?ConnectTemplate@COleTemplateServer@@QAAXABU_GUID@@PAVCDocTemplate@@HH@Z=stub__ConnectTemplate_COleTemplateServer__QAAXABU_GUID__PAVCDocTemplate__HH_Z @2941
    ?ConnectToConnectionPoint@CDHtmlEventSink@@QAAJPAUIUnknown@@ABU_GUID@@PAK@Z=stub__ConnectToConnectionPoint_CDHtmlEventSink__QAAJPAUIUnknown__ABU_GUID__PAK_Z @2942
    ?ConnectToControl@CDHtmlControlSink@@QAAJPAUIUnknown@@@Z=stub__ConnectToControl_CDHtmlControlSink__QAAJPAUIUnknown___Z @2943
    ?ConnectView@COleServerDoc@@IAAXPAVCWnd@@PAVCView@@@Z=stub__ConnectView_COleServerDoc__IAAXPAVCWnd__PAVCView___Z @2944
    ?Construct@?$CStringT@_WV?$StrTraitMFC_DLL@_WV?$ChTraitsCRT@_W@ATL@@@@@ATL@@SAXPAV12@@Z=stub__Construct___CStringT__WV__StrTraitMFC_DLL__WV__ChTraitsCRT__W_ATL_____ATL__SAXPAV12__Z @2945
    ?Construct@?$CStringT@DV?$StrTraitMFC_DLL@DV?$ChTraitsCRT@D@ATL@@@@@ATL@@SAXPAV12@@Z=stub__Construct___CStringT_DV__StrTraitMFC_DLL_DV__ChTraitsCRT_D_ATL_____ATL__SAXPAV12__Z @2946
    ?Construct@CPropertyPage@@QAAXII@Z=stub__Construct_CPropertyPage__QAAXII_Z @2947
    ?Construct@CPropertyPage@@QAAXIIII@Z=stub__Construct_CPropertyPage__QAAXIIII_Z @2948
    ?Construct@CPropertyPage@@QAAXPB_WI@Z=stub__Construct_CPropertyPage__QAAXPB_WI_Z @2949
    ?Construct@CPropertyPage@@QAAXPB_WIII@Z=stub__Construct_CPropertyPage__QAAXPB_WIII_Z @2950
    ?Construct@CPropertySheet@@QAAXIPAVCWnd@@I@Z=stub__Construct_CPropertySheet__QAAXIPAVCWnd__I_Z @2951
    ?Construct@CPropertySheet@@QAAXIPAVCWnd@@IPAUHBITMAP__@@PAUHPALETTE__@@1@Z=stub__Construct_CPropertySheet__QAAXIPAVCWnd__IPAUHBITMAP____PAUHPALETTE____1_Z @2952
    ?Construct@CPropertySheet@@QAAXPB_WPAVCWnd@@I@Z=stub__Construct_CPropertySheet__QAAXPB_WPAVCWnd__I_Z @2953
    ?Construct@CPropertySheet@@QAAXPB_WPAVCWnd@@IPAUHBITMAP__@@PAUHPALETTE__@@2@Z=stub__Construct_CPropertySheet__QAAXPB_WPAVCWnd__IPAUHBITMAP____PAUHPALETTE____2_Z @2954
    ?Construct@CRectTracker@@IAAXXZ=stub__Construct_CRectTracker__IAAXXZ @2955
    ?ConstructBaseElement@CMFCRibbonConstructor@@MBAXAAVCMFCRibbonBaseElement@@ABVXElement@CMFCRibbonInfo@@@Z=stub__ConstructBaseElement_CMFCRibbonConstructor__MBAXAAVCMFCRibbonBaseElement__ABVXElement_CMFCRibbonInfo___Z @2956
    ?ConstructCategory@CMFCRibbonConstructor@@MBAXAAVCMFCRibbonCategory@@ABVXCategory@CMFCRibbonInfo@@@Z=stub__ConstructCategory_CMFCRibbonConstructor__MBAXAAVCMFCRibbonCategory__ABVXCategory_CMFCRibbonInfo___Z @2957
    ?ConstructCategoryMain@CMFCRibbonConstructor@@MBAXAAVCMFCRibbonBar@@ABVXCategoryMain@CMFCRibbonInfo@@@Z=stub__ConstructCategoryMain_CMFCRibbonConstructor__MBAXAAVCMFCRibbonBar__ABVXCategoryMain_CMFCRibbonInfo___Z @2958
    ?ConstructElement@CMFCRibbonConstructor@@MBAXAAVCMFCRibbonBaseElement@@ABVXElement@CMFCRibbonInfo@@@Z=stub__ConstructElement_CMFCRibbonConstructor__MBAXAAVCMFCRibbonBaseElement__ABVXElement_CMFCRibbonInfo___Z @2959
    ?ConstructPanel@CMFCRibbonConstructor@@MBAXAAVCMFCRibbonPanel@@ABVXPanel@CMFCRibbonInfo@@@Z=stub__ConstructPanel_CMFCRibbonConstructor__MBAXAAVCMFCRibbonPanel__ABVXPanel_CMFCRibbonInfo___Z @2960
    ?ConstructQATElements@CMFCRibbonConstructor@@MBAXAAVCMFCRibbonBar@@ABVXRibbonBar@CMFCRibbonInfo@@@Z=stub__ConstructQATElements_CMFCRibbonConstructor__MBAXAAVCMFCRibbonBar__ABVXRibbonBar_CMFCRibbonInfo___Z @2961
    ?ConstructRibbonBar@CMFCRibbonConstructor@@UBAXAAVCMFCRibbonBar@@@Z=stub__ConstructRibbonBar_CMFCRibbonConstructor__UBAXAAVCMFCRibbonBar___Z @2962
    ?ConstructTabElements@CMFCRibbonConstructor@@MBAXAAVCMFCRibbonBar@@ABVXRibbonBar@CMFCRibbonInfo@@@Z=stub__ConstructTabElements_CMFCRibbonConstructor__MBAXAAVCMFCRibbonBar__ABVXRibbonBar_CMFCRibbonInfo___Z @2963
    ?ContainsVariable@CAnimationBaseObject@@UAAHPAUIUIAnimationVariable@@@Z=stub__ContainsVariable_CAnimationBaseObject__UAAHPAUIUIAnimationVariable___Z @2964
    ?ContextSensitiveHelp@XOleInPlaceActiveObject@COleControl@@UAAJH@Z=stub__ContextSensitiveHelp_XOleInPlaceActiveObject_COleControl__UAAJH_Z @2965
    ?ContextSensitiveHelp@XOleInPlaceActiveObject@COleServerDoc@@UAAJH@Z=stub__ContextSensitiveHelp_XOleInPlaceActiveObject_COleServerDoc__UAAJH_Z @2966
    ?ContextSensitiveHelp@XOleInPlaceFrame@COleFrameHook@@UAAJH@Z=stub__ContextSensitiveHelp_XOleInPlaceFrame_COleFrameHook__UAAJH_Z @2967
    ?ContextSensitiveHelp@XOleInPlaceObject@COleControl@@UAAJH@Z=stub__ContextSensitiveHelp_XOleInPlaceObject_COleControl__UAAJH_Z @2968
    ?ContextSensitiveHelp@XOleInPlaceObject@COleServerDoc@@UAAJH@Z=stub__ContextSensitiveHelp_XOleInPlaceObject_COleServerDoc__UAAJH_Z @2969
    ?ContextSensitiveHelp@XOleIPFrame@COleControlContainer@@UAAJH@Z=stub__ContextSensitiveHelp_XOleIPFrame_COleControlContainer__UAAJH_Z @2970
    ?ContextSensitiveHelp@XOleIPSite@COleClientItem@@UAAJH@Z=stub__ContextSensitiveHelp_XOleIPSite_COleClientItem__UAAJH_Z @2971
    ?ContextSensitiveHelp@XOleIPSite@COleControlSite@@UAAJH@Z=stub__ContextSensitiveHelp_XOleIPSite_COleControlSite__UAAJH_Z @2972
    ?ContextSensitiveHelp@XOleWindow@CDocument@@UAAJH@Z=stub__ContextSensitiveHelp_XOleWindow_CDocument__UAAJH_Z @2973
    ?ContextSensitiveHelp@XRichEditOleCallback@CRichEditView@@UAAJH@Z=stub__ContextSensitiveHelp_XRichEditOleCallback_CRichEditView__UAAJH_Z @2974
    ?ContextToSize@CMFCColorBar@@QAAXHH@Z=stub__ContextToSize_CMFCColorBar__QAAXHH_Z @2975
    ?ContinueModal@CPropertySheet@@UAAHXZ=stub__ContinueModal_CPropertySheet__UAAHXZ @2976
    ?ContinueModal@CWnd@@UAAHXZ=stub__ContinueModal_CWnd__UAAHXZ @2977
    ?ControlBarCleanUp@@YAXXZ=stub__ControlBarCleanUp__YAXXZ @2978
    ?ControlBarToTabbedDocument@CMDIFrameWndEx@@UAAPAVCMDIChildWndEx@@PAVCDockablePane@@@Z=stub__ControlBarToTabbedDocument_CMDIFrameWndEx__UAAPAVCMDIChildWndEx__PAVCDockablePane___Z @2979
    ?ControlInfoChanged@COleControl@@QAAXXZ=stub__ControlInfoChanged_COleControl__QAAXXZ @2980
    ?ConvertObject@XOleUIObjInfo@COlePropertiesDialog@@UAAJKABU_GUID@@@Z=stub__ConvertObject_XOleUIObjInfo_COlePropertiesDialog__UAAJKABU_GUID___Z @2981
    ?ConvertTo@COleClientItem@@UAAHABU_GUID@@@Z=stub__ConvertTo_COleClientItem__UAAHABU_GUID___Z @2982
    ?ConvertTo@CRichEditCntrItem@@UAAHABU_GUID@@@Z=stub__ConvertTo_CRichEditCntrItem__UAAHABU_GUID___Z @2983
    ?ConvertTo32Bits@CMFCToolBarImages@@QAAHK@Z=stub__ConvertTo32Bits_CMFCToolBarImages__QAAHK_Z @2984
    ?ConvertToTabbedDocument@CBaseTabbedPane@@UAAXH@Z=stub__ConvertToTabbedDocument_CBaseTabbedPane__UAAXH_Z @2985
    ?ConvertToTabbedDocument@CDockablePane@@UAAXH@Z=stub__ConvertToTabbedDocument_CDockablePane__UAAXH_Z @2986
    ?ConvertToTabbedDocument@CMultiPaneFrameWnd@@UAAXXZ=stub__ConvertToTabbedDocument_CMultiPaneFrameWnd__UAAXXZ @2987
    ?ConvertToTabbedDocument@CPane@@UAAXH@Z=stub__ConvertToTabbedDocument_CPane__UAAXH_Z @2988
    ?ConvertToTabbedDocument@CPaneFrameWnd@@UAAXXZ=stub__ConvertToTabbedDocument_CPaneFrameWnd__UAAXXZ @2989
    ?Copy@CByteArray@@QAAXABV1@@Z=stub__Copy_CByteArray__QAAXABV1__Z @2990
    ?Copy@CDWordArray@@QAAXABV1@@Z=stub__Copy_CDWordArray__QAAXABV1__Z @2991
    ?Copy@CMFCToolBarImages@@SAPAUHBITMAP__@@PAU2@@Z=stub__Copy_CMFCToolBarImages__SAPAUHBITMAP____PAU2__Z @2992
    ?Copy@CObArray@@QAAXABV1@@Z=stub__Copy_CObArray__QAAXABV1__Z @2993
    ?Copy@COleSafeArray@@QAAXPAPAUtagSAFEARRAY@@@Z=stub__Copy_COleSafeArray__QAAXPAPAUtagSAFEARRAY___Z @2994
    ?Copy@CPaneContainer@@UAAPAV1@PAV1@@Z=stub__Copy_CPaneContainer__UAAPAV1_PAV1__Z @2995
    ?Copy@CPtrArray@@QAAXABV1@@Z=stub__Copy_CPtrArray__QAAXABV1__Z @2996
    ?Copy@CStringArray@@QAAXABV1@@Z=stub__Copy_CStringArray__QAAXABV1__Z @2997
    ?Copy@CUIntArray@@QAAXABV1@@Z=stub__Copy_CUIntArray__QAAXABV1__Z @2998
    ?Copy@CWordArray@@QAAXABV1@@Z=stub__Copy_CWordArray__QAAXABV1__Z @2999
    ?CopyButtonsList@CMFCOutlookBarPane@@IAAXABVCObList@@AAV2@@Z=stub__CopyButtonsList_CMFCOutlookBarPane__IAAXABVCObList__AAV2__Z @3000
    ?CopyChars@?$CSimpleStringT@_W$00@ATL@@SAXPA_WPB_WH@Z=stub__CopyChars___CSimpleStringT__W_00_ATL__SAXPA_WPB_WH_Z @3001
    ?CopyChars@?$CSimpleStringT@D$00@ATL@@SAXPADPBDH@Z=stub__CopyChars___CSimpleStringT_D_00_ATL__SAXPADPBDH_Z @3002
    ?CopyCharsOverlapped@?$CSimpleStringT@_W$00@ATL@@SAXPA_WPB_WH@Z=stub__CopyCharsOverlapped___CSimpleStringT__W_00_ATL__SAXPA_WPB_WH_Z @3003
    ?CopyCharsOverlapped@?$CSimpleStringT@D$00@ATL@@SAXPADPBDH@Z=stub__CopyCharsOverlapped___CSimpleStringT_D_00_ATL__SAXPADPBDH_Z @3004
    ?CopyChunk@CMFCFilterChunkValueImpl@@UAAJPAUtagSTAT_CHUNK@@@Z=stub__CopyChunk_CMFCFilterChunkValueImpl__UAAJPAUtagSTAT_CHUNK___Z @3005
    ?CopyColumnID@CDataSourceControl@@QAAHPAUtagDBCOLUMNID@@PBU2@@Z=stub__CopyColumnID_CDataSourceControl__QAAHPAUtagDBCOLUMNID__PBU2__Z @3006
    ?CopyFrom@CMFCColorMenuButton@@MAAXABVCMFCToolBarButton@@@Z=stub__CopyFrom_CMFCColorMenuButton__MAAXABVCMFCToolBarButton___Z @3007
    ?CopyFrom@CMFCCustomizeButton@@UAAXABVCMFCToolBarButton@@@Z=stub__CopyFrom_CMFCCustomizeButton__UAAXABVCMFCToolBarButton___Z @3008
    ?CopyFrom@CMFCCustomizeMenuButton@@MAAXABVCMFCToolBarButton@@@Z=stub__CopyFrom_CMFCCustomizeMenuButton__MAAXABVCMFCToolBarButton___Z @3009
    ?CopyFrom@CMFCDropDownToolbarButton@@UAAXABVCMFCToolBarButton@@@Z=stub__CopyFrom_CMFCDropDownToolbarButton__UAAXABVCMFCToolBarButton___Z @3010
    ?CopyFrom@CMFCFilterChunkValueImpl@@UAAXPAUIFilterChunkValue@ATL@@@Z=stub__CopyFrom_CMFCFilterChunkValueImpl__UAAXPAUIFilterChunkValue_ATL___Z @3011
    ?CopyFrom@CMFCRibbonBaseElement@@UAAXABV1@@Z=stub__CopyFrom_CMFCRibbonBaseElement__UAAXABV1__Z @3012
    ?CopyFrom@CMFCRibbonButton@@MAAXABVCMFCRibbonBaseElement@@@Z=stub__CopyFrom_CMFCRibbonButton__MAAXABVCMFCRibbonBaseElement___Z @3013
    ?CopyFrom@CMFCRibbonButtonsGroup@@MAAXABVCMFCRibbonBaseElement@@@Z=stub__CopyFrom_CMFCRibbonButtonsGroup__MAAXABVCMFCRibbonBaseElement___Z @3014
    ?CopyFrom@CMFCRibbonCategory@@UAAXAAV1@@Z=stub__CopyFrom_CMFCRibbonCategory__UAAXAAV1__Z @3015
    ?CopyFrom@CMFCRibbonColorButton@@MAAXABVCMFCRibbonBaseElement@@@Z=stub__CopyFrom_CMFCRibbonColorButton__MAAXABVCMFCRibbonBaseElement___Z @3016
    ?CopyFrom@CMFCRibbonComboBox@@MAAXABVCMFCRibbonBaseElement@@@Z=stub__CopyFrom_CMFCRibbonComboBox__MAAXABVCMFCRibbonBaseElement___Z @3017
    ?CopyFrom@CMFCRibbonDefaultPanelButton@@UAAXABVCMFCRibbonBaseElement@@@Z=stub__CopyFrom_CMFCRibbonDefaultPanelButton__UAAXABVCMFCRibbonBaseElement___Z @3018
    ?CopyFrom@CMFCRibbonEdit@@UAAXABVCMFCRibbonBaseElement@@@Z=stub__CopyFrom_CMFCRibbonEdit__UAAXABVCMFCRibbonBaseElement___Z @3019
    ?CopyFrom@CMFCRibbonFontComboBox@@MAAXABVCMFCRibbonBaseElement@@@Z=stub__CopyFrom_CMFCRibbonFontComboBox__MAAXABVCMFCRibbonBaseElement___Z @3020
    ?CopyFrom@CMFCRibbonGallery@@MAAXABVCMFCRibbonBaseElement@@@Z=stub__CopyFrom_CMFCRibbonGallery__MAAXABVCMFCRibbonBaseElement___Z @3021
    ?CopyFrom@CMFCRibbonGalleryIcon@@MAAXABVCMFCRibbonBaseElement@@@Z=stub__CopyFrom_CMFCRibbonGalleryIcon__MAAXABVCMFCRibbonBaseElement___Z @3022
    ?CopyFrom@CMFCRibbonGalleryMenuButton@@UAAXABVCMFCToolBarButton@@@Z=stub__CopyFrom_CMFCRibbonGalleryMenuButton__UAAXABVCMFCToolBarButton___Z @3023
    ?CopyFrom@CMFCRibbonLinkCtrl@@UAAXABVCMFCRibbonBaseElement@@@Z=stub__CopyFrom_CMFCRibbonLinkCtrl__UAAXABVCMFCRibbonBaseElement___Z @3024
    ?CopyFrom@CMFCRibbonMainPanel@@MAAXAAVCMFCRibbonPanel@@@Z=stub__CopyFrom_CMFCRibbonMainPanel__MAAXAAVCMFCRibbonPanel___Z @3025
    ?CopyFrom@CMFCRibbonPanel@@MAAXAAV1@@Z=stub__CopyFrom_CMFCRibbonPanel__MAAXAAV1__Z @3026
    ?CopyFrom@CMFCRibbonProgressBar@@MAAXABVCMFCRibbonBaseElement@@@Z=stub__CopyFrom_CMFCRibbonProgressBar__MAAXABVCMFCRibbonBaseElement___Z @3027
    ?CopyFrom@CMFCRibbonQuickAccessToolBarDefaultState@@QAAXABV1@@Z=stub__CopyFrom_CMFCRibbonQuickAccessToolBarDefaultState__QAAXABV1__Z @3028
    ?CopyFrom@CMFCRibbonSeparator@@MAAXABVCMFCRibbonBaseElement@@@Z=stub__CopyFrom_CMFCRibbonSeparator__MAAXABVCMFCRibbonBaseElement___Z @3029
    ?CopyFrom@CMFCRibbonSlider@@MAAXABVCMFCRibbonBaseElement@@@Z=stub__CopyFrom_CMFCRibbonSlider__MAAXABVCMFCRibbonBaseElement___Z @3030
    ?CopyFrom@CMFCRibbonStatusBarPane@@MAAXABVCMFCRibbonBaseElement@@@Z=stub__CopyFrom_CMFCRibbonStatusBarPane__MAAXABVCMFCRibbonBaseElement___Z @3031
    ?CopyFrom@CMFCRibbonTab@@UAAXABVCMFCRibbonBaseElement@@@Z=stub__CopyFrom_CMFCRibbonTab__UAAXABVCMFCRibbonBaseElement___Z @3032
    ?CopyFrom@CMFCRibbonUndoButton@@MAAXABVCMFCRibbonBaseElement@@@Z=stub__CopyFrom_CMFCRibbonUndoButton__MAAXABVCMFCRibbonBaseElement___Z @3033
    ?CopyFrom@CMFCToolBarButton@@UAAXABV1@@Z=stub__CopyFrom_CMFCToolBarButton__UAAXABV1__Z @3034
    ?CopyFrom@CMFCToolBarComboBoxButton@@UAAXABVCMFCToolBarButton@@@Z=stub__CopyFrom_CMFCToolBarComboBoxButton__UAAXABVCMFCToolBarButton___Z @3035
    ?CopyFrom@CMFCToolBarDateTimeCtrl@@UAAXABVCMFCToolBarButton@@@Z=stub__CopyFrom_CMFCToolBarDateTimeCtrl__UAAXABVCMFCToolBarButton___Z @3036
    ?CopyFrom@CMFCToolBarEditBoxButton@@UAAXABVCMFCToolBarButton@@@Z=stub__CopyFrom_CMFCToolBarEditBoxButton__UAAXABVCMFCToolBarButton___Z @3037
    ?CopyFrom@CMFCToolBarFontComboBox@@MAAXABVCMFCToolBarButton@@@Z=stub__CopyFrom_CMFCToolBarFontComboBox__MAAXABVCMFCToolBarButton___Z @3038
    ?CopyFrom@CMFCToolBarMenuButton@@UAAXABVCMFCToolBarButton@@@Z=stub__CopyFrom_CMFCToolBarMenuButton__UAAXABVCMFCToolBarButton___Z @3039
    ?CopyFrom@CMFCToolBarMenuButtonsButton@@UAAXABVCMFCToolBarButton@@@Z=stub__CopyFrom_CMFCToolBarMenuButtonsButton__UAAXABVCMFCToolBarButton___Z @3040
    ?CopyFrom@CMFCToolBarSpinEditBoxButton@@MAAXABVCMFCToolBarButton@@@Z=stub__CopyFrom_CMFCToolBarSpinEditBoxButton__MAAXABVCMFCToolBarButton___Z @3041
    ?CopyFrom@CMFCToolBarSystemMenuButton@@UAAXABVCMFCToolBarButton@@@Z=stub__CopyFrom_CMFCToolBarSystemMenuButton__UAAXABVCMFCToolBarButton___Z @3042
    ?CopyFrom@CRibbonCategoryScroll@@EAAXABVCMFCRibbonBaseElement@@@Z=stub__CopyFrom_CRibbonCategoryScroll__EAAXABVCMFCRibbonBaseElement___Z @3043
    ?CopyFromBitmap@CD2DBitmap@@QAAJPBV1@PBVCD2DPointU@@PBVCD2DRectU@@@Z=stub__CopyFromBitmap_CD2DBitmap__QAAJPBV1_PBVCD2DPointU__PBVCD2DRectU___Z @3044
    ?CopyFromMemory@CD2DBitmap@@QAAJPBXIPBVCD2DRectU@@@Z=stub__CopyFromMemory_CD2DBitmap__QAAJPBXIPBVCD2DRectU___Z @3045
    ?CopyFromRenderTarget@CD2DBitmap@@QAAJPBVCRenderTarget@@PBVCD2DPointU@@PBVCD2DRectU@@@Z=stub__CopyFromRenderTarget_CD2DBitmap__QAAJPBVCRenderTarget__PBVCD2DPointU__PBVCD2DRectU___Z @3046
    ?CopyIconToClipboard@CUserTool@@QAAHXZ=stub__CopyIconToClipboard_CUserTool__QAAHXZ @3047
    ?CopyImageToClipboard@CMFCToolBarImages@@QAAHH@Z=stub__CopyImageToClipboard_CMFCToolBarImages__QAAHH_Z @3048
    ?CopyItem@CShellManager@@QAAPFAU_ITEMIDLIST@@PFBU2@@Z=stub__CopyItem_CShellManager__QAAPFAU_ITEMIDLIST__PFBU2__Z @3049
    ?CopyKeyMap@CMFCKeyMapDialog@@MAAXXZ=stub__CopyKeyMap_CMFCKeyMapDialog__MAAXXZ @3050
    ?CopyOriginalMenuItemsFromMenu@CContextMenuManager@@IAAXIAAVCMFCPopupMenuBar@@@Z=stub__CopyOriginalMenuItemsFromMenu_CContextMenuManager__IAAXIAAVCMFCPopupMenuBar___Z @3051
    ?CopyOriginalMenuItemsToMenu@CContextMenuManager@@IAAXIAAVCMFCPopupMenuBar@@@Z=stub__CopyOriginalMenuItemsToMenu_CContextMenuManager__IAAXIAAVCMFCPopupMenuBar___Z @3052
    ?CopyState@CBasePane@@UAAXPAV1@@Z=stub__CopyState_CBasePane__UAAXPAV1__Z @3053
    ?CopyState@CDockablePane@@UAAXPAV1@@Z=stub__CopyState_CDockablePane__UAAXPAV1__Z @3054
    ?CopyState@CPane@@UAAXPAV1@@Z=stub__CopyState_CPane__UAAXPAV1__Z @3055
    ?CopyTemp@CMFCToolBarImages@@IAAXAAV1@@Z=stub__CopyTemp_CMFCToolBarImages__IAAXAAV1__Z @3056
    ?CopyTo@CArchiveStream@@UAAJPAUIStream@@T_ULARGE_INTEGER@@PAT3@2@Z=stub__CopyTo_CArchiveStream__UAAJPAUIStream__T_ULARGE_INTEGER__PAT3_2_Z @3057
    ?CopyTo@CMFCToolBarImages@@QAAHAAV1@@Z=stub__CopyTo_CMFCToolBarImages__QAAHAAV1__Z @3058
    ?CopyTo@CSmartDockingInfo@@QAAXAAV1@@Z=stub__CopyTo_CSmartDockingInfo__QAAXAAV1__Z @3059
    ?CopyToClipboard@COleClientItem@@QAAXH@Z=stub__CopyToClipboard_COleClientItem__QAAXH_Z @3060
    ?CopyToClipboard@COleServerItem@@QAAXH@Z=stub__CopyToClipboard_COleServerItem__QAAXH_Z @3061
    ?CorrectZoomSize@CMFCZoomKernel@@SAXABVCSize@@AAV2@W4XZoomType@1@@Z=stub__CorrectZoomSize_CMFCZoomKernel__SAXABVCSize__AAV2_W4XZoomType_1__Z @3062
    ?Create@CAnimateCtrl@@UAAHKABUtagRECT@@PAVCWnd@@I@Z=stub__Create_CAnimateCtrl__UAAHKABUtagRECT__PAVCWnd__I_Z @3063
    ?Create@CAnimationVariable@@UAAHPAUIUIAnimationManager@@@Z=stub__Create_CAnimationVariable__UAAHPAUIUIAnimationManager___Z @3064
    ?Create@CAsyncSocket@@QAAHIHJPB_W@Z=stub__Create_CAsyncSocket__QAAHIHJPB_W_Z @3065
    ?Create@CButton@@UAAHPB_WKABUtagRECT@@PAVCWnd@@I@Z=stub__Create_CButton__UAAHPB_WKABUtagRECT__PAVCWnd__I_Z @3066
    ?Create@CCheckListBox@@UAAHKABUtagRECT@@PAVCWnd@@I@Z=stub__Create_CCheckListBox__UAAHKABUtagRECT__PAVCWnd__I_Z @3067
    ?Create@CComboBox@@UAAHKABUtagRECT@@PAVCWnd@@I@Z=stub__Create_CComboBox__UAAHKABUtagRECT__PAVCWnd__I_Z @3068
    ?Create@CComboBoxEx@@UAAHKABUtagRECT@@PAVCWnd@@I@Z=stub__Create_CComboBoxEx__UAAHKABUtagRECT__PAVCWnd__I_Z @3069
    ?Create@CControlFrameWnd@@UAAHPB_W@Z=stub__Create_CControlFrameWnd__UAAHPB_W_Z @3070
    ?Create@CD2DBitmap@@UAAJPAVCRenderTarget@@@Z=stub__Create_CD2DBitmap__UAAJPAVCRenderTarget___Z @3071
    ?Create@CD2DBitmapBrush@@UAAJPAVCRenderTarget@@@Z=stub__Create_CD2DBitmapBrush__UAAJPAVCRenderTarget___Z @3072
    ?Create@CD2DLayer@@UAAJPAVCRenderTarget@@@Z=stub__Create_CD2DLayer__UAAJPAVCRenderTarget___Z @3073
    ?Create@CD2DLinearGradientBrush@@UAAJPAVCRenderTarget@@@Z=stub__Create_CD2DLinearGradientBrush__UAAJPAVCRenderTarget___Z @3074
    ?Create@CD2DMesh@@UAAJPAVCRenderTarget@@@Z=stub__Create_CD2DMesh__UAAJPAVCRenderTarget___Z @3075
    ?Create@CD2DPathGeometry@@UAAJPAVCRenderTarget@@@Z=stub__Create_CD2DPathGeometry__UAAJPAVCRenderTarget___Z @3076
    ?Create@CD2DRadialGradientBrush@@UAAJPAVCRenderTarget@@@Z=stub__Create_CD2DRadialGradientBrush__UAAJPAVCRenderTarget___Z @3077
    ?Create@CD2DSolidColorBrush@@UAAJPAVCRenderTarget@@@Z=stub__Create_CD2DSolidColorBrush__UAAJPAVCRenderTarget___Z @3078
    ?Create@CDateTimeCtrl@@UAAHKABUtagRECT@@PAVCWnd@@I@Z=stub__Create_CDateTimeCtrl__UAAHKABUtagRECT__PAVCWnd__I_Z @3079
    ?Create@CDCRenderTarget@@QAAHABUD2D1_RENDER_TARGET_PROPERTIES@@@Z=stub__Create_CDCRenderTarget__QAAHABUD2D1_RENDER_TARGET_PROPERTIES___Z @3080
    ?Create@CDialog@@UAAHPB_WPAVCWnd@@@Z=stub__Create_CDialog__UAAHPB_WPAVCWnd___Z @3081
    ?Create@CDialogBar@@UAAHPAVCWnd@@PB_WII@Z=stub__Create_CDialogBar__UAAHPAVCWnd__PB_WII_Z @3082
    ?Create@CDockablePane@@UAAHPB_WPAVCWnd@@ABUtagRECT@@HIKKKPAUCCreateContext@@@Z=stub__Create_CDockablePane__UAAHPB_WPAVCWnd__ABUtagRECT__HIKKKPAUCCreateContext___Z @3083
    ?Create@CDockablePane@@UAAHPB_WPAVCWnd@@VCSize@@HIKKK@Z=stub__Create_CDockablePane__UAAHPB_WPAVCWnd__VCSize__HIKKK_Z @3084
    ?Create@CDockBar@@UAAHPAVCWnd@@KI@Z=stub__Create_CDockBar__UAAHPAVCWnd__KI_Z @3085
    ?Create@CDockingManager@@QAAHPAVCFrameWnd@@@Z=stub__Create_CDockingManager__QAAHPAVCFrameWnd___Z @3086
    ?Create@CDockSite@@UAAHKABUtagRECT@@PAVCWnd@@KPAUCCreateContext@@@Z=stub__Create_CDockSite__UAAHKABUtagRECT__PAVCWnd__KPAUCCreateContext___Z @3087
    ?Create@CEdit@@QAAHKABUtagRECT@@PAVCWnd@@I@Z=stub__Create_CEdit__QAAHKABUtagRECT__PAVCWnd__I_Z @3088
    ?Create@CFindReplaceDialog@@UAAHHPB_W0KPAVCWnd@@@Z=stub__Create_CFindReplaceDialog__UAAHHPB_W0KPAVCWnd___Z @3089
    ?Create@CFormView@@MAAHPB_W0KABUtagRECT@@PAVCWnd@@IPAUCCreateContext@@@Z=stub__Create_CFormView__MAAHPB_W0KABUtagRECT__PAVCWnd__IPAUCCreateContext___Z @3090
    ?Create@CFrameWnd@@UAAHPB_W0KABUtagRECT@@PAVCWnd@@0KPAUCCreateContext@@@Z=stub__Create_CFrameWnd__UAAHPB_W0KABUtagRECT__PAVCWnd__0KPAUCCreateContext___Z @3091
    ?Create@CHeaderCtrl@@UAAHKABUtagRECT@@PAVCWnd@@I@Z=stub__Create_CHeaderCtrl__UAAHKABUtagRECT__PAVCWnd__I_Z @3092
    ?Create@CHotKeyCtrl@@UAAHKABUtagRECT@@PAVCWnd@@I@Z=stub__Create_CHotKeyCtrl__UAAHKABUtagRECT__PAVCWnd__I_Z @3093
    ?Create@CHtmlEditCtrl@@UAAHPB_WKABUtagRECT@@PAVCWnd@@HPAUCCreateContext@@@Z=stub__Create_CHtmlEditCtrl__UAAHPB_WKABUtagRECT__PAVCWnd__HPAUCCreateContext___Z @3094
    ?Create@CHtmlEditView@@UAAHPB_W0KABUtagRECT@@PAVCWnd@@IPAUCCreateContext@@@Z=stub__Create_CHtmlEditView__UAAHPB_W0KABUtagRECT__PAVCWnd__IPAUCCreateContext___Z @3095
    ?Create@CHtmlView@@UAAHPB_W0KABUtagRECT@@PAVCWnd@@IPAUCCreateContext@@@Z=stub__Create_CHtmlView__UAAHPB_W0KABUtagRECT__PAVCWnd__IPAUCCreateContext___Z @3096
    ?Create@CHwndRenderTarget@@QAAHPAUHWND__@@@Z=stub__Create_CHwndRenderTarget__QAAHPAUHWND_____Z @3097
    ?Create@CImageList@@QAAHAAV1@H0HHH@Z=stub__Create_CImageList__QAAHAAV1_H0HHH_Z @3098
    ?Create@CImageList@@QAAHHHIHH@Z=stub__Create_CImageList__QAAHHHIHH_Z @3099
    ?Create@CImageList@@QAAHIHHK@Z=stub__Create_CImageList__QAAHIHHK_Z @3100
    ?Create@CImageList@@QAAHPAV1@@Z=stub__Create_CImageList__QAAHPAV1__Z @3101
    ?Create@CImageList@@QAAHPB_WHHK@Z=stub__Create_CImageList__QAAHPB_WHHK_Z @3102
    ?Create@CIPAddressCtrl@@UAAHKABUtagRECT@@PAVCWnd@@I@Z=stub__Create_CIPAddressCtrl__UAAHKABUtagRECT__PAVCWnd__I_Z @3103
    ?Create@CLinkCtrl@@UAAHKABUtagRECT@@PAVCWnd@@I@Z=stub__Create_CLinkCtrl__UAAHKABUtagRECT__PAVCWnd__I_Z @3104
    ?Create@CLinkCtrl@@UAAHPB_WKABUtagRECT@@PAVCWnd@@I@Z=stub__Create_CLinkCtrl__UAAHPB_WKABUtagRECT__PAVCWnd__I_Z @3105
    ?Create@CListBox@@UAAHKABUtagRECT@@PAVCWnd@@I@Z=stub__Create_CListBox__UAAHKABUtagRECT__PAVCWnd__I_Z @3106
    ?Create@CListCtrl@@QAAHKABUtagRECT@@PAVCWnd@@I@Z=stub__Create_CListCtrl__QAAHKABUtagRECT__PAVCWnd__I_Z @3107
    ?Create@CMDIChildWnd@@UAAHPB_W0KABUtagRECT@@PAVCMDIFrameWnd@@PAUCCreateContext@@@Z=stub__Create_CMDIChildWnd__UAAHPB_W0KABUtagRECT__PAVCMDIFrameWnd__PAUCCreateContext___Z @3108
    ?Create@CMFCAutoHideBar@@UAAHPB_WKABUtagRECT@@PAVCWnd@@IKPAUCCreateContext@@@Z=stub__Create_CMFCAutoHideBar__UAAHPB_WKABUtagRECT__PAVCWnd__IKPAUCCreateContext___Z @3109
    ?Create@CMFCAutoHideButton@@UAAHPAVCMFCAutoHideBar@@PAVCDockablePane@@K@Z=stub__Create_CMFCAutoHideButton__UAAHPAVCMFCAutoHideBar__PAVCDockablePane__K_Z @3110
    ?Create@CMFCCaptionBar@@QAAHKPAVCWnd@@IHH@Z=stub__Create_CMFCCaptionBar__QAAHKPAVCWnd__IHH_Z @3111
    ?Create@CMFCColorBar@@UAAHPAVCWnd@@KIPAVCPalette@@HHH@Z=stub__Create_CMFCColorBar__UAAHPAVCWnd__KIPAVCPalette__HHH_Z @3112
    ?Create@CMFCControlRenderer@@UAAHABVCMFCControlRendererInfo@@H@Z=stub__Create_CMFCControlRenderer__UAAHABVCMFCControlRendererInfo__H_Z @3113
    ?Create@CMFCDesktopAlertWnd@@UAAHPAVCWnd@@AAVCMFCDesktopAlertWndInfo@@PAUHMENU__@@VCPoint@@@Z=stub__Create_CMFCDesktopAlertWnd__UAAHPAVCWnd__AAVCMFCDesktopAlertWndInfo__PAUHMENU____VCPoint___Z @3114
    ?Create@CMFCDesktopAlertWnd@@UAAHPAVCWnd@@IPAUHMENU__@@VCPoint@@PAUCRuntimeClass@@@Z=stub__Create_CMFCDesktopAlertWnd__UAAHPAVCWnd__IPAUHMENU____VCPoint__PAUCRuntimeClass___Z @3115
    ?Create@CMFCDropDownFrame@@UAAHPAVCWnd@@HHPAVCMFCDropDownToolBar@@@Z=stub__Create_CMFCDropDownFrame__UAAHPAVCWnd__HHPAVCMFCDropDownToolBar___Z @3116
    ?Create@CMFCMenuBar@@UAAHPAVCWnd@@KI@Z=stub__Create_CMFCMenuBar__UAAHPAVCWnd__KI_Z @3117
    ?Create@CMFCOutlookBar@@UAAHPB_WPAVCWnd@@ABUtagRECT@@IKKPAUCCreateContext@@@Z=stub__Create_CMFCOutlookBar__UAAHPB_WPAVCWnd__ABUtagRECT__IKKPAUCCreateContext___Z @3118
    ?Create@CMFCOutlookBarPane@@UAAHPAVCWnd@@KIK@Z=stub__Create_CMFCOutlookBarPane__UAAHPAVCWnd__KIK_Z @3119
    ?Create@CMFCOutlookBarTabCtrl@@UAAHABVCRect@@PAVCWnd@@I@Z=stub__Create_CMFCOutlookBarTabCtrl__UAAHABVCRect__PAVCWnd__I_Z @3120
    ?Create@CMFCPopupMenu@@UAAHPAVCWnd@@HHPAUHMENU__@@HH@Z=stub__Create_CMFCPopupMenu__UAAHPAVCWnd__HHPAUHMENU____HH_Z @3121
    ?Create@CMFCPreviewCtrlImpl@@UAAHPAUHWND__@@PBUtagRECT@@@Z=stub__Create_CMFCPreviewCtrlImpl__UAAHPAUHWND____PBUtagRECT___Z @3122
    ?Create@CMFCPreviewCtrlImpl@@UAAHPAUHWND__@@PBUtagRECT@@PAUCCreateContext@@@Z=stub__Create_CMFCPreviewCtrlImpl__UAAHPAUHWND____PBUtagRECT__PAUCCreateContext___Z @3123
    ?Create@CMFCPropertyGridCtrl@@UAAHKABUtagRECT@@PAVCWnd@@I@Z=stub__Create_CMFCPropertyGridCtrl__UAAHKABUtagRECT__PAVCWnd__I_Z @3124
    ?Create@CMFCPropertyGridToolTipCtrl@@UAAHPAVCWnd@@@Z=stub__Create_CMFCPropertyGridToolTipCtrl__UAAHPAVCWnd___Z @3125
    ?Create@CMFCReBar@@QAAHPAVCWnd@@KKI@Z=stub__Create_CMFCReBar__QAAHPAVCWnd__KKI_Z @3126
    ?Create@CMFCRibbonBar@@QAAHPAVCWnd@@KI@Z=stub__Create_CMFCRibbonBar__QAAHPAVCWnd__KI_Z @3127
    ?Create@CMFCRibbonStatusBar@@QAAHPAVCWnd@@KI@Z=stub__Create_CMFCRibbonStatusBar__QAAHPAVCWnd__KI_Z @3128
    ?Create@CMFCShadowRenderer@@MAAHABVCMFCControlRendererInfo@@H@Z=stub__Create_CMFCShadowRenderer__MAAHABVCMFCControlRendererInfo__H_Z @3129
    ?Create@CMFCShadowRenderer@@UAAHHKHH@Z=stub__Create_CMFCShadowRenderer__UAAHHKHH_Z @3130
    ?Create@CMFCShadowWnd@@UAAHXZ=stub__Create_CMFCShadowWnd__UAAHXZ @3131
    ?Create@CMFCStatusBar@@QAAHPAVCWnd@@KI@Z=stub__Create_CMFCStatusBar__QAAHPAVCWnd__KI_Z @3132
    ?Create@CMFCTabCtrl@@QAAHW4Style@1@ABUtagRECT@@PAVCWnd@@IW4Location@CMFCBaseTabCtrl@@H@Z=stub__Create_CMFCTabCtrl__QAAHW4Style_1_ABUtagRECT__PAVCWnd__IW4Location_CMFCBaseTabCtrl__H_Z @3133
    ?Create@CMFCToolBar@@UAAHPAVCWnd@@KI@Z=stub__Create_CMFCToolBar__UAAHPAVCWnd__KI_Z @3134
    ?Create@CMFCToolBarsCustomizeDialog@@UAAHXZ=stub__Create_CMFCToolBarsCustomizeDialog__UAAHXZ @3135
    ?Create@CMFCZoomKernel@@QAAXJJJJW4XFilterType@1@@Z=stub__Create_CMFCZoomKernel__QAAXJJJJW4XFilterType_1__Z @3136
    ?Create@CMFCZoomKernel@@QAAXJJW4XFilterType@1@@Z=stub__Create_CMFCZoomKernel__QAAXJJW4XFilterType_1__Z @3137
    ?Create@CMiniDockFrameWnd@@UAAHPAVCWnd@@K@Z=stub__Create_CMiniDockFrameWnd__UAAHPAVCWnd__K_Z @3138
    ?Create@CMiniFrameWnd@@UAAHPB_W0KABUtagRECT@@PAVCWnd@@I@Z=stub__Create_CMiniFrameWnd__UAAHPB_W0KABUtagRECT__PAVCWnd__I_Z @3139
    ?Create@CMonthCalCtrl@@UAAHKABUtagPOINT@@PAVCWnd@@I@Z=stub__Create_CMonthCalCtrl__UAAHKABUtagPOINT__PAVCWnd__I_Z @3140
    ?Create@CMonthCalCtrl@@UAAHKABUtagRECT@@PAVCWnd@@I@Z=stub__Create_CMonthCalCtrl__UAAHKABUtagRECT__PAVCWnd__I_Z @3141
    ?Create@CNetAddressCtrl@@UAAHKABUtagRECT@@PAVCWnd@@I@Z=stub__Create_CNetAddressCtrl__UAAHKABUtagRECT__PAVCWnd__I_Z @3142
    ?Create@COleResizeBar@@UAAHPAVCWnd@@KI@Z=stub__Create_COleResizeBar__UAAHPAVCWnd__KI_Z @3143
    ?Create@COleSafeArray@@QAAXGKPAK@Z=stub__Create_COleSafeArray__QAAXGKPAK_Z @3144
    ?Create@COleSafeArray@@QAAXGKPAUtagSAFEARRAYBOUND@@@Z=stub__Create_COleSafeArray__QAAXGKPAUtagSAFEARRAYBOUND___Z @3145
    ?Create@CPagerCtrl@@UAAHKABUtagRECT@@PAVCWnd@@I@Z=stub__Create_CPagerCtrl__UAAHKABUtagRECT__PAVCWnd__I_Z @3146
    ?Create@CPane@@UAAHPB_WKABUtagRECT@@PAVCWnd@@IKPAUCCreateContext@@@Z=stub__Create_CPane__UAAHPB_WKABUtagRECT__PAVCWnd__IKPAUCCreateContext___Z @3147
    ?Create@CPaneContainerManager@@UAAHPAVCWnd@@PAVCPaneDivider@@PAUCRuntimeClass@@@Z=stub__Create_CPaneContainerManager__UAAHPAVCWnd__PAVCPaneDivider__PAUCRuntimeClass___Z @3148
    ?Create@CPaneDialog@@QAAHPB_WPAVCWnd@@H0IIKK@Z=stub__Create_CPaneDialog__QAAHPB_WPAVCWnd__H0IIKK_Z @3149
    ?Create@CPaneDialog@@QAAHPB_WPAVCWnd@@HIII@Z=stub__Create_CPaneDialog__QAAHPB_WPAVCWnd__HIII_Z @3150
    ?Create@CPaneDivider@@UAAHKABUtagRECT@@PAVCWnd@@IPAUCCreateContext@@@Z=stub__Create_CPaneDivider__UAAHKABUtagRECT__PAVCWnd__IPAUCCreateContext___Z @3151
    ?Create@CPaneFrameWnd@@UAAHPB_WKABUtagRECT@@PAVCWnd@@PAUCCreateContext@@@Z=stub__Create_CPaneFrameWnd__UAAHPB_WKABUtagRECT__PAVCWnd__PAUCCreateContext___Z @3152
    ?Create@CPlex@@SAPAU1@AAPAU1@II@Z=stub__Create_CPlex__SAPAU1_AAPAU1_II_Z @3153
    ?Create@CProgressCtrl@@UAAHKABUtagRECT@@PAVCWnd@@I@Z=stub__Create_CProgressCtrl__UAAHKABUtagRECT__PAVCWnd__I_Z @3154
    ?Create@CPropertySheet@@UAAHPAVCWnd@@KK@Z=stub__Create_CPropertySheet__UAAHPAVCWnd__KK_Z @3155
    ?Create@CReBar@@UAAHPAVCWnd@@KKI@Z=stub__Create_CReBar__UAAHPAVCWnd__KKI_Z @3156
    ?Create@CReBarCtrl@@QAAHKABUtagRECT@@PAVCWnd@@I@Z=stub__Create_CReBarCtrl__QAAHKABUtagRECT__PAVCWnd__I_Z @3157
    ?Create@CReflectorWnd@@QAAHABVCRect@@PAUHWND__@@@Z=stub__Create_CReflectorWnd__QAAHABVCRect__PAUHWND_____Z @3158
    ?Create@CRichEditCtrl@@QAAHKABUtagRECT@@PAVCWnd@@I@Z=stub__Create_CRichEditCtrl__QAAHKABUtagRECT__PAVCWnd__I_Z @3159
    ?Create@CScreenWnd@@UAAHPAVCMFCColorDialog@@@Z=stub__Create_CScreenWnd__UAAHPAVCMFCColorDialog___Z @3160
    ?Create@CScrollBar@@UAAHKABUtagRECT@@PAVCWnd@@I@Z=stub__Create_CScrollBar__UAAHKABUtagRECT__PAVCWnd__I_Z @3161
    ?Create@CSettingsStoreSP@@QAAAAVCSettingsStore@@HH@Z=stub__Create_CSettingsStoreSP__QAAAAVCSettingsStore__HH_Z @3162
    ?Create@CSliderCtrl@@UAAHKABUtagRECT@@PAVCWnd@@I@Z=stub__Create_CSliderCtrl__UAAHKABUtagRECT__PAVCWnd__I_Z @3163
    ?Create@CSmartDockingGroupGuide@@MAAXW4SDMarkerPlace@CSmartDockingStandaloneGuide@@PAVCSmartDockingGroupGuidesManager@@@Z=stub__Create_CSmartDockingGroupGuide__MAAXW4SDMarkerPlace_CSmartDockingStandaloneGuide__PAVCSmartDockingGroupGuidesManager___Z @3164
    ?Create@CSmartDockingGroupGuide@@UAAXW4SDMarkerPlace@CSmartDockingStandaloneGuide@@PAVCWnd@@@Z=stub__Create_CSmartDockingGroupGuide__UAAXW4SDMarkerPlace_CSmartDockingStandaloneGuide__PAVCWnd___Z @3165
    ?Create@CSmartDockingGroupGuidesManager@@UAAXPAVCWnd@@@Z=stub__Create_CSmartDockingGroupGuidesManager__UAAXPAVCWnd___Z @3166
    ?Create@CSmartDockingHighlighterWnd@@QAAXPAVCWnd@@@Z=stub__Create_CSmartDockingHighlighterWnd__QAAXPAVCWnd___Z @3167
    ?Create@CSmartDockingManager@@QAAXPAVCWnd@@PAUCRuntimeClass@@1@Z=stub__Create_CSmartDockingManager__QAAXPAVCWnd__PAUCRuntimeClass__1_Z @3168
    ?Create@CSmartDockingStandaloneGuide@@UAAXW4SDMarkerPlace@1@PAVCWnd@@@Z=stub__Create_CSmartDockingStandaloneGuide__UAAXW4SDMarkerPlace_1_PAVCWnd___Z @3169
    ?Create@CSmartDockingStandaloneGuideWnd@@QAAHPAUtagRECT@@PAUHBITMAP__@@PAUHRGN__@@PAVCWnd@@HH@Z=stub__Create_CSmartDockingStandaloneGuideWnd__QAAHPAUtagRECT__PAUHBITMAP____PAUHRGN____PAVCWnd__HH_Z @3170
    ?Create@CSpinButtonCtrl@@UAAHKABUtagRECT@@PAVCWnd@@I@Z=stub__Create_CSpinButtonCtrl__UAAHKABUtagRECT__PAVCWnd__I_Z @3171
    ?Create@CSplitButton@@UAAHPB_WKABUtagRECT@@PAVCWnd@@I@Z=stub__Create_CSplitButton__UAAHPB_WKABUtagRECT__PAVCWnd__I_Z @3172
    ?Create@CSplitterWnd@@UAAHPAVCWnd@@HHUtagSIZE@@PAUCCreateContext@@KI@Z=stub__Create_CSplitterWnd__UAAHPAVCWnd__HHUtagSIZE__PAUCCreateContext__KI_Z @3173
    ?Create@CStatic@@UAAHPB_WKABUtagRECT@@PAVCWnd@@I@Z=stub__Create_CStatic__UAAHPB_WKABUtagRECT__PAVCWnd__I_Z @3174
    ?Create@CStatusBar@@UAAHPAVCWnd@@KI@Z=stub__Create_CStatusBar__UAAHPAVCWnd__KI_Z @3175
    ?Create@CStatusBarCtrl@@QAAHKABUtagRECT@@PAVCWnd@@I@Z=stub__Create_CStatusBarCtrl__QAAHKABUtagRECT__PAVCWnd__I_Z @3176
    ?Create@CTabCtrl@@UAAHKABUtagRECT@@PAVCWnd@@I@Z=stub__Create_CTabCtrl__UAAHKABUtagRECT__PAVCWnd__I_Z @3177
    ?Create@CToolBar@@UAAHPAVCWnd@@KI@Z=stub__Create_CToolBar__UAAHPAVCWnd__KI_Z @3178
    ?Create@CToolBarCtrl@@QAAHKABUtagRECT@@PAVCWnd@@I@Z=stub__Create_CToolBarCtrl__QAAHKABUtagRECT__PAVCWnd__I_Z @3179
    ?Create@CToolTipCtrl@@UAAHPAVCWnd@@K@Z=stub__Create_CToolTipCtrl__UAAHPAVCWnd__K_Z @3180
    ?Create@CTreeCtrl@@QAAHKABUtagRECT@@PAVCWnd@@I@Z=stub__Create_CTreeCtrl__QAAHKABUtagRECT__PAVCWnd__I_Z @3181
    ?Create@CWnd@@UAAHPB_W0KABUtagRECT@@PAV1@IPAUCCreateContext@@@Z=stub__Create_CWnd__UAAHPB_W0KABUtagRECT__PAV1_IPAUCCreateContext___Z @3182
    ?CreateAccessibleProxy@CWnd@@UAAJIJPAJ@Z=stub__CreateAccessibleProxy_CWnd__UAAJIJPAJ_Z @3183
    ?CreateApplicationButton@CMFCRibbonConstructor@@MBAPAVCMFCRibbonApplicationButton@@AAVCMFCRibbonBar@@@Z=stub__CreateApplicationButton_CMFCRibbonConstructor__MBAPAVCMFCRibbonApplicationButton__AAVCMFCRibbonBar___Z @3184
    ?CreateAutoHideButtonRegion@CMFCVisualManagerVS2005@@IAAHVCRect@@KAAPAUtagPOINT@@@Z=stub__CreateAutoHideButtonRegion_CMFCVisualManagerVS2005__IAAHVCRect__KAAPAUtagPOINT___Z @3185
    ?CreateBindContext@CMonikerFile@@IAAPAUIBindCtx@@PAVCFileException@@@Z=stub__CreateBindContext_CMonikerFile__IAAPAUIBindCtx__PAVCFileException___Z @3186
    ?CreateBindHost@CMonikerFile@@KAPAUIBindHost@@XZ=stub__CreateBindHost_CMonikerFile__KAPAUIBindHost__XZ @3187
    ?CreateBindStatusCallback@CAsyncMonikerFile@@MAAPAUIUnknown@@PAU2@@Z=stub__CreateBindStatusCallback_CAsyncMonikerFile__MAAPAUIUnknown__PAU2__Z @3188
    ?CreateBitmap_32@CDrawingManager@@SAPAUHBITMAP__@@ABVCSize@@PAPAX@Z=stub__CreateBitmap_32_CDrawingManager__SAPAUHBITMAP____ABVCSize__PAPAX_Z @3189
    ?CreateBitmap_32@CDrawingManager@@SAPAUHBITMAP__@@PAU2@K@Z=stub__CreateBitmap_32_CDrawingManager__SAPAUHBITMAP____PAU2_K_Z @3190
    ?CreateBoldFont@CMFCPropertyGridCtrl@@IAAXXZ=stub__CreateBoldFont_CMFCPropertyGridCtrl__IAAXXZ @3191
    ?CreateCategory@CMFCRibbonConstructor@@MBAPAVCMFCRibbonCategory@@AAVCMFCRibbonBar@@ABVXCategory@CMFCRibbonInfo@@@Z=stub__CreateCategory_CMFCRibbonConstructor__MBAPAVCMFCRibbonCategory__AAVCMFCRibbonBar__ABVXCategory_CMFCRibbonInfo___Z @3192
    ?CreateCategoryContext@CMFCRibbonConstructor@@MBAPAVCMFCRibbonCategory@@AAVCMFCRibbonBar@@ABVXContext@CMFCRibbonInfo@@ABVXCategory@5@@Z=stub__CreateCategoryContext_CMFCRibbonConstructor__MBAPAVCMFCRibbonCategory__AAVCMFCRibbonBar__ABVXContext_CMFCRibbonInfo__ABVXCategory_5__Z @3193
    ?CreateCategoryMain@CMFCRibbonConstructor@@MBAPAVCMFCRibbonMainPanel@@AAVCMFCRibbonBar@@ABVXCategoryMain@CMFCRibbonInfo@@@Z=stub__CreateCategoryMain_CMFCRibbonConstructor__MBAPAVCMFCRibbonMainPanel__AAVCMFCRibbonBar__ABVXCategoryMain_CMFCRibbonInfo___Z @3194
    ?CreateClient@CMDIFrameWnd@@UAAHPAUtagCREATESTRUCTW@@PAVCMenu@@@Z=stub__CreateClient_CMDIFrameWnd__UAAHPAUtagCREATESTRUCTW__PAVCMenu___Z @3195
    ?CreateClientItem@CRichEditDoc@@UBAPAVCRichEditCntrItem@@PAU_reobject@@@Z=stub__CreateClientItem_CRichEditDoc__UBAPAVCRichEditCntrItem__PAU_reobject___Z @3196
    ?CreateCloneFrom@COleClientItem@@QAAHPBV1@@Z=stub__CreateCloneFrom_COleClientItem__QAAHPBV1__Z @3197
    ?CreateCombo@CMFCPropertyGridProperty@@MAAPAVCComboBox@@PAVCWnd@@VCRect@@@Z=stub__CreateCombo_CMFCPropertyGridProperty__MAAPAVCComboBox__PAVCWnd__VCRect___Z @3198
    ?CreateCombo@CMFCToolBarComboBoxButton@@UAAPAVCComboBox@@PAVCWnd@@ABVCRect@@@Z=stub__CreateCombo_CMFCToolBarComboBoxButton__UAAPAVCComboBox__PAVCWnd__ABVCRect___Z @3199
    ?CreateCombo@CMFCToolBarFontComboBox@@MAAPAVCComboBox@@PAVCWnd@@ABVCRect@@@Z=stub__CreateCombo_CMFCToolBarFontComboBox__MAAPAVCComboBox__PAVCWnd__ABVCRect___Z @3200
    ?CreateCombo@CMFCToolBarFontSizeComboBox@@MAAPAVCComboBox@@PAVCWnd@@ABVCRect@@@Z=stub__CreateCombo_CMFCToolBarFontSizeComboBox__MAAPAVCComboBox__PAVCWnd__ABVCRect___Z @3201
    ?CreateCommon@CSplitterWnd@@IAAHPAVCWnd@@UtagSIZE@@KI@Z=stub__CreateCommon_CSplitterWnd__IAAHPAVCWnd__UtagSIZE__KI_Z @3202
    ?CreateCompatibleRenderTarget@CRenderTarget@@QAAHAAVCBitmapRenderTarget@@VCD2DSizeF@@VCD2DSizeU@@PAUD2D1_PIXEL_FORMAT@@W4D2D1_COMPATIBLE_RENDER_TARGET_OPTIONS@@@Z=stub__CreateCompatibleRenderTarget_CRenderTarget__QAAHAAVCBitmapRenderTarget__VCD2DSizeF__VCD2DSizeU__PAUD2D1_PIXEL_FORMAT__W4D2D1_COMPATIBLE_RENDER_TARGET_OPTIONS___Z @3203
    ?CreateConnectionArray@CConnectionPoint@@QAAXXZ=stub__CreateConnectionArray_CConnectionPoint__QAAXXZ @3204
    ?CreateContainer@COccManager@@UAAPAVCOleControlContainer@@PAVCWnd@@@Z=stub__CreateContainer_COccManager__UAAPAVCOleControlContainer__PAVCWnd___Z @3205
    ?CreateControl@CMFCColorBar@@UAAHPAVCWnd@@ABVCRect@@IHPAVCPalette@@@Z=stub__CreateControl_CMFCColorBar__UAAHPAVCWnd__ABVCRect__IHPAVCPalette___Z @3206
    ?CreateControl@COleControlContainer@@QAAHPAVCWnd@@ABU_GUID@@PB_WKABUtagRECT@@IPAVCFile@@HPA_WPAPAVCOleControlSite@@@Z=stub__CreateControl_COleControlContainer__QAAHPAVCWnd__ABU_GUID__PB_WKABUtagRECT__IPAVCFile__HPA_WPAPAVCOleControlSite___Z @3207
    ?CreateControl@COleControlContainer@@QAAHPAVCWnd@@ABU_GUID@@PB_WKPBUtagPOINT@@PBUtagSIZE@@IPAVCFile@@HPA_WPAPAVCOleControlSite@@@Z=stub__CreateControl_COleControlContainer__QAAHPAVCWnd__ABU_GUID__PB_WKPBUtagPOINT__PBUtagSIZE__IPAVCFile__HPA_WPAPAVCOleControlSite___Z @3208
    ?CreateControl@COleControlContainer@@QAAHPAVCWnd@@ABVCControlCreationInfo@@KPBUtagPOINT@@PBUtagSIZE@@I@Z=stub__CreateControl_COleControlContainer__QAAHPAVCWnd__ABVCControlCreationInfo__KPBUtagPOINT__PBUtagSIZE__I_Z @3209
    ?CreateControl@COleControlSite@@QAAJPAVCWnd@@ABVCControlCreationInfo@@KPBUtagPOINT@@PBUtagSIZE@@I@Z=stub__CreateControl_COleControlSite__QAAJPAVCWnd__ABVCControlCreationInfo__KPBUtagPOINT__PBUtagSIZE__I_Z @3210
    ?CreateControl@COleControlSite@@UAAJPAVCWnd@@ABU_GUID@@PB_WKABUtagRECT@@IPAVCFile@@HPA_W@Z=stub__CreateControl_COleControlSite__UAAJPAVCWnd__ABU_GUID__PB_WKABUtagRECT__IPAVCFile__HPA_W_Z @3211
    ?CreateControl@COleControlSite@@UAAJPAVCWnd@@ABU_GUID@@PB_WKPBUtagPOINT@@PBUtagSIZE@@IPAVCFile@@HPA_W@Z=stub__CreateControl_COleControlSite__UAAJPAVCWnd__ABU_GUID__PB_WKPBUtagPOINT__PBUtagSIZE__IPAVCFile__HPA_W_Z @3212
    ?CreateControl@CWnd@@QAAHABU_GUID@@PB_WKABUtagRECT@@PAV1@IPAVCFile@@HPA_W@Z=stub__CreateControl_CWnd__QAAHABU_GUID__PB_WKABUtagRECT__PAV1_IPAVCFile__HPA_W_Z @3213
    ?CreateControl@CWnd@@QAAHABU_GUID@@PB_WKPBUtagPOINT@@PBUtagSIZE@@PAV1@IPAVCFile@@HPA_W@Z=stub__CreateControl_CWnd__QAAHABU_GUID__PB_WKPBUtagPOINT__PBUtagSIZE__PAV1_IPAVCFile__HPA_W_Z @3214
    ?CreateControl@CWnd@@QAAHABVCControlCreationInfo@@KPBUtagPOINT@@PBUtagSIZE@@PAV1@I@Z=stub__CreateControl_CWnd__QAAHABVCControlCreationInfo__KPBUtagPOINT__PBUtagSIZE__PAV1_I_Z @3215
    ?CreateControl@CWnd@@QAAHPB_W0KABUtagRECT@@PAV1@IPAVCFile@@HPA_W@Z=stub__CreateControl_CWnd__QAAHPB_W0KABUtagRECT__PAV1_IPAVCFile__HPA_W_Z @3216
    ?CreateControlCommon@COleControlContainer@@QAAHPAVCWnd@@ABU_GUID@@ABVCControlCreationInfo@@PB_WKPBUtagPOINT@@PBUtagSIZE@@IPAVCFile@@HPA_WPAPAVCOleControlSite@@@Z=stub__CreateControlCommon_COleControlContainer__QAAHPAVCWnd__ABU_GUID__ABVCControlCreationInfo__PB_WKPBUtagPOINT__PBUtagSIZE__IPAVCFile__HPA_WPAPAVCOleControlSite___Z @3217
    ?CreateControlCommon@COleControlSite@@MAAJPAVCWnd@@ABU_GUID@@ABVCControlCreationInfo@@PB_WKPBUtagPOINT@@PBUtagSIZE@@IPAVCFile@@HPA_W@Z=stub__CreateControlCommon_COleControlSite__MAAJPAVCWnd__ABU_GUID__ABVCControlCreationInfo__PB_WKPBUtagPOINT__PBUtagSIZE__IPAVCFile__HPA_W_Z @3218
    ?CreateControlContainer@CWnd@@MAAHPAPAVCOleControlContainer@@@Z=stub__CreateControlContainer_CWnd__MAAHPAPAVCOleControlContainer___Z @3219
    ?CreateControlSite@CDHtmlDialog@@UAAHPAVCOleControlContainer@@PAPAVCOleControlSite@@IABU_GUID@@@Z=stub__CreateControlSite_CDHtmlDialog__UAAHPAVCOleControlContainer__PAPAVCOleControlSite__IABU_GUID___Z @3220
    ?CreateControlSite@CHtmlView@@UAAHPAVCOleControlContainer@@PAPAVCOleControlSite@@IABU_GUID@@@Z=stub__CreateControlSite_CHtmlView__UAAHPAVCOleControlContainer__PAPAVCOleControlSite__IABU_GUID___Z @3221
    ?CreateControlSite@CWnd@@MAAHPAVCOleControlContainer@@PAPAVCOleControlSite@@IABU_GUID@@@Z=stub__CreateControlSite_CWnd__MAAHPAVCOleControlContainer__PAPAVCOleControlSite__IABU_GUID___Z @3222
    ?CreateControlWindow@COleControl@@MAAHPAUHWND__@@ABVCRect@@PBUtagRECT@@@Z=stub__CreateControlWindow_COleControl__MAAHPAUHWND____ABVCRect__PBUtagRECT___Z @3223
    ?CreateCopy@CMenuImages@@KAXAAVCMFCToolBarImages@@K@Z=stub__CreateCopy_CMenuImages__KAXAAVCMFCToolBarImages__K_Z @3224
    ?CreateCustomPage@CMFCOutlookBar@@QAAPAVCMFCOutlookBarPane@@PB_WHKH@Z=stub__CreateCustomPage_CMFCOutlookBar__QAAPAVCMFCOutlookBarPane__PB_WHKH_Z @3225
    ?CreateDateTimeCtrl@CMFCToolBarDateTimeCtrl@@MAAPAVCMFCToolBarDateTimeCtrlImpl@@PAVCWnd@@ABVCRect@@@Z=stub__CreateDateTimeCtrl_CMFCToolBarDateTimeCtrl__MAAPAVCMFCToolBarDateTimeCtrlImpl__PAVCWnd__ABVCRect___Z @3226
    ?CreateDefaultMiniframe@CMFCTasksPane@@UAAPAVCPaneFrameWnd@@VCRect@@@Z=stub__CreateDefaultMiniframe_CMFCTasksPane__UAAPAVCPaneFrameWnd__VCRect___Z @3227
    ?CreateDefaultMiniframe@CPane@@UAAPAVCPaneFrameWnd@@VCRect@@@Z=stub__CreateDefaultMiniframe_CPane__UAAPAVCPaneFrameWnd__VCRect___Z @3228
    ?CreateDefaultPaneDivider@CDockablePane@@SAPAVCPaneDivider@@KPAVCWnd@@PAUCRuntimeClass@@@Z=stub__CreateDefaultPaneDivider_CDockablePane__SAPAVCPaneDivider__KPAVCWnd__PAUCRuntimeClass___Z @3229
    ?CreateDIBPatternBrush@CBrush@@QAAHPAXI@Z=stub__CreateDIBPatternBrush_CBrush__QAAHPAXI_Z @3230
    ?CreateDirectoryW@CFtpConnection@@QAAHPB_W@Z=stub__CreateDirectoryW_CFtpConnection__QAAHPB_W_Z @3231
    ?CreateDispatch@COleDispatchDriver@@QAAHABU_GUID@@PAVCOleException@@@Z=stub__CreateDispatch_COleDispatchDriver__QAAHABU_GUID__PAVCOleException___Z @3232
    ?CreateDispatch@COleDispatchDriver@@QAAHPB_WPAVCOleException@@@Z=stub__CreateDispatch_COleDispatchDriver__QAAHPB_WPAVCOleException___Z @3233
    ?CreateDitherBitmap@AFX_GLOBAL_DATA@@IAAPAUHBITMAP__@@PAUHDC__@@@Z=stub__CreateDitherBitmap_AFX_GLOBAL_DATA__IAAPAUHBITMAP____PAUHDC_____Z @3234
    ?CreateDlg@CWnd@@IAAHPB_WPAV1@@Z=stub__CreateDlg_CWnd__IAAHPB_WPAV1__Z @3235
    ?CreateDlgControl@CMFCControlContainer@@IAAPAVCWnd@@PB_W@Z=stub__CreateDlgControl_CMFCControlContainer__IAAPAVCWnd__PB_W_Z @3236
    ?CreateDlgControl@COccManager@@IAAHPAVCWnd@@PAUHWND__@@HPAUDLGITEMTEMPLATE@@GPAEKPAPAU3@@Z=stub__CreateDlgControl_COccManager__IAAHPAVCWnd__PAUHWND____HPAUDLGITEMTEMPLATE__GPAEKPAPAU3__Z @3237
    ?CreateDlgControls@COccManager@@UAAHPAVCWnd@@PAXPAU_AFX_OCC_DIALOG_INFO@@@Z=stub__CreateDlgControls_COccManager__UAAHPAVCWnd__PAXPAU_AFX_OCC_DIALOG_INFO___Z @3238
    ?CreateDlgControls@COccManager@@UAAHPAVCWnd@@PB_WPAU_AFX_OCC_DIALOG_INFO@@@Z=stub__CreateDlgControls_COccManager__UAAHPAVCWnd__PB_WPAU_AFX_OCC_DIALOG_INFO___Z @3239
    ?CreateDlgIndirect@CWnd@@IAAHPBUDLGTEMPLATE@@PAV1@PAUHINSTANCE__@@@Z=stub__CreateDlgIndirect_CWnd__IAAHPBUDLGTEMPLATE__PAV1_PAUHINSTANCE_____Z @3240
    ?CreateDocumentInfo@CDataRecoveryHandler@@UAAHPAVCDocument@@@Z=stub__CreateDocumentInfo_CDataRecoveryHandler__UAAHPAVCDocument___Z @3241
    ?CreateDocumentWindow@CMDIFrameWndEx@@UAAPAVCMDIChildWndEx@@PB_WPAVCObject@@@Z=stub__CreateDocumentWindow_CMDIFrameWndEx__UAAPAVCMDIChildWndEx__PB_WPAVCObject___Z @3242
    ?CreateDragImage@CListCtrl@@QAAPAVCImageList@@HPAUtagPOINT@@@Z=stub__CreateDragImage_CListCtrl__QAAPAVCImageList__HPAUtagPOINT___Z @3243
    ?CreateDragImage@CTreeCtrl@@QAAPAVCImageList@@PAU_TREEITEM@@@Z=stub__CreateDragImage_CTreeCtrl__QAAPAVCImageList__PAU_TREEITEM___Z @3244
    ?CreateDroppedButton@CMFCOutlookBarPane@@MAAPAVCMFCToolBarButton@@PAVCOleDataObject@@@Z=stub__CreateDroppedButton_CMFCOutlookBarPane__MAAPAVCMFCToolBarButton__PAVCOleDataObject___Z @3245
    ?CreateDroppedButton@CMFCPopupMenuBar@@MAAPAVCMFCToolBarButton@@PAVCOleDataObject@@@Z=stub__CreateDroppedButton_CMFCPopupMenuBar__MAAPAVCMFCToolBarButton__PAVCOleDataObject___Z @3246
    ?CreateDroppedButton@CMFCToolBar@@MAAPAVCMFCToolBarButton@@PAVCOleDataObject@@@Z=stub__CreateDroppedButton_CMFCToolBar__MAAPAVCMFCToolBarButton__PAVCOleDataObject___Z @3247
    ?CreateEdit@CMFCRibbonEdit@@UAAPAVCMFCRibbonRichEditCtrl@@PAVCWnd@@K@Z=stub__CreateEdit_CMFCRibbonEdit__UAAPAVCMFCRibbonRichEditCtrl__PAVCWnd__K_Z @3248
    ?CreateEdit@CMFCToolBarComboBoxButton@@UAAPAVCMFCToolBarComboBoxEdit@@PAVCWnd@@ABVCRect@@K@Z=stub__CreateEdit_CMFCToolBarComboBoxButton__UAAPAVCMFCToolBarComboBoxEdit__PAVCWnd__ABVCRect__K_Z @3249
    ?CreateEdit@CMFCToolBarEditBoxButton@@UAAPAVCEdit@@PAVCWnd@@ABVCRect@@@Z=stub__CreateEdit_CMFCToolBarEditBoxButton__UAAPAVCEdit__PAVCWnd__ABVCRect___Z @3250
    ?CreateEdit@CMFCToolBarSpinEditBoxButton@@MAAPAVCEdit@@PAVCWnd@@ABVCRect@@@Z=stub__CreateEdit_CMFCToolBarSpinEditBoxButton__MAAPAVCEdit__PAVCWnd__ABVCRect___Z @3251
    ?CreateElement@CMFCRibbonConstructor@@MBAPAVCMFCRibbonBaseElement@@ABVXElement@CMFCRibbonInfo@@@Z=stub__CreateElement_CMFCRibbonConstructor__MBAPAVCMFCRibbonBaseElement__ABVXElement_CMFCRibbonInfo___Z @3252
    ?CreateEmpty@CPictureHolder@@QAAHXZ=stub__CreateEmpty_CPictureHolder__QAAHXZ @3253
    ?CreateEx@CAnimateCtrl@@UAAHKKABUtagRECT@@PAVCWnd@@I@Z=stub__CreateEx_CAnimateCtrl__UAAHKKABUtagRECT__PAVCWnd__I_Z @3254
    ?CreateEx@CBasePane@@UAAHKPB_W0KABUtagRECT@@PAVCWnd@@IKPAUCCreateContext@@@Z=stub__CreateEx_CBasePane__UAAHKPB_W0KABUtagRECT__PAVCWnd__IKPAUCCreateContext___Z @3255
    ?CreateEx@CComboBoxEx@@UAAHKKABUtagRECT@@PAVCWnd@@I@Z=stub__CreateEx_CComboBoxEx__UAAHKKABUtagRECT__PAVCWnd__I_Z @3256
    ?CreateEx@CDockablePane@@UAAHKPB_WPAVCWnd@@ABUtagRECT@@HIKKKPAUCCreateContext@@@Z=stub__CreateEx_CDockablePane__UAAHKPB_WPAVCWnd__ABUtagRECT__HIKKKPAUCCreateContext___Z @3257
    ?CreateEx@CDockSite@@UAAHKKABUtagRECT@@PAVCWnd@@KPAUCCreateContext@@@Z=stub__CreateEx_CDockSite__UAAHKKABUtagRECT__PAVCWnd__KPAUCCreateContext___Z @3258
    ?CreateEx@CHeaderCtrl@@UAAHKKABUtagRECT@@PAVCWnd@@I@Z=stub__CreateEx_CHeaderCtrl__UAAHKKABUtagRECT__PAVCWnd__I_Z @3259
    ?CreateEx@CHotKeyCtrl@@UAAHKKABUtagRECT@@PAVCWnd@@I@Z=stub__CreateEx_CHotKeyCtrl__UAAHKKABUtagRECT__PAVCWnd__I_Z @3260
    ?CreateEx@CIPAddressCtrl@@UAAHKKABUtagRECT@@PAVCWnd@@I@Z=stub__CreateEx_CIPAddressCtrl__UAAHKKABUtagRECT__PAVCWnd__I_Z @3261
    ?CreateEx@CLinkCtrl@@UAAHKKABUtagRECT@@PAVCWnd@@I@Z=stub__CreateEx_CLinkCtrl__UAAHKKABUtagRECT__PAVCWnd__I_Z @3262
    ?CreateEx@CLinkCtrl@@UAAHPB_WKKABUtagRECT@@PAVCWnd@@I@Z=stub__CreateEx_CLinkCtrl__UAAHPB_WKKABUtagRECT__PAVCWnd__I_Z @3263
    ?CreateEx@CListCtrl@@QAAHKKABUtagRECT@@PAVCWnd@@I@Z=stub__CreateEx_CListCtrl__QAAHKKABUtagRECT__PAVCWnd__I_Z @3264
    ?CreateEx@CMFCMenuBar@@UAAHPAVCWnd@@KKVCRect@@I@Z=stub__CreateEx_CMFCMenuBar__UAAHPAVCWnd__KKVCRect__I_Z @3265
    ?CreateEx@CMFCRibbonBar@@QAAHPAVCWnd@@KKI@Z=stub__CreateEx_CMFCRibbonBar__QAAHPAVCWnd__KKI_Z @3266
    ?CreateEx@CMFCRibbonStatusBar@@QAAHPAVCWnd@@KKI@Z=stub__CreateEx_CMFCRibbonStatusBar__QAAHPAVCWnd__KKI_Z @3267
    ?CreateEx@CMFCStatusBar@@QAAHPAVCWnd@@KKI@Z=stub__CreateEx_CMFCStatusBar__QAAHPAVCWnd__KKI_Z @3268
    ?CreateEx@CMFCToolBar@@UAAHPAVCWnd@@KKVCRect@@I@Z=stub__CreateEx_CMFCToolBar__UAAHPAVCWnd__KKVCRect__I_Z @3269
    ?CreateEx@CMiniFrameWnd@@UAAHKPB_W0KABUtagRECT@@PAVCWnd@@I@Z=stub__CreateEx_CMiniFrameWnd__UAAHKPB_W0KABUtagRECT__PAVCWnd__I_Z @3270
    ?CreateEx@CNetAddressCtrl@@UAAHKKABUtagRECT@@PAVCWnd@@I@Z=stub__CreateEx_CNetAddressCtrl__UAAHKKABUtagRECT__PAVCWnd__I_Z @3271
    ?CreateEx@CPagerCtrl@@UAAHKKABUtagRECT@@PAVCWnd@@I@Z=stub__CreateEx_CPagerCtrl__UAAHKKABUtagRECT__PAVCWnd__I_Z @3272
    ?CreateEx@CPane@@UAAHKPB_WKABUtagRECT@@PAVCWnd@@IKPAUCCreateContext@@@Z=stub__CreateEx_CPane__UAAHKPB_WKABUtagRECT__PAVCWnd__IKPAUCCreateContext___Z @3273
    ?CreateEx@CPaneDivider@@UAAHKKABUtagRECT@@PAVCWnd@@IPAUCCreateContext@@@Z=stub__CreateEx_CPaneDivider__UAAHKKABUtagRECT__PAVCWnd__IPAUCCreateContext___Z @3274
    ?CreateEx@CPaneFrameWnd@@UAAHKPB_WKABUtagRECT@@PAVCWnd@@PAUCCreateContext@@@Z=stub__CreateEx_CPaneFrameWnd__UAAHKPB_WKABUtagRECT__PAVCWnd__PAUCCreateContext___Z @3275
    ?CreateEx@CProgressCtrl@@UAAHKKABUtagRECT@@PAVCWnd@@I@Z=stub__CreateEx_CProgressCtrl__UAAHKKABUtagRECT__PAVCWnd__I_Z @3276
    ?CreateEx@CReBarCtrl@@QAAHKKABUtagRECT@@PAVCWnd@@I@Z=stub__CreateEx_CReBarCtrl__QAAHKKABUtagRECT__PAVCWnd__I_Z @3277
    ?CreateEx@CRichEditCtrl@@QAAHKKABUtagRECT@@PAVCWnd@@I@Z=stub__CreateEx_CRichEditCtrl__QAAHKKABUtagRECT__PAVCWnd__I_Z @3278
    ?CreateEx@CSliderCtrl@@UAAHKKABUtagRECT@@PAVCWnd@@I@Z=stub__CreateEx_CSliderCtrl__UAAHKKABUtagRECT__PAVCWnd__I_Z @3279
    ?CreateEx@CSpinButtonCtrl@@UAAHKKABUtagRECT@@PAVCWnd@@I@Z=stub__CreateEx_CSpinButtonCtrl__UAAHKKABUtagRECT__PAVCWnd__I_Z @3280
    ?CreateEx@CStatusBar@@UAAHPAVCWnd@@KKI@Z=stub__CreateEx_CStatusBar__UAAHPAVCWnd__KKI_Z @3281
    ?CreateEx@CStatusBarCtrl@@QAAHKKABUtagRECT@@PAVCWnd@@I@Z=stub__CreateEx_CStatusBarCtrl__QAAHKKABUtagRECT__PAVCWnd__I_Z @3282
    ?CreateEx@CTabCtrl@@UAAHKKABUtagRECT@@PAVCWnd@@I@Z=stub__CreateEx_CTabCtrl__UAAHKKABUtagRECT__PAVCWnd__I_Z @3283
    ?CreateEx@CToolBar@@UAAHPAVCWnd@@KKVCRect@@I@Z=stub__CreateEx_CToolBar__UAAHPAVCWnd__KKVCRect__I_Z @3284
    ?CreateEx@CToolBarCtrl@@QAAHKKABUtagRECT@@PAVCWnd@@I@Z=stub__CreateEx_CToolBarCtrl__QAAHKKABUtagRECT__PAVCWnd__I_Z @3285
    ?CreateEx@CToolTipCtrl@@UAAHPAVCWnd@@KK@Z=stub__CreateEx_CToolTipCtrl__UAAHPAVCWnd__KK_Z @3286
    ?CreateEx@CTreeCtrl@@QAAHKKABUtagRECT@@PAVCWnd@@I@Z=stub__CreateEx_CTreeCtrl__QAAHKKABUtagRECT__PAVCWnd__I_Z @3287
    ?CreateEx@CWnd@@UAAHKPB_W0KABUtagRECT@@PAV1@IPAX@Z=stub__CreateEx_CWnd__UAAHKPB_W0KABUtagRECT__PAV1_IPAX_Z @3288
    ?CreateEx@CWnd@@UAAHKPB_W0KHHHHPAUHWND__@@PAUHMENU__@@PAX@Z=stub__CreateEx_CWnd__UAAHKPB_W0KHHHHPAUHWND____PAUHMENU____PAX_Z @3289
    ?CreateFloatingFrame@CFrameWnd@@QAAPAVCMiniDockFrameWnd@@K@Z=stub__CreateFloatingFrame_CFrameWnd__QAAPAVCMiniDockFrameWnd__K_Z @3290
    ?CreateFonts@CMFCTasksPane@@IAAXXZ=stub__CreateFonts_CMFCTasksPane__IAAXXZ @3291
    ?CreateFrameWindow@COleControl@@MAAPAVCControlFrameWnd@@XZ=stub__CreateFrameWindow_COleControl__MAAPAVCControlFrameWnd__XZ @3292
    ?CreateFromBitmap@CPictureHolder@@QAAHI@Z=stub__CreateFromBitmap_CPictureHolder__QAAHI_Z @3293
    ?CreateFromBitmap@CPictureHolder@@QAAHPAUHBITMAP__@@PAUHPALETTE__@@H@Z=stub__CreateFromBitmap_CPictureHolder__QAAHPAUHBITMAP____PAUHPALETTE____H_Z @3294
    ?CreateFromBitmap@CPictureHolder@@QAAHPAVCBitmap@@PAVCPalette@@H@Z=stub__CreateFromBitmap_CPictureHolder__QAAHPAVCBitmap__PAVCPalette__H_Z @3295
    ?CreateFromClipboard@COleClientItem@@QAAHW4tagOLERENDER@@GPAUtagFORMATETC@@@Z=stub__CreateFromClipboard_COleClientItem__QAAHW4tagOLERENDER__GPAUtagFORMATETC___Z @3296
    ?CreateFromData@COleClientItem@@QAAHPAVCOleDataObject@@W4tagOLERENDER@@GPAUtagFORMATETC@@@Z=stub__CreateFromData_COleClientItem__QAAHPAVCOleDataObject__W4tagOLERENDER__GPAUtagFORMATETC___Z @3297
    ?CreateFromFile@COleClientItem@@QAAHPB_WABU_GUID@@W4tagOLERENDER@@GPAUtagFORMATETC@@@Z=stub__CreateFromFile_COleClientItem__QAAHPB_WABU_GUID__W4tagOLERENDER__GPAUtagFORMATETC___Z @3298
    ?CreateFromIcon@CPictureHolder@@QAAHI@Z=stub__CreateFromIcon_CPictureHolder__QAAHI_Z @3299
    ?CreateFromIcon@CPictureHolder@@QAAHPAUHICON__@@H@Z=stub__CreateFromIcon_CPictureHolder__QAAHPAUHICON____H_Z @3300
    ?CreateFromImageList@CMFCToolBarImages@@QAAHABVCImageList@@@Z=stub__CreateFromImageList_CMFCToolBarImages__QAAHABVCImageList___Z @3301
    ?CreateFromMenu@CMFCMenuBar@@UAAXPAUHMENU__@@HH@Z=stub__CreateFromMenu_CMFCMenuBar__UAAXPAUHMENU____HH_Z @3302
    ?CreateFromMenu@CMFCToolBarMenuButton@@UAAXPAUHMENU__@@@Z=stub__CreateFromMenu_CMFCToolBarMenuButton__UAAXPAUHMENU_____Z @3303
    ?CreateFromMenu@CMFCToolBarSystemMenuButton@@UAAXPAUHMENU__@@@Z=stub__CreateFromMenu_CMFCToolBarSystemMenuButton__UAAXPAUHMENU_____Z @3304
    ?CreateFromMetafile@CPictureHolder@@QAAHPAUHMETAFILE__@@HHH@Z=stub__CreateFromMetafile_CPictureHolder__QAAHPAUHMETAFILE____HHH_Z @3305
    ?CreateFromOleData@CMFCToolBarButton@@SAPAV1@PAVCOleDataObject@@@Z=stub__CreateFromOleData_CMFCToolBarButton__SAPAV1_PAVCOleDataObject___Z @3306
    ?CreateFromParams@CMFCDesktopAlertDialog@@QAAHAAVCMFCDesktopAlertWndInfo@@PAVCMFCDesktopAlertWnd@@@Z=stub__CreateFromParams_CMFCDesktopAlertDialog__QAAHAAVCMFCDesktopAlertWndInfo__PAVCMFCDesktopAlertWnd___Z @3307
    ?CreateFromTag@XBase@CMFCRibbonInfo@@SAPAV12@AAVXRibbonInfoParser@2@@Z=stub__CreateFromTag_XBase_CMFCRibbonInfo__SAPAV12_AAVXRibbonInfoParser_2__Z @3308
    ?CreateFromType@XBase@CMFCRibbonInfo@@SAPAV12@W4XElementType@2@@Z=stub__CreateFromType_XBase_CMFCRibbonInfo__SAPAV12_W4XElementType_2__Z @3309
    ?CreateFromType@XElement@CMFCRibbonInfo@@SAPAV12@W4XElementType@2@@Z=stub__CreateFromType_XElement_CMFCRibbonInfo__SAPAV12_W4XElementType_2__Z @3310
    ?CreateGripperBrush@CMFCVisualManagerOfficeXP@@MAAXXZ=stub__CreateGripperBrush_CMFCVisualManagerOfficeXP__MAAXXZ @3311
    ?CreateHexagon@CMFCColorPickerCtrl@@IAAXXZ=stub__CreateHexagon_CMFCColorPickerCtrl__IAAXXZ @3312
    ?CreateHexGreyScaleBar@CMFCColorPickerCtrl@@IAAXXZ=stub__CreateHexGreyScaleBar_CMFCColorPickerCtrl__IAAXXZ @3313
    ?CreateIcons@CMFCRibbonGallery@@IAAXXZ=stub__CreateIcons_CMFCRibbonGallery__IAAXXZ @3314
    ?CreateIndirect@CDialog@@IAAHPAXPAVCWnd@@PAUHINSTANCE__@@@Z=stub__CreateIndirect_CDialog__IAAHPAXPAVCWnd__PAUHINSTANCE_____Z @3315
    ?CreateIndirect@CDialog@@IAAHPBUDLGTEMPLATE@@PAVCWnd@@PAXPAUHINSTANCE__@@@Z=stub__CreateIndirect_CDialog__IAAHPBUDLGTEMPLATE__PAVCWnd__PAXPAUHINSTANCE_____Z @3316
    ?CreateIndirect@CDialog@@UAAHPAXPAVCWnd@@@Z=stub__CreateIndirect_CDialog__UAAHPAXPAVCWnd___Z @3317
    ?CreateIndirect@CDialog@@UAAHPBUDLGTEMPLATE@@PAVCWnd@@PAX@Z=stub__CreateIndirect_CDialog__UAAHPBUDLGTEMPLATE__PAVCWnd__PAX_Z @3318
    ?CreateInPlaceEdit@CMFCPropertyGridProperty@@UAAPAVCWnd@@VCRect@@AAH@Z=stub__CreateInPlaceEdit_CMFCPropertyGridProperty__UAAPAVCWnd__VCRect__AAH_Z @3319
    ?CreateInPlaceFrame@COleServerDoc@@MAAPAVCOleIPFrameWnd@@PAVCWnd@@@Z=stub__CreateInPlaceFrame_COleServerDoc__MAAPAVCOleIPFrameWnd__PAVCWnd___Z @3320
    ?CreateInstance@AFX_COM@@QAAJABU_GUID@@PAUIUnknown@@0PAPAX@Z=stub__CreateInstance_AFX_COM__QAAJABU_GUID__PAUIUnknown__0PAPAX_Z @3321
    ?CreateInstance@XClassFactory@COleObjectFactory@@UAAJPAUIUnknown@@ABU_GUID@@PAPAX@Z=stub__CreateInstance_XClassFactory_COleObjectFactory__UAAJPAUIUnknown__ABU_GUID__PAPAX_Z @3322
    ?CreateInstanceLic@XClassFactory@COleObjectFactory@@UAAJPAUIUnknown@@0ABU_GUID@@PA_WPAPAX@Z=stub__CreateInstanceLic_XClassFactory_COleObjectFactory__UAAJPAUIUnknown__0ABU_GUID__PA_WPAPAX_Z @3323
    ?CreateItem@COleInsertDialog@@QAAHPAVCOleClientItem@@@Z=stub__CreateItem_COleInsertDialog__QAAHPAVCOleClientItem___Z @3324
    ?CreateItem@COlePasteSpecialDialog@@QAAHPAVCOleClientItem@@@Z=stub__CreateItem_COlePasteSpecialDialog__QAAHPAVCOleClientItem___Z @3325
    ?CreateItem@CShellManager@@QAAPFAU_ITEMIDLIST@@I@Z=stub__CreateItem_CShellManager__QAAPFAU_ITEMIDLIST__I_Z @3326
    ?CreateKey@CSettingsStore@@UAAHPB_W@Z=stub__CreateKey_CSettingsStore__UAAHPB_W_Z @3327
    ?CreateKeyframe@CAnimationController@@QAAPAVCKeyFrame@@IPAVCBaseKeyFrame@@N@Z=stub__CreateKeyframe_CAnimationController__QAAPAVCKeyFrame__IPAVCBaseKeyFrame__N_Z @3328
    ?CreateKeyframe@CAnimationController@@QAAPAVCKeyFrame@@IPAVCBaseTransition@@@Z=stub__CreateKeyframe_CAnimationController__QAAPAVCKeyFrame__IPAVCBaseTransition___Z @3329
    ?CreateLinkFromClipboard@COleClientItem@@QAAHW4tagOLERENDER@@GPAUtagFORMATETC@@@Z=stub__CreateLinkFromClipboard_COleClientItem__QAAHW4tagOLERENDER__GPAUtagFORMATETC___Z @3330
    ?CreateLinkFromData@COleClientItem@@QAAHPAVCOleDataObject@@W4tagOLERENDER@@GPAUtagFORMATETC@@@Z=stub__CreateLinkFromData_COleClientItem__QAAHPAVCOleDataObject__W4tagOLERENDER__GPAUtagFORMATETC___Z @3331
    ?CreateLinkFromFile@COleClientItem@@QAAHPB_WW4tagOLERENDER@@GPAUtagFORMATETC@@@Z=stub__CreateLinkFromFile_COleClientItem__QAAHPB_WW4tagOLERENDER__GPAUtagFORMATETC___Z @3332
    ?CreateLocator@CGopherConnection@@QAA?AVCGopherLocator@@PB_W0K@Z=stub__CreateLocator_CGopherConnection__QAA_AVCGopherLocator__PB_W0K_Z @3333
    ?CreateLocator@CGopherConnection@@SA?AVCGopherLocator@@PB_W@Z=stub__CreateLocator_CGopherConnection__SA_AVCGopherLocator__PB_W_Z @3334
    ?CreateLocator@CGopherConnection@@SA?AVCGopherLocator@@PB_W00KG@Z=stub__CreateLocator_CGopherConnection__SA_AVCGopherLocator__PB_W00KG_Z @3335
    ?CreateMask@CMFCToolBarImages@@IAAXHHH@Z=stub__CreateMask_CMFCToolBarImages__IAAXHHH_Z @3336
    ?CreateMemoryStream@COleStreamFile@@QAAHPAVCFileException@@@Z=stub__CreateMemoryStream_COleStreamFile__QAAHPAVCFileException___Z @3337
    ?CreateMenu@CMFCTasksPane@@QBAPAUHMENU__@@XZ=stub__CreateMenu_CMFCTasksPane__QBAPAUHMENU____XZ @3338
    ?CreateMenu@CMFCToolBarMenuButton@@UBAPAUHMENU__@@XZ=stub__CreateMenu_CMFCToolBarMenuButton__UBAPAUHMENU____XZ @3339
    ?CreateMenu@CMFCToolBarSystemMenuButton@@UBAPAUHMENU__@@XZ=stub__CreateMenu_CMFCToolBarSystemMenuButton__UBAPAUHMENU____XZ @3340
    ?CreateNavigationToolbar@CMFCTasksPane@@IAAHXZ=stub__CreateNavigationToolbar_CMFCTasksPane__IAAHXZ @3341
    ?CreateNewChild@CMDIFrameWnd@@QAAPAVCMDIChildWnd@@PAUCRuntimeClass@@IPAUHMENU__@@PAUHACCEL__@@@Z=stub__CreateNewChild_CMDIFrameWnd__QAAPAVCMDIChildWnd__PAUCRuntimeClass__IPAUHMENU____PAUHACCEL_____Z @3342
    ?CreateNewDocument@CDocTemplate@@UAAPAVCDocument@@XZ=stub__CreateNewDocument_CDocTemplate__UAAPAVCDocument__XZ @3343
    ?CreateNewFrame@CDocTemplate@@UAAPAVCFrameWnd@@PAVCDocument@@PAV2@@Z=stub__CreateNewFrame_CDocTemplate__UAAPAVCFrameWnd__PAVCDocument__PAV2__Z @3344
    ?CreateNewItem@COleClientItem@@QAAHABU_GUID@@W4tagOLERENDER@@GPAUtagFORMATETC@@@Z=stub__CreateNewItem_COleClientItem__QAAHABU_GUID__W4tagOLERENDER__GPAUtagFORMATETC___Z @3345
    ?CreateNewItem@CVSListBoxBase@@MAAXXZ=stub__CreateNewItem_CVSListBoxBase__MAAXXZ @3346
    ?CreateNewTabGroup@CMDIClientAreaWnd@@AAAPAVCMFCTabCtrl@@PAV2@VCRect@@H@Z=stub__CreateNewTabGroup_CMDIClientAreaWnd__AAAPAVCMFCTabCtrl__PAV2_VCRect__H_Z @3347
    ?CreateNewTool@CMFCToolBarsToolsPropertyPage@@IAAPAVCUserTool@@XZ=stub__CreateNewTool_CMFCToolBarsToolsPropertyPage__IAAPAVCUserTool__XZ @3348
    ?CreateNewTool@CUserToolsManager@@QAAPAVCUserTool@@XZ=stub__CreateNewTool_CUserToolsManager__QAAPAVCUserTool__XZ @3349
    ?CreateNewToolBar@CFrameImpl@@IAAPBVCMFCToolBar@@PB_W@Z=stub__CreateNewToolBar_CFrameImpl__IAAPBVCMFCToolBar__PB_W_Z @3350
    ?CreateNewWindow@CMDIFrameWndEx@@UAAPAVCMDIChildWndEx@@PB_WPAVCObject@@@Z=stub__CreateNewWindow_CMDIFrameWndEx__UAAPAVCMDIChildWndEx__PB_WPAVCObject___Z @3351
    ?CreateObject@CAnimationController@@SAPAVCObject@@XZ=stub__CreateObject_CAnimationController__SAPAVCObject__XZ @3352
    ?CreateObject@CAutoHideDockSite@@SAPAVCObject@@XZ=stub__CreateObject_CAutoHideDockSite__SAPAVCObject__XZ @3353
    ?CreateObject@CByteArray@@SAPAVCObject@@XZ=stub__CreateObject_CByteArray__SAPAVCObject__XZ @3354
    ?CreateObject@CDC@@SAPAVCObject@@XZ=stub__CreateObject_CDC__SAPAVCObject__XZ @3355
    ?CreateObject@CDocItem@@SAPAVCObject@@XZ=stub__CreateObject_CDocItem__SAPAVCObject__XZ @3356
    ?CreateObject@CDockablePane@@SAPAVCObject@@XZ=stub__CreateObject_CDockablePane__SAPAVCObject__XZ @3357
    ?CreateObject@CDockablePaneAdapter@@SAPAVCObject@@XZ=stub__CreateObject_CDockablePaneAdapter__SAPAVCObject__XZ @3358
    ?CreateObject@CDockSite@@SAPAVCObject@@XZ=stub__CreateObject_CDockSite__SAPAVCObject__XZ @3359
    ?CreateObject@CDockState@@SAPAVCObject@@XZ=stub__CreateObject_CDockState__SAPAVCObject__XZ @3360
    ?CreateObject@CDWordArray@@SAPAVCObject@@XZ=stub__CreateObject_CDWordArray__SAPAVCObject__XZ @3361
    ?CreateObject@CEditView@@SAPAVCObject@@XZ=stub__CreateObject_CEditView__SAPAVCObject__XZ @3362
    ?CreateObject@CFrameWnd@@SAPAVCObject@@XZ=stub__CreateObject_CFrameWnd__SAPAVCObject__XZ @3363
    ?CreateObject@CFrameWndEx@@SAPAVCObject@@XZ=stub__CreateObject_CFrameWndEx__SAPAVCObject__XZ @3364
    ?CreateObject@CGdiObject@@SAPAVCObject@@XZ=stub__CreateObject_CGdiObject__SAPAVCObject__XZ @3365
    ?CreateObject@CHelpComboBoxButton@@SAPAVCObject@@XZ=stub__CreateObject_CHelpComboBoxButton__SAPAVCObject__XZ @3366
    ?CreateObject@CHtmlEditView@@SAPAVCObject@@XZ=stub__CreateObject_CHtmlEditView__SAPAVCObject__XZ @3367
    ?CreateObject@CHtmlView@@SAPAVCObject@@XZ=stub__CreateObject_CHtmlView__SAPAVCObject__XZ @3368
    ?CreateObject@CImageList@@SAPAVCObject@@XZ=stub__CreateObject_CImageList__SAPAVCObject__XZ @3369
    ?CreateObject@CListView@@SAPAVCObject@@XZ=stub__CreateObject_CListView__SAPAVCObject__XZ @3370
    ?CreateObject@CMapStringToOb@@SAPAVCObject@@XZ=stub__CreateObject_CMapStringToOb__SAPAVCObject__XZ @3371
    ?CreateObject@CMapStringToString@@SAPAVCObject@@XZ=stub__CreateObject_CMapStringToString__SAPAVCObject__XZ @3372
    ?CreateObject@CMapWordToOb@@SAPAVCObject@@XZ=stub__CreateObject_CMapWordToOb__SAPAVCObject__XZ @3373
    ?CreateObject@CMDIChildWnd@@SAPAVCObject@@XZ=stub__CreateObject_CMDIChildWnd__SAPAVCObject__XZ @3374
    ?CreateObject@CMDIChildWndEx@@SAPAVCObject@@XZ=stub__CreateObject_CMDIChildWndEx__SAPAVCObject__XZ @3375
    ?CreateObject@CMDIFrameWnd@@SAPAVCObject@@XZ=stub__CreateObject_CMDIFrameWnd__SAPAVCObject__XZ @3376
    ?CreateObject@CMDIFrameWndEx@@SAPAVCObject@@XZ=stub__CreateObject_CMDIFrameWndEx__SAPAVCObject__XZ @3377
    ?CreateObject@CMDITabProxyWnd@@SAPAVCObject@@XZ=stub__CreateObject_CMDITabProxyWnd__SAPAVCObject__XZ @3378
    ?CreateObject@CMenu@@SAPAVCObject@@XZ=stub__CreateObject_CMenu__SAPAVCObject__XZ @3379
    ?CreateObject@CMFCAutoHideBar@@SAPAVCObject@@XZ=stub__CreateObject_CMFCAutoHideBar__SAPAVCObject__XZ @3380
    ?CreateObject@CMFCAutoHideButton@@SAPAVCObject@@XZ=stub__CreateObject_CMFCAutoHideButton__SAPAVCObject__XZ @3381
    ?CreateObject@CMFCBaseToolBar@@SAPAVCObject@@XZ=stub__CreateObject_CMFCBaseToolBar__SAPAVCObject__XZ @3382
    ?CreateObject@CMFCButton@@SAPAVCObject@@XZ=stub__CreateObject_CMFCButton__SAPAVCObject__XZ @3383
    ?CreateObject@CMFCCaptionBar@@SAPAVCObject@@XZ=stub__CreateObject_CMFCCaptionBar__SAPAVCObject__XZ @3384
    ?CreateObject@CMFCColorBar@@SAPAVCObject@@XZ=stub__CreateObject_CMFCColorBar__SAPAVCObject__XZ @3385
    ?CreateObject@CMFCColorMenuButton@@SAPAVCObject@@XZ=stub__CreateObject_CMFCColorMenuButton__SAPAVCObject__XZ @3386
    ?CreateObject@CMFCControlRenderer@@SAPAVCObject@@XZ=stub__CreateObject_CMFCControlRenderer__SAPAVCObject__XZ @3387
    ?CreateObject@CMFCCustomColorsPropertyPage@@SAPAVCObject@@XZ=stub__CreateObject_CMFCCustomColorsPropertyPage__SAPAVCObject__XZ @3388
    ?CreateObject@CMFCCustomizeButton@@SAPAVCObject@@XZ=stub__CreateObject_CMFCCustomizeButton__SAPAVCObject__XZ @3389
    ?CreateObject@CMFCCustomizeMenuButton@@SAPAVCObject@@XZ=stub__CreateObject_CMFCCustomizeMenuButton__SAPAVCObject__XZ @3390
    ?CreateObject@CMFCDesktopAlertDialog@@SAPAVCObject@@XZ=stub__CreateObject_CMFCDesktopAlertDialog__SAPAVCObject__XZ @3391
    ?CreateObject@CMFCDropDownFrame@@SAPAVCObject@@XZ=stub__CreateObject_CMFCDropDownFrame__SAPAVCObject__XZ @3392
    ?CreateObject@CMFCDropDownToolBar@@SAPAVCObject@@XZ=stub__CreateObject_CMFCDropDownToolBar__SAPAVCObject__XZ @3393
    ?CreateObject@CMFCDropDownToolbarButton@@SAPAVCObject@@XZ=stub__CreateObject_CMFCDropDownToolbarButton__SAPAVCObject__XZ @3394
    ?CreateObject@CMFCMenuBar@@SAPAVCObject@@XZ=stub__CreateObject_CMFCMenuBar__SAPAVCObject__XZ @3395
    ?CreateObject@CMFCMousePropertyPage@@SAPAVCObject@@XZ=stub__CreateObject_CMFCMousePropertyPage__SAPAVCObject__XZ @3396
    ?CreateObject@CMFCOutlookBar@@SAPAVCObject@@XZ=stub__CreateObject_CMFCOutlookBar__SAPAVCObject__XZ @3397
    ?CreateObject@CMFCOutlookBarPane@@SAPAVCObject@@XZ=stub__CreateObject_CMFCOutlookBarPane__SAPAVCObject__XZ @3398
    ?CreateObject@CMFCOutlookBarPaneAdapter@@SAPAVCObject@@XZ=stub__CreateObject_CMFCOutlookBarPaneAdapter__SAPAVCObject__XZ @3399
    ?CreateObject@CMFCOutlookBarPaneButton@@SAPAVCObject@@XZ=stub__CreateObject_CMFCOutlookBarPaneButton__SAPAVCObject__XZ @3400
    ?CreateObject@CMFCOutlookBarTabCtrl@@SAPAVCObject@@XZ=stub__CreateObject_CMFCOutlookBarTabCtrl__SAPAVCObject__XZ @3401
    ?CreateObject@CMFCPopupMenu@@SAPAVCObject@@XZ=stub__CreateObject_CMFCPopupMenu__SAPAVCObject__XZ @3402
    ?CreateObject@CMFCPopupMenuBar@@SAPAVCObject@@XZ=stub__CreateObject_CMFCPopupMenuBar__SAPAVCObject__XZ @3403
    ?CreateObject@CMFCPropertyPage@@SAPAVCObject@@XZ=stub__CreateObject_CMFCPropertyPage__SAPAVCObject__XZ @3404
    ?CreateObject@CMFCRibbonApplicationButton@@SAPAVCObject@@XZ=stub__CreateObject_CMFCRibbonApplicationButton__SAPAVCObject__XZ @3405
    ?CreateObject@CMFCRibbonButton@@SAPAVCObject@@XZ=stub__CreateObject_CMFCRibbonButton__SAPAVCObject__XZ @3406
    ?CreateObject@CMFCRibbonButtonsGroup@@SAPAVCObject@@XZ=stub__CreateObject_CMFCRibbonButtonsGroup__SAPAVCObject__XZ @3407
    ?CreateObject@CMFCRibbonCaptionButton@@SAPAVCObject@@XZ=stub__CreateObject_CMFCRibbonCaptionButton__SAPAVCObject__XZ @3408
    ?CreateObject@CMFCRibbonCategory@@SAPAVCObject@@XZ=stub__CreateObject_CMFCRibbonCategory__SAPAVCObject__XZ @3409
    ?CreateObject@CMFCRibbonCheckBox@@SAPAVCObject@@XZ=stub__CreateObject_CMFCRibbonCheckBox__SAPAVCObject__XZ @3410
    ?CreateObject@CMFCRibbonColorButton@@SAPAVCObject@@XZ=stub__CreateObject_CMFCRibbonColorButton__SAPAVCObject__XZ @3411
    ?CreateObject@CMFCRibbonColorMenuButton@@SAPAVCObject@@XZ=stub__CreateObject_CMFCRibbonColorMenuButton__SAPAVCObject__XZ @3412
    ?CreateObject@CMFCRibbonComboBox@@SAPAVCObject@@XZ=stub__CreateObject_CMFCRibbonComboBox__SAPAVCObject__XZ @3413
    ?CreateObject@CMFCRibbonContextCaption@@SAPAVCObject@@XZ=stub__CreateObject_CMFCRibbonContextCaption__SAPAVCObject__XZ @3414
    ?CreateObject@CMFCRibbonCustomizePropertyPage@@SAPAVCObject@@XZ=stub__CreateObject_CMFCRibbonCustomizePropertyPage__SAPAVCObject__XZ @3415
    ?CreateObject@CMFCRibbonDefaultPanelButton@@SAPAVCObject@@XZ=stub__CreateObject_CMFCRibbonDefaultPanelButton__SAPAVCObject__XZ @3416
    ?CreateObject@CMFCRibbonEdit@@SAPAVCObject@@XZ=stub__CreateObject_CMFCRibbonEdit__SAPAVCObject__XZ @3417
    ?CreateObject@CMFCRibbonFontComboBox@@SAPAVCObject@@XZ=stub__CreateObject_CMFCRibbonFontComboBox__SAPAVCObject__XZ @3418
    ?CreateObject@CMFCRibbonGallery@@SAPAVCObject@@XZ=stub__CreateObject_CMFCRibbonGallery__SAPAVCObject__XZ @3419
    ?CreateObject@CMFCRibbonGalleryIcon@@SAPAVCObject@@XZ=stub__CreateObject_CMFCRibbonGalleryIcon__SAPAVCObject__XZ @3420
    ?CreateObject@CMFCRibbonGalleryMenuButton@@SAPAVCObject@@XZ=stub__CreateObject_CMFCRibbonGalleryMenuButton__SAPAVCObject__XZ @3421
    ?CreateObject@CMFCRibbonLabel@@SAPAVCObject@@XZ=stub__CreateObject_CMFCRibbonLabel__SAPAVCObject__XZ @3422
    ?CreateObject@CMFCRibbonLaunchButton@@SAPAVCObject@@XZ=stub__CreateObject_CMFCRibbonLaunchButton__SAPAVCObject__XZ @3423
    ?CreateObject@CMFCRibbonLinkCtrl@@SAPAVCObject@@XZ=stub__CreateObject_CMFCRibbonLinkCtrl__SAPAVCObject__XZ @3424
    ?CreateObject@CMFCRibbonMainPanel@@SAPAVCObject@@XZ=stub__CreateObject_CMFCRibbonMainPanel__SAPAVCObject__XZ @3425
    ?CreateObject@CMFCRibbonMainPanelButton@@SAPAVCObject@@XZ=stub__CreateObject_CMFCRibbonMainPanelButton__SAPAVCObject__XZ @3426
    ?CreateObject@CMFCRibbonMiniToolBar@@SAPAVCObject@@XZ=stub__CreateObject_CMFCRibbonMiniToolBar__SAPAVCObject__XZ @3427
    ?CreateObject@CMFCRibbonPanel@@SAPAVCObject@@XZ=stub__CreateObject_CMFCRibbonPanel__SAPAVCObject__XZ @3428
    ?CreateObject@CMFCRibbonProgressBar@@SAPAVCObject@@XZ=stub__CreateObject_CMFCRibbonProgressBar__SAPAVCObject__XZ @3429
    ?CreateObject@CMFCRibbonQuickAccessCustomizeButton@@SAPAVCObject@@XZ=stub__CreateObject_CMFCRibbonQuickAccessCustomizeButton__SAPAVCObject__XZ @3430
    ?CreateObject@CMFCRibbonQuickAccessToolBar@@SAPAVCObject@@XZ=stub__CreateObject_CMFCRibbonQuickAccessToolBar__SAPAVCObject__XZ @3431
    ?CreateObject@CMFCRibbonRecentFilesList@@SAPAVCObject@@XZ=stub__CreateObject_CMFCRibbonRecentFilesList__SAPAVCObject__XZ @3432
    ?CreateObject@CMFCRibbonSeparator@@SAPAVCObject@@XZ=stub__CreateObject_CMFCRibbonSeparator__SAPAVCObject__XZ @3433
    ?CreateObject@CMFCRibbonSlider@@SAPAVCObject@@XZ=stub__CreateObject_CMFCRibbonSlider__SAPAVCObject__XZ @3434
    ?CreateObject@CMFCRibbonStatusBarCustomizeButton@@SAPAVCObject@@XZ=stub__CreateObject_CMFCRibbonStatusBarCustomizeButton__SAPAVCObject__XZ @3435
    ?CreateObject@CMFCRibbonStatusBarPane@@SAPAVCObject@@XZ=stub__CreateObject_CMFCRibbonStatusBarPane__SAPAVCObject__XZ @3436
    ?CreateObject@CMFCRibbonTabsGroup@@SAPAVCObject@@XZ=stub__CreateObject_CMFCRibbonTabsGroup__SAPAVCObject__XZ @3437
    ?CreateObject@CMFCRibbonUndoButton@@SAPAVCObject@@XZ=stub__CreateObject_CMFCRibbonUndoButton__SAPAVCObject__XZ @3438
    ?CreateObject@CMFCShadowRenderer@@SAPAVCObject@@XZ=stub__CreateObject_CMFCShadowRenderer__SAPAVCObject__XZ @3439
    ?CreateObject@CMFCShowAllButton@@SAPAVCObject@@XZ=stub__CreateObject_CMFCShowAllButton__SAPAVCObject__XZ @3440
    ?CreateObject@CMFCStandardColorsPropertyPage@@SAPAVCObject@@XZ=stub__CreateObject_CMFCStandardColorsPropertyPage__SAPAVCObject__XZ @3441
    ?CreateObject@CMFCTabCtrl@@SAPAVCObject@@XZ=stub__CreateObject_CMFCTabCtrl__SAPAVCObject__XZ @3442
    ?CreateObject@CMFCTasksPane@@SAPAVCObject@@XZ=stub__CreateObject_CMFCTasksPane__SAPAVCObject__XZ @3443
    ?CreateObject@CMFCTasksPaneFrameWnd@@SAPAVCObject@@XZ=stub__CreateObject_CMFCTasksPaneFrameWnd__SAPAVCObject__XZ @3444
    ?CreateObject@CMFCTasksPaneToolBar@@SAPAVCObject@@XZ=stub__CreateObject_CMFCTasksPaneToolBar__SAPAVCObject__XZ @3445
    ?CreateObject@CMFCToolBar@@SAPAVCObject@@XZ=stub__CreateObject_CMFCToolBar__SAPAVCObject__XZ @3446
    ?CreateObject@CMFCToolBarButton@@SAPAVCObject@@XZ=stub__CreateObject_CMFCToolBarButton__SAPAVCObject__XZ @3447
    ?CreateObject@CMFCToolBarColorButton@@SAPAVCObject@@XZ=stub__CreateObject_CMFCToolBarColorButton__SAPAVCObject__XZ @3448
    ?CreateObject@CMFCToolBarComboBoxButton@@SAPAVCObject@@XZ=stub__CreateObject_CMFCToolBarComboBoxButton__SAPAVCObject__XZ @3449
    ?CreateObject@CMFCToolBarDateTimeCtrl@@SAPAVCObject@@XZ=stub__CreateObject_CMFCToolBarDateTimeCtrl__SAPAVCObject__XZ @3450
    ?CreateObject@CMFCToolBarEditBoxButton@@SAPAVCObject@@XZ=stub__CreateObject_CMFCToolBarEditBoxButton__SAPAVCObject__XZ @3451
    ?CreateObject@CMFCToolBarFontComboBox@@SAPAVCObject@@XZ=stub__CreateObject_CMFCToolBarFontComboBox__SAPAVCObject__XZ @3452
    ?CreateObject@CMFCToolBarFontSizeComboBox@@SAPAVCObject@@XZ=stub__CreateObject_CMFCToolBarFontSizeComboBox__SAPAVCObject__XZ @3453
    ?CreateObject@CMFCToolBarMenuButton@@SAPAVCObject@@XZ=stub__CreateObject_CMFCToolBarMenuButton__SAPAVCObject__XZ @3454
    ?CreateObject@CMFCToolBarMenuButtonsButton@@SAPAVCObject@@XZ=stub__CreateObject_CMFCToolBarMenuButtonsButton__SAPAVCObject__XZ @3455
    ?CreateObject@CMFCToolBarsCommandsPropertyPage@@SAPAVCObject@@XZ=stub__CreateObject_CMFCToolBarsCommandsPropertyPage__SAPAVCObject__XZ @3456
    ?CreateObject@CMFCToolBarsKeyboardPropertyPage@@SAPAVCObject@@XZ=stub__CreateObject_CMFCToolBarsKeyboardPropertyPage__SAPAVCObject__XZ @3457
    ?CreateObject@CMFCToolBarsListPropertyPage@@SAPAVCObject@@XZ=stub__CreateObject_CMFCToolBarsListPropertyPage__SAPAVCObject__XZ @3458
    ?CreateObject@CMFCToolBarsMenuPropertyPage@@SAPAVCObject@@XZ=stub__CreateObject_CMFCToolBarsMenuPropertyPage__SAPAVCObject__XZ @3459
    ?CreateObject@CMFCToolBarsOptionsPropertyPage@@SAPAVCObject@@XZ=stub__CreateObject_CMFCToolBarsOptionsPropertyPage__SAPAVCObject__XZ @3460
    ?CreateObject@CMFCToolBarSpinEditBoxButton@@SAPAVCObject@@XZ=stub__CreateObject_CMFCToolBarSpinEditBoxButton__SAPAVCObject__XZ @3461
    ?CreateObject@CMFCToolBarSystemMenuButton@@SAPAVCObject@@XZ=stub__CreateObject_CMFCToolBarSystemMenuButton__SAPAVCObject__XZ @3462
    ?CreateObject@CMFCToolTipCtrl@@SAPAVCObject@@XZ=stub__CreateObject_CMFCToolTipCtrl__SAPAVCObject__XZ @3463
    ?CreateObject@CMFCVisualManager@@SAPAVCObject@@XZ=stub__CreateObject_CMFCVisualManager__SAPAVCObject__XZ @3464
    ?CreateObject@CMFCVisualManagerOffice2003@@SAPAVCObject@@XZ=stub__CreateObject_CMFCVisualManagerOffice2003__SAPAVCObject__XZ @3465
    ?CreateObject@CMFCVisualManagerOffice2007@@SAPAVCObject@@XZ=stub__CreateObject_CMFCVisualManagerOffice2007__SAPAVCObject__XZ @3466
    ?CreateObject@CMFCVisualManagerOfficeXP@@SAPAVCObject@@XZ=stub__CreateObject_CMFCVisualManagerOfficeXP__SAPAVCObject__XZ @3467
    ?CreateObject@CMFCVisualManagerVS2005@@SAPAVCObject@@XZ=stub__CreateObject_CMFCVisualManagerVS2005__SAPAVCObject__XZ @3468
    ?CreateObject@CMFCVisualManagerVS2008@@SAPAVCObject@@XZ=stub__CreateObject_CMFCVisualManagerVS2008__SAPAVCObject__XZ @3469
    ?CreateObject@CMFCVisualManagerWindows@@SAPAVCObject@@XZ=stub__CreateObject_CMFCVisualManagerWindows__SAPAVCObject__XZ @3470
    ?CreateObject@CMFCVisualManagerWindows7@@SAPAVCObject@@XZ=stub__CreateObject_CMFCVisualManagerWindows7__SAPAVCObject__XZ @3471
    ?CreateObject@CMiniDockFrameWnd@@SAPAVCObject@@XZ=stub__CreateObject_CMiniDockFrameWnd__SAPAVCObject__XZ @3472
    ?CreateObject@CMiniFrameWnd@@SAPAVCObject@@XZ=stub__CreateObject_CMiniFrameWnd__SAPAVCObject__XZ @3473
    ?CreateObject@CMouseManager@@SAPAVCObject@@XZ=stub__CreateObject_CMouseManager__SAPAVCObject__XZ @3474
    ?CreateObject@CMultiPaneFrameWnd@@SAPAVCObject@@XZ=stub__CreateObject_CMultiPaneFrameWnd__SAPAVCObject__XZ @3475
    ?CreateObject@CObArray@@SAPAVCObject@@XZ=stub__CreateObject_CObArray__SAPAVCObject__XZ @3476
    ?CreateObject@CObList@@SAPAVCObject@@XZ=stub__CreateObject_CObList__SAPAVCObject__XZ @3477
    ?CreateObject@COleDocIPFrameWnd@@SAPAVCObject@@XZ=stub__CreateObject_COleDocIPFrameWnd__SAPAVCObject__XZ @3478
    ?CreateObject@COleDocIPFrameWndEx@@SAPAVCObject@@XZ=stub__CreateObject_COleDocIPFrameWndEx__SAPAVCObject__XZ @3479
    ?CreateObject@COleIPFrameWnd@@SAPAVCObject@@XZ=stub__CreateObject_COleIPFrameWnd__SAPAVCObject__XZ @3480
    ?CreateObject@COleIPFrameWndEx@@SAPAVCObject@@XZ=stub__CreateObject_COleIPFrameWndEx__SAPAVCObject__XZ @3481
    ?CreateObject@COleServerDocEx@@SAPAVCObject@@XZ=stub__CreateObject_COleServerDocEx__SAPAVCObject__XZ @3482
    ?CreateObject@COutlookCustomizeButton@@SAPAVCObject@@XZ=stub__CreateObject_COutlookCustomizeButton__SAPAVCObject__XZ @3483
    ?CreateObject@CPane@@SAPAVCObject@@XZ=stub__CreateObject_CPane__SAPAVCObject__XZ @3484
    ?CreateObject@CPaneContainerManager@@SAPAVCObject@@XZ=stub__CreateObject_CPaneContainerManager__SAPAVCObject__XZ @3485
    ?CreateObject@CPaneDialog@@SAPAVCObject@@XZ=stub__CreateObject_CPaneDialog__SAPAVCObject__XZ @3486
    ?CreateObject@CPaneDivider@@SAPAVCObject@@XZ=stub__CreateObject_CPaneDivider__SAPAVCObject__XZ @3487
    ?CreateObject@CPaneFrameWnd@@SAPAVCObject@@XZ=stub__CreateObject_CPaneFrameWnd__SAPAVCObject__XZ @3488
    ?CreateObject@CPreviewView@@SAPAVCObject@@XZ=stub__CreateObject_CPreviewView__SAPAVCObject__XZ @3489
    ?CreateObject@CPreviewViewEx@@SAPAVCObject@@XZ=stub__CreateObject_CPreviewViewEx__SAPAVCObject__XZ @3490
    ?CreateObject@CRibbonUndoLabel@@SAPAVCObject@@XZ=stub__CreateObject_CRibbonUndoLabel__SAPAVCObject__XZ @3491
    ?CreateObject@CRichEditCntrItem@@SAPAVCObject@@XZ=stub__CreateObject_CRichEditCntrItem__SAPAVCObject__XZ @3492
    ?CreateObject@CRichEditView@@SAPAVCObject@@XZ=stub__CreateObject_CRichEditView__SAPAVCObject__XZ @3493
    ?CreateObject@CRuntimeClass@@QAAPAVCObject@@XZ=stub__CreateObject_CRuntimeClass__QAAPAVCObject__XZ @3494
    ?CreateObject@CRuntimeClass@@SAPAVCObject@@PB_W@Z=stub__CreateObject_CRuntimeClass__SAPAVCObject__PB_W_Z @3495
    ?CreateObject@CRuntimeClass@@SAPAVCObject@@PBD@Z=stub__CreateObject_CRuntimeClass__SAPAVCObject__PBD_Z @3496
    ?CreateObject@CSettingsStore@@SAPAVCObject@@XZ=stub__CreateObject_CSettingsStore__SAPAVCObject__XZ @3497
    ?CreateObject@CSmartDockingGroupGuidesManager@@SAPAVCObject@@XZ=stub__CreateObject_CSmartDockingGroupGuidesManager__SAPAVCObject__XZ @3498
    ?CreateObject@CSmartDockingStandaloneGuide@@SAPAVCObject@@XZ=stub__CreateObject_CSmartDockingStandaloneGuide__SAPAVCObject__XZ @3499
    ?CreateObject@CStringArray@@SAPAVCObject@@XZ=stub__CreateObject_CStringArray__SAPAVCObject__XZ @3500
    ?CreateObject@CStringList@@SAPAVCObject@@XZ=stub__CreateObject_CStringList__SAPAVCObject__XZ @3501
    ?CreateObject@CTabbedPane@@SAPAVCObject@@XZ=stub__CreateObject_CTabbedPane__SAPAVCObject__XZ @3502
    ?CreateObject@CTabView@@SAPAVCObject@@XZ=stub__CreateObject_CTabView__SAPAVCObject__XZ @3503
    ?CreateObject@CTasksPaneHistoryButton@@SAPAVCObject@@XZ=stub__CreateObject_CTasksPaneHistoryButton__SAPAVCObject__XZ @3504
    ?CreateObject@CTasksPaneMenuButton@@SAPAVCObject@@XZ=stub__CreateObject_CTasksPaneMenuButton__SAPAVCObject__XZ @3505
    ?CreateObject@CTasksPaneNavigateButton@@SAPAVCObject@@XZ=stub__CreateObject_CTasksPaneNavigateButton__SAPAVCObject__XZ @3506
    ?CreateObject@CTreeView@@SAPAVCObject@@XZ=stub__CreateObject_CTreeView__SAPAVCObject__XZ @3507
    ?CreateObject@CUserTool@@SAPAVCObject@@XZ=stub__CreateObject_CUserTool__SAPAVCObject__XZ @3508
    ?CreateObject@CWnd@@SAPAVCObject@@XZ=stub__CreateObject_CWnd__SAPAVCObject__XZ @3509
    ?CreateObject@CWordArray@@SAPAVCObject@@XZ=stub__CreateObject_CWordArray__SAPAVCObject__XZ @3510
    ?CreateOleFont@COleControlContainer@@QAAXPAVCFont@@@Z=stub__CreateOleFont_COleControlContainer__QAAXPAVCFont___Z @3511
    ?CreateOleFrame@CDocTemplate@@QAAPAVCFrameWnd@@PAVCWnd@@PAVCDocument@@H@Z=stub__CreateOleFrame_CDocTemplate__QAAPAVCFrameWnd__PAVCWnd__PAVCDocument__H_Z @3512
    ?CreateOneDim@COleSafeArray@@QAAXGKPBXJ@Z=stub__CreateOneDim_COleSafeArray__QAAXGKPBXJ_Z @3513
    ?CreateOrLoad@COleControlSite@@MAAJABU_GUID@@PAVCFile@@HPA_W@Z=stub__CreateOrLoad_COleControlSite__MAAJABU_GUID__PAVCFile__HPA_W_Z @3514
    ?CreateOrLoad@COleControlSite@@MAAJABVCControlCreationInfo@@@Z=stub__CreateOrLoad_COleControlSite__MAAJABVCControlCreationInfo___Z @3515
    ?CreatePalette@CMFCColorBar@@KAHABV?$CArray@KK@@AAVCPalette@@@Z=stub__CreatePalette_CMFCColorBar__KAHABV__CArray_KK__AAVCPalette___Z @3516
    ?CreatePaneDivider@CPaneContainerManager@@IAAPAVCPaneDivider@@VCRect@@KH@Z=stub__CreatePaneDivider_CPaneContainerManager__IAAPAVCPaneDivider__VCRect__KH_Z @3517
    ?CreatePanel@CMFCRibbonConstructor@@MBAPAVCMFCRibbonPanel@@AAVCMFCRibbonCategory@@ABVXPanel@CMFCRibbonInfo@@@Z=stub__CreatePanel_CMFCRibbonConstructor__MBAPAVCMFCRibbonPanel__AAVCMFCRibbonCategory__ABVXPanel_CMFCRibbonInfo___Z @3518
    ?CreatePointFont@CFont@@QAAHHPB_WPAVCDC@@@Z=stub__CreatePointFont_CFont__QAAHHPB_WPAVCDC___Z @3519
    ?CreatePointFontIndirect@CFont@@QAAHPBUtagLOGFONTW@@PAVCDC@@@Z=stub__CreatePointFontIndirect_CFont__QAAHPBUtagLOGFONTW__PAVCDC___Z @3520
    ?CreatePopupMenu@CMFCColorMenuButton@@MAAPAVCMFCPopupMenu@@XZ=stub__CreatePopupMenu_CMFCColorMenuButton__MAAPAVCMFCPopupMenu__XZ @3521
    ?CreatePopupMenu@CMFCCustomizeButton@@UAAPAVCMFCPopupMenu@@XZ=stub__CreatePopupMenu_CMFCCustomizeButton__UAAPAVCMFCPopupMenu__XZ @3522
    ?CreatePopupMenu@CMFCRibbonGalleryMenuButton@@UAAPAVCMFCPopupMenu@@XZ=stub__CreatePopupMenu_CMFCRibbonGalleryMenuButton__UAAPAVCMFCPopupMenu__XZ @3523
    ?CreatePopupMenu@COutlookCustomizeButton@@UAAPAVCMFCPopupMenu@@XZ=stub__CreatePopupMenu_COutlookCustomizeButton__UAAPAVCMFCPopupMenu__XZ @3524
    ?CreatePreviewFrame@CDocTemplate@@QAAPAVCFrameWnd@@PAVCWnd@@PAVCDocument@@@Z=stub__CreatePreviewFrame_CDocTemplate__QAAPAVCFrameWnd__PAVCWnd__PAVCDocument___Z @3525
    ?CreatePrinterDC@CPageSetupDialog@@QAAPAUHDC__@@XZ=stub__CreatePrinterDC_CPageSetupDialog__QAAPAUHDC____XZ @3526
    ?CreatePrinterDC@CPrintDialog@@QAAPAUHDC__@@XZ=stub__CreatePrinterDC_CPrintDialog__QAAPAUHDC____XZ @3527
    ?CreatePrinterDC@CPrintDialogEx@@QAAPAUHDC__@@XZ=stub__CreatePrinterDC_CPrintDialogEx__QAAPAUHDC____XZ @3528
    ?CreatePrinterDC@CWinApp@@QAAHAAVCDC@@@Z=stub__CreatePrinterDC_CWinApp__QAAHAAVCDC___Z @3529
    ?CreateRegionFromImage@CMFCToolBarImages@@SAPAUHRGN__@@PAUHBITMAP__@@K@Z=stub__CreateRegionFromImage_CMFCToolBarImages__SAPAUHRGN____PAUHBITMAP____K_Z @3530
    ?CreateRow@CDockSite@@UAAPAVCDockingPanesRow@@PAV1@HH@Z=stub__CreateRow_CDockSite__UAAPAVCDockingPanesRow__PAV1_HH_Z @3531
    ?CreateRunDlgIndirect@CWnd@@IAAHPBUDLGTEMPLATE@@PAV1@PAUHINSTANCE__@@@Z=stub__CreateRunDlgIndirect_CWnd__IAAHPBUDLGTEMPLATE__PAV1_PAUHINSTANCE_____Z @3532
    ?CreateScrollBarCtrl@CSplitterWnd@@UAAHKI@Z=stub__CreateScrollBarCtrl_CSplitterWnd__UAAHKI_Z @3533
    ?CreateSite@CControlSiteFactoryMgr@@QAAPAVCOleControlSite@@PAVCOleControlContainer@@ABVCControlCreationInfo@@@Z=stub__CreateSite_CControlSiteFactoryMgr__QAAPAVCOleControlSite__PAVCOleControlContainer__ABVCControlCreationInfo___Z @3534
    ?CreateSite@COccManager@@UAAPAVCOleControlSite@@PAVCOleControlContainer@@@Z=stub__CreateSite_COccManager__UAAPAVCOleControlSite__PAVCOleControlContainer___Z @3535
    ?CreateSite@COccManager@@UAAPAVCOleControlSite@@PAVCOleControlContainer@@ABVCControlCreationInfo@@@Z=stub__CreateSite_COccManager__UAAPAVCOleControlSite__PAVCOleControlContainer__ABVCControlCreationInfo___Z @3536
    ?CreateSpinButton@CMFCRibbonEdit@@IAAHPAVCMFCRibbonRichEditCtrl@@PAVCWnd@@@Z=stub__CreateSpinButton_CMFCRibbonEdit__IAAHPAVCMFCRibbonRichEditCtrl__PAVCWnd___Z @3537
    ?CreateSpinControl@CMFCPropertyGridProperty@@UAAPAVCSpinButtonCtrl@@VCRect@@@Z=stub__CreateSpinControl_CMFCPropertyGridProperty__UAAPAVCSpinButtonCtrl__VCRect___Z @3538
    ?CreateStatic@CSplitterWnd@@UAAHPAVCWnd@@HHKI@Z=stub__CreateStatic_CSplitterWnd__UAAHPAVCWnd__HHKI_Z @3539
    ?CreateStaticFromClipboard@COleClientItem@@QAAHW4tagOLERENDER@@GPAUtagFORMATETC@@@Z=stub__CreateStaticFromClipboard_COleClientItem__QAAHW4tagOLERENDER__GPAUtagFORMATETC___Z @3540
    ?CreateStaticFromData@COleClientItem@@QAAHPAVCOleDataObject@@W4tagOLERENDER@@GPAUtagFORMATETC@@@Z=stub__CreateStaticFromData_COleClientItem__QAAHPAVCOleDataObject__W4tagOLERENDER__GPAUtagFORMATETC___Z @3541
    ?CreateStream@COleStreamFile@@QAAHPAUIStorage@@PB_WKPAVCFileException@@@Z=stub__CreateStream_COleStreamFile__QAAHPAUIStorage__PB_WKPAVCFileException___Z @3542
    ?CreateTabbedPane@CDockablePane@@UAAPAVCTabbedPane@@XZ=stub__CreateTabbedPane_CDockablePane__UAAPAVCTabbedPane__XZ @3543
    ?CreateTabGroup@CMDIClientAreaWnd@@UAAPAVCMFCTabCtrl@@PAV2@@Z=stub__CreateTabGroup_CMDIClientAreaWnd__UAAPAVCMFCTabCtrl__PAV2__Z @3544
    ?CreateTearOffBar@CMFCColorPopupMenu@@UAAPAVCPane@@PAVCFrameWnd@@IPB_W@Z=stub__CreateTearOffBar_CMFCColorPopupMenu__UAAPAVCPane__PAVCFrameWnd__IPB_W_Z @3545
    ?CreateTearOffBar@CMFCPopupMenu@@MAAPAVCPane@@PAVCFrameWnd@@IPB_W@Z=stub__CreateTearOffBar_CMFCPopupMenu__MAAPAVCPane__PAVCFrameWnd__IPB_W_Z @3546
    ?CreateThread@CWinThread@@QAAHKIPAU_SECURITY_ATTRIBUTES@@@Z=stub__CreateThread_CWinThread__QAAHKIPAU_SECURITY_ATTRIBUTES___Z @3547
    ?CreateToolTip@CTooltipManager@@SAHAAPAVCToolTipCtrl@@PAVCWnd@@I@Z=stub__CreateToolTip_CTooltipManager__SAHAAPAVCToolTipCtrl__PAVCWnd__I_Z @3548
    ?CreateToolTipObject@CTooltipManager@@IAAHAAPAVCToolTipCtrl@@I@Z=stub__CreateToolTipObject_CTooltipManager__IAAHAAPAVCToolTipCtrl__I_Z @3549
    ?CreateTracker@COleControl@@IAAXHH@Z=stub__CreateTracker_COleControl__IAAXHH_Z @3550
    ?CreateTracker@COleControl@@IAAXHHPBUtagRECT@@@Z=stub__CreateTracker_COleControl__IAAXHHPBUtagRECT___Z @3551
    ?CreateTransitions@CAnimationBaseObject@@QAAHXZ=stub__CreateTransitions_CAnimationBaseObject__QAAHXZ @3552
    ?CreateTransitions@CAnimationGroup@@IAAHXZ=stub__CreateTransitions_CAnimationGroup__IAAHXZ @3553
    ?CreateTransitions@CAnimationVariable@@QAAHPAUIUIAnimationTransitionLibrary@@PAUIUIAnimationTransitionFactory@@@Z=stub__CreateTransitions_CAnimationVariable__QAAHPAUIUIAnimationTransitionLibrary__PAUIUIAnimationTransitionFactory___Z @3554
    ?CreateView@CFrameWnd@@QAAPAVCWnd@@PAUCCreateContext@@I@Z=stub__CreateView_CFrameWnd__QAAPAVCWnd__PAUCCreateContext__I_Z @3555
    ?CreateView@CSplitterWnd@@UAAHHHPAUCRuntimeClass@@UtagSIZE@@PAUCCreateContext@@@Z=stub__CreateView_CSplitterWnd__UAAHHHPAUCRuntimeClass__UtagSIZE__PAUCCreateContext___Z @3556
    ?CreateView@XOleDocument@CDocObjectServer@@UAAJPAUIOleInPlaceSite@@PAUIStream@@KPAPAUIOleDocumentView@@@Z=stub__CreateView_XOleDocument_CDocObjectServer__UAAJPAUIOleInPlaceSite__PAUIStream__KPAPAUIOleDocumentView___Z @3557
    ?CreateVisualManager@CMFCVisualManager@@KAPAV1@PAUCRuntimeClass@@@Z=stub__CreateVisualManager_CMFCVisualManager__KAPAV1_PAUCRuntimeClass___Z @3558
    ?CreateWindowForSubclassedControl@COleControl@@IAAXXZ=stub__CreateWindowForSubclassedControl_COleControl__IAAXXZ @3559
    ?CreateWrapper@CMFCBaseTabCtrl@@MAAPAVCWnd@@PAV2@PB_WH@Z=stub__CreateWrapper_CMFCBaseTabCtrl__MAAPAVCWnd__PAV2_PB_WH_Z @3560
    ?CyFromString@CGlobalUtils@@QAAHAATtagCY@@PB_W@Z=stub__CyFromString_CGlobalUtils__QAAHAATtagCY__PB_W_Z @3561
    ?DAdvise@XDataObject@COleControl@@UAAJPAUtagFORMATETC@@KPAUIAdviseSink@@PAK@Z=stub__DAdvise_XDataObject_COleControl__UAAJPAUtagFORMATETC__KPAUIAdviseSink__PAK_Z @3562
    ?DAdvise@XDataObject@COleDataSource@@UAAJPAUtagFORMATETC@@KPAUIAdviseSink@@PAK@Z=stub__DAdvise_XDataObject_COleDataSource__UAAJPAUtagFORMATETC__KPAUIAdviseSink__PAK_Z @3563
    ?DAdvise@XDataObject@COleServerDoc@@UAAJPAUtagFORMATETC@@KPAUIAdviseSink@@PAK@Z=stub__DAdvise_XDataObject_COleServerDoc__UAAJPAUtagFORMATETC__KPAUIAdviseSink__PAK_Z @3564
    ?DAdvise@XDataObject@COleServerItem@@UAAJPAUtagFORMATETC@@KPAUIAdviseSink@@PAK@Z=stub__DAdvise_XDataObject_COleServerItem__UAAJPAUtagFORMATETC__KPAUIAdviseSink__PAK_Z @3565
    ?DDP_Check@@YAXPAVCDataExchange@@HAAHPB_W@Z=stub__DDP_Check__YAXPAVCDataExchange__HAAHPB_W_Z @3566
    ?DDP_EndCheck@@YAXPAVCDataExchange@@HPAHPB_W@Z=stub__DDP_EndCheck__YAXPAVCDataExchange__HPAHPB_W_Z @3567
    ?DDP_EndRadio@@YAXPAVCDataExchange@@HPAHPB_W@Z=stub__DDP_EndRadio__YAXPAVCDataExchange__HPAHPB_W_Z @3568
    ?DDP_EndText@@YAXPAVCDataExchange@@HPAEPB_W@Z=stub__DDP_EndText__YAXPAVCDataExchange__HPAEPB_W_Z @3569
    ?DDP_EndText@@YAXPAVCDataExchange@@HPAFPB_W@Z=stub__DDP_EndText__YAXPAVCDataExchange__HPAFPB_W_Z @3570
    ?DDP_EndText@@YAXPAVCDataExchange@@HPAHPB_W@Z=stub__DDP_EndText__YAXPAVCDataExchange__HPAHPB_W_Z @3571
    ?DDP_EndText@@YAXPAVCDataExchange@@HPAIPB_W@Z=stub__DDP_EndText__YAXPAVCDataExchange__HPAIPB_W_Z @3572
    ?DDP_EndText@@YAXPAVCDataExchange@@HPAJPB_W@Z=stub__DDP_EndText__YAXPAVCDataExchange__HPAJPB_W_Z @3573
    ?DDP_EndText@@YAXPAVCDataExchange@@HPAKPB_W@Z=stub__DDP_EndText__YAXPAVCDataExchange__HPAKPB_W_Z @3574
    ?DDP_EndText@@YAXPAVCDataExchange@@HPAMPB_W@Z=stub__DDP_EndText__YAXPAVCDataExchange__HPAMPB_W_Z @3575
    ?DDP_EndText@@YAXPAVCDataExchange@@HPANPB_W@Z=stub__DDP_EndText__YAXPAVCDataExchange__HPANPB_W_Z @3576
    ?DDP_EndText@@YAXPAVCDataExchange@@HPAV?$CStringT@_WV?$StrTraitMFC_DLL@_WV?$ChTraitsCRT@_W@ATL@@@@@ATL@@PB_W@Z=stub__DDP_EndText__YAXPAVCDataExchange__HPAV__CStringT__WV__StrTraitMFC_DLL__WV__ChTraitsCRT__W_ATL_____ATL__PB_W_Z @3577
    ?DDP_PostProcessing@@YAXPAVCDataExchange@@@Z=stub__DDP_PostProcessing__YAXPAVCDataExchange___Z @3578
    ?DDP_Radio@@YAXPAVCDataExchange@@HAAHPB_W@Z=stub__DDP_Radio__YAXPAVCDataExchange__HAAHPB_W_Z @3579
    ?DDP_Text@@YAXPAVCDataExchange@@HAAEPB_W@Z=stub__DDP_Text__YAXPAVCDataExchange__HAAEPB_W_Z @3580
    ?DDP_Text@@YAXPAVCDataExchange@@HAAFPB_W@Z=stub__DDP_Text__YAXPAVCDataExchange__HAAFPB_W_Z @3581
    ?DDP_Text@@YAXPAVCDataExchange@@HAAHPB_W@Z=stub__DDP_Text__YAXPAVCDataExchange__HAAHPB_W_Z @3582
    ?DDP_Text@@YAXPAVCDataExchange@@HAAIPB_W@Z=stub__DDP_Text__YAXPAVCDataExchange__HAAIPB_W_Z @3583
    ?DDP_Text@@YAXPAVCDataExchange@@HAAJPB_W@Z=stub__DDP_Text__YAXPAVCDataExchange__HAAJPB_W_Z @3584
    ?DDP_Text@@YAXPAVCDataExchange@@HAAKPB_W@Z=stub__DDP_Text__YAXPAVCDataExchange__HAAKPB_W_Z @3585
    ?DDP_Text@@YAXPAVCDataExchange@@HAAMPB_W@Z=stub__DDP_Text__YAXPAVCDataExchange__HAAMPB_W_Z @3586
    ?DDP_Text@@YAXPAVCDataExchange@@HAANPB_W@Z=stub__DDP_Text__YAXPAVCDataExchange__HAANPB_W_Z @3587
    ?DDP_Text@@YAXPAVCDataExchange@@HAAV?$CStringT@_WV?$StrTraitMFC_DLL@_WV?$ChTraitsCRT@_W@ATL@@@@@ATL@@PB_W@Z=stub__DDP_Text__YAXPAVCDataExchange__HAAV__CStringT__WV__StrTraitMFC_DLL__WV__ChTraitsCRT__W_ATL_____ATL__PB_W_Z @3588
    ?DDV_MaxChars@@YAXPAVCDataExchange@@ABV?$CStringT@_WV?$StrTraitMFC_DLL@_WV?$ChTraitsCRT@_W@ATL@@@@@ATL@@H@Z=stub__DDV_MaxChars__YAXPAVCDataExchange__ABV__CStringT__WV__StrTraitMFC_DLL__WV__ChTraitsCRT__W_ATL_____ATL__H_Z @3589
    ?DDV_MinMaxByte@@YAXPAVCDataExchange@@EEE@Z=stub__DDV_MinMaxByte__YAXPAVCDataExchange__EEE_Z @3590
    ?DDV_MinMaxDateTime@@YAXPAVCDataExchange@@AAVCOleDateTime@ATL@@PBV23@2@Z=stub__DDV_MinMaxDateTime__YAXPAVCDataExchange__AAVCOleDateTime_ATL__PBV23_2_Z @3591
    ?DDV_MinMaxDateTime@@YAXPAVCDataExchange@@AAVCTime@ATL@@PBV23@2@Z=stub__DDV_MinMaxDateTime__YAXPAVCDataExchange__AAVCTime_ATL__PBV23_2_Z @3592
    ?DDV_MinMaxDouble@@YAXPAVCDataExchange@@ABNNN@Z=stub__DDV_MinMaxDouble__YAXPAVCDataExchange__ABNNN_Z @3593
    ?DDV_MinMaxDWord@@YAXPAVCDataExchange@@KKK@Z=stub__DDV_MinMaxDWord__YAXPAVCDataExchange__KKK_Z @3594
    ?DDV_MinMaxFloat@@YAXPAVCDataExchange@@ABMMM@Z=stub__DDV_MinMaxFloat__YAXPAVCDataExchange__ABMMM_Z @3595
    ?DDV_MinMaxInt@@YAXPAVCDataExchange@@HHH@Z=stub__DDV_MinMaxInt__YAXPAVCDataExchange__HHH_Z @3596
    ?DDV_MinMaxLong@@YAXPAVCDataExchange@@JJJ@Z=stub__DDV_MinMaxLong__YAXPAVCDataExchange__JJJ_Z @3597
    ?DDV_MinMaxLongLong@@YAXPAVCDataExchange@@_J11@Z=stub__DDV_MinMaxLongLong__YAXPAVCDataExchange___J11_Z @3598
    ?DDV_MinMaxMonth@@YAXPAVCDataExchange@@AAVCOleDateTime@ATL@@PBV23@2@Z=stub__DDV_MinMaxMonth__YAXPAVCDataExchange__AAVCOleDateTime_ATL__PBV23_2_Z @3599
    ?DDV_MinMaxMonth@@YAXPAVCDataExchange@@AAVCTime@ATL@@PBV23@2@Z=stub__DDV_MinMaxMonth__YAXPAVCDataExchange__AAVCTime_ATL__PBV23_2_Z @3600
    ?DDV_MinMaxShort@@YAXPAVCDataExchange@@FFF@Z=stub__DDV_MinMaxShort__YAXPAVCDataExchange__FFF_Z @3601
    ?DDV_MinMaxSlider@@YAXPAVCDataExchange@@KKK@Z=stub__DDV_MinMaxSlider__YAXPAVCDataExchange__KKK_Z @3602
    ?DDV_MinMaxUInt@@YAXPAVCDataExchange@@III@Z=stub__DDV_MinMaxUInt__YAXPAVCDataExchange__III_Z @3603
    ?DDV_MinMaxULongLong@@YAXPAVCDataExchange@@_K11@Z=stub__DDV_MinMaxULongLong__YAXPAVCDataExchange___K11_Z @3604
    ?DDX_CBIndex@@YAXPAVCDataExchange@@HAAH@Z=stub__DDX_CBIndex__YAXPAVCDataExchange__HAAH_Z @3605
    ?DDX_CBString@@YAXPAVCDataExchange@@HAAV?$CStringT@_WV?$StrTraitMFC_DLL@_WV?$ChTraitsCRT@_W@ATL@@@@@ATL@@@Z=stub__DDX_CBString__YAXPAVCDataExchange__HAAV__CStringT__WV__StrTraitMFC_DLL__WV__ChTraitsCRT__W_ATL_____ATL___Z @3606
    ?DDX_CBStringExact@@YAXPAVCDataExchange@@HAAV?$CStringT@_WV?$StrTraitMFC_DLL@_WV?$ChTraitsCRT@_W@ATL@@@@@ATL@@@Z=stub__DDX_CBStringExact__YAXPAVCDataExchange__HAAV__CStringT__WV__StrTraitMFC_DLL__WV__ChTraitsCRT__W_ATL_____ATL___Z @3607
    ?DDX_Check@@YAXPAVCDataExchange@@HAAH@Z=stub__DDX_Check__YAXPAVCDataExchange__HAAH_Z @3608
    ?DDX_Control@@YAXPAVCDataExchange@@HAAVCWnd@@@Z=stub__DDX_Control__YAXPAVCDataExchange__HAAVCWnd___Z @3609
    ?DDX_DateTimeCtrl@@YAXPAVCDataExchange@@HAAU_FILETIME@@@Z=stub__DDX_DateTimeCtrl__YAXPAVCDataExchange__HAAU_FILETIME___Z @3610
    ?DDX_DateTimeCtrl@@YAXPAVCDataExchange@@HAAUtagDBDATE@@@Z=stub__DDX_DateTimeCtrl__YAXPAVCDataExchange__HAAUtagDBDATE___Z @3611
    ?DDX_DateTimeCtrl@@YAXPAVCDataExchange@@HAAUtagDBTIME@@@Z=stub__DDX_DateTimeCtrl__YAXPAVCDataExchange__HAAUtagDBTIME___Z @3612
    ?DDX_DateTimeCtrl@@YAXPAVCDataExchange@@HAAV?$CStringT@_WV?$StrTraitMFC_DLL@_WV?$ChTraitsCRT@_W@ATL@@@@@ATL@@@Z=stub__DDX_DateTimeCtrl__YAXPAVCDataExchange__HAAV__CStringT__WV__StrTraitMFC_DLL__WV__ChTraitsCRT__W_ATL_____ATL___Z @3613
    ?DDX_DateTimeCtrl@@YAXPAVCDataExchange@@HAAVCOleDateTime@ATL@@@Z=stub__DDX_DateTimeCtrl__YAXPAVCDataExchange__HAAVCOleDateTime_ATL___Z @3614
    ?DDX_DateTimeCtrl@@YAXPAVCDataExchange@@HAAVCTime@ATL@@@Z=stub__DDX_DateTimeCtrl__YAXPAVCDataExchange__HAAVCTime_ATL___Z @3615
    ?DDX_DHtml_AxControl@CDHtmlDialog@@IAAXPB_W0AAUtagVARIANT@@H@Z=stub__DDX_DHtml_AxControl_CDHtmlDialog__IAAXPB_W0AAUtagVARIANT__H_Z @3616
    ?DDX_DHtml_AxControl@CDHtmlDialog@@IAAXPB_WJAAUtagVARIANT@@H@Z=stub__DDX_DHtml_AxControl_CDHtmlDialog__IAAXPB_WJAAUtagVARIANT__H_Z @3617
    ?DDX_DHtml_AxControl@CDHtmlDialog@@QAAXPAVCDataExchange@@PB_W1AAUtagVARIANT@@@Z=stub__DDX_DHtml_AxControl_CDHtmlDialog__QAAXPAVCDataExchange__PB_W1AAUtagVARIANT___Z @3618
    ?DDX_DHtml_AxControl@CDHtmlDialog@@QAAXPAVCDataExchange@@PB_WJAAUtagVARIANT@@@Z=stub__DDX_DHtml_AxControl_CDHtmlDialog__QAAXPAVCDataExchange__PB_WJAAUtagVARIANT___Z @3619
    ?DDX_DHtml_CheckBox@CDHtmlDialog@@IAAXPB_WAAHH@Z=stub__DDX_DHtml_CheckBox_CDHtmlDialog__IAAXPB_WAAHH_Z @3620
    ?DDX_DHtml_CheckBox@CDHtmlDialog@@QAAXPAVCDataExchange@@PB_WAAH@Z=stub__DDX_DHtml_CheckBox_CDHtmlDialog__QAAXPAVCDataExchange__PB_WAAH_Z @3621
    ?DDX_DHtml_ElementText@CDHtmlDialog@@IAAXPB_WJAAFH@Z=stub__DDX_DHtml_ElementText_CDHtmlDialog__IAAXPB_WJAAFH_Z @3622
    ?DDX_DHtml_ElementText@CDHtmlDialog@@IAAXPB_WJAAHH@Z=stub__DDX_DHtml_ElementText_CDHtmlDialog__IAAXPB_WJAAHH_Z @3623
    ?DDX_DHtml_ElementText@CDHtmlDialog@@IAAXPB_WJAAJH@Z=stub__DDX_DHtml_ElementText_CDHtmlDialog__IAAXPB_WJAAJH_Z @3624
    ?DDX_DHtml_ElementText@CDHtmlDialog@@IAAXPB_WJAAKH@Z=stub__DDX_DHtml_ElementText_CDHtmlDialog__IAAXPB_WJAAKH_Z @3625
    ?DDX_DHtml_ElementText@CDHtmlDialog@@IAAXPB_WJAAMH@Z=stub__DDX_DHtml_ElementText_CDHtmlDialog__IAAXPB_WJAAMH_Z @3626
    ?DDX_DHtml_ElementText@CDHtmlDialog@@IAAXPB_WJAANH@Z=stub__DDX_DHtml_ElementText_CDHtmlDialog__IAAXPB_WJAANH_Z @3627
    ?DDX_DHtml_ElementText@CDHtmlDialog@@IAAXPB_WJAAV?$CStringT@_WV?$StrTraitMFC_DLL@_WV?$ChTraitsCRT@_W@ATL@@@@@ATL@@H@Z=stub__DDX_DHtml_ElementText_CDHtmlDialog__IAAXPB_WJAAV__CStringT__WV__StrTraitMFC_DLL__WV__ChTraitsCRT__W_ATL_____ATL__H_Z @3628
    ?DDX_DHtml_ElementText@CDHtmlDialog@@QAAXPAVCDataExchange@@PB_WJAAF@Z=stub__DDX_DHtml_ElementText_CDHtmlDialog__QAAXPAVCDataExchange__PB_WJAAF_Z @3629
    ?DDX_DHtml_ElementText@CDHtmlDialog@@QAAXPAVCDataExchange@@PB_WJAAH@Z=stub__DDX_DHtml_ElementText_CDHtmlDialog__QAAXPAVCDataExchange__PB_WJAAH_Z @3630
    ?DDX_DHtml_ElementText@CDHtmlDialog@@QAAXPAVCDataExchange@@PB_WJAAJ@Z=stub__DDX_DHtml_ElementText_CDHtmlDialog__QAAXPAVCDataExchange__PB_WJAAJ_Z @3631
    ?DDX_DHtml_ElementText@CDHtmlDialog@@QAAXPAVCDataExchange@@PB_WJAAK@Z=stub__DDX_DHtml_ElementText_CDHtmlDialog__QAAXPAVCDataExchange__PB_WJAAK_Z @3632
    ?DDX_DHtml_ElementText@CDHtmlDialog@@QAAXPAVCDataExchange@@PB_WJAAM@Z=stub__DDX_DHtml_ElementText_CDHtmlDialog__QAAXPAVCDataExchange__PB_WJAAM_Z @3633
    ?DDX_DHtml_ElementText@CDHtmlDialog@@QAAXPAVCDataExchange@@PB_WJAAN@Z=stub__DDX_DHtml_ElementText_CDHtmlDialog__QAAXPAVCDataExchange__PB_WJAAN_Z @3634
    ?DDX_DHtml_ElementText@CDHtmlDialog@@QAAXPAVCDataExchange@@PB_WJAAV?$CStringT@_WV?$StrTraitMFC_DLL@_WV?$ChTraitsCRT@_W@ATL@@@@@ATL@@@Z=stub__DDX_DHtml_ElementText_CDHtmlDialog__QAAXPAVCDataExchange__PB_WJAAV__CStringT__WV__StrTraitMFC_DLL__WV__ChTraitsCRT__W_ATL_____ATL___Z @3635
    ?DDX_DHtml_ElementTextFloatFormat@CDHtmlDialog@@IAAXPB_WJPAXNHH@Z=stub__DDX_DHtml_ElementTextFloatFormat_CDHtmlDialog__IAAXPB_WJPAXNHH_Z @3636
    ?DDX_DHtml_ElementTextWithFormat@CDHtmlDialog@@IAAXPB_WJ0IHZZ=stub__DDX_DHtml_ElementTextWithFormat_CDHtmlDialog__IAAXPB_WJ0IHZZ @3637
    ?DDX_DHtml_Radio@CDHtmlDialog@@IAAXPB_WAAJH@Z=stub__DDX_DHtml_Radio_CDHtmlDialog__IAAXPB_WAAJH_Z @3638
    ?DDX_DHtml_Radio@CDHtmlDialog@@QAAXPAVCDataExchange@@PB_WAAJ@Z=stub__DDX_DHtml_Radio_CDHtmlDialog__QAAXPAVCDataExchange__PB_WAAJ_Z @3639
    ?DDX_DHtml_SelectIndex@CDHtmlDialog@@IAAXPB_WAAJH@Z=stub__DDX_DHtml_SelectIndex_CDHtmlDialog__IAAXPB_WAAJH_Z @3640
    ?DDX_DHtml_SelectIndex@CDHtmlDialog@@QAAXPAVCDataExchange@@PB_WAAJ@Z=stub__DDX_DHtml_SelectIndex_CDHtmlDialog__QAAXPAVCDataExchange__PB_WAAJ_Z @3641
    ?DDX_DHtml_SelectString@CDHtmlDialog@@IAAXPB_WAAV?$CStringT@_WV?$StrTraitMFC_DLL@_WV?$ChTraitsCRT@_W@ATL@@@@@ATL@@H@Z=stub__DDX_DHtml_SelectString_CDHtmlDialog__IAAXPB_WAAV__CStringT__WV__StrTraitMFC_DLL__WV__ChTraitsCRT__W_ATL_____ATL__H_Z @3642
    ?DDX_DHtml_SelectString@CDHtmlDialog@@QAAXPAVCDataExchange@@PB_WAAV?$CStringT@_WV?$StrTraitMFC_DLL@_WV?$ChTraitsCRT@_W@ATL@@@@@ATL@@@Z=stub__DDX_DHtml_SelectString_CDHtmlDialog__QAAXPAVCDataExchange__PB_WAAV__CStringT__WV__StrTraitMFC_DLL__WV__ChTraitsCRT__W_ATL_____ATL___Z @3643
    ?DDX_DHtml_SelectValue@CDHtmlDialog@@IAAXPB_WAAV?$CStringT@_WV?$StrTraitMFC_DLL@_WV?$ChTraitsCRT@_W@ATL@@@@@ATL@@H@Z=stub__DDX_DHtml_SelectValue_CDHtmlDialog__IAAXPB_WAAV__CStringT__WV__StrTraitMFC_DLL__WV__ChTraitsCRT__W_ATL_____ATL__H_Z @3644
    ?DDX_DHtml_SelectValue@CDHtmlDialog@@QAAXPAVCDataExchange@@PB_WAAV?$CStringT@_WV?$StrTraitMFC_DLL@_WV?$ChTraitsCRT@_W@ATL@@@@@ATL@@@Z=stub__DDX_DHtml_SelectValue_CDHtmlDialog__QAAXPAVCDataExchange__PB_WAAV__CStringT__WV__StrTraitMFC_DLL__WV__ChTraitsCRT__W_ATL_____ATL___Z @3645
    ?DDX_FieldCBIndex@@YAXPAVCDataExchange@@HAAHPAVCRecordset@@@Z=stub__DDX_FieldCBIndex__YAXPAVCDataExchange__HAAHPAVCRecordset___Z @3646
    ?DDX_FieldCBString@@YAXPAVCDataExchange@@HAAV?$CStringT@_WV?$StrTraitMFC_DLL@_WV?$ChTraitsCRT@_W@ATL@@@@@ATL@@PAVCRecordset@@@Z=stub__DDX_FieldCBString__YAXPAVCDataExchange__HAAV__CStringT__WV__StrTraitMFC_DLL__WV__ChTraitsCRT__W_ATL_____ATL__PAVCRecordset___Z @3647
    ?DDX_FieldCBStringExact@@YAXPAVCDataExchange@@HAAV?$CStringT@_WV?$StrTraitMFC_DLL@_WV?$ChTraitsCRT@_W@ATL@@@@@ATL@@PAVCRecordset@@@Z=stub__DDX_FieldCBStringExact__YAXPAVCDataExchange__HAAV__CStringT__WV__StrTraitMFC_DLL__WV__ChTraitsCRT__W_ATL_____ATL__PAVCRecordset___Z @3648
    ?DDX_FieldCheck@@YAXPAVCDataExchange@@HAAHPAVCRecordset@@@Z=stub__DDX_FieldCheck__YAXPAVCDataExchange__HAAHPAVCRecordset___Z @3649
    ?DDX_FieldLBIndex@@YAXPAVCDataExchange@@HAAHPAVCRecordset@@@Z=stub__DDX_FieldLBIndex__YAXPAVCDataExchange__HAAHPAVCRecordset___Z @3650
    ?DDX_FieldLBString@@YAXPAVCDataExchange@@HAAV?$CStringT@_WV?$StrTraitMFC_DLL@_WV?$ChTraitsCRT@_W@ATL@@@@@ATL@@PAVCRecordset@@@Z=stub__DDX_FieldLBString__YAXPAVCDataExchange__HAAV__CStringT__WV__StrTraitMFC_DLL__WV__ChTraitsCRT__W_ATL_____ATL__PAVCRecordset___Z @3651
    ?DDX_FieldLBStringExact@@YAXPAVCDataExchange@@HAAV?$CStringT@_WV?$StrTraitMFC_DLL@_WV?$ChTraitsCRT@_W@ATL@@@@@ATL@@PAVCRecordset@@@Z=stub__DDX_FieldLBStringExact__YAXPAVCDataExchange__HAAV__CStringT__WV__StrTraitMFC_DLL__WV__ChTraitsCRT__W_ATL_____ATL__PAVCRecordset___Z @3652
    ?DDX_FieldRadio@@YAXPAVCDataExchange@@HAAHPAVCRecordset@@@Z=stub__DDX_FieldRadio__YAXPAVCDataExchange__HAAHPAVCRecordset___Z @3653
    ?DDX_FieldScroll@@YAXPAVCDataExchange@@HAAHPAVCRecordset@@@Z=stub__DDX_FieldScroll__YAXPAVCDataExchange__HAAHPAVCRecordset___Z @3654
    ?DDX_FieldText@@YAXPAVCDataExchange@@HAAEPAVCRecordset@@@Z=stub__DDX_FieldText__YAXPAVCDataExchange__HAAEPAVCRecordset___Z @3655
    ?DDX_FieldText@@YAXPAVCDataExchange@@HAAHPAVCRecordset@@@Z=stub__DDX_FieldText__YAXPAVCDataExchange__HAAHPAVCRecordset___Z @3656
    ?DDX_FieldText@@YAXPAVCDataExchange@@HAAIPAVCRecordset@@@Z=stub__DDX_FieldText__YAXPAVCDataExchange__HAAIPAVCRecordset___Z @3657
    ?DDX_FieldText@@YAXPAVCDataExchange@@HAAJPAVCRecordset@@@Z=stub__DDX_FieldText__YAXPAVCDataExchange__HAAJPAVCRecordset___Z @3658
    ?DDX_FieldText@@YAXPAVCDataExchange@@HAAKPAVCRecordset@@@Z=stub__DDX_FieldText__YAXPAVCDataExchange__HAAKPAVCRecordset___Z @3659
    ?DDX_FieldText@@YAXPAVCDataExchange@@HAAMPAVCRecordset@@@Z=stub__DDX_FieldText__YAXPAVCDataExchange__HAAMPAVCRecordset___Z @3660
    ?DDX_FieldText@@YAXPAVCDataExchange@@HAANPAVCRecordset@@@Z=stub__DDX_FieldText__YAXPAVCDataExchange__HAANPAVCRecordset___Z @3661
    ?DDX_FieldText@@YAXPAVCDataExchange@@HAAV?$CStringT@_WV?$StrTraitMFC_DLL@_WV?$ChTraitsCRT@_W@ATL@@@@@ATL@@PAVCRecordset@@@Z=stub__DDX_FieldText__YAXPAVCDataExchange__HAAV__CStringT__WV__StrTraitMFC_DLL__WV__ChTraitsCRT__W_ATL_____ATL__PAVCRecordset___Z @3662
    ?DDX_FieldText@@YAXPAVCDataExchange@@HPA_WHPAVCRecordset@@@Z=stub__DDX_FieldText__YAXPAVCDataExchange__HPA_WHPAVCRecordset___Z @3663
    ?DDX_IPAddress@@YAXPAVCDataExchange@@HAAK@Z=stub__DDX_IPAddress__YAXPAVCDataExchange__HAAK_Z @3664
    ?DDX_LBIndex@@YAXPAVCDataExchange@@HAAH@Z=stub__DDX_LBIndex__YAXPAVCDataExchange__HAAH_Z @3665
    ?DDX_LBString@@YAXPAVCDataExchange@@HAAV?$CStringT@_WV?$StrTraitMFC_DLL@_WV?$ChTraitsCRT@_W@ATL@@@@@ATL@@@Z=stub__DDX_LBString__YAXPAVCDataExchange__HAAV__CStringT__WV__StrTraitMFC_DLL__WV__ChTraitsCRT__W_ATL_____ATL___Z @3666
    ?DDX_LBStringExact@@YAXPAVCDataExchange@@HAAV?$CStringT@_WV?$StrTraitMFC_DLL@_WV?$ChTraitsCRT@_W@ATL@@@@@ATL@@@Z=stub__DDX_LBStringExact__YAXPAVCDataExchange__HAAV__CStringT__WV__StrTraitMFC_DLL__WV__ChTraitsCRT__W_ATL_____ATL___Z @3667
    ?DDX_MonthCalCtrl@@YAXPAVCDataExchange@@HAAU_FILETIME@@@Z=stub__DDX_MonthCalCtrl__YAXPAVCDataExchange__HAAU_FILETIME___Z @3668
    ?DDX_MonthCalCtrl@@YAXPAVCDataExchange@@HAAUtagDBDATE@@@Z=stub__DDX_MonthCalCtrl__YAXPAVCDataExchange__HAAUtagDBDATE___Z @3669
    ?DDX_MonthCalCtrl@@YAXPAVCDataExchange@@HAAVCOleDateTime@ATL@@@Z=stub__DDX_MonthCalCtrl__YAXPAVCDataExchange__HAAVCOleDateTime_ATL___Z @3670
    ?DDX_MonthCalCtrl@@YAXPAVCDataExchange@@HAAVCTime@ATL@@@Z=stub__DDX_MonthCalCtrl__YAXPAVCDataExchange__HAAVCTime_ATL___Z @3671
    ?DDX_OCBool@@YAXPAVCDataExchange@@HJAAH@Z=stub__DDX_OCBool__YAXPAVCDataExchange__HJAAH_Z @3672
    ?DDX_OCBoolRO@@YAXPAVCDataExchange@@HJAAH@Z=stub__DDX_OCBoolRO__YAXPAVCDataExchange__HJAAH_Z @3673
    ?DDX_OCColor@@YAXPAVCDataExchange@@HJAAK@Z=stub__DDX_OCColor__YAXPAVCDataExchange__HJAAK_Z @3674
    ?DDX_OCColorRO@@YAXPAVCDataExchange@@HJAAK@Z=stub__DDX_OCColorRO__YAXPAVCDataExchange__HJAAK_Z @3675
    ?DDX_OCFloat@@YAXPAVCDataExchange@@HJAAM@Z=stub__DDX_OCFloat__YAXPAVCDataExchange__HJAAM_Z @3676
    ?DDX_OCFloat@@YAXPAVCDataExchange@@HJAAN@Z=stub__DDX_OCFloat__YAXPAVCDataExchange__HJAAN_Z @3677
    ?DDX_OCFloatRO@@YAXPAVCDataExchange@@HJAAM@Z=stub__DDX_OCFloatRO__YAXPAVCDataExchange__HJAAM_Z @3678
    ?DDX_OCFloatRO@@YAXPAVCDataExchange@@HJAAN@Z=stub__DDX_OCFloatRO__YAXPAVCDataExchange__HJAAN_Z @3679
    ?DDX_OCInt@@YAXPAVCDataExchange@@HJAAH@Z=stub__DDX_OCInt__YAXPAVCDataExchange__HJAAH_Z @3680
    ?DDX_OCInt@@YAXPAVCDataExchange@@HJAAJ@Z=stub__DDX_OCInt__YAXPAVCDataExchange__HJAAJ_Z @3681
    ?DDX_OCIntRO@@YAXPAVCDataExchange@@HJAAH@Z=stub__DDX_OCIntRO__YAXPAVCDataExchange__HJAAH_Z @3682
    ?DDX_OCIntRO@@YAXPAVCDataExchange@@HJAAJ@Z=stub__DDX_OCIntRO__YAXPAVCDataExchange__HJAAJ_Z @3683
    ?DDX_OCShort@@YAXPAVCDataExchange@@HJAAF@Z=stub__DDX_OCShort__YAXPAVCDataExchange__HJAAF_Z @3684
    ?DDX_OCShortRO@@YAXPAVCDataExchange@@HJAAF@Z=stub__DDX_OCShortRO__YAXPAVCDataExchange__HJAAF_Z @3685
    ?DDX_OCText@@YAXPAVCDataExchange@@HJAAV?$CStringT@_WV?$StrTraitMFC_DLL@_WV?$ChTraitsCRT@_W@ATL@@@@@ATL@@@Z=stub__DDX_OCText__YAXPAVCDataExchange__HJAAV__CStringT__WV__StrTraitMFC_DLL__WV__ChTraitsCRT__W_ATL_____ATL___Z @3686
    ?DDX_OCTextRO@@YAXPAVCDataExchange@@HJAAV?$CStringT@_WV?$StrTraitMFC_DLL@_WV?$ChTraitsCRT@_W@ATL@@@@@ATL@@@Z=stub__DDX_OCTextRO__YAXPAVCDataExchange__HJAAV__CStringT__WV__StrTraitMFC_DLL__WV__ChTraitsCRT__W_ATL_____ATL___Z @3687
    ?DDX_Radio@@YAXPAVCDataExchange@@HAAH@Z=stub__DDX_Radio__YAXPAVCDataExchange__HAAH_Z @3688
    ?DDX_Scroll@@YAXPAVCDataExchange@@HAAH@Z=stub__DDX_Scroll__YAXPAVCDataExchange__HAAH_Z @3689
    ?DDX_Slider@@YAXPAVCDataExchange@@HAAH@Z=stub__DDX_Slider__YAXPAVCDataExchange__HAAH_Z @3690
    ?DDX_Text@@YAXPAVCDataExchange@@HAA_J@Z=stub__DDX_Text__YAXPAVCDataExchange__HAA_J_Z @3691
    ?DDX_Text@@YAXPAVCDataExchange@@HAA_K@Z=stub__DDX_Text__YAXPAVCDataExchange__HAA_K_Z @3692
    ?DDX_Text@@YAXPAVCDataExchange@@HAAE@Z=stub__DDX_Text__YAXPAVCDataExchange__HAAE_Z @3693
    ?DDX_Text@@YAXPAVCDataExchange@@HAAF@Z=stub__DDX_Text__YAXPAVCDataExchange__HAAF_Z @3694
    ?DDX_Text@@YAXPAVCDataExchange@@HAAH@Z=stub__DDX_Text__YAXPAVCDataExchange__HAAH_Z @3695
    ?DDX_Text@@YAXPAVCDataExchange@@HAAI@Z=stub__DDX_Text__YAXPAVCDataExchange__HAAI_Z @3696
    ?DDX_Text@@YAXPAVCDataExchange@@HAAJ@Z=stub__DDX_Text__YAXPAVCDataExchange__HAAJ_Z @3697
    ?DDX_Text@@YAXPAVCDataExchange@@HAAK@Z=stub__DDX_Text__YAXPAVCDataExchange__HAAK_Z @3698
    ?DDX_Text@@YAXPAVCDataExchange@@HAAM@Z=stub__DDX_Text__YAXPAVCDataExchange__HAAM_Z @3699
    ?DDX_Text@@YAXPAVCDataExchange@@HAAN@Z=stub__DDX_Text__YAXPAVCDataExchange__HAAN_Z @3700
    ?DDX_Text@@YAXPAVCDataExchange@@HAAU_FILETIME@@@Z=stub__DDX_Text__YAXPAVCDataExchange__HAAU_FILETIME___Z @3701
    ?DDX_Text@@YAXPAVCDataExchange@@HAAU_GUID@@@Z=stub__DDX_Text__YAXPAVCDataExchange__HAAU_GUID___Z @3702
    ?DDX_Text@@YAXPAVCDataExchange@@HAAUtagDB_NUMERIC@@@Z=stub__DDX_Text__YAXPAVCDataExchange__HAAUtagDB_NUMERIC___Z @3703
    ?DDX_Text@@YAXPAVCDataExchange@@HAAUtagDBDATE@@@Z=stub__DDX_Text__YAXPAVCDataExchange__HAAUtagDBDATE___Z @3704
    ?DDX_Text@@YAXPAVCDataExchange@@HAAUtagDBTIME@@@Z=stub__DDX_Text__YAXPAVCDataExchange__HAAUtagDBTIME___Z @3705
    ?DDX_Text@@YAXPAVCDataExchange@@HAAUtagDEC@@@Z=stub__DDX_Text__YAXPAVCDataExchange__HAAUtagDEC___Z @3706
    ?DDX_Text@@YAXPAVCDataExchange@@HAAV?$CStringT@_WV?$StrTraitMFC_DLL@_WV?$ChTraitsCRT@_W@ATL@@@@@ATL@@@Z=stub__DDX_Text__YAXPAVCDataExchange__HAAV__CStringT__WV__StrTraitMFC_DLL__WV__ChTraitsCRT__W_ATL_____ATL___Z @3707
    ?DDX_Text@@YAXPAVCDataExchange@@HAAVCOleCurrency@@@Z=stub__DDX_Text__YAXPAVCDataExchange__HAAVCOleCurrency___Z @3708
    ?DDX_Text@@YAXPAVCDataExchange@@HAAVCOleDateTime@ATL@@@Z=stub__DDX_Text__YAXPAVCDataExchange__HAAVCOleDateTime_ATL___Z @3709
    ?DDX_Text@@YAXPAVCDataExchange@@HPA_WH@Z=stub__DDX_Text__YAXPAVCDataExchange__HPA_WH_Z @3710
    ?Deactivate@CMFCPropertyGridToolTipCtrl@@QAAXXZ=stub__Deactivate_CMFCPropertyGridToolTipCtrl__QAAXXZ @3711
    ?Deactivate@CMFCToolBar@@UAAXXZ=stub__Deactivate_CMFCToolBar__UAAXXZ @3712
    ?Deactivate@COleClientItem@@QAAXXZ=stub__Deactivate_COleClientItem__QAAXXZ @3713
    ?Deactivate@XPropertyPage@COlePropertyPage@@UAAJXZ=stub__Deactivate_XPropertyPage_COlePropertyPage__UAAJXZ @3714
    ?DeactivateAndUndo@COleServerDoc@@QAAHXZ=stub__DeactivateAndUndo_COleServerDoc__QAAHXZ @3715
    ?DeactivateAndUndo@XOleIPSite@COleClientItem@@UAAJXZ=stub__DeactivateAndUndo_XOleIPSite_COleClientItem__UAAJXZ @3716
    ?DeactivateAndUndo@XOleIPSite@COleControlSite@@UAAJXZ=stub__DeactivateAndUndo_XOleIPSite_COleControlSite__UAAJXZ @3717
    ?DeactivateKeyboardFocus@CMFCRibbonBar@@QAAXH@Z=stub__DeactivateKeyboardFocus_CMFCRibbonBar__QAAXH_Z @3718
    ?DeactivateMenu@CFrameImpl@@IAAXXZ=stub__DeactivateMenu_CFrameImpl__IAAXXZ @3719
    ?DeactivateUI@COleClientItem@@QAAXXZ=stub__DeactivateUI_COleClientItem__QAAXXZ @3720
    ?DecimalFromString@CGlobalUtils@@QAAHAAUtagDEC@@PB_W@Z=stub__DecimalFromString_CGlobalUtils__QAAHAAUtagDEC__PB_W_Z @3721
    ?Default@CFieldExchange@@QAAXPB_WPAXPAJHKK@Z=stub__Default_CFieldExchange__QAAXPB_WPAXPAJHKK_Z @3722
    ?Default@CWnd@@IAAJXZ=stub__Default_CWnd__IAAJXZ @3723
    ?DefWindowProcW@CMDIChildWnd@@MAAJIIJ@Z=stub__DefWindowProcW_CMDIChildWnd__MAAJIIJ_Z @3724
    ?DefWindowProcW@CMDIFrameWnd@@MAAJIIJ@Z=stub__DefWindowProcW_CMDIFrameWnd__MAAJIIJ_Z @3725
    ?DefWindowProcW@COleControl@@MAAJIIJ@Z=stub__DefWindowProcW_COleControl__MAAJIIJ_Z @3726
    ?DefWindowProcW@CPrintDialogEx@@UAAJIIJ@Z=stub__DefWindowProcW_CPrintDialogEx__UAAJIIJ_Z @3727
    ?DefWindowProcW@CWnd@@MAAJIIJ@Z=stub__DefWindowProcW_CWnd__MAAJIIJ_Z @3728
    ?DelayRenderData@COleDataSource@@QAAXGPAUtagFORMATETC@@@Z=stub__DelayRenderData_COleDataSource__QAAXGPAUtagFORMATETC___Z @3729
    ?DelayRenderFileData@COleDataSource@@QAAXGPAUtagFORMATETC@@@Z=stub__DelayRenderFileData_COleDataSource__QAAXGPAUtagFORMATETC___Z @3730
    ?DelaySetData@COleDataSource@@QAAXGPAUtagFORMATETC@@@Z=stub__DelaySetData_COleDataSource__QAAXGPAUtagFORMATETC___Z @3731
    ?DelayShow@CControlBar@@UAAXH@Z=stub__DelayShow_CControlBar__UAAXH_Z @3732
    ?DelayUpdateFrameMenu@CFrameWnd@@UAAXPAUHMENU__@@@Z=stub__DelayUpdateFrameMenu_CFrameWnd__UAAXPAUHMENU_____Z @3733
    ?DelayUpdateFrameMenu@CFrameWndEx@@UAAXPAUHMENU__@@@Z=stub__DelayUpdateFrameMenu_CFrameWndEx__UAAXPAUHMENU_____Z @3734
    ?DelayUpdateFrameMenu@CMDIFrameWnd@@UAAXPAUHMENU__@@@Z=stub__DelayUpdateFrameMenu_CMDIFrameWnd__UAAXPAUHMENU_____Z @3735
    ?Delete@?$CStringT@_WV?$StrTraitMFC_DLL@_WV?$ChTraitsCRT@_W@ATL@@@@@ATL@@QAAHHH@Z=stub__Delete___CStringT__WV__StrTraitMFC_DLL__WV__ChTraitsCRT__W_ATL_____ATL__QAAHHH_Z @3736
    ?Delete@?$CStringT@DV?$StrTraitMFC_DLL@DV?$ChTraitsCRT@D@ATL@@@@@ATL@@QAAHHH@Z=stub__Delete___CStringT_DV__StrTraitMFC_DLL_DV__ChTraitsCRT_D_ATL_____ATL__QAAHHH_Z @3737
    ?Delete@CException@@QAAXXZ=stub__Delete_CException__QAAXXZ @3738
    ?Delete@COleClientItem@@QAAXH@Z=stub__Delete_COleClientItem__QAAXH_Z @3739
    ?Delete@CRecordset@@UAAXXZ=stub__Delete_CRecordset__UAAXXZ @3740
    ?Delete@CWinThread@@UAAXXZ=stub__Delete_CWinThread__UAAXXZ @3741
    ?DeleteAllAutosavedFiles@CDataRecoveryHandler@@UAAHXZ=stub__DeleteAllAutosavedFiles_CDataRecoveryHandler__UAAHXZ @3742
    ?DeleteAutosavedFile@CDataRecoveryHandler@@UAAHABV?$CStringT@_WV?$StrTraitMFC_DLL@_WV?$ChTraitsCRT@_W@ATL@@@@@ATL@@@Z=stub__DeleteAutosavedFile_CDataRecoveryHandler__UAAHABV__CStringT__WV__StrTraitMFC_DLL__WV__ChTraitsCRT__W_ATL_____ATL___Z @3743
    ?DeleteColumn@CSplitterWnd@@UAAXH@Z=stub__DeleteColumn_CSplitterWnd__UAAXH_Z @3744
    ?DeleteContents@CDocument@@UAAXXZ=stub__DeleteContents_CDocument__UAAXXZ @3745
    ?DeleteContents@CEditView@@UAAXXZ=stub__DeleteContents_CEditView__UAAXXZ @3746
    ?DeleteContents@CHtmlEditDoc@@UAAXXZ=stub__DeleteContents_CHtmlEditDoc__UAAXXZ @3747
    ?DeleteContents@COleDocument@@UAAXXZ=stub__DeleteContents_COleDocument__UAAXXZ @3748
    ?DeleteContents@COleServerDoc@@UAAXXZ=stub__DeleteContents_COleServerDoc__UAAXXZ @3749
    ?DeleteContents@CRichEditDoc@@UAAXXZ=stub__DeleteContents_CRichEditDoc__UAAXXZ @3750
    ?DeleteContents@CRichEditView@@UAAXXZ=stub__DeleteContents_CRichEditView__UAAXXZ @3751
    ?DeleteDC@CDC@@QAAHXZ=stub__DeleteDC_CDC__QAAHXZ @3752
    ?DeleteIcon@CUserTool@@MAAXXZ=stub__DeleteIcon_CUserTool__MAAXXZ @3753
    ?DeleteImage@CMFCToolBarImages@@QAAHH@Z=stub__DeleteImage_CMFCToolBarImages__QAAHH_Z @3754
    ?DeleteImageList@CImageList@@QAAHXZ=stub__DeleteImageList_CImageList__QAAHXZ @3755
    ?DeleteItem@CComboBox@@UAAXPAUtagDELETEITEMSTRUCT@@@Z=stub__DeleteItem_CComboBox__UAAXPAUtagDELETEITEMSTRUCT___Z @3756
    ?DeleteItem@CComboBoxEx@@QAAHH@Z=stub__DeleteItem_CComboBoxEx__QAAHH_Z @3757
    ?DeleteItem@CListBox@@UAAXPAUtagDELETEITEMSTRUCT@@@Z=stub__DeleteItem_CListBox__UAAXPAUtagDELETEITEMSTRUCT___Z @3758
    ?DeleteItem@CMFCRibbonComboBox@@QAAHH@Z=stub__DeleteItem_CMFCRibbonComboBox__QAAHH_Z @3759
    ?DeleteItem@CMFCRibbonComboBox@@QAAHK@Z=stub__DeleteItem_CMFCRibbonComboBox__QAAHK_Z @3760
    ?DeleteItem@CMFCRibbonComboBox@@QAAHPB_W@Z=stub__DeleteItem_CMFCRibbonComboBox__QAAHPB_W_Z @3761
    ?DeleteItem@CMFCToolBarComboBoxButton@@QAAHH@Z=stub__DeleteItem_CMFCToolBarComboBoxButton__QAAHH_Z @3762
    ?DeleteItem@CMFCToolBarComboBoxButton@@QAAHK@Z=stub__DeleteItem_CMFCToolBarComboBoxButton__QAAHK_Z @3763
    ?DeleteItem@CMFCToolBarComboBoxButton@@QAAHPB_W@Z=stub__DeleteItem_CMFCToolBarComboBoxButton__QAAHPB_W_Z @3764
    ?DeleteKey@CSettingsStore@@UAAHPB_WH@Z=stub__DeleteKey_CSettingsStore__UAAHPB_WH_Z @3765
    ?DeleteObject@CGdiObject@@QAAHXZ=stub__DeleteObject_CGdiObject__QAAHXZ @3766
    ?DeleteObject@XRichEditOleCallback@CRichEditView@@UAAJPAUIOleObject@@@Z=stub__DeleteObject_XRichEditOleCallback_CRichEditView__UAAJPAUIOleObject___Z @3767
    ?DeletePane@CPaneContainer@@UAAXPAVCDockablePane@@W4BC_FIND_CRITERIA@1@@Z=stub__DeletePane_CPaneContainer__UAAXPAVCDockablePane__W4BC_FIND_CRITERIA_1__Z @3768
    ?DeleteProperty@CMFCPropertyGridCtrl@@QAAHAAPAVCMFCPropertyGridProperty@@HH@Z=stub__DeleteProperty_CMFCPropertyGridCtrl__QAAHAAPAVCMFCPropertyGridProperty__HH_Z @3769
    ?DeleteRow@CSplitterWnd@@UAAXH@Z=stub__DeleteRow_CSplitterWnd__UAAXH_Z @3770
    ?DeleteString@CMFCFontComboBox@@QAAHI@Z=stub__DeleteString_CMFCFontComboBox__QAAHI_Z @3771
    ?DeleteTemp@CHandleMap@@QAAXXZ=stub__DeleteTemp_CHandleMap__QAAXXZ @3772
    ?DeleteTempMap@CDC@@SAXXZ=stub__DeleteTempMap_CDC__SAXXZ @3773
    ?DeleteTempMap@CGdiObject@@SAXXZ=stub__DeleteTempMap_CGdiObject__SAXXZ @3774
    ?DeleteTempMap@CImageList@@SAXXZ=stub__DeleteTempMap_CImageList__SAXXZ @3775
    ?DeleteTempMap@CMenu@@SAXXZ=stub__DeleteTempMap_CMenu__SAXXZ @3776
    ?DeleteTempMap@CWnd@@SAXXZ=stub__DeleteTempMap_CWnd__SAXXZ @3777
    ?DeleteToolBar@CFrameImpl@@IAAHPAVCMFCToolBar@@@Z=stub__DeleteToolBar_CFrameImpl__IAAHPAVCMFCToolBar___Z @3778
    ?DeleteToolTip@CTooltipManager@@SAXAAPAVCToolTipCtrl@@@Z=stub__DeleteToolTip_CTooltipManager__SAXAAPAVCToolTipCtrl___Z @3779
    ?DeleteUnmarkedItems@CRichEditDoc@@IBAXXZ=stub__DeleteUnmarkedItems_CRichEditDoc__IBAXXZ @3780
    ?DeleteValue@CSettingsStore@@UAAHPB_W@Z=stub__DeleteValue_CSettingsStore__UAAHPB_W_Z @3781
    ?DeleteValues@CThreadSlotData@@QAAXPAUCThreadData@@PAUHINSTANCE__@@@Z=stub__DeleteValues_CThreadSlotData__QAAXPAUCThreadData__PAUHINSTANCE_____Z @3782
    ?DeleteValues@CThreadSlotData@@QAAXPAUHINSTANCE__@@H@Z=stub__DeleteValues_CThreadSlotData__QAAXPAUHINSTANCE____H_Z @3783
    ?DeleteView@CSplitterWnd@@UAAXHH@Z=stub__DeleteView_CSplitterWnd__UAAXHH_Z @3784
    ?DelRegTree@CWinApp@@QAAJPAUHKEY__@@ABV?$CStringT@_WV?$StrTraitMFC_DLL@_WV?$ChTraitsCRT@_W@ATL@@@@@ATL@@PAVCAtlTransactionManager@4@@Z=stub__DelRegTree_CWinApp__QAAJPAUHKEY____ABV__CStringT__WV__StrTraitMFC_DLL__WV__ChTraitsCRT__W_ATL_____ATL__PAVCAtlTransactionManager_4__Z @3785
    ?DelTool@CToolTipCtrl@@QAAXPAVCWnd@@I@Z=stub__DelTool_CToolTipCtrl__QAAXPAVCWnd__I_Z @3786
    ?Destroy@CD2DBitmap@@UAAXXZ=stub__Destroy_CD2DBitmap__UAAXXZ @3787
    ?Destroy@CD2DBitmapBrush@@UAAXXZ=stub__Destroy_CD2DBitmapBrush__UAAXXZ @3788
    ?Destroy@CD2DBrush@@UAAXXZ=stub__Destroy_CD2DBrush__UAAXXZ @3789
    ?Destroy@CD2DGeometry@@UAAXXZ=stub__Destroy_CD2DGeometry__UAAXXZ @3790
    ?Destroy@CD2DGradientBrush@@MAAXXZ=stub__Destroy_CD2DGradientBrush__MAAXXZ @3791
    ?Destroy@CD2DLayer@@UAAXXZ=stub__Destroy_CD2DLayer__UAAXXZ @3792
    ?Destroy@CD2DLinearGradientBrush@@UAAXXZ=stub__Destroy_CD2DLinearGradientBrush__UAAXXZ @3793
    ?Destroy@CD2DMesh@@UAAXXZ=stub__Destroy_CD2DMesh__UAAXXZ @3794
    ?Destroy@CD2DPathGeometry@@UAAXXZ=stub__Destroy_CD2DPathGeometry__UAAXXZ @3795
    ?Destroy@CD2DRadialGradientBrush@@UAAXXZ=stub__Destroy_CD2DRadialGradientBrush__UAAXXZ @3796
    ?Destroy@CD2DSolidColorBrush@@UAAXXZ=stub__Destroy_CD2DSolidColorBrush__UAAXXZ @3797
    ?Destroy@CMFCPreviewCtrlImpl@@UAAXXZ=stub__Destroy_CMFCPreviewCtrlImpl__UAAXXZ @3798
    ?Destroy@COleSafeArray@@QAAXXZ=stub__Destroy_COleSafeArray__QAAXXZ @3799
    ?Destroy@CRenderTarget@@QAAHH@Z=stub__Destroy_CRenderTarget__QAAHH_Z @3800
    ?Destroy@CSmartDockingGroupGuide@@UAAXXZ=stub__Destroy_CSmartDockingGroupGuide__UAAXXZ @3801
    ?Destroy@CSmartDockingGroupGuidesManager@@UAAXXZ=stub__Destroy_CSmartDockingGroupGuidesManager__UAAXXZ @3802
    ?Destroy@CSmartDockingManager@@QAAXXZ=stub__Destroy_CSmartDockingManager__QAAXXZ @3803
    ?Destroy@CSmartDockingStandaloneGuide@@UAAXXZ=stub__Destroy_CSmartDockingStandaloneGuide__UAAXXZ @3804
    ?DestroyControl@COleControlSite@@UAAHXZ=stub__DestroyControl_COleControlSite__UAAHXZ @3805
    ?DestroyCtrl@CMFCRibbonEdit@@UAAXXZ=stub__DestroyCtrl_CMFCRibbonEdit__UAAXXZ @3806
    ?DestroyData@COleSafeArray@@QAAXXZ=stub__DestroyData_COleSafeArray__QAAXXZ @3807
    ?DestroyDescriptor@COleSafeArray@@QAAXXZ=stub__DestroyDescriptor_COleSafeArray__QAAXXZ @3808
    ?DestroyDockBars@CFrameWnd@@QAAXXZ=stub__DestroyDockBars_CFrameWnd__QAAXXZ @3809
    ?DestroyImages@CSmartDockingGroupGuide@@MAAXXZ=stub__DestroyImages_CSmartDockingGroupGuide__MAAXXZ @3810
    ?DestroyInPlaceFrame@COleServerDoc@@MAAXPAVCOleIPFrameWnd@@@Z=stub__DestroyInPlaceFrame_COleServerDoc__MAAXPAVCOleIPFrameWnd___Z @3811
    ?DestroyInstance@CMFCVisualManager@@SAXH@Z=stub__DestroyInstance_CMFCVisualManager__SAXH_Z @3812
    ?DestroyMenu@CMenu@@QAAHXZ=stub__DestroyMenu_CMenu__QAAHXZ @3813
    ?DestroyModeless@CDHtmlDialog@@QAAXXZ=stub__DestroyModeless_CDHtmlDialog__QAAXXZ @3814
    ?DestroySharedMenu@COleControl@@MAAXXZ=stub__DestroySharedMenu_COleControl__MAAXXZ @3815
    ?DestroySharedMenu@COleDocIPFrameWnd@@MAAXXZ=stub__DestroySharedMenu_COleDocIPFrameWnd__MAAXXZ @3816
    ?DestroySharedMenu@COleIPFrameWnd@@MAAXXZ=stub__DestroySharedMenu_COleIPFrameWnd__MAAXXZ @3817
    ?DestroyToolTipCtrl@CToolTipCtrl@@QAAHXZ=stub__DestroyToolTipCtrl_CToolTipCtrl__QAAHXZ @3818
    ?DestroyTracker@COleControl@@IAAXXZ=stub__DestroyTracker_COleControl__IAAXXZ @3819
    ?DestroyWindow@CControlBar@@UAAHXZ=stub__DestroyWindow_CControlBar__UAAHXZ @3820
    ?DestroyWindow@CMDIChildWnd@@UAAHXZ=stub__DestroyWindow_CMDIChildWnd__UAAHXZ @3821
    ?DestroyWindow@CWnd@@UAAHXZ=stub__DestroyWindow_CWnd__UAAHXZ @3822
    ?Detach@CAsyncSocket@@QAAIXZ=stub__Detach_CAsyncSocket__QAAIXZ @3823
    ?Detach@CBitmapRenderTarget@@QAAPAUID2D1BitmapRenderTarget@@XZ=stub__Detach_CBitmapRenderTarget__QAAPAUID2D1BitmapRenderTarget__XZ @3824
    ?Detach@CD2DBitmap@@QAAPAUID2D1Bitmap@@XZ=stub__Detach_CD2DBitmap__QAAPAUID2D1Bitmap__XZ @3825
    ?Detach@CD2DBitmapBrush@@QAAPAUID2D1BitmapBrush@@XZ=stub__Detach_CD2DBitmapBrush__QAAPAUID2D1BitmapBrush__XZ @3826
    ?Detach@CD2DBrush@@QAAPAUID2D1Brush@@XZ=stub__Detach_CD2DBrush__QAAPAUID2D1Brush__XZ @3827
    ?Detach@CD2DGeometry@@QAAPAUID2D1Geometry@@XZ=stub__Detach_CD2DGeometry__QAAPAUID2D1Geometry__XZ @3828
    ?Detach@CD2DLayer@@QAAPAUID2D1Layer@@XZ=stub__Detach_CD2DLayer__QAAPAUID2D1Layer__XZ @3829
    ?Detach@CD2DLinearGradientBrush@@QAAPAUID2D1LinearGradientBrush@@XZ=stub__Detach_CD2DLinearGradientBrush__QAAPAUID2D1LinearGradientBrush__XZ @3830
    ?Detach@CD2DMesh@@QAAPAUID2D1Mesh@@XZ=stub__Detach_CD2DMesh__QAAPAUID2D1Mesh__XZ @3831
    ?Detach@CD2DPathGeometry@@QAAPAUID2D1PathGeometry@@XZ=stub__Detach_CD2DPathGeometry__QAAPAUID2D1PathGeometry__XZ @3832
    ?Detach@CD2DRadialGradientBrush@@QAAPAUID2D1RadialGradientBrush@@XZ=stub__Detach_CD2DRadialGradientBrush__QAAPAUID2D1RadialGradientBrush__XZ @3833
    ?Detach@CD2DSolidColorBrush@@QAAPAUID2D1SolidColorBrush@@XZ=stub__Detach_CD2DSolidColorBrush__QAAPAUID2D1SolidColorBrush__XZ @3834
    ?Detach@CDC@@QAAPAUHDC__@@XZ=stub__Detach_CDC__QAAPAUHDC____XZ @3835
    ?Detach@CDCRenderTarget@@QAAPAUID2D1DCRenderTarget@@XZ=stub__Detach_CDCRenderTarget__QAAPAUID2D1DCRenderTarget__XZ @3836
    ?Detach@CDialogTemplate@@QAAPAXXZ=stub__Detach_CDialogTemplate__QAAPAXXZ @3837
    ?Detach@CGdiObject@@QAAPAXXZ=stub__Detach_CGdiObject__QAAPAXXZ @3838
    ?Detach@CHwndRenderTarget@@QAAPAUID2D1HwndRenderTarget@@XZ=stub__Detach_CHwndRenderTarget__QAAPAUID2D1HwndRenderTarget__XZ @3839
    ?Detach@CImageList@@QAAPAU_IMAGELIST@@XZ=stub__Detach_CImageList__QAAPAU_IMAGELIST__XZ @3840
    ?Detach@CMemFile@@QAAPAEXZ=stub__Detach_CMemFile__QAAPAEXZ @3841
    ?Detach@CMenu@@QAAPAUHMENU__@@XZ=stub__Detach_CMenu__QAAPAUHMENU____XZ @3842
    ?Detach@CMonikerFile@@QAAHPAVCFileException@@@Z=stub__Detach_CMonikerFile__QAAHPAVCFileException___Z @3843
    ?Detach@COleDataObject@@QAAPAUIDataObject@@XZ=stub__Detach_COleDataObject__QAAPAUIDataObject__XZ @3844
    ?Detach@COleSafeArray@@QAA?AUtagVARIANT@@XZ=stub__Detach_COleSafeArray__QAA_AUtagVARIANT__XZ @3845
    ?Detach@COleStreamFile@@QAAPAUIStream@@XZ=stub__Detach_COleStreamFile__QAAPAUIStream__XZ @3846
    ?Detach@COleVariant@@QAA?AUtagVARIANT@@XZ=stub__Detach_COleVariant__QAA_AUtagVARIANT__XZ @3847
    ?Detach@CRenderTarget@@QAAPAUID2D1RenderTarget@@XZ=stub__Detach_CRenderTarget__QAAPAUID2D1RenderTarget__XZ @3848
    ?Detach@CSharedFile@@QAAPAXXZ=stub__Detach_CSharedFile__QAAPAXXZ @3849
    ?Detach@CWindowlessDC@@QAAPAUHDC__@@XZ=stub__Detach_CWindowlessDC__QAAPAUHDC____XZ @3850
    ?Detach@CWnd@@QAAPAUHWND__@@XZ=stub__Detach_CWnd__QAAPAUHWND____XZ @3851
    ?DetachDispatch@COleDispatchDriver@@QAAPAUIDispatch@@XZ=stub__DetachDispatch_COleDispatchDriver__QAAPAUIDispatch__XZ @3852
    ?DetachHandle@CAsyncSocket@@SAXIH@Z=stub__DetachHandle_CAsyncSocket__SAXIH_Z @3853
    ?DetachPane@CBaseTabbedPane@@UAAHPAVCWnd@@H@Z=stub__DetachPane_CBaseTabbedPane__UAAHPAVCWnd__H_Z @3854
    ?DetachPane@CTabbedPane@@UAAHPAVCWnd@@H@Z=stub__DetachPane_CTabbedPane__UAAHPAVCWnd__H_Z @3855
    ?DetachTab@CMFCBaseTabCtrl@@UAAHW4AFX_DOCK_METHOD@@HH@Z=stub__DetachTab_CMFCBaseTabCtrl__UAAHW4AFX_DOCK_METHOD__HH_Z @3856
    ?DetachWindow@COleControlSite@@QAAXXZ=stub__DetachWindow_COleControlSite__QAAXXZ @3857
    ?DeterminePaneAndStatus@CDockingManager@@UAA?AW4AFX_CS_STATUS@@VCPoint@@HKPAPAVCBasePane@@PBV4@2@Z=stub__DeterminePaneAndStatus_CDockingManager__UAA_AW4AFX_CS_STATUS__VCPoint__HKPAPAVCBasePane__PBV4_2_Z @3858
    ?DevModeChange@CWinApp@@QAAXPA_W@Z=stub__DevModeChange_CWinApp__QAAXPA_W_Z @3859
    ?DHtmlEventHook@CDHtmlEventSink@@UAAHPAJJPAUtagDISPPARAMS@@PAUtagVARIANT@@PAUtagEXCEPINFO@@PAI@Z=stub__DHtmlEventHook_CDHtmlEventSink__UAAHPAJJPAUtagDISPPARAMS__PAUtagVARIANT__PAUtagEXCEPINFO__PAI_Z @3860
    ?DialogMouseHookProc@CDialogImpl@@KAJHIJ@Z=stub__DialogMouseHookProc_CDialogImpl__KAJHIJ_Z @3861
    ?DidEvent@XNotifyDBEvents@COleControlSite@@UAAJKKQAUtagDBNOTIFYREASON@@@Z=stub__DidEvent_XNotifyDBEvents_COleControlSite__UAAJKKQAUtagDBNOTIFYREASON___Z @3862
    ?DisableMask@CMFCMaskedEdit@@QAAXXZ=stub__DisableMask_CMFCMaskedEdit__QAAXXZ @3863
    ?DiscardUndoState@COleServerDoc@@QAAHXZ=stub__DiscardUndoState_COleServerDoc__QAAHXZ @3864
    ?DiscardUndoState@XOleIPSite@COleClientItem@@UAAJXZ=stub__DiscardUndoState_XOleIPSite_COleClientItem__UAAJXZ @3865
    ?DiscardUndoState@XOleIPSite@COleControlSite@@UAAJXZ=stub__DiscardUndoState_XOleIPSite_COleControlSite__UAAJXZ @3866
    ?Disconnect@COleDispatchImpl@@UAAXXZ=stub__Disconnect_COleDispatchImpl__UAAXXZ @3867
    ?DisconnectDHtmlElementEvents@CDHtmlDialog@@IAAXXZ=stub__DisconnectDHtmlElementEvents_CDHtmlDialog__IAAXXZ @3868
    ?DisconnectDHtmlEvents@CDHtmlDialog@@IAAXXZ=stub__DisconnectDHtmlEvents_CDHtmlDialog__IAAXXZ @3869
    ?DisconnectFromConnectionPoint@CDHtmlEventSink@@QAAXPAUIUnknown@@ABU_GUID@@AAK@Z=stub__DisconnectFromConnectionPoint_CDHtmlEventSink__QAAXPAUIUnknown__ABU_GUID__AAK_Z @3870
    ?DisconnectSink@COleControlSite@@IAAXABU_GUID@@K@Z=stub__DisconnectSink_COleControlSite__IAAXABU_GUID__K_Z @3871
    ?DisconnectViews@CDocument@@QAAXXZ=stub__DisconnectViews_CDocument__QAAXXZ @3872
    ?DispatchThreadMessage@CWinThread@@IAAXPAUtagMSG@@@Z=stub__DispatchThreadMessage_CWinThread__IAAXPAUtagMSG___Z @3873
    ?DispatchThreadMessageEx@CWinThread@@IAAHPAUtagMSG@@@Z=stub__DispatchThreadMessageEx_CWinThread__IAAHPAUtagMSG___Z @3874
    ?DisplayError@COleControl@@UAAXJPB_W00I@Z=stub__DisplayError_COleControl__UAAXJPB_W00I_Z @3875
    ?DisplayFolder@CMFCShellListCtrl@@UAAJPAU_AFX_SHELLITEMINFO@@@Z=stub__DisplayFolder_CMFCShellListCtrl__UAAJPAU_AFX_SHELLITEMINFO___Z @3876
    ?DisplayFolder@CMFCShellListCtrl@@UAAJPB_W@Z=stub__DisplayFolder_CMFCShellListCtrl__UAAJPB_W_Z @3877
    ?DisplayParentFolder@CMFCShellListCtrl@@UAAJXZ=stub__DisplayParentFolder_CMFCShellListCtrl__UAAJXZ @3878
    ?DoBeginPrinting@CDocObjectServer@@IAAXPAVCView@@PAVCDC@@PAUCPrintInfo@@@Z=stub__DoBeginPrinting_CDocObjectServer__IAAXPAVCView__PAVCDC__PAUCPrintInfo___Z @3879
    ?DoBulkFieldExchange@CRecordset@@UAAXPAVCFieldExchange@@@Z=stub__DoBulkFieldExchange_CRecordset__UAAXPAVCFieldExchange___Z @3880
    ?DoCallBack@CAsyncSocket@@SAXIJ@Z=stub__DoCallBack_CAsyncSocket__SAXIJ_Z @3881
    ?DoChangeIcon@COleChangeIconDialog@@QAAHPAVCOleClientItem@@@Z=stub__DoChangeIcon_COleChangeIconDialog__QAAHPAVCOleClientItem___Z @3882
    ?Dock@CBaseTabbedPane@@MAAHPAVCBasePane@@PBUtagRECT@@W4AFX_DOCK_METHOD@@@Z=stub__Dock_CBaseTabbedPane__MAAHPAVCBasePane__PBUtagRECT__W4AFX_DOCK_METHOD___Z @3883
    ?Dock@CDockablePane@@MAAHPAVCBasePane@@PBUtagRECT@@W4AFX_DOCK_METHOD@@@Z=stub__Dock_CDockablePane__MAAHPAVCBasePane__PBUtagRECT__W4AFX_DOCK_METHOD___Z @3884
    ?Dock@CMFCOutlookBarPane@@UAAHPAVCBasePane@@PBUtagRECT@@W4AFX_DOCK_METHOD@@@Z=stub__Dock_CMFCOutlookBarPane__UAAHPAVCBasePane__PBUtagRECT__W4AFX_DOCK_METHOD___Z @3885
    ?Dock@CPane@@MAAHPAVCBasePane@@PBUtagRECT@@W4AFX_DOCK_METHOD@@@Z=stub__Dock_CPane__MAAHPAVCBasePane__PBUtagRECT__W4AFX_DOCK_METHOD___Z @3886
    ?DockByMouse@CPane@@UAAHPAVCBasePane@@@Z=stub__DockByMouse_CPane__UAAHPAVCBasePane___Z @3887
    ?DockControlBar@CDockBar@@QAAXPAVCControlBar@@PBUtagRECT@@@Z=stub__DockControlBar_CDockBar__QAAXPAVCControlBar__PBUtagRECT___Z @3888
    ?DockControlBar@CFrameWnd@@QAAXPAVCControlBar@@IPBUtagRECT@@@Z=stub__DockControlBar_CFrameWnd__QAAXPAVCControlBar__IPBUtagRECT___Z @3889
    ?DockControlBar@CFrameWnd@@QAAXPAVCControlBar@@PAVCDockBar@@PBUtagRECT@@@Z=stub__DockControlBar_CFrameWnd__QAAXPAVCControlBar__PAVCDockBar__PBUtagRECT___Z @3890
    ?DockFrame@CMultiPaneFrameWnd@@UAAHPAVCPaneFrameWnd@@W4AFX_DOCK_METHOD@@@Z=stub__DockFrame_CMultiPaneFrameWnd__UAAHPAVCPaneFrameWnd__W4AFX_DOCK_METHOD___Z @3891
    ?DockPane@CAutoHideDockSite@@UAAXPAVCPane@@W4AFX_DOCK_METHOD@@PBUtagRECT@@@Z=stub__DockPane_CAutoHideDockSite__UAAXPAVCPane__W4AFX_DOCK_METHOD__PBUtagRECT___Z @3892
    ?DockPane@CDockingManager@@QAAXPAVCBasePane@@IPBUtagRECT@@@Z=stub__DockPane_CDockingManager__QAAXPAVCBasePane__IPBUtagRECT___Z @3893
    ?DockPane@CDockSite@@UAAXPAVCPane@@W4AFX_DOCK_METHOD@@PBUtagRECT@@@Z=stub__DockPane_CDockSite__UAAXPAVCPane__W4AFX_DOCK_METHOD__PBUtagRECT___Z @3894
    ?DockPane@CFrameWndEx@@QAAXPAVCBasePane@@IPBUtagRECT@@@Z=stub__DockPane_CFrameWndEx__QAAXPAVCBasePane__IPBUtagRECT___Z @3895
    ?DockPane@CMDIChildWndEx@@QAAXPAVCBasePane@@IPBUtagRECT@@@Z=stub__DockPane_CMDIChildWndEx__QAAXPAVCBasePane__IPBUtagRECT___Z @3896
    ?DockPane@CMDIFrameWndEx@@QAAXPAVCBasePane@@IPBUtagRECT@@@Z=stub__DockPane_CMDIFrameWndEx__QAAXPAVCBasePane__IPBUtagRECT___Z @3897
    ?DockPane@CMultiPaneFrameWnd@@UAAHPAVCDockablePane@@@Z=stub__DockPane_CMultiPaneFrameWnd__UAAHPAVCDockablePane___Z @3898
    ?DockPane@COleCntrFrameWndEx@@QAAXPAVCBasePane@@IPBUtagRECT@@@Z=stub__DockPane_COleCntrFrameWndEx__QAAXPAVCBasePane__IPBUtagRECT___Z @3899
    ?DockPane@COleDocIPFrameWndEx@@QAAXPAVCBasePane@@IPBUtagRECT@@@Z=stub__DockPane_COleDocIPFrameWndEx__QAAXPAVCBasePane__IPBUtagRECT___Z @3900
    ?DockPane@COleIPFrameWndEx@@QAAXPAVCBasePane@@IPBUtagRECT@@@Z=stub__DockPane_COleIPFrameWndEx__QAAXPAVCBasePane__IPBUtagRECT___Z @3901
    ?DockPane@CPane@@UAAHPAVCBasePane@@PBUtagRECT@@W4AFX_DOCK_METHOD@@@Z=stub__DockPane_CPane__UAAHPAVCBasePane__PBUtagRECT__W4AFX_DOCK_METHOD___Z @3902
    ?DockPane@CPaneFrameWnd@@UAAPAVCDockablePane@@AAH@Z=stub__DockPane_CPaneFrameWnd__UAAPAVCDockablePane__AAH_Z @3903
    ?DockPaneContainer@CDockablePane@@UAAHAAVCPaneContainerManager@@KW4AFX_DOCK_METHOD@@@Z=stub__DockPaneContainer_CDockablePane__UAAHAAVCPaneContainerManager__KW4AFX_DOCK_METHOD___Z @3904
    ?DockPaneLeftOf@CDockingManager@@QAAHPAVCPane@@0@Z=stub__DockPaneLeftOf_CDockingManager__QAAHPAVCPane__0_Z @3905
    ?DockPaneLeftOf@CDockSite@@UAAHPAVCPane@@0@Z=stub__DockPaneLeftOf_CDockSite__UAAHPAVCPane__0_Z @3906
    ?DockPaneLeftOf@CFrameWndEx@@QAAHPAVCPane@@0@Z=stub__DockPaneLeftOf_CFrameWndEx__QAAHPAVCPane__0_Z @3907
    ?DockPaneLeftOf@CMDIChildWndEx@@QAAHPAVCPane@@0@Z=stub__DockPaneLeftOf_CMDIChildWndEx__QAAHPAVCPane__0_Z @3908
    ?DockPaneLeftOf@CMDIFrameWndEx@@QAAHPAVCPane@@0@Z=stub__DockPaneLeftOf_CMDIFrameWndEx__QAAHPAVCPane__0_Z @3909
    ?DockPaneLeftOf@COleCntrFrameWndEx@@QAAHPAVCPane@@0@Z=stub__DockPaneLeftOf_COleCntrFrameWndEx__QAAHPAVCPane__0_Z @3910
    ?DockPaneLeftOf@COleDocIPFrameWndEx@@QAAHPAVCPane@@0@Z=stub__DockPaneLeftOf_COleDocIPFrameWndEx__QAAHPAVCPane__0_Z @3911
    ?DockPaneLeftOf@COleIPFrameWndEx@@QAAHPAVCPane@@0@Z=stub__DockPaneLeftOf_COleIPFrameWndEx__QAAHPAVCPane__0_Z @3912
    ?DockPaneStandard@CDockablePane@@UAAPAVCPane@@AAH@Z=stub__DockPaneStandard_CDockablePane__UAAPAVCPane__AAH_Z @3913
    ?DockPaneStandard@CMultiPaneFrameWnd@@MAAPAVCDockablePane@@AAH@Z=stub__DockPaneStandard_CMultiPaneFrameWnd__MAAPAVCDockablePane__AAH_Z @3914
    ?DockPaneStandard@CPaneFrameWnd@@MAAPAVCDockablePane@@AAH@Z=stub__DockPaneStandard_CPaneFrameWnd__MAAPAVCDockablePane__AAH_Z @3915
    ?DockPaneUsingRTTI@CBasePane@@QAAXH@Z=stub__DockPaneUsingRTTI_CBasePane__QAAXH_Z @3916
    ?DockRecentPaneToMainFrame@CMultiPaneFrameWnd@@UAAXPAVCDockablePane@@@Z=stub__DockRecentPaneToMainFrame_CMultiPaneFrameWnd__UAAXPAVCDockablePane___Z @3917
    ?DockToFrameWindow@CDockablePane@@UAAHKPBUtagRECT@@KPAVCBasePane@@HH@Z=stub__DockToFrameWindow_CDockablePane__UAAHKPBUtagRECT__KPAVCBasePane__HH_Z @3918
    ?DockToWindow@CDockablePane@@UAAHPAV1@KPBUtagRECT@@@Z=stub__DockToWindow_CDockablePane__UAAHPAV1_KPBUtagRECT___Z @3919
    ?DoClick@COleControl@@QAAXXZ=stub__DoClick_COleControl__QAAXXZ @3920
    ?DoContextSensitiveHelp@COleFrameHook@@QAAHH@Z=stub__DoContextSensitiveHelp_COleFrameHook__QAAHH_Z @3921
    ?DoConvert@COleConvertDialog@@QAAHPAVCOleClientItem@@@Z=stub__DoConvert_COleConvertDialog__QAAHPAVCOleClientItem___Z @3922
    ?DocumentComplete@CHtmlView@@MAAXPAUIDispatch@@PAUtagVARIANT@@@Z=stub__DocumentComplete_CHtmlView__MAAXPAUIDispatch__PAUtagVARIANT___Z @3923
    ?DoD2DPaint@CWnd@@IAAHXZ=stub__DoD2DPaint_CWnd__IAAHXZ @3924
    ?DoDataExchange@CMFCColorDialog@@MAAXPAVCDataExchange@@@Z=stub__DoDataExchange_CMFCColorDialog__MAAXPAVCDataExchange___Z @3925
    ?DoDataExchange@CMFCCustomColorsPropertyPage@@MAAXPAVCDataExchange@@@Z=stub__DoDataExchange_CMFCCustomColorsPropertyPage__MAAXPAVCDataExchange___Z @3926
    ?DoDataExchange@CMFCImageEditorDialog@@MAAXPAVCDataExchange@@@Z=stub__DoDataExchange_CMFCImageEditorDialog__MAAXPAVCDataExchange___Z @3927
    ?DoDataExchange@CMFCKeyMapDialog@@MAAXPAVCDataExchange@@@Z=stub__DoDataExchange_CMFCKeyMapDialog__MAAXPAVCDataExchange___Z @3928
    ?DoDataExchange@CMFCMousePropertyPage@@MAAXPAVCDataExchange@@@Z=stub__DoDataExchange_CMFCMousePropertyPage__MAAXPAVCDataExchange___Z @3929
    ?DoDataExchange@CMFCRibbonCustomizePropertyPage@@MAAXPAVCDataExchange@@@Z=stub__DoDataExchange_CMFCRibbonCustomizePropertyPage__MAAXPAVCDataExchange___Z @3930
    ?DoDataExchange@CMFCRibbonKeyboardCustomizeDialog@@MAAXPAVCDataExchange@@@Z=stub__DoDataExchange_CMFCRibbonKeyboardCustomizeDialog__MAAXPAVCDataExchange___Z @3931
    ?DoDataExchange@CMFCStandardColorsPropertyPage@@MAAXPAVCDataExchange@@@Z=stub__DoDataExchange_CMFCStandardColorsPropertyPage__MAAXPAVCDataExchange___Z @3932
    ?DoDataExchange@CMFCToolBarButtonCustomizeDialog@@MAAXPAVCDataExchange@@@Z=stub__DoDataExchange_CMFCToolBarButtonCustomizeDialog__MAAXPAVCDataExchange___Z @3933
    ?DoDataExchange@CMFCToolBarNameDialog@@MAAXPAVCDataExchange@@@Z=stub__DoDataExchange_CMFCToolBarNameDialog__MAAXPAVCDataExchange___Z @3934
    ?DoDataExchange@CMFCToolBarsCommandsPropertyPage@@MAAXPAVCDataExchange@@@Z=stub__DoDataExchange_CMFCToolBarsCommandsPropertyPage__MAAXPAVCDataExchange___Z @3935
    ?DoDataExchange@CMFCToolBarsKeyboardPropertyPage@@MAAXPAVCDataExchange@@@Z=stub__DoDataExchange_CMFCToolBarsKeyboardPropertyPage__MAAXPAVCDataExchange___Z @3936
    ?DoDataExchange@CMFCToolBarsListPropertyPage@@MAAXPAVCDataExchange@@@Z=stub__DoDataExchange_CMFCToolBarsListPropertyPage__MAAXPAVCDataExchange___Z @3937
    ?DoDataExchange@CMFCToolBarsMenuPropertyPage@@MAAXPAVCDataExchange@@@Z=stub__DoDataExchange_CMFCToolBarsMenuPropertyPage__MAAXPAVCDataExchange___Z @3938
    ?DoDataExchange@CMFCToolBarsOptionsPropertyPage@@MAAXPAVCDataExchange@@@Z=stub__DoDataExchange_CMFCToolBarsOptionsPropertyPage__MAAXPAVCDataExchange___Z @3939
    ?DoDataExchange@CMFCToolBarsToolsPropertyPage@@MAAXPAVCDataExchange@@@Z=stub__DoDataExchange_CMFCToolBarsToolsPropertyPage__MAAXPAVCDataExchange___Z @3940
    ?DoDataExchange@CMFCWindowsManagerDialog@@MAAXPAVCDataExchange@@@Z=stub__DoDataExchange_CMFCWindowsManagerDialog__MAAXPAVCDataExchange___Z @3941
    ?DoDataExchange@COutlookOptionsDlg@@MAAXPAVCDataExchange@@@Z=stub__DoDataExchange_COutlookOptionsDlg__MAAXPAVCDataExchange___Z @3942
    ?DoDefault@CMFCShellListCtrl@@MAAXH@Z=stub__DoDefault_CMFCShellListCtrl__MAAXH_Z @3943
    ?DoDefaultPrinting@COleDocObjectItem@@SAJPAVCView@@PAUCPrintInfo@@@Z=stub__DoDefaultPrinting_COleDocObjectItem__SAJPAVCView__PAUCPrintInfo___Z @3944
    ?DoDragDrop@COleClientItem@@QAAKPBUtagRECT@@VCPoint@@HK0@Z=stub__DoDragDrop_COleClientItem__QAAKPBUtagRECT__VCPoint__HK0_Z @3945
    ?DoDragDrop@COleDataSource@@QAAKKPBUtagRECT@@PAVCOleDropSource@@@Z=stub__DoDragDrop_COleDataSource__QAAKKPBUtagRECT__PAVCOleDropSource___Z @3946
    ?DoDragDrop@COleServerItem@@QAAKPBUtagRECT@@VCPoint@@HK0@Z=stub__DoDragDrop_COleServerItem__QAAKPBUtagRECT__VCPoint__HK0_Z @3947
    ?DoDrawHeaderSortArrow@CMFCVisualManager@@QAAXPAVCDC@@VCRect@@HH@Z=stub__DoDrawHeaderSortArrow_CMFCVisualManager__QAAXPAVCDC__VCRect__HH_Z @3948
    ?DoEnableModeless@COleFrameHook@@QAAHH@Z=stub__DoEnableModeless_COleFrameHook__QAAHH_Z @3949
    ?DoEnableModeless@CWinApp@@SAXH@Z=stub__DoEnableModeless_CWinApp__SAXH_Z @3950
    ?DoEndPrinting@CDocObjectServer@@IAAXPAVCView@@PAVCDC@@PAUCPrintInfo@@@Z=stub__DoEndPrinting_CDocObjectServer__IAAXPAVCView__PAVCDC__PAUCPrintInfo___Z @3951
    ?DoesAllowDynInsertBefore@CPaneContainerManager@@UBAHXZ=stub__DoesAllowDynInsertBefore_CPaneContainerManager__UBAHXZ @3952
    ?DoesAllowDynInsertBefore@CPaneDivider@@UBAHXZ=stub__DoesAllowDynInsertBefore_CPaneDivider__UBAHXZ @3953
    ?DoesContainFloatingPane@CPaneContainerManager@@UAAHXZ=stub__DoesContainFloatingPane_CPaneContainerManager__UAAHXZ @3954
    ?DoesContainFloatingPane@CPaneDivider@@UAAHXZ=stub__DoesContainFloatingPane_CPaneDivider__UAAHXZ @3955
    ?DoFieldExchange@CRecordset@@UAAXPAVCFieldExchange@@@Z=stub__DoFieldExchange_CRecordset__UAAXPAVCFieldExchange___Z @3956
    ?DoFileSave@CDocument@@UAAHXZ=stub__DoFileSave_CDocument__UAAHXZ @3957
    ?DoKeyboardSplit@CSplitterWnd@@UAAHXZ=stub__DoKeyboardSplit_CSplitterWnd__UAAHXZ @3958
    ?DoMessageBox@CWinApp@@UAAHPB_WII@Z=stub__DoMessageBox_CWinApp__UAAHPB_WII_Z @3959
    ?DoModal@CColorDialog@@UAAHXZ=stub__DoModal_CColorDialog__UAAHXZ @3960
    ?DoModal@CDialog@@UAAHXZ=stub__DoModal_CDialog__UAAHXZ @3961
    ?DoModal@CFileDialog@@UAAHXZ=stub__DoModal_CFileDialog__UAAHXZ @3962
    ?DoModal@CFontDialog@@UAAHXZ=stub__DoModal_CFontDialog__UAAHXZ @3963
    ?DoModal@COleBusyDialog@@UAAHXZ=stub__DoModal_COleBusyDialog__UAAHXZ @3964
    ?DoModal@COleChangeIconDialog@@UAAHXZ=stub__DoModal_COleChangeIconDialog__UAAHXZ @3965
    ?DoModal@COleChangeSourceDialog@@UAAHXZ=stub__DoModal_COleChangeSourceDialog__UAAHXZ @3966
    ?DoModal@COleConvertDialog@@UAAHXZ=stub__DoModal_COleConvertDialog__UAAHXZ @3967
    ?DoModal@COleInsertDialog@@QAAHK@Z=stub__DoModal_COleInsertDialog__QAAHK_Z @3968
    ?DoModal@COleInsertDialog@@UAAHXZ=stub__DoModal_COleInsertDialog__UAAHXZ @3969
    ?DoModal@COleLinksDialog@@UAAHXZ=stub__DoModal_COleLinksDialog__UAAHXZ @3970
    ?DoModal@COlePasteSpecialDialog@@UAAHXZ=stub__DoModal_COlePasteSpecialDialog__UAAHXZ @3971
    ?DoModal@COlePropertiesDialog@@UAAHXZ=stub__DoModal_COlePropertiesDialog__UAAHXZ @3972
    ?DoModal@COleUpdateDialog@@UAAHXZ=stub__DoModal_COleUpdateDialog__UAAHXZ @3973
    ?DoModal@CPageSetupDialog@@UAAHXZ=stub__DoModal_CPageSetupDialog__UAAHXZ @3974
    ?DoModal@CPrintDialog@@UAAHXZ=stub__DoModal_CPrintDialog__UAAHXZ @3975
    ?DoModal@CPrintDialogEx@@UAAHXZ=stub__DoModal_CPrintDialogEx__UAAHXZ @3976
    ?DoModal@CPropertySheet@@UAAHXZ=stub__DoModal_CPropertySheet__UAAHXZ @3977
    ?DoModal@CTaskDialog@@QAAHPAUHWND__@@@Z=stub__DoModal_CTaskDialog__QAAHPAUHWND_____Z @3978
    ?DoMouseWheel@CScrollView@@QAAHIFVCPoint@@@Z=stub__DoMouseWheel_CScrollView__QAAHIFVCPoint___Z @3979
    ?DoOleVerb@CCmdTarget@@QAAHJPAUtagMSG@@PAUHWND__@@PBUtagRECT@@@Z=stub__DoOleVerb_CCmdTarget__QAAHJPAUtagMSG__PAUHWND____PBUtagRECT___Z @3980
    ?DoPaint@CBasePane@@MAAXPAVCDC@@@Z=stub__DoPaint_CBasePane__MAAXPAVCDC___Z @3981
    ?DoPaint@CControlBar@@UAAXPAVCDC@@@Z=stub__DoPaint_CControlBar__UAAXPAVCDC___Z @3982
    ?DoPaint@CDockBar@@UAAXPAVCDC@@@Z=stub__DoPaint_CDockBar__UAAXPAVCDC___Z @3983
    ?DoPaint@CMFCAutoHideBar@@MAAXPAVCDC@@@Z=stub__DoPaint_CMFCAutoHideBar__MAAXPAVCDC___Z @3984
    ?DoPaint@CMFCColorBar@@MAAXPAVCDC@@@Z=stub__DoPaint_CMFCColorBar__MAAXPAVCDC___Z @3985
    ?DoPaint@CMFCOutlookBarPane@@MAAXPAVCDC@@@Z=stub__DoPaint_CMFCOutlookBarPane__MAAXPAVCDC___Z @3986
    ?DoPaint@CMFCPopupMenu@@MAAXPAVCDC@@@Z=stub__DoPaint_CMFCPopupMenu__MAAXPAVCDC___Z @3987
    ?DoPaint@CMFCPreviewCtrlImpl@@MAAXPAVCPaintDC@@@Z=stub__DoPaint_CMFCPreviewCtrlImpl__MAAXPAVCPaintDC___Z @3988
    ?DoPaint@CMFCRibbonMainPanel@@MAAXPAVCDC@@@Z=stub__DoPaint_CMFCRibbonMainPanel__MAAXPAVCDC___Z @3989
    ?DoPaint@CMFCRibbonPanel@@MAAXPAVCDC@@@Z=stub__DoPaint_CMFCRibbonPanel__MAAXPAVCDC___Z @3990
    ?DoPaint@CMFCRibbonPanelMenu@@MAAXPAVCDC@@@Z=stub__DoPaint_CMFCRibbonPanelMenu__MAAXPAVCDC___Z @3991
    ?DoPaint@CMFCRibbonPanelMenuBar@@UAAXPAVCDC@@@Z=stub__DoPaint_CMFCRibbonPanelMenuBar__UAAXPAVCDC___Z @3992
    ?DoPaint@CMFCStatusBar@@MAAXPAVCDC@@@Z=stub__DoPaint_CMFCStatusBar__MAAXPAVCDC___Z @3993
    ?DoPaint@CMFCTasksPane@@MAAXPAVCDC@@@Z=stub__DoPaint_CMFCTasksPane__MAAXPAVCDC___Z @3994
    ?DoPaint@CMFCToolBar@@MAAXPAVCDC@@@Z=stub__DoPaint_CMFCToolBar__MAAXPAVCDC___Z @3995
    ?DoPaste@CRichEditView@@QAAXAAVCOleDataObject@@GPAX@Z=stub__DoPaste_CRichEditView__QAAXAAVCOleDataObject__GPAX_Z @3996
    ?DoPrepareDC@CDocObjectServer@@IAAXPAVCView@@PAVCDC@@PAUCPrintInfo@@@Z=stub__DoPrepareDC_CDocObjectServer__IAAXPAVCView__PAVCDC__PAUCPrintInfo___Z @3997
    ?DoPreparePrinting@CDocObjectServer@@IAAHPAVCView@@PAUCPrintInfo@@@Z=stub__DoPreparePrinting_CDocObjectServer__IAAHPAVCView__PAUCPrintInfo___Z @3998
    ?DoPreparePrinting@CView@@QAAHPAUCPrintInfo@@@Z=stub__DoPreparePrinting_CView__QAAHPAUCPrintInfo___Z @3999
    ?DoPreview@XPreviewHandler@CDocument@@UAAJXZ=stub__DoPreview_XPreviewHandler_CDocument__UAAJXZ @4000
    ?DoPrint@CDocObjectServer@@IAAXPAVCView@@PAVCDC@@PAUCPrintInfo@@@Z=stub__DoPrint_CDocObjectServer__IAAXPAVCView__PAVCDC__PAUCPrintInfo___Z @4001
    ?DoPrintDialog@CWinApp@@QAAHPAVCPrintDialog@@@Z=stub__DoPrintDialog_CWinApp__QAAHPAVCPrintDialog___Z @4002
    ?DoPrintPreview@CView@@QAAHIPAV1@PAUCRuntimeClass@@PAUCPrintPreviewState@@@Z=stub__DoPrintPreview_CView__QAAHIPAV1_PAUCRuntimeClass__PAUCPrintPreviewState___Z @4003
    ?DoPromptFileName@CDocManager@@UAAHAAV?$CStringT@_WV?$StrTraitMFC_DLL@_WV?$ChTraitsCRT@_W@ATL@@@@@ATL@@IKHPAVCDocTemplate@@@Z=stub__DoPromptFileName_CDocManager__UAAHAAV__CStringT__WV__StrTraitMFC_DLL__WV__ChTraitsCRT__W_ATL_____ATL__IKHPAVCDocTemplate___Z @4004
    ?DoPromptFileName@CWinApp@@QAAHAAV?$CStringT@_WV?$StrTraitMFC_DLL@_WV?$ChTraitsCRT@_W@ATL@@@@@ATL@@IKHPAVCDocTemplate@@@Z=stub__DoPromptFileName_CWinApp__QAAHAAV__CStringT__WV__StrTraitMFC_DLL__WV__ChTraitsCRT__W_ATL_____ATL__IKHPAVCDocTemplate___Z @4005
    ?DoPropExchange@COleControl@@UAAXPAVCPropExchange@@@Z=stub__DoPropExchange_COleControl__UAAXPAVCPropExchange___Z @4006
    ?DoSave@CDocument@@UAAHPB_WH@Z=stub__DoSave_CDocument__UAAHPB_WH_Z @4007
    ?DoSave@COleDocument@@UAAHPB_WH@Z=stub__DoSave_COleDocument__UAAHPB_WH_Z @4008
    ?DoScroll@CSplitterWnd@@UAAHPAVCView@@IH@Z=stub__DoScroll_CSplitterWnd__UAAHPAVCView__IH_Z @4009
    ?DoScrollBy@CSplitterWnd@@UAAHPAVCView@@VCSize@@H@Z=stub__DoScrollBy_CSplitterWnd__UAAHPAVCView__VCSize__H_Z @4010
    ?DoSuperclassPaint@COleControl@@QAAXPAVCDC@@ABVCRect@@@Z=stub__DoSuperclassPaint_COleControl__QAAXPAVCDC__ABVCRect___Z @4011
    ?DoUpdate@CCmdUI@@QAAHPAVCCmdTarget@@H@Z=stub__DoUpdate_CCmdUI__QAAHPAVCCmdTarget__H_Z @4012
    ?DoUpdate@CMFCMaskedEdit@@AAAHHHH@Z=stub__DoUpdate_CMFCMaskedEdit__AAAHHHH_Z @4013
    ?DoUpdate@COleCmdUI@@UAAHPAVCCmdTarget@@H@Z=stub__DoUpdate_COleCmdUI__UAAHPAVCCmdTarget__H_Z @4014
    ?DoVerb@COleClientItem@@UAAHJPAVCView@@PAUtagMSG@@@Z=stub__DoVerb_COleClientItem__UAAHJPAVCView__PAUtagMSG___Z @4015
    ?DoVerb@COleControlSite@@UAAJJPAUtagMSG@@@Z=stub__DoVerb_COleControlSite__UAAJJPAUtagMSG___Z @4016
    ?DoVerb@XOleObject@CDocObjectServer@@UAAJJPAUtagMSG@@PAUIOleClientSite@@JPAUHWND__@@PBUtagRECT@@@Z=stub__DoVerb_XOleObject_CDocObjectServer__UAAJJPAUtagMSG__PAUIOleClientSite__JPAUHWND____PBUtagRECT___Z @4017
    ?DoVerb@XOleObject@COleControl@@UAAJJPAUtagMSG@@PAUIOleClientSite@@JPAUHWND__@@PBUtagRECT@@@Z=stub__DoVerb_XOleObject_COleControl__UAAJJPAUtagMSG__PAUIOleClientSite__JPAUHWND____PBUtagRECT___Z @4018
    ?DoVerb@XOleObject@COleServerDoc@@UAAJJPAUtagMSG@@PAUIOleClientSite@@JPAUHWND__@@PBUtagRECT@@@Z=stub__DoVerb_XOleObject_COleServerDoc__UAAJJPAUtagMSG__PAUIOleClientSite__JPAUHWND____PBUtagRECT___Z @4019
    ?DoVerb@XOleObject@COleServerItem@@UAAJJPAUtagMSG@@PAUIOleClientSite@@JPAUHWND__@@PBUtagRECT@@@Z=stub__DoVerb_XOleObject_COleServerItem__UAAJJPAUtagMSG__PAUIOleClientSite__JPAUHWND____PBUtagRECT___Z @4020
    ?DoWaitCursor@CWinApp@@UAAXH@Z=stub__DoWaitCursor_CWinApp__UAAXH_Z @4021
    ?DoZoom@CPreviewView@@IAAXIVCPoint@@@Z=stub__DoZoom_CPreviewView__IAAXIVCPoint___Z @4022
    ?DPtoHIMETRIC@CDC@@QBAXPAUtagSIZE@@@Z=stub__DPtoHIMETRIC_CDC__QBAXPAUtagSIZE___Z @4023
    ?DPtoLP@CDC@@QBAXPAUtagSIZE@@@Z=stub__DPtoLP_CDC__QBAXPAUtagSIZE___Z @4024
    ?DragEnter@XDropTarget@COleDropTarget@@UAAJPAUIDataObject@@KU_POINTL@@PAK@Z=stub__DragEnter_XDropTarget_COleDropTarget__UAAJPAUIDataObject__KU_POINTL__PAK_Z @4025
    ?Dragging@CDragListBox@@UAAIVCPoint@@@Z=stub__Dragging_CDragListBox__UAAIVCPoint___Z @4026
    ?DragLeave@XDropTarget@COleDropTarget@@UAAJXZ=stub__DragLeave_XDropTarget_COleDropTarget__UAAJXZ @4027
    ?DragOver@XDropTarget@COleDropTarget@@UAAJKU_POINTL@@PAK@Z=stub__DragOver_XDropTarget_COleDropTarget__UAAJKU_POINTL__PAK_Z @4028
    ?Draw@CMenuImages@@SAXPAVCDC@@W4IMAGES_IDS@1@ABVCPoint@@W4IMAGE_STATE@1@ABVCSize@@@Z=stub__Draw_CMenuImages__SAXPAVCDC__W4IMAGES_IDS_1_ABVCPoint__W4IMAGE_STATE_1_ABVCSize___Z @4029
    ?Draw@CMenuImages@@SAXPAVCDC@@W4IMAGES_IDS@1@ABVCRect@@W4IMAGE_STATE@1@ABVCSize@@@Z=stub__Draw_CMenuImages__SAXPAVCDC__W4IMAGES_IDS_1_ABVCRect__W4IMAGE_STATE_1_ABVCSize___Z @4030
    ?Draw@CMFCControlRenderer@@UAAXPAVCDC@@VCRect@@IE@Z=stub__Draw_CMFCControlRenderer__UAAXPAVCDC__VCRect__IE_Z @4031
    ?Draw@CMFCShadowRenderer@@UAAXPAVCDC@@VCRect@@IE@Z=stub__Draw_CMFCShadowRenderer__UAAXPAVCDC__VCRect__IE_Z @4032
    ?Draw@CMFCToolBarImages@@QAAHPAVCDC@@HHHHHHHHE@Z=stub__Draw_CMFCToolBarImages__QAAHPAVCDC__HHHHHHHHE_Z @4033
    ?Draw@CMFCVisualManagerBitmapCacheItem@CMFCVisualManagerBitmapCache@@QAAXPAVCDC@@VCRect@@HE@Z=stub__Draw_CMFCVisualManagerBitmapCacheItem_CMFCVisualManagerBitmapCache__QAAXPAVCDC__VCRect__HE_Z @4034
    ?Draw@COleClientItem@@QAAHPAVCDC@@PBUtagRECT@@W4tagDVASPECT@@@Z=stub__Draw_COleClientItem__QAAHPAVCDC__PBUtagRECT__W4tagDVASPECT___Z @4035
    ?Draw@CRectTracker@@QBAXPAVCDC@@@Z=stub__Draw_CRectTracker__QBAXPAVCDC___Z @4036
    ?Draw@CSmartDockingGroupGuide@@MAAXAAVCDC@@H@Z=stub__Draw_CSmartDockingGroupGuide__MAAXAAVCDC__H_Z @4037
    ?Draw@XViewObject@COleControl@@UAAJKJPAXPAUtagDVTARGETDEVICE@@PAUHDC__@@2PBU_RECTL@@3P6AHK@ZK@Z=stub__Draw_XViewObject_COleControl__UAAJKJPAXPAUtagDVTARGETDEVICE__PAUHDC____2PBU_RECTL__3P6AHK_ZK_Z @4038
    ?Draw3dRect@CDC@@QAAXHHHHKK@Z=stub__Draw3dRect_CDC__QAAXHHHHKK_Z @4039
    ?Draw3dRect@CDC@@QAAXPBUtagRECT@@KK@Z=stub__Draw3dRect_CDC__QAAXPBUtagRECT__KK_Z @4040
    ?Draw3DTab@CMFCTabCtrl@@MAAXPAVCDC@@PAVCMFCTabInfo@@H@Z=stub__Draw3DTab_CMFCTabCtrl__MAAXPAVCDC__PAVCMFCTabInfo__H_Z @4041
    ?DrawAllSplitBars@CSplitterWnd@@MAAXPAVCDC@@HH@Z=stub__DrawAllSplitBars_CSplitterWnd__MAAXPAVCDC__HH_Z @4042
    ?DrawAlpha@CDrawingManager@@QAAXPAVCDC@@ABVCRect@@01@Z=stub__DrawAlpha_CDrawingManager__QAAXPAVCDC__ABVCRect__01_Z @4043
    ?DrawAnimation@CMFCDesktopAlertWnd@@IAAXPAVCDC@@@Z=stub__DrawAnimation_CMFCDesktopAlertWnd__IAAXPAVCDC___Z @4044
    ?DrawApplicationButton@CMFCRibbonMainPanel@@IAAXPAVCDC@@PAVCWnd@@@Z=stub__DrawApplicationButton_CMFCRibbonMainPanel__IAAXPAVCDC__PAVCWnd___Z @4045
    ?DrawBitmap@CRenderTarget@@QAAXPAVCD2DBitmap@@ABVCD2DRectF@@MW4D2D1_BITMAP_INTERPOLATION_MODE@@PBV3@@Z=stub__DrawBitmap_CRenderTarget__QAAXPAVCD2DBitmap__ABVCD2DRectF__MW4D2D1_BITMAP_INTERPOLATION_MODE__PBV3__Z @4046
    ?DrawBorder@CMFCButton@@IAAXPAVCDC@@AAVCRect@@I@Z=stub__DrawBorder_CMFCButton__IAAXPAVCDC__AAVCRect__I_Z @4047
    ?DrawBorders@CControlBar@@UAAXPAVCDC@@AAVCRect@@@Z=stub__DrawBorders_CControlBar__UAAXPAVCDC__AAVCRect___Z @4048
    ?DrawBottomText@CMFCRibbonButton@@QAA?AVCSize@@PAVCDC@@H@Z=stub__DrawBottomText_CMFCRibbonButton__QAA_AVCSize__PAVCDC__H_Z @4049
    ?DrawButton@CMFCToolBar@@MAAHPAVCDC@@PAVCMFCToolBarButton@@PAVCMFCToolBarImages@@HH@Z=stub__DrawButton_CMFCToolBar__MAAHPAVCDC__PAVCMFCToolBarButton__PAVCMFCToolBarImages__HH_Z @4050
    ?DrawCaption@CDockablePane@@MAAXPAVCDC@@VCRect@@@Z=stub__DrawCaption_CDockablePane__MAAXPAVCDC__VCRect___Z @4051
    ?DrawCaption@CMFCTasksPane@@MAAXPAVCDC@@VCRect@@@Z=stub__DrawCaption_CMFCTasksPane__MAAXPAVCDC__VCRect___Z @4052
    ?DrawCentralGroupGuides@CSmartDockingGroupGuidesManager@@IAAXAAVCDC@@AAVCBrush@@1VCRect@@@Z=stub__DrawCentralGroupGuides_CSmartDockingGroupGuidesManager__IAAXAAVCDC__AAVCBrush__1VCRect___Z @4053
    ?DrawCheckBox@CMFCBaseVisualManager@@UAAHPAVCDC@@VCRect@@HHHH@Z=stub__DrawCheckBox_CMFCBaseVisualManager__UAAHPAVCDC__VCRect__HHHH_Z @4054
    ?DrawCheckBox@CMFCCustomizeMenuButton@@MAAXPAVCDC@@ABVCRect@@H@Z=stub__DrawCheckBox_CMFCCustomizeMenuButton__MAAXPAVCDC__ABVCRect__H_Z @4055
    ?DrawComboBorder@CMFCBaseVisualManager@@UAAHPAVCDC@@VCRect@@HHH@Z=stub__DrawComboBorder_CMFCBaseVisualManager__UAAHPAVCDC__VCRect__HHH_Z @4056
    ?DrawComboDropButton@CMFCBaseVisualManager@@UAAHPAVCDC@@VCRect@@HHH@Z=stub__DrawComboDropButton_CMFCBaseVisualManager__UAAHPAVCDC__VCRect__HHH_Z @4057
    ?DrawContent@COleControl@@IAAXPAVCDC@@AAVCRect@@@Z=stub__DrawContent_COleControl__IAAXPAVCDC__AAVCRect___Z @4058
    ?DrawCursor@CMFCColorPickerCtrl@@MAAXPAVCDC@@ABVCRect@@@Z=stub__DrawCursor_CMFCColorPickerCtrl__MAAXPAVCDC__ABVCRect___Z @4059
    ?DrawCustomizeButton@CMFCVisualManagerOffice2003@@UAAXPAVCDC@@VCRect@@HW4AFX_BUTTON_STATE@CMFCVisualManager@@HH@Z=stub__DrawCustomizeButton_CMFCVisualManagerOffice2003__UAAXPAVCDC__VCRect__HW4AFX_BUTTON_STATE_CMFCVisualManager__HH_Z @4060
    ?DrawDocumentIcon@CMFCToolBarMenuButton@@IAAXPAVCDC@@ABVCRect@@PAUHICON__@@@Z=stub__DrawDocumentIcon_CMFCToolBarMenuButton__IAAXPAVCDC__ABVCRect__PAUHICON_____Z @4061
    ?DrawDragCursor@CMFCPopupMenuBar@@MAAXPAVCDC@@@Z=stub__DrawDragCursor_CMFCPopupMenuBar__MAAXPAVCDC___Z @4062
    ?DrawDragCursor@CMFCToolBar@@MAAXPAVCDC@@@Z=stub__DrawDragCursor_CMFCToolBar__MAAXPAVCDC___Z @4063
    ?DrawDragFrame@CMFCDragFrameImpl@@IAAXPBUtagRECT@@0HHH@Z=stub__DrawDragFrame_CMFCDragFrameImpl__IAAXPBUtagRECT__0HHH_Z @4064
    ?DrawDragRect@CDC@@QAAXPBUtagRECT@@UtagSIZE@@01PAVCBrush@@2@Z=stub__DrawDragRect_CDC__QAAXPBUtagRECT__UtagSIZE__01PAVCBrush__2_Z @4065
    ?DrawEllipse@CDrawingManager@@QAAXABVCRect@@KK@Z=stub__DrawEllipse_CDrawingManager__QAAXABVCRect__KK_Z @4066
    ?DrawEllipse@CRenderTarget@@QAAXABVCD2DEllipse@@PAVCD2DBrush@@MPAUID2D1StrokeStyle@@@Z=stub__DrawEllipse_CRenderTarget__QAAXABVCD2DEllipse__PAVCD2DBrush__MPAUID2D1StrokeStyle___Z @4067
    ?DrawEx@CMFCToolBarImages@@QAAHPAVCDC@@VCRect@@HW4ImageAlignHorz@1@W4ImageAlignVert@1@1E@Z=stub__DrawEx_CMFCToolBarImages__QAAHPAVCDC__VCRect__HW4ImageAlignHorz_1_W4ImageAlignVert_1_1E_Z @4068
    ?DrawFade@CMFCPopupMenu@@MAAXPAVCDC@@@Z=stub__DrawFade_CMFCPopupMenu__MAAXPAVCDC___Z @4069
    ?DrawFlatTab@CMFCTabCtrl@@MAAXPAVCDC@@PAVCMFCTabInfo@@H@Z=stub__DrawFlatTab_CMFCTabCtrl__MAAXPAVCDC__PAVCMFCTabInfo__H_Z @4070
    ?DrawFocusRect@CDockContext@@QAAXH@Z=stub__DrawFocusRect_CDockContext__QAAXH_Z @4071
    ?DrawFrame@CMFCControlRenderer@@UAAXPAVCDC@@VCRect@@IE@Z=stub__DrawFrame_CMFCControlRenderer__UAAXPAVCDC__VCRect__IE_Z @4072
    ?DrawFrame@CMFCShadowRenderer@@UAAXPAVCDC@@VCRect@@IE@Z=stub__DrawFrame_CMFCShadowRenderer__UAAXPAVCDC__VCRect__IE_Z @4073
    ?DrawFrameTab@CMFCDragFrameImpl@@IAAXPAVCDockablePane@@H@Z=stub__DrawFrameTab_CMFCDragFrameImpl__IAAXPAVCDockablePane__H_Z @4074
    ?DrawGeometry@CRenderTarget@@QAAXPAVCD2DGeometry@@PAVCD2DBrush@@MPAUID2D1StrokeStyle@@@Z=stub__DrawGeometry_CRenderTarget__QAAXPAVCD2DGeometry__PAVCD2DBrush__MPAUID2D1StrokeStyle___Z @4075
    ?DrawGlyphRun@CRenderTarget@@QAAXABVCD2DPointF@@ABUDWRITE_GLYPH_RUN@@PAVCD2DBrush@@W4DWRITE_MEASURING_MODE@@@Z=stub__DrawGlyphRun_CRenderTarget__QAAXABVCD2DPointF__ABUDWRITE_GLYPH_RUN__PAVCD2DBrush__W4DWRITE_MEASURING_MODE___Z @4076
    ?DrawGradientRing@CDrawingManager@@QAAHVCRect@@KKKHHK@Z=stub__DrawGradientRing_CDrawingManager__QAAHVCRect__KKKHHK_Z @4077
    ?DrawGripper@CControlBar@@UAAXPAVCDC@@ABVCRect@@@Z=stub__DrawGripper_CControlBar__UAAXPAVCDC__ABVCRect___Z @4078
    ?DrawHex@CMFCColorPickerCtrl@@IAAXPAVCDC@@@Z=stub__DrawHex_CMFCColorPickerCtrl__IAAXPAVCDC___Z @4079
    ?DrawImage@CMFCRibbonApplicationButton@@MAAXPAVCDC@@W4RibbonImageType@CMFCRibbonBaseElement@@VCRect@@@Z=stub__DrawImage_CMFCRibbonApplicationButton__MAAXPAVCDC__W4RibbonImageType_CMFCRibbonBaseElement__VCRect___Z @4080
    ?DrawImage@CMFCRibbonButton@@UAAXPAVCDC@@W4RibbonImageType@CMFCRibbonBaseElement@@VCRect@@@Z=stub__DrawImage_CMFCRibbonButton__UAAXPAVCDC__W4RibbonImageType_CMFCRibbonBaseElement__VCRect___Z @4081
    ?DrawImage@CMFCRibbonColorButton@@MAAXPAVCDC@@W4RibbonImageType@CMFCRibbonBaseElement@@VCRect@@@Z=stub__DrawImage_CMFCRibbonColorButton__MAAXPAVCDC__W4RibbonImageType_CMFCRibbonBaseElement__VCRect___Z @4082
    ?DrawImage@CMFCRibbonDefaultPanelButton@@UAAXPAVCDC@@W4RibbonImageType@CMFCRibbonBaseElement@@VCRect@@@Z=stub__DrawImage_CMFCRibbonDefaultPanelButton__UAAXPAVCDC__W4RibbonImageType_CMFCRibbonBaseElement__VCRect___Z @4083
    ?DrawIndirect@CImageList@@QAAHPAU_IMAGELISTDRAWPARAMS@@@Z=stub__DrawIndirect_CImageList__QAAHPAU_IMAGELISTDRAWPARAMS___Z @4084
    ?DrawIndirect@CImageList@@QAAHPAVCDC@@HUtagPOINT@@UtagSIZE@@1IKKKKKK@Z=stub__DrawIndirect_CImageList__QAAHPAVCDC__HUtagPOINT__UtagSIZE__1IKKKKKK_Z @4085
    ?DrawInsert@CDragListBox@@UAAXH@Z=stub__DrawInsert_CDragListBox__UAAXH_Z @4086
    ?DrawItem@CBitmapButton@@MAAXPAUtagDRAWITEMSTRUCT@@@Z=stub__DrawItem_CBitmapButton__MAAXPAUtagDRAWITEMSTRUCT___Z @4087
    ?DrawItem@CButton@@UAAXPAUtagDRAWITEMSTRUCT@@@Z=stub__DrawItem_CButton__UAAXPAUtagDRAWITEMSTRUCT___Z @4088
    ?DrawItem@CCheckListBox@@UAAXPAUtagDRAWITEMSTRUCT@@@Z=stub__DrawItem_CCheckListBox__UAAXPAUtagDRAWITEMSTRUCT___Z @4089
    ?DrawItem@CChevronOwnerDrawMenu@@UAAXPAUtagDRAWITEMSTRUCT@@@Z=stub__DrawItem_CChevronOwnerDrawMenu__UAAXPAUtagDRAWITEMSTRUCT___Z @4090
    ?DrawItem@CComboBox@@UAAXPAUtagDRAWITEMSTRUCT@@@Z=stub__DrawItem_CComboBox__UAAXPAUtagDRAWITEMSTRUCT___Z @4091
    ?DrawItem@CHeaderCtrl@@UAAXPAUtagDRAWITEMSTRUCT@@@Z=stub__DrawItem_CHeaderCtrl__UAAXPAUtagDRAWITEMSTRUCT___Z @4092
    ?DrawItem@CListBox@@UAAXPAUtagDRAWITEMSTRUCT@@@Z=stub__DrawItem_CListBox__UAAXPAUtagDRAWITEMSTRUCT___Z @4093
    ?DrawItem@CListCtrl@@UAAXPAUtagDRAWITEMSTRUCT@@@Z=stub__DrawItem_CListCtrl__UAAXPAUtagDRAWITEMSTRUCT___Z @4094
    ?DrawItem@CListView@@UAAXPAUtagDRAWITEMSTRUCT@@@Z=stub__DrawItem_CListView__UAAXPAUtagDRAWITEMSTRUCT___Z @4095
    ?DrawItem@CMenu@@UAAXPAUtagDRAWITEMSTRUCT@@@Z=stub__DrawItem_CMenu__UAAXPAUtagDRAWITEMSTRUCT___Z @4096
    ?DrawItem@CMFCButton@@UAAXPAUtagDRAWITEMSTRUCT@@@Z=stub__DrawItem_CMFCButton__UAAXPAUtagDRAWITEMSTRUCT___Z @4097
    ?DrawItem@CMFCColorPickerCtrl@@MAAXPAUtagDRAWITEMSTRUCT@@@Z=stub__DrawItem_CMFCColorPickerCtrl__MAAXPAUtagDRAWITEMSTRUCT___Z @4098
    ?DrawItem@CMFCFontComboBox@@UAAXPAUtagDRAWITEMSTRUCT@@@Z=stub__DrawItem_CMFCFontComboBox__UAAXPAUtagDRAWITEMSTRUCT___Z @4099
    ?DrawItem@CMFCImagePaintArea@@MAAXPAUtagDRAWITEMSTRUCT@@@Z=stub__DrawItem_CMFCImagePaintArea__MAAXPAUtagDRAWITEMSTRUCT___Z @4100
    ?DrawItem@CMFCPropertySheetListBox@@EAAXPAUtagDRAWITEMSTRUCT@@@Z=stub__DrawItem_CMFCPropertySheetListBox__EAAXPAUtagDRAWITEMSTRUCT___Z @4101
    ?DrawItem@CMFCRibbonCommandsListBox@@MAAXPAUtagDRAWITEMSTRUCT@@@Z=stub__DrawItem_CMFCRibbonCommandsListBox__MAAXPAUtagDRAWITEMSTRUCT___Z @4102
    ?DrawItem@CMFCToolBarButtonsListButton@@UAAXPAUtagDRAWITEMSTRUCT@@@Z=stub__DrawItem_CMFCToolBarButtonsListButton__UAAXPAUtagDRAWITEMSTRUCT___Z @4103
    ?DrawItem@CMFCToolBarsCommandsListBox@@UAAXPAUtagDRAWITEMSTRUCT@@@Z=stub__DrawItem_CMFCToolBarsCommandsListBox__UAAXPAUtagDRAWITEMSTRUCT___Z @4104
    ?DrawItem@CStatic@@UAAXPAUtagDRAWITEMSTRUCT@@@Z=stub__DrawItem_CStatic__UAAXPAUtagDRAWITEMSTRUCT___Z @4105
    ?DrawItem@CStatusBar@@UAAXPAUtagDRAWITEMSTRUCT@@@Z=stub__DrawItem_CStatusBar__UAAXPAUtagDRAWITEMSTRUCT___Z @4106
    ?DrawItem@CStatusBarCtrl@@UAAXPAUtagDRAWITEMSTRUCT@@@Z=stub__DrawItem_CStatusBarCtrl__UAAXPAUtagDRAWITEMSTRUCT___Z @4107
    ?DrawItem@CTabCtrl@@UAAXPAUtagDRAWITEMSTRUCT@@@Z=stub__DrawItem_CTabCtrl__UAAXPAUtagDRAWITEMSTRUCT___Z @4108
    ?DrawLine@CDrawingManager@@QAAXHHHHK@Z=stub__DrawLine_CDrawingManager__QAAXHHHHK_Z @4109
    ?DrawLine@CRenderTarget@@QAAXABVCD2DPointF@@0PAVCD2DBrush@@MPAUID2D1StrokeStyle@@@Z=stub__DrawLine_CRenderTarget__QAAXABVCD2DPointF__0PAVCD2DBrush__MPAUID2D1StrokeStyle___Z @4110
    ?DrawLineA@CDrawingManager@@QAAXNNNNK@Z=stub__DrawLineA_CDrawingManager__QAAXNNNNK_Z @4111
    ?DrawLuminanceBar@CMFCColorPickerCtrl@@IAAXPAVCDC@@@Z=stub__DrawLuminanceBar_CMFCColorPickerCtrl__IAAXPAVCDC___Z @4112
    ?DrawMenuImage@CMFCRibbonBar@@QAAHPAVCDC@@PBVCMFCToolBarMenuButton@@ABVCRect@@@Z=stub__DrawMenuImage_CMFCRibbonBar__QAAHPAVCDC__PBVCMFCToolBarMenuButton__ABVCRect___Z @4113
    ?DrawMenuItem@CMFCToolBarMenuButton@@IAAXPAVCDC@@ABVCRect@@PAVCMFCToolBarImages@@HHHH@Z=stub__DrawMenuItem_CMFCToolBarMenuButton__IAAXPAVCDC__ABVCRect__PAVCMFCToolBarImages__HHHH_Z @4114
    ?DrawMetafile@COleControl@@IAAXPAVCDC@@AAVCRect@@@Z=stub__DrawMetafile_COleControl__IAAXPAVCDC__AAVCRect___Z @4115
    ?DrawNcArea@CMFCControlBarImpl@@IAAXXZ=stub__DrawNcArea_CMFCControlBarImpl__IAAXXZ @4116
    ?DrawNcBtn@CMFCVisualManagerOffice2007@@IAAXPAVCDC@@ABVCRect@@IW4AFX_BUTTON_STATE@CMFCVisualManager@@HHH@Z=stub__DrawNcBtn_CMFCVisualManagerOffice2007__IAAXPAVCDC__ABVCRect__IW4AFX_BUTTON_STATE_CMFCVisualManager__HHH_Z @4117
    ?DrawNcBtn@CMFCVisualManagerWindows7@@UAAXPAVCDC@@ABVCRect@@IW4AFX_BUTTON_STATE@CMFCVisualManager@@HHH@Z=stub__DrawNcBtn_CMFCVisualManagerWindows7__UAAXPAVCDC__ABVCRect__IW4AFX_BUTTON_STATE_CMFCVisualManager__HHH_Z @4118
    ?DrawNcCaption@CMFCVisualManagerOffice2007@@IAAXPAVCDC@@VCRect@@KKABV?$CStringT@_WV?$StrTraitMFC_DLL@_WV?$ChTraitsCRT@_W@ATL@@@@@ATL@@2PAUHICON__@@HHHABVCObList@@@Z=stub__DrawNcCaption_CMFCVisualManagerOffice2007__IAAXPAVCDC__VCRect__KKABV__CStringT__WV__StrTraitMFC_DLL__WV__ChTraitsCRT__W_ATL_____ATL__2PAUHICON____HHHABVCObList___Z @4119
    ?DrawNCGripper@CControlBar@@UAAXPAVCDC@@ABVCRect@@@Z=stub__DrawNCGripper_CControlBar__UAAXPAVCDC__ABVCRect___Z @4120
    ?DrawNcText@CMFCVisualManagerOffice2007@@IAAXPAVCDC@@AAVCRect@@ABV?$CStringT@_WV?$StrTraitMFC_DLL@_WV?$ChTraitsCRT@_W@ATL@@@@@ATL@@2HHHHHHK@Z=stub__DrawNcText_CMFCVisualManagerOffice2007__IAAXPAVCDC__AAVCRect__ABV__CStringT__WV__StrTraitMFC_DLL__WV__ChTraitsCRT__W_ATL_____ATL__2HHHHHHK_Z @4121
    ?DrawNcText@CMFCVisualManagerWindows7@@UAAXPAVCDC@@AAVCRect@@ABV?$CStringT@_WV?$StrTraitMFC_DLL@_WV?$ChTraitsCRT@_W@ATL@@@@@ATL@@HHHHHK@Z=stub__DrawNcText_CMFCVisualManagerWindows7__UAAXPAVCDC__AAVCRect__ABV__CStringT__WV__StrTraitMFC_DLL__WV__ChTraitsCRT__W_ATL_____ATL__HHHHHK_Z @4122
    ?DrawNewGroupRect@CMDIClientAreaWnd@@AAAXPBUtagRECT@@0@Z=stub__DrawNewGroupRect_CMDIClientAreaWnd__AAAXPBUtagRECT__0_Z @4123
    ?DrawNonThemedGripper@CControlBar@@UAAHPAVCDC@@ABVCRect@@@Z=stub__DrawNonThemedGripper_CControlBar__UAAHPAVCDC__ABVCRect___Z @4124
    ?DrawParentBackground@AFX_GLOBAL_DATA@@QAAHPAVCWnd@@PAVCDC@@PAUtagRECT@@@Z=stub__DrawParentBackground_AFX_GLOBAL_DATA__QAAHPAVCWnd__PAVCDC__PAUtagRECT___Z @4125
    ?DrawPicker@CMFCColorPickerCtrl@@IAAXPAVCDC@@@Z=stub__DrawPicker_CMFCColorPickerCtrl__IAAXPAVCDC___Z @4126
    ?DrawPixel@CMFCImagePaintArea@@IAAXUtagPOINT@@@Z=stub__DrawPixel_CMFCImagePaintArea__IAAXUtagPOINT___Z @4127
    ?DrawPushButton@CMFCBaseVisualManager@@UAAHPAVCDC@@VCRect@@PAVCMFCButton@@I@Z=stub__DrawPushButton_CMFCBaseVisualManager__UAAHPAVCDC__VCRect__PAVCMFCButton__I_Z @4128
    ?DrawRadioButton@CMFCBaseVisualManager@@UAAHPAVCDC@@VCRect@@HHHH@Z=stub__DrawRadioButton_CMFCBaseVisualManager__UAAHPAVCDC__VCRect__HHHH_Z @4129
    ?DrawRect@CDrawingManager@@QAAXABVCRect@@KK@Z=stub__DrawRect_CDrawingManager__QAAXABVCRect__KK_Z @4130
    ?DrawRectangle@CRenderTarget@@QAAXABVCD2DRectF@@PAVCD2DBrush@@MPAUID2D1StrokeStyle@@@Z=stub__DrawRectangle_CRenderTarget__QAAXABVCD2DRectF__PAVCD2DBrush__MPAUID2D1StrokeStyle___Z @4131
    ?DrawResizeDragRect@CMFCTabCtrl@@MAAXAAVCRect@@0@Z=stub__DrawResizeDragRect_CMFCTabCtrl__MAAXAAVCRect__0_Z @4132
    ?DrawRibbonText@CMFCRibbonButton@@UAAHPAVCDC@@ABV?$CStringT@_WV?$StrTraitMFC_DLL@_WV?$ChTraitsCRT@_W@ATL@@@@@ATL@@VCRect@@IK@Z=stub__DrawRibbonText_CMFCRibbonButton__UAAHPAVCDC__ABV__CStringT__WV__StrTraitMFC_DLL__WV__ChTraitsCRT__W_ATL_____ATL__VCRect__IK_Z @4133
    ?DrawRibbonText@CMFCRibbonStatusBarPane@@MAAHPAVCDC@@ABV?$CStringT@_WV?$StrTraitMFC_DLL@_WV?$ChTraitsCRT@_W@ATL@@@@@ATL@@VCRect@@IK@Z=stub__DrawRibbonText_CMFCRibbonStatusBarPane__MAAHPAVCDC__ABV__CStringT__WV__StrTraitMFC_DLL__WV__ChTraitsCRT__W_ATL_____ATL__VCRect__IK_Z @4134
    ?DrawRotated@CDrawingManager@@QAAXVCRect@@AAVCDC@@H@Z=stub__DrawRotated_CDrawingManager__QAAXVCRect__AAVCDC__H_Z @4135
    ?DrawRoundedRectangle@CRenderTarget@@QAAXABVCD2DRoundedRect@@PAVCD2DBrush@@MPAUID2D1StrokeStyle@@@Z=stub__DrawRoundedRectangle_CRenderTarget__QAAXABVCD2DRoundedRect__PAVCD2DBrush__MPAUID2D1StrokeStyle___Z @4136
    ?DrawSeparator@CMFCPopupMenuBar@@MAAXPAVCDC@@ABVCRect@@H@Z=stub__DrawSeparator_CMFCPopupMenuBar__MAAXPAVCDC__ABVCRect__H_Z @4137
    ?DrawSeparator@CMFCToolBar@@MAAXPAVCDC@@ABVCRect@@H@Z=stub__DrawSeparator_CMFCToolBar__MAAXPAVCDC__ABVCRect__H_Z @4138
    ?DrawSeparator@CMFCVisualManagerOffice2007@@IAAXPAVCDC@@ABVCRect@@AAVCPen@@2H@Z=stub__DrawSeparator_CMFCVisualManagerOffice2007__IAAXPAVCDC__ABVCRect__AAVCPen__2H_Z @4139
    ?DrawSeparator@CMFCVisualManagerOffice2007@@IAAXPAVCDC@@ABVCRect@@H@Z=stub__DrawSeparator_CMFCVisualManagerOffice2007__IAAXPAVCDC__ABVCRect__H_Z @4140
    ?DrawSeparator@CMFCVisualManagerWindows7@@UAAXPAVCDC@@ABVCRect@@AAVCPen@@2H@Z=stub__DrawSeparator_CMFCVisualManagerWindows7__UAAXPAVCDC__ABVCRect__AAVCPen__2H_Z @4141
    ?DrawShadow@CDrawingManager@@QAAHVCRect@@HHHPAVCBitmap@@1KH@Z=stub__DrawShadow_CDrawingManager__QAAHVCRect__HHHPAVCBitmap__1KH_Z @4142
    ?DrawSingle@CDragListBox@@QAAXH@Z=stub__DrawSingle_CDragListBox__QAAXH_Z @4143
    ?DrawStatusBarProgress@CMFCBaseVisualManager@@UAAHPAVCDC@@PAVCMFCStatusBar@@VCRect@@HHKKKH@Z=stub__DrawStatusBarProgress_CMFCBaseVisualManager__UAAHPAVCDC__PAVCMFCStatusBar__VCRect__HHKKKH_Z @4144
    ?DrawTabButton@CMFCOutlookBarTabCtrl@@IAAXAAVCDC@@HH@Z=stub__DrawTabButton_CMFCOutlookBarTabCtrl__IAAXAAVCDC__HH_Z @4145
    ?DrawTextExW@CMetaFileDC@@UAAHPA_WHPAUtagRECT@@IPAUtagDRAWTEXTPARAMS@@@Z=stub__DrawTextExW_CMetaFileDC__UAAHPA_WHPAUtagRECT__IPAUtagDRAWTEXTPARAMS___Z @4146
    ?DrawTextExW@CPreviewDC@@UAAHPA_WHPAUtagRECT@@IPAUtagDRAWTEXTPARAMS@@@Z=stub__DrawTextExW_CPreviewDC__UAAHPA_WHPAUtagRECT__IPAUtagDRAWTEXTPARAMS___Z @4147
    ?DrawTextLayout@CRenderTarget@@QAAXABVCD2DPointF@@PAVCD2DTextLayout@@PAVCD2DBrush@@W4D2D1_DRAW_TEXT_OPTIONS@@@Z=stub__DrawTextLayout_CRenderTarget__QAAXABVCD2DPointF__PAVCD2DTextLayout__PAVCD2DBrush__W4D2D1_DRAW_TEXT_OPTIONS___Z @4148
    ?DrawTextOnGlass@AFX_GLOBAL_DATA@@QAAHPAXPAVCDC@@HHV?$CStringT@_WV?$StrTraitMFC_DLL@_WV?$ChTraitsCRT@_W@ATL@@@@@ATL@@VCRect@@KHK@Z=stub__DrawTextOnGlass_AFX_GLOBAL_DATA__QAAHPAXPAVCDC__HHV__CStringT__WV__StrTraitMFC_DLL__WV__ChTraitsCRT__W_ATL_____ATL__VCRect__KHK_Z @4149
    ?DrawTextOnGlass@CMFCVisualManager@@UAAHPAVCDC@@V?$CStringT@_WV?$StrTraitMFC_DLL@_WV?$ChTraitsCRT@_W@ATL@@@@@ATL@@VCRect@@KHK@Z=stub__DrawTextOnGlass_CMFCVisualManager__UAAHPAVCDC__V__CStringT__WV__StrTraitMFC_DLL__WV__ChTraitsCRT__W_ATL_____ATL__VCRect__KHK_Z @4150
    ?DrawTextW@CMetaFileDC@@UAAHPB_WHPAUtagRECT@@I@Z=stub__DrawTextW_CMetaFileDC__UAAHPB_WHPAUtagRECT__I_Z @4151
    ?DrawTextW@CPreviewDC@@UAAHPB_WHPAUtagRECT@@I@Z=stub__DrawTextW_CPreviewDC__UAAHPB_WHPAUtagRECT__I_Z @4152
    ?DrawTextW@CRenderTarget@@QAAXABV?$CStringT@_WV?$StrTraitMFC_DLL@_WV?$ChTraitsCRT@_W@ATL@@@@@ATL@@ABVCD2DRectF@@PAVCD2DBrush@@PAVCD2DTextFormat@@W4D2D1_DRAW_TEXT_OPTIONS@@W4DWRITE_MEASURING_MODE@@@Z=stub__DrawTextW_CRenderTarget__QAAXABV__CStringT__WV__StrTraitMFC_DLL__WV__ChTraitsCRT__W_ATL_____ATL__ABVCD2DRectF__PAVCD2DBrush__PAVCD2DTextFormat__W4D2D1_DRAW_TEXT_OPTIONS__W4DWRITE_MEASURING_MODE___Z @4153
    ?DrawThemedGripper@CControlBar@@UAAHPAVCDC@@ABVCRect@@H@Z=stub__DrawThemedGripper_CControlBar__UAAHPAVCDC__ABVCRect__H_Z @4154
    ?DrawToolIcon@CUserTool@@QAAXPAVCDC@@ABVCRect@@@Z=stub__DrawToolIcon_CUserTool__QAAXPAVCDC__ABVCRect___Z @4155
    ?DrawTrackerRect@CRectTracker@@UAAXPBUtagRECT@@PAVCWnd@@PAVCDC@@1@Z=stub__DrawTrackerRect_CRectTracker__UAAXPBUtagRECT__PAVCWnd__PAVCDC__1_Z @4156
    ?DrawY@CMFCVisualManagerBitmapCacheItem@CMFCVisualManagerBitmapCache@@QAAXPAVCDC@@VCRect@@VCSize@@HE@Z=stub__DrawY_CMFCVisualManagerBitmapCacheItem_CMFCVisualManagerBitmapCache__QAAXPAVCDC__VCRect__VCSize__HE_Z @4157
    ?Drop@XDropTarget@COleDropTarget@@UAAJPAUIDataObject@@KU_POINTL@@PAK@Z=stub__Drop_XDropTarget_COleDropTarget__UAAJPAUIDataObject__KU_POINTL__PAK_Z @4158
    ?DropDownList@CMFCRibbonComboBox@@MAAXXZ=stub__DropDownList_CMFCRibbonComboBox__MAAXXZ @4159
    ?DropDownList@CMFCRibbonFontComboBox@@MAAXXZ=stub__DropDownList_CMFCRibbonFontComboBox__MAAXXZ @4160
    ?DropDownMenu@CMFCToolBar@@IAAHPAVCMFCToolBarButton@@@Z=stub__DropDownMenu_CMFCToolBar__IAAHPAVCMFCToolBarButton___Z @4161
    ?DropDownToolbar@CMFCDropDownToolbarButton@@QAAHPAVCWnd@@@Z=stub__DropDownToolbar_CMFCDropDownToolbarButton__QAAHPAVCWnd___Z @4162
    ?Dropped@CDragListBox@@UAAXHVCPoint@@@Z=stub__Dropped_CDragListBox__UAAXHVCPoint___Z @4163
    ?DumpAsHex@CDumpContext@@QAAAAV1@_J@Z=stub__DumpAsHex_CDumpContext__QAAAAV1__J_Z @4164
    ?DumpAsHex@CDumpContext@@QAAAAV1@_K@Z=stub__DumpAsHex_CDumpContext__QAAAAV1__K_Z @4165
    ?DumpAsHex@CDumpContext@@QAAAAV1@E@Z=stub__DumpAsHex_CDumpContext__QAAAAV1_E_Z @4166
    ?DumpAsHex@CDumpContext@@QAAAAV1@G@Z=stub__DumpAsHex_CDumpContext__QAAAAV1_G_Z @4167
    ?DumpAsHex@CDumpContext@@QAAAAV1@H@Z=stub__DumpAsHex_CDumpContext__QAAAAV1_H_Z @4168
    ?DumpAsHex@CDumpContext@@QAAAAV1@I@Z=stub__DumpAsHex_CDumpContext__QAAAAV1_I_Z @4169
    ?DumpAsHex@CDumpContext@@QAAAAV1@J@Z=stub__DumpAsHex_CDumpContext__QAAAAV1_J_Z @4170
    ?DumpAsHex@CDumpContext@@QAAAAV1@K@Z=stub__DumpAsHex_CDumpContext__QAAAAV1_K_Z @4171
    ?DUnadvise@XDataObject@COleControl@@UAAJK@Z=stub__DUnadvise_XDataObject_COleControl__UAAJK_Z @4172
    ?DUnadvise@XDataObject@COleDataSource@@UAAJK@Z=stub__DUnadvise_XDataObject_COleDataSource__UAAJK_Z @4173
    ?DUnadvise@XDataObject@COleServerDoc@@UAAJK@Z=stub__DUnadvise_XDataObject_COleServerDoc__UAAJK_Z @4174
    ?DUnadvise@XDataObject@COleServerItem@@UAAJK@Z=stub__DUnadvise_XDataObject_COleServerItem__UAAJK_Z @4175
    ?Duplicate@CFile@@UBAPAV1@XZ=stub__Duplicate_CFile__UBAPAV1_XZ @4176
    ?Duplicate@CInternetFile@@UBAPAVCFile@@XZ=stub__Duplicate_CInternetFile__UBAPAVCFile__XZ @4177
    ?Duplicate@CMemFile@@UBAPAVCFile@@XZ=stub__Duplicate_CMemFile__UBAPAVCFile__XZ @4178
    ?Duplicate@COleStreamFile@@UBAPAVCFile@@XZ=stub__Duplicate_COleStreamFile__UBAPAVCFile__XZ @4179
    ?Duplicate@CSocketFile@@UBAPAVCFile@@XZ=stub__Duplicate_CSocketFile__UBAPAVCFile__XZ @4180
    ?Duplicate@CStdioFile@@UBAPAVCFile@@XZ=stub__Duplicate_CStdioFile__UBAPAVCFile__XZ @4181
    ?DWMCompositionChanged@CMFCRibbonBar@@UAAXXZ=stub__DWMCompositionChanged_CMFCRibbonBar__UAAXXZ @4182
    ?dwStyleDefault@CEditView@@2KB=stub__dwStyleDefault_CEditView__2KB @4183
    ?Edit@CRecordset@@UAAXXZ=stub__Edit_CRecordset__UAAXXZ @4184
    ?EditItem@CMFCPropertyGridCtrl@@UAAHPAVCMFCPropertyGridProperty@@PAUtagPOINT@@@Z=stub__EditItem_CMFCPropertyGridCtrl__UAAHPAVCMFCPropertyGridProperty__PAUtagPOINT___Z @4185
    ?EditItem@CVSListBox@@UAAHH@Z=stub__EditItem_CVSListBox__UAAHH_Z @4186
    ?EditProperty@XPropertyPage@COlePropertyPage@@UAAJJ@Z=stub__EditProperty_XPropertyPage_COlePropertyPage__UAAJJ_Z @4187
    ?EditStreamCallBack@CRichEditView@@SAKKPAEJPAJ@Z=stub__EditStreamCallBack_CRichEditView__SAKKPAEJPAJ_Z @4188
    ?ElementNameFromType@CMFCRibbonInfo@@SAPB_WW4XElementType@1@@Z=stub__ElementNameFromType_CMFCRibbonInfo__SAPB_WW4XElementType_1__Z @4189
    ?ElementTypeFromName@CMFCRibbonInfo@@SA?AW4XElementType@1@ABV?$CStringT@_WV?$StrTraitMFC_DLL@_WV?$ChTraitsCRT@_W@ATL@@@@@ATL@@@Z=stub__ElementTypeFromName_CMFCRibbonInfo__SA_AW4XElementType_1_ABV__CStringT__WV__StrTraitMFC_DLL__WV__ChTraitsCRT__W_ATL_____ATL___Z @4190
    ?Empty@?$CSimpleStringT@_W$00@ATL@@QAAXXZ=stub__Empty___CSimpleStringT__W_00_ATL__QAAXXZ @4191
    ?Empty@?$CSimpleStringT@D$00@ATL@@QAAXXZ=stub__Empty___CSimpleStringT_D_00_ATL__QAAXXZ @4192
    ?Empty@CDBException@@QAAXXZ=stub__Empty_CDBException__QAAXXZ @4193
    ?Empty@CMFCZoomKernel@@QAAXXZ=stub__Empty_CMFCZoomKernel__QAAXXZ @4194
    ?Empty@COleDataSource@@QAAXXZ=stub__Empty_COleDataSource__QAAXXZ @4195
    ?Empty@XInfoError@CMFCRibbonInfo@@QAAXXZ=stub__Empty_XInfoError_CMFCRibbonInfo__QAAXXZ @4196
    ?Enable@CCheckListBox@@QAAXHH@Z=stub__Enable_CCheckListBox__QAAXHH_Z @4197
    ?Enable@CCmdUI@@UAAXH@Z=stub__Enable_CCmdUI__UAAXH_Z @4198
    ?Enable@CMFCColorBarCmdUI@@UAAXH@Z=stub__Enable_CMFCColorBarCmdUI__UAAXH_Z @4199
    ?Enable@CMFCPropertyGridProperty@@QAAXH@Z=stub__Enable_CMFCPropertyGridProperty__QAAXH_Z @4200
    ?Enable@CMFCRibbonCmdUI@@UAAXH@Z=stub__Enable_CMFCRibbonCmdUI__UAAXH_Z @4201
    ?Enable@CMFCStatusBarCmdUI@@UAAXH@Z=stub__Enable_CMFCStatusBarCmdUI__UAAXH_Z @4202
    ?Enable@CMFCTasksPaneToolBarCmdUI@@UAAXH@Z=stub__Enable_CMFCTasksPaneToolBarCmdUI__UAAXH_Z @4203
    ?Enable@CMFCToolBarCmdUI@@UAAXH@Z=stub__Enable_CMFCToolBarCmdUI__UAAXH_Z @4204
    ?Enable@COleCmdUI@@UAAXH@Z=stub__Enable_COleCmdUI__UAAXH_Z @4205
    ?Enable@CStatusCmdUI@@UAAXH@Z=stub__Enable_CStatusCmdUI__UAAXH_Z @4206
    ?Enable@CTestCmdUI@@UAAXH@Z=stub__Enable_CTestCmdUI__UAAXH_Z @4207
    ?Enable@CToolCmdUI@@UAAXH@Z=stub__Enable_CToolCmdUI__UAAXH_Z @4208
    ?EnableAccessibilitySupport@AFX_GLOBAL_DATA@@QAAXH@Z=stub__EnableAccessibilitySupport_AFX_GLOBAL_DATA__QAAXH_Z @4209
    ?EnableActiveTabCloseButton@CMFCTabCtrl@@QAAXH@Z=stub__EnableActiveTabCloseButton_CMFCTabCtrl__QAAXH_Z @4210
    ?EnableAggregation@CCmdTarget@@QAAXXZ=stub__EnableAggregation_CCmdTarget__QAAXXZ @4211
    ?EnableAnimation@CMFCOutlookBarTabCtrl@@SAXH@Z=stub__EnableAnimation_CMFCOutlookBarTabCtrl__SAXH_Z @4212
    ?EnableAnimationManagerEvent@CAnimationController@@UAAHH@Z=stub__EnableAnimationManagerEvent_CAnimationController__UAAHH_Z @4213
    ?EnableAnimationTimerEventHandler@CAnimationController@@UAAHHW4__MIDL___MIDL_itf_UIAnimation_0000_0012_0001@@@Z=stub__EnableAnimationTimerEventHandler_CAnimationController__UAAHHW4__MIDL___MIDL_itf_UIAnimation_0000_0012_0001___Z @4214
    ?EnableAutoColor@CMFCBaseTabCtrl@@QAAXH@Z=stub__EnableAutoColor_CMFCBaseTabCtrl__QAAXH_Z @4215
    ?EnableAutoHidePanes@CDockingManager@@QAAHK@Z=stub__EnableAutoHidePanes_CDockingManager__QAAHK_Z @4216
    ?EnableAutoHidePanes@CFrameWndEx@@QAAHK@Z=stub__EnableAutoHidePanes_CFrameWndEx__QAAHK_Z @4217
    ?EnableAutoHidePanes@CMDIChildWndEx@@QAAHK@Z=stub__EnableAutoHidePanes_CMDIChildWndEx__QAAHK_Z @4218
    ?EnableAutoHidePanes@CMDIFrameWndEx@@QAAHK@Z=stub__EnableAutoHidePanes_CMDIFrameWndEx__QAAHK_Z @4219
    ?EnableAutoHidePanes@COleCntrFrameWndEx@@QAAHK@Z=stub__EnableAutoHidePanes_COleCntrFrameWndEx__QAAHK_Z @4220
    ?EnableAutoHidePanes@COleDocIPFrameWndEx@@QAAHK@Z=stub__EnableAutoHidePanes_COleDocIPFrameWndEx__QAAHK_Z @4221
    ?EnableAutoHidePanes@COleIPFrameWndEx@@QAAHK@Z=stub__EnableAutoHidePanes_COleIPFrameWndEx__QAAHK_Z @4222
    ?EnableAutomaticButton@CMFCColorBar@@QAAXPB_WKH@Z=stub__EnableAutomaticButton_CMFCColorBar__QAAXPB_WKH_Z @4223
    ?EnableAutomaticButton@CMFCColorButton@@QAAXPB_WKH@Z=stub__EnableAutomaticButton_CMFCColorButton__QAAXPB_WKH_Z @4224
    ?EnableAutomaticButton@CMFCColorMenuButton@@QAAXPB_WKH@Z=stub__EnableAutomaticButton_CMFCColorMenuButton__QAAXPB_WKH_Z @4225
    ?EnableAutomaticButton@CMFCPropertyGridColorProperty@@QAAXPB_WKH@Z=stub__EnableAutomaticButton_CMFCPropertyGridColorProperty__QAAXPB_WKH_Z @4226
    ?EnableAutomaticButton@CMFCRibbonColorButton@@QAAXPB_WKH0HH@Z=stub__EnableAutomaticButton_CMFCRibbonColorButton__QAAXPB_WKH0HH_Z @4227
    ?EnableAutomation@CCmdTarget@@QAAXXZ=stub__EnableAutomation_CCmdTarget__QAAXXZ @4228
    ?EnableBookmarks@CRecordset@@IAAXXZ=stub__EnableBookmarks_CRecordset__IAAXXZ @4229
    ?EnableBrowseButton@CMFCEditBrowseCtrl@@QAAXH@Z=stub__EnableBrowseButton_CMFCEditBrowseCtrl__QAAXH_Z @4230
    ?EnableBrowseButton@CVSListBoxBase@@QAAXH@Z=stub__EnableBrowseButton_CVSListBoxBase__QAAXH_Z @4231
    ?EnableButton@CDockablePane@@IAAXIH@Z=stub__EnableButton_CDockablePane__IAAXIH_Z @4232
    ?EnableButton@CMFCCaptionBar@@QAAXH@Z=stub__EnableButton_CMFCCaptionBar__QAAXH_Z @4233
    ?EnableButton@CVSListBoxBase@@QAAHHH@Z=stub__EnableButton_CVSListBoxBase__QAAHHH_Z @4234
    ?EnableCheck@CMFCToolBarsListCheckBox@@QAAXHH@Z=stub__EnableCheck_CMFCToolBarsListCheckBox__QAAXHH_Z @4235
    ?EnableConnections@CCmdTarget@@QAAXXZ=stub__EnableConnections_CCmdTarget__QAAXXZ @4236
    ?EnableContextMenuItems@CMFCOutlookBarPane@@MAAHPAVCMFCToolBarButton@@PAVCMenu@@@Z=stub__EnableContextMenuItems_CMFCOutlookBarPane__MAAHPAVCMFCToolBarButton__PAVCMenu___Z @4237
    ?EnableContextMenuItems@CMFCPopupMenuBar@@MAAHPAVCMFCToolBarButton@@PAVCMenu@@@Z=stub__EnableContextMenuItems_CMFCPopupMenuBar__MAAHPAVCMFCToolBarButton__PAVCMenu___Z @4238
    ?EnableContextMenuItems@CMFCToolBar@@MAAHPAVCMFCToolBarButton@@PAVCMenu@@@Z=stub__EnableContextMenuItems_CMFCToolBar__MAAHPAVCMFCToolBarButton__PAVCMenu___Z @4239
    ?EnableControls@CMFCToolBarButtonCustomizeDialog@@IAAXXZ=stub__EnableControls_CMFCToolBarButtonCustomizeDialog__IAAXXZ @4240
    ?EnableControls@CMFCToolBarsToolsPropertyPage@@IAAXXZ=stub__EnableControls_CMFCToolBarsToolsPropertyPage__IAAXXZ @4241
    ?EnableCustomizeButton@CMFCToolBar@@QAAXHHABV?$CStringT@_WV?$StrTraitMFC_DLL@_WV?$ChTraitsCRT@_W@ATL@@@@@ATL@@H@Z=stub__EnableCustomizeButton_CMFCToolBar__QAAXHHABV__CStringT__WV__StrTraitMFC_DLL__WV__ChTraitsCRT__W_ATL_____ATL__H_Z @4242
    ?EnableCustomizeButton@CMFCToolBar@@QAAXHHIH@Z=stub__EnableCustomizeButton_CMFCToolBar__QAAXHHIH_Z @4243
    ?EnableCustomToolTips@CMFCBaseTabCtrl@@QAAHH@Z=stub__EnableCustomToolTips_CMFCBaseTabCtrl__QAAHH_Z @4244
    ?EnableD2DSupport@CWinApp@@QAAHW4D2D1_FACTORY_TYPE@@W4DWRITE_FACTORY_TYPE@@@Z=stub__EnableD2DSupport_CWinApp__QAAHW4D2D1_FACTORY_TYPE__W4DWRITE_FACTORY_TYPE___Z @4245
    ?EnableDblClkControls@CMFCMousePropertyPage@@IAAXH@Z=stub__EnableDblClkControls_CMFCMousePropertyPage__IAAXH_Z @4247
    ?EnableDescriptionArea@CMFCPropertyGridCtrl@@QAAXH@Z=stub__EnableDescriptionArea_CMFCPropertyGridCtrl__QAAXH_Z @4248
    ?EnableDocking@CControlBar@@QAAXK@Z=stub__EnableDocking_CControlBar__QAAXK_Z @4249
    ?EnableDocking@CDockingManager@@QAAHK@Z=stub__EnableDocking_CDockingManager__QAAHK_Z @4250
    ?EnableDocking@CFrameWnd@@QAAXK@Z=stub__EnableDocking_CFrameWnd__QAAXK_Z @4251
    ?EnableDocking@CFrameWndEx@@QAAHK@Z=stub__EnableDocking_CFrameWndEx__QAAHK_Z @4252
    ?EnableDocking@CMDIChildWndEx@@QAAHK@Z=stub__EnableDocking_CMDIChildWndEx__QAAHK_Z @4253
    ?EnableDocking@CMDIFrameWndEx@@QAAHK@Z=stub__EnableDocking_CMDIFrameWndEx__QAAHK_Z @4254
    ?EnableDocking@CMFCToolBar@@UAAXK@Z=stub__EnableDocking_CMFCToolBar__UAAXK_Z @4255
    ?EnableDocking@COleCntrFrameWndEx@@QAAHK@Z=stub__EnableDocking_COleCntrFrameWndEx__QAAHK_Z @4256
    ?EnableDocking@COleDocIPFrameWndEx@@QAAHK@Z=stub__EnableDocking_COleDocIPFrameWndEx__QAAHK_Z @4257
    ?EnableDocking@COleIPFrameWndEx@@QAAHK@Z=stub__EnableDocking_COleIPFrameWndEx__QAAHK_Z @4258
    ?EnableDocumentColors@CMFCColorMenuButton@@QAAXPB_WH@Z=stub__EnableDocumentColors_CMFCColorMenuButton__QAAXPB_WH_Z @4259
    ?EnableDSC@COleControlSite@@UAAXXZ=stub__EnableDSC_COleControlSite__UAAXXZ @4260
    ?EnableFolderBrowseButton@CMFCEditBrowseCtrl@@QAAXPB_WI@Z=stub__EnableFolderBrowseButton_CMFCEditBrowseCtrl__QAAXPB_WI_Z @4262
    ?EnableFullTextTooltip@CMFCButton@@QAAXH@Z=stub__EnableFullTextTooltip_CMFCButton__QAAXH_Z @4263
    ?EnableGripper@CDockablePane@@UAAXH@Z=stub__EnableGripper_CDockablePane__UAAXH_Z @4264
    ?EnableGrippers@CPaneContainerManager@@UAAXH@Z=stub__EnableGrippers_CPaneContainerManager__UAAXH_Z @4265
    ?EnableHeaderCtrl@CMFCPropertyGridCtrl@@QAAXHPB_W0@Z=stub__EnableHeaderCtrl_CMFCPropertyGridCtrl__QAAXHPB_W0_Z @4266
    ?EnableHelpCombobox@CMFCMenuBar@@QAAXIPB_WH@Z=stub__EnableHelpCombobox_CMFCMenuBar__QAAXIPB_WH_Z @4267
    ?EnableHistoryMenuButtons@CMFCTasksPane@@QAAXH@Z=stub__EnableHistoryMenuButtons_CMFCTasksPane__QAAXH_Z @4268
    ?EnableInPlaceEdit@CMFCTabCtrl@@UAAXH@Z=stub__EnableInPlaceEdit_CMFCTabCtrl__UAAXH_Z @4269
    ?EnableIntegerValueChangedEvent@CAnimationBaseObject@@UAAXPAVCAnimationController@@H@Z=stub__EnableIntegerValueChangedEvent_CAnimationBaseObject__UAAXPAVCAnimationController__H_Z @4270
    ?EnableIntegerValueChangedEvent@CAnimationVariable@@QAAXPAVCAnimationController@@H@Z=stub__EnableIntegerValueChangedEvent_CAnimationVariable__QAAXPAVCAnimationController__H_Z @4271
    ?EnableKeyTips@CMFCRibbonBar@@QAAXH@Z=stub__EnableKeyTips_CMFCRibbonBar__QAAXH_Z @4272
    ?EnableLargeIcons@CMFCToolBar@@QAAXH@Z=stub__EnableLargeIcons_CMFCToolBar__QAAXH_Z @4273
    ?EnableLaunchButton@CMFCRibbonPanel@@QAAXIHPB_W@Z=stub__EnableLaunchButton_CMFCRibbonPanel__QAAXIHPB_W_Z @4274
    ?EnableMarkSortedColumn@CMFCListCtrl@@QAAXHH@Z=stub__EnableMarkSortedColumn_CMFCListCtrl__QAAXHH_Z @4275
    ?EnableMask@CMFCMaskedEdit@@QAAXPB_W0_W0@Z=stub__EnableMask_CMFCMaskedEdit__QAAXPB_W0_W0_Z @4276
    ?EnableMDITabbedGroups@CMDIClientAreaWnd@@QAAXHABVCMDITabInfo@@@Z=stub__EnableMDITabbedGroups_CMDIClientAreaWnd__QAAXHABVCMDITabInfo___Z @4277
    ?EnableMDITabbedGroups@CMDIFrameWndEx@@QAAXHABVCMDITabInfo@@@Z=stub__EnableMDITabbedGroups_CMDIFrameWndEx__QAAXHABVCMDITabInfo___Z @4278
    ?EnableMDITabs@CMDIClientAreaWnd@@QAAXHABVCMDITabInfo@@@Z=stub__EnableMDITabs_CMDIClientAreaWnd__QAAXHABVCMDITabInfo___Z @4279
    ?EnableMDITabs@CMDIFrameWndEx@@QAAXHHW4Location@CMFCBaseTabCtrl@@HW4Style@CMFCTabCtrl@@HH@Z=stub__EnableMDITabs_CMDIFrameWndEx__QAAXHHW4Location_CMFCBaseTabCtrl__HW4Style_CMFCTabCtrl__HH_Z @4280
    ?EnableMDITabsLastActiveActivation@CMDIClientAreaWnd@@QAAXH@Z=stub__EnableMDITabsLastActiveActivation_CMDIClientAreaWnd__QAAXH_Z @4281
    ?EnableMenuFont@CMFCButton@@QAAXHH@Z=stub__EnableMenuFont_CMFCButton__QAAXHH_Z @4282
    ?EnableMenuItemImage@CCommandManager@@QAAXIHH@Z=stub__EnableMenuItemImage_CCommandManager__QAAXIHH_Z @4283
    ?EnableMenuLogo@CMFCPopupMenu@@QAAXHW4LOGO_LOCATION@1@@Z=stub__EnableMenuLogo_CMFCPopupMenu__QAAXHW4LOGO_LOCATION_1__Z @4284
    ?EnableModeless@CBrowserControlSite@@MAAJH@Z=stub__EnableModeless_CBrowserControlSite__MAAJH_Z @4285
    ?EnableModeless@CDHtmlDialog@@UAAJH@Z=stub__EnableModeless_CDHtmlDialog__UAAJH_Z @4286
    ?EnableModeless@CWinApp@@QAAXH@Z=stub__EnableModeless_CWinApp__QAAXH_Z @4287
    ?EnableModeless@XDocHostUIHandler@CHtmlControlSite@@UAAJH@Z=stub__EnableModeless_XDocHostUIHandler_CHtmlControlSite__UAAJH_Z @4288
    ?EnableModeless@XOleInPlaceActiveObject@COleControl@@UAAJH@Z=stub__EnableModeless_XOleInPlaceActiveObject_COleControl__UAAJH_Z @4289
    ?EnableModeless@XOleInPlaceActiveObject@COleServerDoc@@UAAJH@Z=stub__EnableModeless_XOleInPlaceActiveObject_COleServerDoc__UAAJH_Z @4290
    ?EnableModeless@XOleInPlaceFrame@COleFrameHook@@UAAJH@Z=stub__EnableModeless_XOleInPlaceFrame_COleFrameHook__UAAJH_Z @4291
    ?EnableModeless@XOleIPFrame@COleControlContainer@@UAAJH@Z=stub__EnableModeless_XOleIPFrame_COleControlContainer__UAAJH_Z @4292
    ?EnableMultipleSort@CMFCHeaderCtrl@@QAAXH@Z=stub__EnableMultipleSort_CMFCHeaderCtrl__QAAXH_Z @4293
    ?EnableMultipleSort@CMFCListCtrl@@QAAXH@Z=stub__EnableMultipleSort_CMFCListCtrl__QAAXH_Z @4294
    ?EnableNavigationToolbar@CMFCTasksPane@@QAAXHIVCSize@@0@Z=stub__EnableNavigationToolbar_CMFCTasksPane__QAAXHIVCSize__0_Z @4295
    ?EnableOpenDropDown@CFileDialog@@QAAJK@Z=stub__EnableOpenDropDown_CFileDialog__QAAJK_Z @4296
    ?EnableOtherButton@CMFCColorBar@@QAAXPB_WHH@Z=stub__EnableOtherButton_CMFCColorBar__QAAXPB_WHH_Z @4297
    ?EnableOtherButton@CMFCColorButton@@QAAXPB_WHH@Z=stub__EnableOtherButton_CMFCColorButton__QAAXPB_WHH_Z @4298
    ?EnableOtherButton@CMFCColorMenuButton@@QAAXPB_WHH@Z=stub__EnableOtherButton_CMFCColorMenuButton__QAAXPB_WHH_Z @4299
    ?EnableOtherButton@CMFCPropertyGridColorProperty@@QAAXPB_WHH@Z=stub__EnableOtherButton_CMFCPropertyGridColorProperty__QAAXPB_WHH_Z @4300
    ?EnableOtherButton@CMFCRibbonColorButton@@QAAXPB_W0@Z=stub__EnableOtherButton_CMFCRibbonColorButton__QAAXPB_W0_Z @4301
    ?EnablePageHeader@CMFCPropertySheet@@QAAXH@Z=stub__EnablePageHeader_CMFCPropertySheet__QAAXH_Z @4302
    ?EnablePan@CGestureConfig@@QAAXHK@Z=stub__EnablePan_CGestureConfig__QAAXHK_Z @4303
    ?EnablePaneContextMenu@CDockingManager@@QAAXHIABV?$CStringT@_WV?$StrTraitMFC_DLL@_WV?$ChTraitsCRT@_W@ATL@@@@@ATL@@H@Z=stub__EnablePaneContextMenu_CDockingManager__QAAXHIABV__CStringT__WV__StrTraitMFC_DLL__WV__ChTraitsCRT__W_ATL_____ATL__H_Z @4304
    ?EnablePaneDoubleClick@CMFCStatusBar@@QAAXH@Z=stub__EnablePaneDoubleClick_CMFCStatusBar__QAAXH_Z @4305
    ?EnablePaneProgressBar@CMFCStatusBar@@QAAXHJHKKK@Z=stub__EnablePaneProgressBar_CMFCStatusBar__QAAXHJHKKK_Z @4306
    ?EnablePressAndTap@CGestureConfig@@QAAXH@Z=stub__EnablePressAndTap_CGestureConfig__QAAXH_Z @4307
    ?EnablePrintPreview@CMFCRibbonBar@@QAAXH@Z=stub__EnablePrintPreview_CMFCRibbonBar__QAAXH_Z @4308
    ?EnablePriorityComparisonHandler@CAnimationController@@UAAHK@Z=stub__EnablePriorityComparisonHandler_CAnimationController__UAAHK_Z @4309
    ?EnableResize@CMFCPopupMenu@@QAAXVCSize@@@Z=stub__EnableResize_CMFCPopupMenu__QAAXVCSize___Z @4310
    ?EnableRotate@CGestureConfig@@QAAXH@Z=stub__EnableRotate_CGestureConfig__QAAXH_Z @4311
    ?EnableRTL@CMFCToolBarImages@@SAXH@Z=stub__EnableRTL_CMFCToolBarImages__SAXH_Z @4312
    ?EnableScrollBarCtrl@CWnd@@QAAXHH@Z=stub__EnableScrollBarCtrl_CWnd__QAAXHH_Z @4313
    ?EnableScrollButtons@CMFCOutlookBarTabCtrl@@QAAXHHH@Z=stub__EnableScrollButtons_CMFCOutlookBarTabCtrl__QAAXHHH_Z @4314
    ?EnableShellContextMenu@CMFCShellListCtrl@@QAAXH@Z=stub__EnableShellContextMenu_CMFCShellListCtrl__QAAXH_Z @4315
    ?EnableShellContextMenu@CMFCShellTreeCtrl@@QAAXH@Z=stub__EnableShellContextMenu_CMFCShellTreeCtrl__QAAXH_Z @4316
    ?EnableShellOpen@CWinApp@@IAAXXZ=stub__EnableShellOpen_CWinApp__IAAXXZ @4317
    ?EnableSimpleFrame@COleControl@@QAAXXZ=stub__EnableSimpleFrame_COleControl__QAAXXZ @4318
    ?EnableSpinButtons@CMFCRibbonEdit@@QAAXHH@Z=stub__EnableSpinButtons_CMFCRibbonEdit__QAAXHH_Z @4319
    ?EnableSpinControl@CMFCPropertyGridProperty@@QAAXHHH@Z=stub__EnableSpinControl_CMFCPropertyGridProperty__QAAXHHH_Z @4320
    ?EnableStackedTabs@CPropertySheet@@QAAXH@Z=stub__EnableStackedTabs_CPropertySheet__QAAXH_Z @4321
    ?EnableStatusCallback@CInternetSession@@QAAHH@Z=stub__EnableStatusCallback_CInternetSession__QAAHH_Z @4322
    ?EnableStoryboardEventHandler@CAnimationController@@UAAHIH@Z=stub__EnableStoryboardEventHandler_CAnimationController__UAAHIH_Z @4323
    ?EnableTabAutoColor@CTabbedPane@@SAXH@Z=stub__EnableTabAutoColor_CTabbedPane__SAXH_Z @4324
    ?EnableTabDetach@CMFCBaseTabCtrl@@UAAHHH@Z=stub__EnableTabDetach_CMFCBaseTabCtrl__UAAHHH_Z @4325
    ?EnableTabDocumentsMenu@CMFCTabCtrl@@QAAXH@Z=stub__EnableTabDocumentsMenu_CMFCTabCtrl__QAAXH_Z @4326
    ?EnableTaskbarInteraction@CWinApp@@QAAHH@Z=stub__EnableTaskbarInteraction_CWinApp__QAAHH_Z @4327
    ?EnableTaskbarThumbnailClipRect@CMDIChildWndEx@@QAAXH@Z=stub__EnableTaskbarThumbnailClipRect_CMDIChildWndEx__QAAXH_Z @4328
    ?EnableTearOff@CMFCColorMenuButton@@QAAXIHH@Z=stub__EnableTearOff_CMFCColorMenuButton__QAAXIHH_Z @4329
    ?EnableTearOffMenus@CWinAppEx@@QAAHPB_WII@Z=stub__EnableTearOffMenus_CWinAppEx__QAAHPB_WII_Z @4330
    ?EnableTextLabels@CMFCToolBar@@QAAXH@Z=stub__EnableTextLabels_CMFCToolBar__QAAXH_Z @4331
    ?EnableTooltipInfoShortcut@CMFCRibbonBaseElement@@QAAXH@Z=stub__EnableTooltipInfoShortcut_CMFCRibbonBaseElement__QAAXH_Z @4332
    ?EnableToolTips@CMFCRibbonBar@@QAAXHH@Z=stub__EnableToolTips_CMFCRibbonBar__QAAXHH_Z @4333
    ?EnableToolTips@CWnd@@QAAHH@Z=stub__EnableToolTips_CWnd__QAAHH_Z @4334
    ?EnableTrackingToolTips@CWnd@@QAAHH@Z=stub__EnableTrackingToolTips_CWnd__QAAHH_Z @4335
    ?EnableTwoFingerTap@CGestureConfig@@QAAXH@Z=stub__EnableTwoFingerTap_CGestureConfig__QAAXH_Z @4336
    ?EnableTypeLib@CCmdTarget@@QAAXXZ=stub__EnableTypeLib_CCmdTarget__QAAXXZ @4337
    ?EnableUpdateTooltipInfo@CMFCRibbonBaseElement@@QAAXH@Z=stub__EnableUpdateTooltipInfo_CMFCRibbonBaseElement__QAAXH_Z @4338
    ?EnableUserDefinedToolbars@CMFCToolBarsCustomizeDialog@@QAAXH@Z=stub__EnableUserDefinedToolbars_CMFCToolBarsCustomizeDialog__QAAXH_Z @4339
    ?EnableUserTools@CWinAppEx@@QAAHIIIPAUCRuntimeClass@@II@Z=stub__EnableUserTools_CWinAppEx__QAAHIIIPAUCRuntimeClass__II_Z @4340
    ?EnableValueChangedEvent@CAnimationBaseObject@@UAAXPAVCAnimationController@@H@Z=stub__EnableValueChangedEvent_CAnimationBaseObject__UAAXPAVCAnimationController__H_Z @4341
    ?EnableValueChangedEvent@CAnimationVariable@@QAAXPAVCAnimationController@@H@Z=stub__EnableValueChangedEvent_CAnimationVariable__QAAXPAVCAnimationController__H_Z @4342
    ?EnableVertResize@CMFCPopupMenu@@QAAXH@Z=stub__EnableVertResize_CMFCPopupMenu__QAAXH_Z @4343
    ?EnableWindow@COleControlSite@@UAAHH@Z=stub__EnableWindow_COleControlSite__UAAHH_Z @4344
    ?EnableWindow@CWnd@@QAAHH@Z=stub__EnableWindow_CWnd__QAAHH_Z @4345
    ?EnableWindowsDialog@CMDIFrameWndEx@@QAAXIIHH@Z=stub__EnableWindowsDialog_CMDIFrameWndEx__QAAXIIHH_Z @4346
    ?EnableWindowsDialog@CMDIFrameWndEx@@QAAXIPB_WHH@Z=stub__EnableWindowsDialog_CMDIFrameWndEx__QAAXIPB_WHH_Z @4347
    ?EnableWindowsTheming@CMFCButton@@SAXH@Z=stub__EnableWindowsTheming_CMFCButton__SAXH_Z @4348
    ?EnableZoom@CGestureConfig@@QAAXH@Z=stub__EnableZoom_CGestureConfig__QAAXH_Z @4349
    ?EndBusyState@COleMessageFilter@@UAAXXZ=stub__EndBusyState_COleMessageFilter__UAAXXZ @4350
    ?EndCallbacks@CAsyncMonikerFile@@IAAXXZ=stub__EndCallbacks_CAsyncMonikerFile__IAAXXZ @4351
    ?EndDeferErrors@COleLinkingDoc@@QAAJJ@Z=stub__EndDeferErrors_COleLinkingDoc__QAAJJ_Z @4352
    ?EndDialog@CDialog@@QAAXH@Z=stub__EndDialog_CDialog__QAAXH_Z @4353
    ?EndDialog@CPropertyPage@@QAAXH@Z=stub__EndDialog_CPropertyPage__QAAXH_Z @4354
    ?EndDialog@CPropertySheet@@QAAXH@Z=stub__EndDialog_CPropertySheet__QAAXH_Z @4355
    ?EndDrag@CDockContext@@QAAXXZ=stub__EndDrag_CDockContext__QAAXXZ @4356
    ?EndDraw@CRenderTarget@@QAAJXZ=stub__EndDraw_CRenderTarget__QAAJXZ @4357
    ?EndDrawDragFrame@CMFCDragFrameImpl@@QAAXH@Z=stub__EndDrawDragFrame_CMFCDragFrameImpl__QAAXH_Z @4358
    ?EndDrawImage@CMFCToolBarImages@@QAAXAAUtagAFXDrawState@@@Z=stub__EndDrawImage_CMFCToolBarImages__QAAXAAUtagAFXDrawState___Z @4359
    ?EndEditItem@CMFCPropertyGridCtrl@@UAAHH@Z=stub__EndEditItem_CMFCPropertyGridCtrl__UAAHH_Z @4360
    ?EndFigure@CD2DGeometrySink@@QAAXW4D2D1_FIGURE_END@@@Z=stub__EndFigure_CD2DGeometrySink__QAAXW4D2D1_FIGURE_END___Z @4361
    ?EndModalLoop@CWnd@@UAAXH@Z=stub__EndModalLoop_CWnd__UAAXH_Z @4362
    ?EndModalState@CFrameWnd@@UAAXXZ=stub__EndModalState_CFrameWnd__UAAXXZ @4363
    ?EndRequest@CHttpFile@@QAAHKPAU_INTERNET_BUFFERSW@@K@Z=stub__EndRequest_CHttpFile__QAAHKPAU_INTERNET_BUFFERSW__K_Z @4364
    ?EndResize@CDockContext@@QAAXXZ=stub__EndResize_CDockContext__QAAXXZ @4365
    ?EndVisualGroup@CFileDialog@@QAAJXZ=stub__EndVisualGroup_CFileDialog__QAAJXZ @4366
    ?EndWaitCursor@CCmdTarget@@QAAXXZ=stub__EndWaitCursor_CCmdTarget__QAAXXZ @4367
    ?EnsureClipboardObject@COleDataObject@@QAAXXZ=stub__EnsureClipboardObject_COleDataObject__QAAXXZ @4368
    ?EnsureSchemaMapExists@CArchive@@QAAXPAPAV?$CArray@W4LoadArrayObjType@CArchive@@ABW412@@@@Z=stub__EnsureSchemaMapExists_CArchive__QAAXPAPAV__CArray_W4LoadArrayObjType_CArchive__ABW412____Z @4369
    ?EnsureStdObj@CWnd@@UAAJXZ=stub__EnsureStdObj_CWnd__UAAJXZ @4370
    ?EnsureVisible@CMFCOutlookBarPaneList@@AAAXH@Z=stub__EnsureVisible_CMFCOutlookBarPaneList__AAAXH_Z @4371
    ?EnsureVisible@CMFCPropertyGridCtrl@@QAAXPAVCMFCPropertyGridProperty@@H@Z=stub__EnsureVisible_CMFCPropertyGridCtrl__QAAXPAVCMFCPropertyGridProperty__H_Z @4372
    ?EnsureVisible@CMFCRibbonCategory@@IAAXPAVCMFCRibbonButton@@@Z=stub__EnsureVisible_CMFCRibbonCategory__IAAXPAVCMFCRibbonButton___Z @4373
    ?EnsureVisible@CMFCTabCtrl@@UAAHH@Z=stub__EnsureVisible_CMFCTabCtrl__UAAHH_Z @4374
    ?EnterDragMode@CDockablePane@@MAAXH@Z=stub__EnterDragMode_CDockablePane__MAAXH_Z @4375
    ?EnterDragMode@CMFCBaseTabCtrl@@QAAXXZ=stub__EnterDragMode_CMFCBaseTabCtrl__QAAXXZ @4376
    ?EnterDragMode@CPane@@MAAXH@Z=stub__EnterDragMode_CPane__MAAXH_Z @4377
    ?EnterDragMode@CPaneFrameWnd@@MAAXPAUHWND__@@@Z=stub__EnterDragMode_CPaneFrameWnd__MAAXPAUHWND_____Z @4378
    ?EnumAdvise@XOleObject@CDocObjectServer@@UAAJPAPAUIEnumSTATDATA@@@Z=stub__EnumAdvise_XOleObject_CDocObjectServer__UAAJPAPAUIEnumSTATDATA___Z @4379
    ?EnumAdvise@XOleObject@COleControl@@UAAJPAPAUIEnumSTATDATA@@@Z=stub__EnumAdvise_XOleObject_COleControl__UAAJPAPAUIEnumSTATDATA___Z @4380
    ?EnumAdvise@XOleObject@COleServerDoc@@UAAJPAPAUIEnumSTATDATA@@@Z=stub__EnumAdvise_XOleObject_COleServerDoc__UAAJPAPAUIEnumSTATDATA___Z @4381
    ?EnumAdvise@XOleObject@COleServerItem@@UAAJPAPAUIEnumSTATDATA@@@Z=stub__EnumAdvise_XOleObject_COleServerItem__UAAJPAPAUIEnumSTATDATA___Z @4382
    ?EnumCache@XOleCache@COleControl@@UAAJPAPAUIEnumSTATDATA@@@Z=stub__EnumCache_XOleCache_COleControl__UAAJPAPAUIEnumSTATDATA___Z @4383
    ?EnumChildProc@COlePropertyPage@@KAHPAUHWND__@@J@Z=stub__EnumChildProc_COlePropertyPage__KAHPAUHWND____J_Z @4384
    ?EnumConnectionPoints@COleConnPtContainer@@UAAJPAPAUIEnumConnectionPoints@@@Z=stub__EnumConnectionPoints_COleConnPtContainer__UAAJPAPAUIEnumConnectionPoints___Z @4385
    ?EnumConnections@XConnPt@CConnectionPoint@@UAAJPAPAUIEnumConnections@@@Z=stub__EnumConnections_XConnPt_CConnectionPoint__UAAJPAPAUIEnumConnections___Z @4386
    ?EnumControls@COlePropertyPage@@KAHPAUHWND__@@J@Z=stub__EnumControls_COlePropertyPage__KAHPAUHWND____J_Z @4387
    ?EnumDAdvise@XDataObject@COleControl@@UAAJPAPAUIEnumSTATDATA@@@Z=stub__EnumDAdvise_XDataObject_COleControl__UAAJPAPAUIEnumSTATDATA___Z @4388
    ?EnumDAdvise@XDataObject@COleDataSource@@UAAJPAPAUIEnumSTATDATA@@@Z=stub__EnumDAdvise_XDataObject_COleDataSource__UAAJPAPAUIEnumSTATDATA___Z @4389
    ?EnumDAdvise@XDataObject@COleServerDoc@@UAAJPAPAUIEnumSTATDATA@@@Z=stub__EnumDAdvise_XDataObject_COleServerDoc__UAAJPAPAUIEnumSTATDATA___Z @4390
    ?EnumDAdvise@XDataObject@COleServerItem@@UAAJPAPAUIEnumSTATDATA@@@Z=stub__EnumDAdvise_XDataObject_COleServerItem__UAAJPAPAUIEnumSTATDATA___Z @4391
    ?EnumFamPrinterCallBackEx@CMFCToolBarFontComboBox@@KAHPAUtagENUMLOGFONTEXW@@PAUtagNEWTEXTMETRICEXW@@HPAX@Z=stub__EnumFamPrinterCallBackEx_CMFCToolBarFontComboBox__KAHPAUtagENUMLOGFONTEXW__PAUtagNEWTEXTMETRICEXW__HPAX_Z @4392
    ?EnumFamScreenCallBackEx@CMFCToolBarFontComboBox@@KAHPAUtagENUMLOGFONTEXW@@PAUtagNEWTEXTMETRICEXW@@HPAX@Z=stub__EnumFamScreenCallBackEx_CMFCToolBarFontComboBox__KAHPAUtagENUMLOGFONTEXW__PAUtagNEWTEXTMETRICEXW__HPAX_Z @4393
    ?EnumFormatEtc@XDataObject@COleControl@@UAAJKPAPAUIEnumFORMATETC@@@Z=stub__EnumFormatEtc_XDataObject_COleControl__UAAJKPAPAUIEnumFORMATETC___Z @4394
    ?EnumFormatEtc@XDataObject@COleDataSource@@UAAJKPAPAUIEnumFORMATETC@@@Z=stub__EnumFormatEtc_XDataObject_COleDataSource__UAAJKPAPAUIEnumFORMATETC___Z @4395
    ?EnumFormatEtc@XDataObject@COleServerDoc@@UAAJKPAPAUIEnumFORMATETC@@@Z=stub__EnumFormatEtc_XDataObject_COleServerDoc__UAAJKPAPAUIEnumFORMATETC___Z @4396
    ?EnumFormatEtc@XDataObject@COleServerItem@@UAAJKPAPAUIEnumFORMATETC@@@Z=stub__EnumFormatEtc_XDataObject_COleServerItem__UAAJKPAPAUIEnumFORMATETC___Z @4397
    ?EnumObjects@CMFCShellListCtrl@@MAAJPAUIShellFolder@@PFAU_ITEMIDLIST@@@Z=stub__EnumObjects_CMFCShellListCtrl__MAAJPAUIShellFolder__PFAU_ITEMIDLIST___Z @4398
    ?EnumObjects@CMFCShellTreeCtrl@@MAAJPAU_TREEITEM@@PAUIShellFolder@@PFAU_ITEMIDLIST@@@Z=stub__EnumObjects_CMFCShellTreeCtrl__MAAJPAU_TREEITEM__PAUIShellFolder__PFAU_ITEMIDLIST___Z @4399
    ?EnumObjects@XOleContainer@COleControlContainer@@UAAJKPAPAUIEnumUnknown@@@Z=stub__EnumObjects_XOleContainer_COleControlContainer__UAAJKPAPAUIEnumUnknown___Z @4400
    ?EnumObjects@XOleItemContainer@COleLinkingDoc@@UAAJKPAPAUIEnumUnknown@@@Z=stub__EnumObjects_XOleItemContainer_COleLinkingDoc__UAAJKPAPAUIEnumUnknown___Z @4401
    ?EnumOleVerbs@CCmdTarget@@QAAHPAPAUIEnumOLEVERB@@@Z=stub__EnumOleVerbs_CCmdTarget__QAAHPAPAUIEnumOLEVERB___Z @4402
    ?EnumSizeCallBack@CMFCToolBarFontSizeComboBox@@KAHPAUtagLOGFONTW@@PAUtagNEWTEXTMETRICW@@HPAX@Z=stub__EnumSizeCallBack_CMFCToolBarFontSizeComboBox__KAHPAUtagLOGFONTW__PAUtagNEWTEXTMETRICW__HPAX_Z @4403
    ?EnumVerbs@XOleObject@CDocObjectServer@@UAAJPAPAUIEnumOLEVERB@@@Z=stub__EnumVerbs_XOleObject_CDocObjectServer__UAAJPAPAUIEnumOLEVERB___Z @4404
    ?EnumVerbs@XOleObject@COleControl@@UAAJPAPAUIEnumOLEVERB@@@Z=stub__EnumVerbs_XOleObject_COleControl__UAAJPAPAUIEnumOLEVERB___Z @4405
    ?EnumVerbs@XOleObject@COleServerDoc@@UAAJPAPAUIEnumOLEVERB@@@Z=stub__EnumVerbs_XOleObject_COleServerDoc__UAAJPAPAUIEnumOLEVERB___Z @4406
    ?EnumVerbs@XOleObject@COleServerItem@@UAAJPAPAUIEnumOLEVERB@@@Z=stub__EnumVerbs_XOleObject_COleServerItem__UAAJPAPAUIEnumOLEVERB___Z @4407
    ?EnumViews@XOleDocument@CDocObjectServer@@UAAJPAPAUIEnumOleDocumentViews@@PAPAUIOleDocumentView@@@Z=stub__EnumViews_XOleDocument_CDocObjectServer__UAAJPAPAUIEnumOleDocumentViews__PAPAUIOleDocumentView___Z @4408
    ?EraseNonClient@CControlBar@@QAAXXZ=stub__EraseNonClient_CControlBar__QAAXXZ @4409
    ?ErrnoToException@CFileException@@SAHH@Z=stub__ErrnoToException_CFileException__SAHH_Z @4410
    ?ErrorDlg@CHttpFile@@QAAKPAVCWnd@@KKPAPAX@Z=stub__ErrorDlg_CHttpFile__QAAKPAVCWnd__KKPAPAX_Z @4411
    ?Escape@CMetaFileDC@@UAAHHHPBDPAX@Z=stub__Escape_CMetaFileDC__UAAHHHPBDPAX_Z @4412
    ?Escape@CPreviewDC@@UAAHHHPBDPAX@Z=stub__Escape_CPreviewDC__UAAHHHPBDPAX_Z @4413
    ?ExchangeBlobProp@CArchivePropExchange@@UAAHPB_WPAPAXPAX@Z=stub__ExchangeBlobProp_CArchivePropExchange__UAAHPB_WPAPAXPAX_Z @4414
    ?ExchangeBlobProp@CAsyncPropExchange@@UAAHPB_WPAPAXPAX@Z=stub__ExchangeBlobProp_CAsyncPropExchange__UAAHPB_WPAPAXPAX_Z @4415
    ?ExchangeBlobProp@CPropbagPropExchange@@UAAHPB_WPAPAXPAX@Z=stub__ExchangeBlobProp_CPropbagPropExchange__UAAHPB_WPAPAXPAX_Z @4416
    ?ExchangeBlobProp@CPropsetPropExchange@@UAAHPB_WPAPAXPAX@Z=stub__ExchangeBlobProp_CPropsetPropExchange__UAAHPB_WPAPAXPAX_Z @4417
    ?ExchangeBlobProp@CResetPropExchange@@UAAHPB_WPAPAXPAX@Z=stub__ExchangeBlobProp_CResetPropExchange__UAAHPB_WPAPAXPAX_Z @4418
    ?ExchangeExtent@COleControl@@QAAHPAVCPropExchange@@@Z=stub__ExchangeExtent_COleControl__QAAHPAVCPropExchange___Z @4419
    ?ExchangeFontProp@CArchivePropExchange@@UAAHPB_WAAVCFontHolder@@PBUtagFONTDESC@@PAUIFontDisp@@@Z=stub__ExchangeFontProp_CArchivePropExchange__UAAHPB_WAAVCFontHolder__PBUtagFONTDESC__PAUIFontDisp___Z @4420
    ?ExchangeFontProp@CAsyncPropExchange@@UAAHPB_WAAVCFontHolder@@PBUtagFONTDESC@@PAUIFontDisp@@@Z=stub__ExchangeFontProp_CAsyncPropExchange__UAAHPB_WAAVCFontHolder__PBUtagFONTDESC__PAUIFontDisp___Z @4421
    ?ExchangeFontProp@CPropbagPropExchange@@UAAHPB_WAAVCFontHolder@@PBUtagFONTDESC@@PAUIFontDisp@@@Z=stub__ExchangeFontProp_CPropbagPropExchange__UAAHPB_WAAVCFontHolder__PBUtagFONTDESC__PAUIFontDisp___Z @4422
    ?ExchangeFontProp@CPropsetPropExchange@@UAAHPB_WAAVCFontHolder@@PBUtagFONTDESC@@PAUIFontDisp@@@Z=stub__ExchangeFontProp_CPropsetPropExchange__UAAHPB_WAAVCFontHolder__PBUtagFONTDESC__PAUIFontDisp___Z @4423
    ?ExchangeFontProp@CResetPropExchange@@UAAHPB_WAAVCFontHolder@@PBUtagFONTDESC@@PAUIFontDisp@@@Z=stub__ExchangeFontProp_CResetPropExchange__UAAHPB_WAAVCFontHolder__PBUtagFONTDESC__PAUIFontDisp___Z @4424
    ?ExchangePersistentProp@CArchivePropExchange@@UAAHPB_WPAPAUIUnknown@@ABU_GUID@@PAU2@@Z=stub__ExchangePersistentProp_CArchivePropExchange__UAAHPB_WPAPAUIUnknown__ABU_GUID__PAU2__Z @4425
    ?ExchangePersistentProp@CAsyncPropExchange@@UAAHPB_WPAPAUIUnknown@@ABU_GUID@@PAU2@@Z=stub__ExchangePersistentProp_CAsyncPropExchange__UAAHPB_WPAPAUIUnknown__ABU_GUID__PAU2__Z @4426
    ?ExchangePersistentProp@CPropbagPropExchange@@UAAHPB_WPAPAUIUnknown@@ABU_GUID@@PAU2@@Z=stub__ExchangePersistentProp_CPropbagPropExchange__UAAHPB_WPAPAUIUnknown__ABU_GUID__PAU2__Z @4427
    ?ExchangePersistentProp@CPropsetPropExchange@@UAAHPB_WPAPAUIUnknown@@ABU_GUID@@PAU2@@Z=stub__ExchangePersistentProp_CPropsetPropExchange__UAAHPB_WPAPAUIUnknown__ABU_GUID__PAU2__Z @4428
    ?ExchangePersistentProp@CResetPropExchange@@UAAHPB_WPAPAUIUnknown@@ABU_GUID@@PAU2@@Z=stub__ExchangePersistentProp_CResetPropExchange__UAAHPB_WPAPAUIUnknown__ABU_GUID__PAU2__Z @4429
    ?ExchangeProp@CArchivePropExchange@@UAAHPB_WGPAXPBX@Z=stub__ExchangeProp_CArchivePropExchange__UAAHPB_WGPAXPBX_Z @4430
    ?ExchangeProp@CAsyncPropExchange@@UAAHPB_WGPAXPBX@Z=stub__ExchangeProp_CAsyncPropExchange__UAAHPB_WGPAXPBX_Z @4431
    ?ExchangeProp@CPropbagPropExchange@@UAAHPB_WGPAXPBX@Z=stub__ExchangeProp_CPropbagPropExchange__UAAHPB_WGPAXPBX_Z @4432
    ?ExchangeProp@CPropsetPropExchange@@UAAHPB_WGPAXPBX@Z=stub__ExchangeProp_CPropsetPropExchange__UAAHPB_WGPAXPBX_Z @4433
    ?ExchangeProp@CResetPropExchange@@UAAHPB_WGPAXPBX@Z=stub__ExchangeProp_CResetPropExchange__UAAHPB_WGPAXPBX_Z @4434
    ?ExchangeStockProps@COleControl@@QAAXPAVCPropExchange@@@Z=stub__ExchangeStockProps_COleControl__QAAXPAVCPropExchange___Z @4435
    ?ExchangeVersion@CAsyncPropExchange@@UAAHAAKKH@Z=stub__ExchangeVersion_CAsyncPropExchange__UAAHAAKKH_Z @4436
    ?ExchangeVersion@CPropExchange@@UAAHAAKKH@Z=stub__ExchangeVersion_CPropExchange__UAAHAAKKH_Z @4437
    ?ExcludeClipRect@CDC@@QAAHHHHH@Z=stub__ExcludeClipRect_CDC__QAAHHHHH_Z @4438
    ?ExcludeClipRect@CDC@@QAAHPBUtagRECT@@@Z=stub__ExcludeClipRect_CDC__QAAHPBUtagRECT___Z @4439
    ?ExcludeTag@AFX_GLOBAL_DATA@@QAAHAAV?$CStringT@_WV?$StrTraitMFC_DLL@_WV?$ChTraitsCRT@_W@ATL@@@@@ATL@@PB_W0H@Z=stub__ExcludeTag_AFX_GLOBAL_DATA__QAAHAAV__CStringT__WV__StrTraitMFC_DLL__WV__ChTraitsCRT__W_ATL_____ATL__PB_W0H_Z @4440
    ?ExcludeTag@CTagManager@@QAAHPB_WAAV?$CStringT@_WV?$StrTraitMFC_DLL@_WV?$ChTraitsCRT@_W@ATL@@@@@ATL@@H@Z=stub__ExcludeTag_CTagManager__QAAHPB_WAAV__CStringT__WV__StrTraitMFC_DLL__WV__ChTraitsCRT__W_ATL_____ATL__H_Z @4441
    ?Exec@XOleCommandTarget@CDocObjectServer@@UAAJPBU_GUID@@KKPAUtagVARIANT@@1@Z=stub__Exec_XOleCommandTarget_CDocObjectServer__UAAJPBU_GUID__KKPAUtagVARIANT__1_Z @4442
    ?Exec@XOleCommandTarget@COleFrameHook@@UAAJPBU_GUID@@KKPAUtagVARIANT@@1@Z=stub__Exec_XOleCommandTarget_COleFrameHook__UAAJPBU_GUID__KKPAUtagVARIANT__1_Z @4443
    ?ExecCommand@COleDocObjectItem@@QAAJKKPBU_GUID@@@Z=stub__ExecCommand_COleDocObjectItem__QAAJKKPBU_GUID___Z @4444
    ?ExecFormsCommand@CHtmlView@@QAAJKPAUtagVARIANT@@0@Z=stub__ExecFormsCommand_CHtmlView__QAAJKPAUtagVARIANT__0_Z @4445
    ?ExecHandler@CHtmlEditView@@UAAHI@Z=stub__ExecHandler_CHtmlEditView__UAAHI_Z @4446
    ?ExecuteDlgInit@CWnd@@QAAHPAX@Z=stub__ExecuteDlgInit_CWnd__QAAHPAX_Z @4447
    ?ExecuteDlgInit@CWnd@@QAAHPB_W@Z=stub__ExecuteDlgInit_CWnd__QAAHPB_W_Z @4448
    ?ExecuteSetPosUpdate@CRecordset@@IAAXXZ=stub__ExecuteSetPosUpdate_CRecordset__IAAXXZ @4449
    ?ExecuteSQL@CDatabase@@QAAXPB_W@Z=stub__ExecuteSQL_CDatabase__QAAXPB_W_Z @4450
    ?ExecuteUpdateSQL@CRecordset@@IAAXXZ=stub__ExecuteUpdateSQL_CRecordset__IAAXXZ @4451
    ?ExecWB@CHtmlView@@QAAXW4OLECMDID@@W4OLECMDEXECOPT@@PAUtagVARIANT@@2@Z=stub__ExecWB_CHtmlView__QAAXW4OLECMDID__W4OLECMDEXECOPT__PAUtagVARIANT__2_Z @4452
    ?ExitHelpMode@CFrameWnd@@UAAXXZ=stub__ExitHelpMode_CFrameWnd__UAAXXZ @4453
    ?ExitInstance@COleControlModule@@UAAHXZ=stub__ExitInstance_COleControlModule__UAAHXZ @4454
    ?ExitInstance@CWinApp@@UAAHXZ=stub__ExitInstance_CWinApp__UAAHXZ @4455
    ?ExitInstance@CWinAppEx@@UAAHXZ=stub__ExitInstance_CWinAppEx__UAAHXZ @4456
    ?ExitInstance@CWinThread@@UAAHXZ=stub__ExitInstance_CWinThread__UAAHXZ @4457
    ?Expand@CMFCPropertyGridProperty@@QAAXH@Z=stub__Expand_CMFCPropertyGridProperty__QAAXH_Z @4458
    ?ExpandAll@CMFCPropertyGridCtrl@@QAAXH@Z=stub__ExpandAll_CMFCPropertyGridCtrl__QAAXH_Z @4459
    ?ExpandDeep@CMFCPropertyGridProperty@@IAAXH@Z=stub__ExpandDeep_CMFCPropertyGridProperty__IAAXH_Z @4460
    ?ExpandStretchedPanes@CDockingPanesRow@@QAAXXZ=stub__ExpandStretchedPanes_CDockingPanesRow__QAAXXZ @4461
    ?ExpandStretchedPanesRect@CDockingPanesRow@@QAAXXZ=stub__ExpandStretchedPanesRect_CDockingPanesRow__QAAXXZ @4462
    ?ExportToMenu@CMFCPopupMenuBar@@UBAPAUHMENU__@@XZ=stub__ExportToMenu_CMFCPopupMenuBar__UBAPAUHMENU____XZ @4463
    ?ExportToMenuButton@CMFCDropDownToolbarButton@@UBAHAAVCMFCToolBarMenuButton@@@Z=stub__ExportToMenuButton_CMFCDropDownToolbarButton__UBAHAAVCMFCToolBarMenuButton___Z @4464
    ?ExportToMenuButton@CMFCToolBarButton@@UBAHAAVCMFCToolBarMenuButton@@@Z=stub__ExportToMenuButton_CMFCToolBarButton__UBAHAAVCMFCToolBarMenuButton___Z @4465
    ?ExportToMenuButton@CMFCToolBarComboBoxButton@@UBAHAAVCMFCToolBarMenuButton@@@Z=stub__ExportToMenuButton_CMFCToolBarComboBoxButton__UBAHAAVCMFCToolBarMenuButton___Z @4466
    ?ExportToMenuButton@CMFCToolBarDateTimeCtrl@@UBAHAAVCMFCToolBarMenuButton@@@Z=stub__ExportToMenuButton_CMFCToolBarDateTimeCtrl__UBAHAAVCMFCToolBarMenuButton___Z @4467
    ?ExtendMenuButton@CMFCVisualManagerOfficeXP@@MAAXPAVCMFCToolBarMenuButton@@AAVCRect@@@Z=stub__ExtendMenuButton_CMFCVisualManagerOfficeXP__MAAXPAVCMFCToolBarMenuButton__AAVCRect___Z @4468
    ?ExternalAddRef@CCmdTarget@@QAAKXZ=stub__ExternalAddRef_CCmdTarget__QAAKXZ @4469
    ?ExternalDisconnect@CCmdTarget@@QAAXXZ=stub__ExternalDisconnect_CCmdTarget__QAAXXZ @4470
    ?ExternalQueryInterface@CCmdTarget@@QAAKPBXPAPAX@Z=stub__ExternalQueryInterface_CCmdTarget__QAAKPBXPAPAX_Z @4471
    ?ExternalRelease@CCmdTarget@@QAAKXZ=stub__ExternalRelease_CCmdTarget__QAAKXZ @4472
    ?ExtractIconW@CMFCToolBarImages@@QAAPAUHICON__@@H@Z=stub__ExtractIconW_CMFCToolBarImages__QAAPAUHICON____H_Z @4473
    ?ExtTextOutW@CMetaFileDC@@UAAHHHIPBUtagRECT@@PB_WIPAH@Z=stub__ExtTextOutW_CMetaFileDC__UAAHHHIPBUtagRECT__PB_WIPAH_Z @4474
    ?ExtTextOutW@CPreviewDC@@UAAHHHIPBUtagRECT@@PB_WIPAH@Z=stub__ExtTextOutW_CPreviewDC__UAAHHHIPBUtagRECT__PB_WIPAH_Z @4475
    ?Fail@CDataExchange@@QAAXXZ=stub__Fail_CDataExchange__QAAXXZ @4476
    ?FailedToDo@XNotifyDBEvents@COleControlSite@@UAAJKKQAUtagDBNOTIFYREASON@@@Z=stub__FailedToDo_XNotifyDBEvents_COleControlSite__UAAJKKQAUtagDBNOTIFYREASON___Z @4477
    ?FetchData@CRecordset@@QAAFGJPAK@Z=stub__FetchData_CRecordset__QAAFGJPAK_Z @4478
    ?Fill4ColorsGradient@CDrawingManager@@QAAXVCRect@@KKKKHH@Z=stub__Fill4ColorsGradient_CDrawingManager__QAAXVCRect__KKKKHH_Z @4479
    ?FillAllCommandsList@CMFCToolBarsCustomizeDialog@@UBAXAAVCListBox@@@Z=stub__FillAllCommandsList_CMFCToolBarsCustomizeDialog__UBAXAAVCListBox___Z @4480
    ?FillAlpha@CDrawingManager@@QAAXABVCRect@@E@Z=stub__FillAlpha_CDrawingManager__QAAXABVCRect__E_Z @4481
    ?FillBuffer@CArchive@@QAAXI@Z=stub__FillBuffer_CArchive__QAAXI_Z @4482
    ?FillCategoriesComboBox@CMFCToolBarsCustomizeDialog@@QBAXAAVCComboBox@@H@Z=stub__FillCategoriesComboBox_CMFCToolBarsCustomizeDialog__QBAXAAVCComboBox__H_Z @4483
    ?FillCategoriesListBox@CMFCToolBarsCustomizeDialog@@QBAXAAVCListBox@@H@Z=stub__FillCategoriesListBox_CMFCToolBarsCustomizeDialog__QBAXAAVCListBox__H_Z @4484
    ?FillContainsPoint@CD2DGeometry@@QBAHVCD2DPointF@@ABUD2D_MATRIX_3X2_F@@PAHM@Z=stub__FillContainsPoint_CD2DGeometry__QBAHVCD2DPointF__ABUD2D_MATRIX_3X2_F__PAHM_Z @4485
    ?FillDefaultTabsOrderArray@CBaseTabbedPane@@QAAXXZ=stub__FillDefaultTabsOrderArray_CBaseTabbedPane__QAAXXZ @4486
    ?FillDitheredRect@CMFCToolBarImages@@SAXPAVCDC@@ABVCRect@@@Z=stub__FillDitheredRect_CMFCToolBarImages__SAXPAVCDC__ABVCRect___Z @4487
    ?FillEllipse@CRenderTarget@@QAAXABVCD2DEllipse@@PAVCD2DBrush@@@Z=stub__FillEllipse_CRenderTarget__QAAXABVCD2DEllipse__PAVCD2DBrush___Z @4488
    ?FillFromArray@CMFCRibbonCommandsListBox@@QAAXABV?$CArray@PAVCMFCRibbonBaseElement@@PAV1@@@HH@Z=stub__FillFromArray_CMFCRibbonCommandsListBox__QAAXABV__CArray_PAVCMFCRibbonBaseElement__PAV1___HH_Z @4489
    ?FillFromCategory@CMFCRibbonCommandsListBox@@QAAXPAVCMFCRibbonCategory@@@Z=stub__FillFromCategory_CMFCRibbonCommandsListBox__QAAXPAVCMFCRibbonCategory___Z @4490
    ?FillFromIDs@CMFCRibbonCommandsListBox@@QAAXABV?$CList@II@@H@Z=stub__FillFromIDs_CMFCRibbonCommandsListBox__QAAXABV__CList_II__H_Z @4491
    ?FillGeometry@CRenderTarget@@QAAXPAVCD2DGeometry@@PAVCD2DBrush@@1@Z=stub__FillGeometry_CRenderTarget__QAAXPAVCD2DGeometry__PAVCD2DBrush__1_Z @4492
    ?FillGradient@CDrawingManager@@QAAXVCRect@@KKHHH@Z=stub__FillGradient_CDrawingManager__QAAXVCRect__KKHHH_Z @4493
    ?FillGradient2@CDrawingManager@@QAAXVCRect@@KKH@Z=stub__FillGradient2_CDrawingManager__QAAXVCRect__KKH_Z @4494
    ?FillInLogFont@CFontDialog@@QAAKABU_charformatw@@@Z=stub__FillInLogFont_CFontDialog__QAAKABU_charformatw___Z @4495
    ?FillInterior@CMFCControlRenderer@@UAAXPAVCDC@@VCRect@@IE@Z=stub__FillInterior_CMFCControlRenderer__UAAXPAVCDC__VCRect__IE_Z @4496
    ?FillInterior@CMFCControlRenderer@@UAAXPAVCDC@@VCRect@@W4ImageAlignHorz@CMFCToolBarImages@@W4ImageAlignVert@5@IE@Z=stub__FillInterior_CMFCControlRenderer__UAAXPAVCDC__VCRect__W4ImageAlignHorz_CMFCToolBarImages__W4ImageAlignVert_5_IE_Z @4497
    ?FillInterior@CMFCToolBarButton@@IAAXPAVCDC@@ABVCRect@@HH@Z=stub__FillInterior_CMFCToolBarButton__IAAXPAVCDC__ABVCRect__HH_Z @4498
    ?FillInToolInfo@CToolTipCtrl@@QBAXAAUtagTOOLINFOW@@PAVCWnd@@I@Z=stub__FillInToolInfo_CToolTipCtrl__QBAXAAUtagTOOLINFOW__PAVCWnd__I_Z @4499
    ?FillList@CMFCRibbonRecentFilesList@@QAAXXZ=stub__FillList_CMFCRibbonRecentFilesList__QAAXXZ @4500
    ?FillListSitesOrWnds@COleControlContainer@@UAAHPAU_AFX_OCC_DIALOG_INFO@@@Z=stub__FillListSitesOrWnds_COleControlContainer__UAAHPAU_AFX_OCC_DIALOG_INFO___Z @4501
    ?FillMesh@CRenderTarget@@QAAXPAVCD2DMesh@@PAVCD2DBrush@@@Z=stub__FillMesh_CRenderTarget__QAAXPAVCD2DMesh__PAVCD2DBrush___Z @4502
    ?FillOpacityMask@CRenderTarget@@QAAXPAVCD2DBitmap@@PAVCD2DBrush@@W4D2D1_OPACITY_MASK_CONTENT@@ABVCD2DRectF@@3@Z=stub__FillOpacityMask_CRenderTarget__QAAXPAVCD2DBitmap__PAVCD2DBrush__W4D2D1_OPACITY_MASK_CONTENT__ABVCD2DRectF__3_Z @4503
    ?FillOutsideRect@CScrollView@@QAAXPAVCDC@@PAVCBrush@@@Z=stub__FillOutsideRect_CScrollView__QAAXPAVCDC__PAVCBrush___Z @4504
    ?FillReBarPane@CMFCBaseVisualManager@@UAAXPAVCDC@@PAVCBasePane@@VCRect@@@Z=stub__FillReBarPane_CMFCBaseVisualManager__UAAXPAVCDC__PAVCBasePane__VCRect___Z @4505
    ?FillRectangle@CRenderTarget@@QAAXABVCD2DRectF@@PAVCD2DBrush@@@Z=stub__FillRectangle_CRenderTarget__QAAXABVCD2DRectF__PAVCD2DBrush___Z @4506
    ?FillRoundedRectangle@CRenderTarget@@QAAXABVCD2DRoundedRect@@PAVCD2DBrush@@@Z=stub__FillRoundedRectangle_CRenderTarget__QAAXABVCD2DRoundedRect__PAVCD2DBrush___Z @4507
    ?FillSolidRect@CDC@@QAAXHHHHK@Z=stub__FillSolidRect_CDC__QAAXHHHHK_Z @4508
    ?FillSolidRect@CDC@@QAAXPBUtagRECT@@K@Z=stub__FillSolidRect_CDC__QAAXPBUtagRECT__K_Z @4509
    ?FillStruct@CTaskDialog@@AAAXAAU_TASKDIALOGCONFIG@@@Z=stub__FillStruct_CTaskDialog__AAAXAAU_TASKDIALOGCONFIG___Z @4510
    ?FillWindowList@CMFCRibbonButton@@IAAXXZ=stub__FillWindowList_CMFCRibbonButton__IAAXXZ @4511
    ?FillWindowList@CMFCWindowsManagerDialog@@IAAXXZ=stub__FillWindowList_CMFCWindowsManagerDialog__IAAXXZ @4512
    ?Filter@CMFCZoomKernel@@SANW4XFilterType@1@N@Z=stub__Filter_CMFCZoomKernel__SANW4XFilterType_1_N_Z @4513
    ?FilterDataObject@CBrowserControlSite@@MAAJPAUIDataObject@@PAPAU2@@Z=stub__FilterDataObject_CBrowserControlSite__MAAJPAUIDataObject__PAPAU2__Z @4514
    ?FilterDataObject@CDHtmlDialog@@UAAJPAUIDataObject@@PAPAU2@@Z=stub__FilterDataObject_CDHtmlDialog__UAAJPAUIDataObject__PAPAU2__Z @4515
    ?FilterDataObject@XDocHostUIHandler@CHtmlControlSite@@UAAJPAUIDataObject@@PAPAU3@@Z=stub__FilterDataObject_XDocHostUIHandler_CHtmlControlSite__UAAJPAUIDataObject__PAPAU3__Z @4516
    ?FilterProc@CMFCZoomKernel@@SAP6ANN@ZW4XFilterType@1@@Z=stub__FilterProc_CMFCZoomKernel__SAP6ANN_ZW4XFilterType_1__Z @4517
    ?FilterToolTipMessage@CWnd@@QAAXPAUtagMSG@@@Z=stub__FilterToolTipMessage_CWnd__QAAXPAUtagMSG___Z @4518
    ?FilterWidth@CMFCZoomKernel@@SANW4XFilterType@1@@Z=stub__FilterWidth_CMFCZoomKernel__SANW4XFilterType_1__Z @4519
    ?Find@?$CStringT@_WV?$StrTraitMFC_DLL@_WV?$ChTraitsCRT@_W@ATL@@@@@ATL@@QBAH_WH@Z=stub__Find___CStringT__WV__StrTraitMFC_DLL__WV__ChTraitsCRT__W_ATL_____ATL__QBAH_WH_Z @4520
    ?Find@?$CStringT@_WV?$StrTraitMFC_DLL@_WV?$ChTraitsCRT@_W@ATL@@@@@ATL@@QBAHPB_WH@Z=stub__Find___CStringT__WV__StrTraitMFC_DLL__WV__ChTraitsCRT__W_ATL_____ATL__QBAHPB_WH_Z @4521
    ?Find@?$CStringT@DV?$StrTraitMFC_DLL@DV?$ChTraitsCRT@D@ATL@@@@@ATL@@QBAHDH@Z=stub__Find___CStringT_DV__StrTraitMFC_DLL_DV__ChTraitsCRT_D_ATL_____ATL__QBAHDH_Z @4522
    ?Find@?$CStringT@DV?$StrTraitMFC_DLL@DV?$ChTraitsCRT@D@ATL@@@@@ATL@@QBAHPBDH@Z=stub__Find___CStringT_DV__StrTraitMFC_DLL_DV__ChTraitsCRT_D_ATL_____ATL__QBAHPBDH_Z @4523
    ?Find@CMFCRibbonBaseElement@@UAAPAV1@PBV1@@Z=stub__Find_CMFCRibbonBaseElement__UAAPAV1_PBV1__Z @4524
    ?Find@CMFCRibbonButtonsGroup@@MAAPAVCMFCRibbonBaseElement@@PBV2@@Z=stub__Find_CMFCRibbonButtonsGroup__MAAPAVCMFCRibbonBaseElement__PBV2__Z @4525
    ?Find@CObList@@QBAPAU__POSITION@@PAVCObject@@PAU2@@Z=stub__Find_CObList__QBAPAU__POSITION__PAVCObject__PAU2__Z @4526
    ?Find@CPtrList@@QBAPAU__POSITION@@PAXPAU2@@Z=stub__Find_CPtrList__QBAPAU__POSITION__PAXPAU2__Z @4527
    ?Find@CStringList@@QBAPAU__POSITION@@PB_WPAU2@@Z=stub__Find_CStringList__QBAPAU__POSITION__PB_WPAU2__Z @4528
    ?FindActiveTabWnd@CMDIClientAreaWnd@@QAAPAVCMFCTabCtrl@@XZ=stub__FindActiveTabWnd_CMDIClientAreaWnd__QAAPAVCMFCTabCtrl__XZ @4529
    ?FindActiveTabWndByActiveChild@CMDIClientAreaWnd@@QAAPAVCMFCTabCtrl@@XZ=stub__FindActiveTabWndByActiveChild_CMDIClientAreaWnd__QAAPAVCMFCTabCtrl__XZ @4530
    ?FindAndSelect@CRichEditView@@QAAJKAAU_findtextexw@@@Z=stub__FindAndSelect_CRichEditView__QAAJKAAU_findtextexw___Z @4531
    ?FindAnimationGroup@CAnimationController@@QAAPAVCAnimationGroup@@I@Z=stub__FindAnimationGroup_CAnimationController__QAAPAVCAnimationGroup__I_Z @4532
    ?FindAnimationGroup@CAnimationController@@QAAPAVCAnimationGroup@@PAUIUIAnimationStoryboard@@@Z=stub__FindAnimationGroup_CAnimationController__QAAPAVCAnimationGroup__PAUIUIAnimationStoryboard___Z @4533
    ?FindAnimationObject@CAnimationController@@QAAHPAUIUIAnimationVariable@@PAPAVCAnimationBaseObject@@PAPAVCAnimationGroup@@@Z=stub__FindAnimationObject_CAnimationController__QAAHPAUIUIAnimationVariable__PAPAVCAnimationBaseObject__PAPAVCAnimationGroup___Z @4534
    ?FindAnimationObject@CAnimationGroup@@QAAPAVCAnimationBaseObject@@PAUIUIAnimationVariable@@@Z=stub__FindAnimationObject_CAnimationGroup__QAAPAVCAnimationBaseObject__PAUIUIAnimationVariable___Z @4535
    ?FindAvailablePageID@CMFCOutlookBar@@IAAIXZ=stub__FindAvailablePageID_CMFCOutlookBar__IAAIXZ @4536
    ?FindBar@CDockBar@@QAAHPAVCControlBar@@H@Z=stub__FindBar_CDockBar__QAAHPAVCControlBar__H_Z @4537
    ?FindBarByTabNumber@CBaseTabbedPane@@UAAPAVCWnd@@HH@Z=stub__FindBarByTabNumber_CBaseTabbedPane__UAAPAVCWnd__HH_Z @4538
    ?FindButton@CDockablePane@@IBAPAVCMFCCaptionButton@@VCPoint@@@Z=stub__FindButton_CDockablePane__IBAPAVCMFCCaptionButton__VCPoint___Z @4539
    ?FindButton@CPaneFrameWnd@@IBAPAVCMFCCaptionButton@@I@Z=stub__FindButton_CPaneFrameWnd__IBAPAVCMFCCaptionButton__I_Z @4540
    ?FindButton@CPaneFrameWnd@@IBAPAVCMFCCaptionButton@@VCPoint@@@Z=stub__FindButton_CPaneFrameWnd__IBAPAVCMFCCaptionButton__VCPoint___Z @4541
    ?FindButtonByHit@CDockablePane@@IBAPAVCMFCCaptionButton@@I@Z=stub__FindButtonByHit_CDockablePane__IBAPAVCMFCCaptionButton__I_Z @4542
    ?FindByData@CMFCRibbonBar@@QBAPAVCMFCRibbonBaseElement@@KH@Z=stub__FindByData_CMFCRibbonBar__QBAPAVCMFCRibbonBaseElement__KH_Z @4543
    ?FindByData@CMFCRibbonBaseElement@@UAAPAV1@K@Z=stub__FindByData_CMFCRibbonBaseElement__UAAPAV1_K_Z @4544
    ?FindByData@CMFCRibbonButton@@MAAPAVCMFCRibbonBaseElement@@K@Z=stub__FindByData_CMFCRibbonButton__MAAPAVCMFCRibbonBaseElement__K_Z @4545
    ?FindByData@CMFCRibbonButtonsGroup@@MAAPAVCMFCRibbonBaseElement@@K@Z=stub__FindByData_CMFCRibbonButtonsGroup__MAAPAVCMFCRibbonBaseElement__K_Z @4546
    ?FindByData@CMFCRibbonCategory@@QBAPAVCMFCRibbonBaseElement@@KH@Z=stub__FindByData_CMFCRibbonCategory__QBAPAVCMFCRibbonBaseElement__KH_Z @4547
    ?FindByData@CMFCRibbonPanel@@QBAPAVCMFCRibbonBaseElement@@K@Z=stub__FindByData_CMFCRibbonPanel__QBAPAVCMFCRibbonBaseElement__K_Z @4548
    ?FindByID@CMFCRibbonBar@@QBAPAVCMFCRibbonBaseElement@@IHH@Z=stub__FindByID_CMFCRibbonBar__QBAPAVCMFCRibbonBaseElement__IHH_Z @4549
    ?FindByID@CMFCRibbonBaseElement@@UAAPAV1@I@Z=stub__FindByID_CMFCRibbonBaseElement__UAAPAV1_I_Z @4550
    ?FindByID@CMFCRibbonButton@@MAAPAVCMFCRibbonBaseElement@@I@Z=stub__FindByID_CMFCRibbonButton__MAAPAVCMFCRibbonBaseElement__I_Z @4551
    ?FindByID@CMFCRibbonButtonsGroup@@MAAPAVCMFCRibbonBaseElement@@I@Z=stub__FindByID_CMFCRibbonButtonsGroup__MAAPAVCMFCRibbonBaseElement__I_Z @4552
    ?FindByID@CMFCRibbonCategory@@QBAPAVCMFCRibbonBaseElement@@IH@Z=stub__FindByID_CMFCRibbonCategory__QBAPAVCMFCRibbonBaseElement__IH_Z @4553
    ?FindByID@CMFCRibbonPanel@@QBAPAVCMFCRibbonBaseElement@@I@Z=stub__FindByID_CMFCRibbonPanel__QBAPAVCMFCRibbonBaseElement__I_Z @4554
    ?FindByOrigin@CMFCRibbonPanelMenuBar@@QBAPAVCMFCRibbonBaseElement@@PAV2@@Z=stub__FindByOrigin_CMFCRibbonPanelMenuBar__QBAPAVCMFCRibbonBaseElement__PAV2__Z @4555
    ?FindByOriginal@CMFCRibbonBaseElement@@UAAPAV1@PAV1@@Z=stub__FindByOriginal_CMFCRibbonBaseElement__UAAPAV1_PAV1__Z @4556
    ?FindByOriginal@CMFCRibbonButtonsGroup@@MAAPAVCMFCRibbonBaseElement@@PAV2@@Z=stub__FindByOriginal_CMFCRibbonButtonsGroup__MAAPAVCMFCRibbonBaseElement__PAV2__Z @4557
    ?FindCategoryIndexByData@CMFCRibbonBar@@QBAHK@Z=stub__FindCategoryIndexByData_CMFCRibbonBar__QBAHK_Z @4558
    ?FindChunk@CDocument@@UAAPAU__POSITION@@ABU_GUID@@K@Z=stub__FindChunk_CDocument__UAAPAU__POSITION__ABU_GUID__K_Z @4559
    ?FindConnectionPoint@COleConnPtContainer@@UAAJABU_GUID@@PAPAUIConnectionPoint@@@Z=stub__FindConnectionPoint_COleConnPtContainer__UAAJABU_GUID__PAPAUIConnectionPoint___Z @4560
    ?FindContextCaption@CMFCRibbonBar@@IBAPAVCMFCRibbonContextCaption@@I@Z=stub__FindContextCaption_CMFCRibbonBar__IBAPAVCMFCRibbonContextCaption__I_Z @4561
    ?FindDefaultAccelerator@CKeyboardManager@@SAHIAAV?$CStringT@_WV?$StrTraitMFC_DLL@_WV?$ChTraitsCRT@_W@ATL@@@@@ATL@@PAVCFrameWnd@@H@Z=stub__FindDefaultAccelerator_CKeyboardManager__SAHIAAV__CStringT__WV__StrTraitMFC_DLL__WV__ChTraitsCRT__W_ATL_____ATL__PAVCFrameWnd__H_Z @4562
    ?FindDestintationToolBar@CMFCPopupMenuBar@@QAAPAVCMFCToolBar@@VCPoint@@@Z=stub__FindDestintationToolBar_CMFCPopupMenuBar__QAAPAVCMFCToolBar__VCPoint___Z @4563
    ?FindDHtmlEventEntry@CDHtmlEventSink@@QAAHPBUDHtmlEventMapEntry@@JPAPAUIHTMLElement@@@Z=stub__FindDHtmlEventEntry_CDHtmlEventSink__QAAHPBUDHtmlEventMapEntry__JPAPAUIHTMLElement___Z @4564
    ?FindDockSite@CDockingManager@@UAAPAVCDockSite@@KH@Z=stub__FindDockSite_CDockingManager__UAAPAVCDockSite__KH_Z @4565
    ?FindDockSiteByPane@CDockingManager@@UAAPAVCDockSite@@PAVCPane@@@Z=stub__FindDockSiteByPane_CDockingManager__UAAPAVCDockSite__PAVCPane___Z @4566
    ?FindDropIndex@CMFCMenuBar@@MBAHVCPoint@@AAVCRect@@@Z=stub__FindDropIndex_CMFCMenuBar__MBAHVCPoint__AAVCRect___Z @4567
    ?FindDropIndex@CMFCPopupMenuBar@@MBAHVCPoint@@AAVCRect@@@Z=stub__FindDropIndex_CMFCPopupMenuBar__MBAHVCPoint__AAVCRect___Z @4568
    ?FindDropIndex@CMFCToolBar@@MBAHVCPoint@@AAVCRect@@@Z=stub__FindDropIndex_CMFCToolBar__MBAHVCPoint__AAVCRect___Z @4569
    ?FindElement@CMFCRibbonStatusBar@@QAAPAVCMFCRibbonBaseElement@@I@Z=stub__FindElement_CMFCRibbonStatusBar__QAAPAVCMFCRibbonBaseElement__I_Z @4570
    ?FindFile@CFileFind@@UAAHPB_WK@Z=stub__FindFile_CFileFind__UAAHPB_WK_Z @4571
    ?FindFile@CFtpFileFind@@UAAHPB_WK@Z=stub__FindFile_CFtpFileFind__UAAHPB_WK_Z @4572
    ?FindFile@CGopherFileFind@@UAAHAAVCGopherLocator@@PB_WK@Z=stub__FindFile_CGopherFileFind__UAAHAAVCGopherLocator__PB_WK_Z @4573
    ?FindFile@CGopherFileFind@@UAAHPB_WK@Z=stub__FindFile_CGopherFileFind__UAAHPB_WK_Z @4574
    ?FindFirstVisiblePane@CDockingPanesRow@@IAAPAVCPane@@H@Z=stub__FindFirstVisiblePane_CDockingPanesRow__IAAPAVCPane__H_Z @4575
    ?FindFloatingPaneByID@CPaneFrameWnd@@SAPAVCBasePane@@I@Z=stub__FindFloatingPaneByID_CPaneFrameWnd__SAPAVCBasePane__I_Z @4576
    ?FindIndex@CMFCVisualManagerBitmapCache@@QBAHABVCSize@@@Z=stub__FindIndex_CMFCVisualManagerBitmapCache__QBAHABVCSize___Z @4577
    ?FindIndex@CObList@@QBAPAU__POSITION@@H@Z=stub__FindIndex_CObList__QBAPAU__POSITION__H_Z @4578
    ?FindIndex@CPtrList@@QBAPAU__POSITION@@H@Z=stub__FindIndex_CPtrList__QBAPAU__POSITION__H_Z @4579
    ?FindIndex@CStringList@@QBAPAU__POSITION@@H@Z=stub__FindIndex_CStringList__QBAPAU__POSITION__H_Z @4580
    ?FindItem@CMFCRibbonComboBox@@QBAHPB_W@Z=stub__FindItem_CMFCRibbonComboBox__QBAHPB_W_Z @4581
    ?FindItem@CMFCToolBarComboBoxButton@@QBAHPB_W@Z=stub__FindItem_CMFCToolBarComboBoxButton__QBAHPB_W_Z @4582
    ?FindItem@COleControlContainer@@UBAPAVCOleControlSite@@I@Z=stub__FindItem_COleControlContainer__UBAPAVCOleControlSite__I_Z @4583
    ?FindItemByData@CMFCPropertyGridCtrl@@QBAPAVCMFCPropertyGridProperty@@KH@Z=stub__FindItemByData_CMFCPropertyGridCtrl__QBAPAVCMFCPropertyGridProperty__KH_Z @4584
    ?FindMenuItemText@CMFCMenuBar@@KAHPAUHMENU__@@IAAV?$CStringT@_WV?$StrTraitMFC_DLL@_WV?$ChTraitsCRT@_W@ATL@@@@@ATL@@@Z=stub__FindMenuItemText_CMFCMenuBar__KAHPAUHMENU____IAAV__CStringT__WV__StrTraitMFC_DLL__WV__ChTraitsCRT__W_ATL_____ATL___Z @4585
    ?FindMenuWithConnectedFloaty@CMFCPopupMenu@@KAPAV1@XZ=stub__FindMenuWithConnectedFloaty_CMFCPopupMenu__KAPAV1_XZ @4586
    ?FindNearest@CMFCRibbonBar@@KAPAVCMFCRibbonBaseElement@@VCPoint@@ABV?$CArray@PAVCMFCRibbonBaseElement@@PAV1@@@@Z=stub__FindNearest_CMFCRibbonBar__KAPAVCMFCRibbonBaseElement__VCPoint__ABV__CArray_PAVCMFCRibbonBaseElement__PAV1____Z @4587
    ?FindNextFileW@CFileFind@@UAAHXZ=stub__FindNextFileW_CFileFind__UAAHXZ @4588
    ?FindNextFileW@CFtpFileFind@@UAAHXZ=stub__FindNextFileW_CFtpFileFind__UAAHXZ @4589
    ?FindNextFileW@CGopherFileFind@@UAAHXZ=stub__FindNextFileW_CGopherFileFind__UAAHXZ @4590
    ?FindNextFocusedElement@CMFCRibbonBar@@KAPAVCMFCRibbonBaseElement@@HABV?$CArray@PAVCMFCRibbonBaseElement@@PAV1@@@VCRect@@PAV2@HHAAH@Z=stub__FindNextFocusedElement_CMFCRibbonBar__KAPAVCMFCRibbonBaseElement__HABV__CArray_PAVCMFCRibbonBaseElement__PAV1___VCRect__PAV2_HHAAH_Z @4591
    ?FindNextRegisteredWithTaskbarMDIChild@CMDIClientAreaWnd@@QAAPAVCMDIChildWndEx@@PAV2@@Z=stub__FindNextRegisteredWithTaskbarMDIChild_CMDIClientAreaWnd__QAAPAVCMDIChildWndEx__PAV2__Z @4592
    ?FindNextRegisteredWithTaskbarMDIChild@CMDIClientAreaWnd@@QAAPAVCMDIChildWndEx@@PAVCMFCTabCtrl@@H@Z=stub__FindNextRegisteredWithTaskbarMDIChild_CMDIClientAreaWnd__QAAPAVCMDIChildWndEx__PAVCMFCTabCtrl__H_Z @4593
    ?FindNextVisibleRow@CDockSite@@IAAPAVCDockingPanesRow@@AAPAU__POSITION@@H@Z=stub__FindNextVisibleRow_CDockSite__IAAPAVCDockingPanesRow__AAPAU__POSITION__H_Z @4594
    ?FindOneOf@?$CStringT@_WV?$StrTraitMFC_DLL@_WV?$ChTraitsCRT@_W@ATL@@@@@ATL@@QBAHPB_W@Z=stub__FindOneOf___CStringT__WV__StrTraitMFC_DLL__WV__ChTraitsCRT__W_ATL_____ATL__QBAHPB_W_Z @4595
    ?FindOneOf@?$CStringT@DV?$StrTraitMFC_DLL@DV?$ChTraitsCRT@D@ATL@@@@@ATL@@QBAHPBD@Z=stub__FindOneOf___CStringT_DV__StrTraitMFC_DLL_DV__ChTraitsCRT_D_ATL_____ATL__QBAHPBD_Z @4596
    ?FindPageIndexInList@CMFCPropertySheet@@IAAHPAVCPropertyPage@@@Z=stub__FindPageIndexInList_CMFCPropertySheet__IAAHPAVCPropertyPage___Z @4597
    ?FindPageRect@CPreviewView@@IAAHAAVCPoint@@AAI@Z=stub__FindPageRect_CPreviewView__IAAHAAVCPoint__AAI_Z @4598
    ?FindPane@CPaneContainerManager@@IAAIVCPoint@@PAPAVCPane@@AAPAU__POSITION@@@Z=stub__FindPane_CPaneContainerManager__IAAIVCPoint__PAPAVCPane__AAPAU__POSITION___Z @4599
    ?FindPane@CPaneContainerManager@@IAAIVCRect@@PAPAVCPane@@AAPAU__POSITION@@@Z=stub__FindPane_CPaneContainerManager__IAAIVCRect__PAPAVCPane__AAPAU__POSITION___Z @4600
    ?FindPaneByID@CBaseTabbedPane@@UAAPAVCWnd@@I@Z=stub__FindPaneByID_CBaseTabbedPane__UAAPAVCWnd__I_Z @4601
    ?FindPaneByID@CDockingManager@@UAAPAVCBasePane@@IH@Z=stub__FindPaneByID_CDockingManager__UAAPAVCBasePane__IH_Z @4602
    ?FindPaneByID@CDockSite@@QAAPAVCPane@@I@Z=stub__FindPaneByID_CDockSite__QAAPAVCPane__I_Z @4603
    ?FindPaneContainer@CPaneContainerManager@@UAAPAVCPaneContainer@@PAVCDockablePane@@AAH@Z=stub__FindPaneContainer_CPaneContainerManager__UAAPAVCPaneContainer__PAVCDockablePane__AAH_Z @4604
    ?FindPaneContainer@CPaneDivider@@QAAPAVCPaneContainer@@PAVCDockablePane@@AAH@Z=stub__FindPaneContainer_CPaneDivider__QAAPAVCPaneContainer__PAVCDockablePane__AAH_Z @4605
    ?FindPanelWithElem@CMFCRibbonCategory@@QAAPAVCMFCRibbonPanel@@PBVCMFCRibbonBaseElement@@@Z=stub__FindPanelWithElem_CMFCRibbonCategory__QAAPAVCMFCRibbonPanel__PBVCMFCRibbonBaseElement___Z @4606
    ?FindRowByRect@CDockSite@@IAAPAVCDockingPanesRow@@VCRect@@@Z=stub__FindRowByRect_CDockSite__IAAPAVCDockingPanesRow__VCRect___Z @4607
    ?FindRowIndex@CDockSite@@QAAHPAVCDockingPanesRow@@@Z=stub__FindRowIndex_CDockSite__QAAHPAVCDockingPanesRow___Z @4608
    ?FindSinkForObject@CDHtmlDialog@@IAAHPB_W@Z=stub__FindSinkForObject_CDHtmlDialog__IAAHPB_W_Z @4609
    ?FindSiteOrWnd@CWnd@@QBAPAU__POSITION@@PBUCOleControlSiteOrWnd@@@Z=stub__FindSiteOrWnd_CWnd__QBAPAU__POSITION__PBUCOleControlSiteOrWnd___Z @4610
    ?FindSiteOrWndWithFocus@CWnd@@QBAPAU__POSITION@@XZ=stub__FindSiteOrWndWithFocus_CWnd__QBAPAU__POSITION__XZ @4611
    ?FindSQLToken@CRecordset@@SAPB_WPB_W0@Z=stub__FindSQLToken_CRecordset__SAPB_WPB_W0_Z @4612
    ?FindSubItemByCommand@CMFCPopupMenu@@QBAPAVCMFCToolBarMenuButton@@I@Z=stub__FindSubItemByCommand_CMFCPopupMenu__QBAPAVCMFCToolBarMenuButton__I_Z @4613
    ?FindSubItemByData@CMFCPropertyGridProperty@@IBAPAV1@K@Z=stub__FindSubItemByData_CMFCPropertyGridProperty__IBAPAV1_K_Z @4614
    ?FindSubItemIndexByID@CMFCRibbonButton@@QBAHI@Z=stub__FindSubItemIndexByID_CMFCRibbonButton__QBAHI_Z @4615
    ?FindSubPaneContainer@CPaneContainer@@QAAPAV1@PBVCObject@@W4BC_FIND_CRITERIA@1@@Z=stub__FindSubPaneContainer_CPaneContainer__QAAPAV1_PBVCObject__W4BC_FIND_CRITERIA_1__Z @4616
    ?FindTab@CTabView@@QBAHPAUHWND__@@@Z=stub__FindTab_CTabView__QBAHPAUHWND_____Z @4617
    ?FindTabbedPane@CPaneContainer@@QAAPAVCDockablePane@@I@Z=stub__FindTabbedPane_CPaneContainer__QAAPAVCDockablePane__I_Z @4618
    ?FindTabbedPane@CPaneContainerManager@@QAAPAVCDockablePane@@I@Z=stub__FindTabbedPane_CPaneContainerManager__QAAPAVCDockablePane__I_Z @4619
    ?FindTabbedPane@CPaneDivider@@QAAPAVCDockablePane@@I@Z=stub__FindTabbedPane_CPaneDivider__QAAPAVCDockablePane__I_Z @4620
    ?FindTabInfo@CMFCBaseTabCtrl@@IAAHHPAPAVCMFCTabInfo@@@Z=stub__FindTabInfo_CMFCBaseTabCtrl__IAAHHPAPAVCMFCTabInfo___Z @4621
    ?FindTabWndByChild@CMDIClientAreaWnd@@QAAPAVCMFCTabCtrl@@PAUHWND__@@AAH@Z=stub__FindTabWndByChild_CMDIClientAreaWnd__QAAPAVCMFCTabCtrl__PAUHWND____AAH_Z @4622
    ?FindTargetWnd@CMFCOutlookBarTabCtrl@@UAAPAVCWnd@@ABVCPoint@@@Z=stub__FindTargetWnd_CMFCOutlookBarTabCtrl__UAAPAVCWnd__ABVCPoint___Z @4623
    ?FindTargetWnd@CMFCTabCtrl@@MAAPAVCWnd@@ABVCPoint@@@Z=stub__FindTargetWnd_CMFCTabCtrl__MAAPAVCWnd__ABVCPoint___Z @4624
    ?FindTextSimple@CRichEditView@@QAAHPB_WHHH@Z=stub__FindTextSimple_CRichEditView__QAAHPB_WHHH_Z @4625
    ?FindTextW@CEditView@@QAAHPB_WHH@Z=stub__FindTextW_CEditView__QAAHPB_WHH_Z @4626
    ?FindTextW@CRichEditView@@QAAHPB_WHHH@Z=stub__FindTextW_CRichEditView__QAAHPB_WHHH_Z @4627
    ?FindTool@CUserToolsManager@@QBAPAVCUserTool@@I@Z=stub__FindTool_CUserToolsManager__QBAPAVCUserTool__I_Z @4628
    ?FinishCreate@COleClientItem@@MAAHJ@Z=stub__FinishCreate_COleClientItem__MAAHJ_Z @4629
    ?FireChangeActiveTab@CMFCBaseTabCtrl@@UAAXH@Z=stub__FireChangeActiveTab_CMFCBaseTabCtrl__UAAXH_Z @4630
    ?FireChangingActiveTab@CMFCBaseTabCtrl@@UAAHH@Z=stub__FireChangingActiveTab_CMFCBaseTabCtrl__UAAHH_Z @4631
    ?FireError@COleControl@@QAAXJPB_WI@Z=stub__FireError_COleControl__QAAXJPB_WI_Z @4632
    ?FireEvent@COleControl@@QAAXJPAEZZ=stub__FireEvent_COleControl__QAAXJPAEZZ @4633
    ?FireEvent@XNotifyDBEvents@COleControlSite@@QAAJKKQAUtagDBNOTIFYREASON@@W4DSCSTATE@@@Z=stub__FireEvent_XNotifyDBEvents_COleControlSite__QAAJKKQAUtagDBNOTIFYREASON__W4DSCSTATE___Z @4634
    ?FireEventV@COleControl@@IAAXJPAEPAD@Z=stub__FireEventV_COleControl__IAAXJPAEPAD_Z @4635
    ?Fixups@CRecordset@@QAAXXZ=stub__Fixups_CRecordset__QAAXXZ @4636
    ?FixupVirtualRects@CDockingManager@@UAAXXZ=stub__FixupVirtualRects_CDockingManager__UAAXXZ @4637
    ?FixupVirtualRects@CDockingPanesRow@@QAAX_NPAVCPane@@@Z=stub__FixupVirtualRects_CDockingPanesRow__QAAX_NPAVCPane___Z @4638
    ?FixupVirtualRects@CDockSite@@UAAXXZ=stub__FixupVirtualRects_CDockSite__UAAXXZ @4639
    ?FlipRect@CGlobalUtils@@QAAXAAVCRect@@H@Z=stub__FlipRect_CGlobalUtils__QAAXAAVCRect__H_Z @4640
    ?FloatControlBar@CFrameWnd@@QAAXPAVCControlBar@@VCPoint@@K@Z=stub__FloatControlBar_CFrameWnd__QAAXPAVCControlBar__VCPoint__K_Z @4641
    ?FloatPane@CBaseTabbedPane@@MAAHVCRect@@W4AFX_DOCK_METHOD@@_N@Z=stub__FloatPane_CBaseTabbedPane__MAAHVCRect__W4AFX_DOCK_METHOD___N_Z @4642
    ?FloatPane@CPane@@UAAHVCRect@@W4AFX_DOCK_METHOD@@_N@Z=stub__FloatPane_CPane__UAAHVCRect__W4AFX_DOCK_METHOD___N_Z @4643
    ?FloatTab@CBaseTabbedPane@@UAAHPAVCWnd@@HW4AFX_DOCK_METHOD@@H@Z=stub__FloatTab_CBaseTabbedPane__UAAHPAVCWnd__HW4AFX_DOCK_METHOD__H_Z @4644
    ?FloatTab@CMFCOutlookBar@@UAAHPAVCWnd@@HW4AFX_DOCK_METHOD@@H@Z=stub__FloatTab_CMFCOutlookBar__UAAHPAVCWnd__HW4AFX_DOCK_METHOD__H_Z @4645
    ?FloatTab@CTabbedPane@@UAAHPAVCWnd@@HW4AFX_DOCK_METHOD@@H@Z=stub__FloatTab_CTabbedPane__UAAHPAVCWnd__HW4AFX_DOCK_METHOD__H_Z @4646
    ?FloodFill@CMFCImagePaintArea@@IAAXABVCPoint@@@Z=stub__FloodFill_CMFCImagePaintArea__IAAXABVCPoint___Z @4647
    ?Flush@CArchive@@QAAXXZ=stub__Flush_CArchive__QAAXXZ @4648
    ?Flush@CDumpContext@@QAAXXZ=stub__Flush_CDumpContext__QAAXXZ @4649
    ?Flush@CFile@@UAAXXZ=stub__Flush_CFile__UAAXXZ @4650
    ?Flush@CInternetFile@@UAAXXZ=stub__Flush_CInternetFile__UAAXXZ @4651
    ?Flush@CMemFile@@UAAXXZ=stub__Flush_CMemFile__UAAXXZ @4652
    ?Flush@CMonikerFile@@UAAXXZ=stub__Flush_CMonikerFile__UAAXXZ @4653
    ?Flush@COleStreamFile@@UAAXXZ=stub__Flush_COleStreamFile__UAAXXZ @4654
    ?Flush@CRenderTarget@@QAAXPA_K0@Z=stub__Flush_CRenderTarget__QAAXPA_K0_Z @4655
    ?Flush@CSocketFile@@UAAXXZ=stub__Flush_CSocketFile__UAAXXZ @4656
    ?Flush@CStdioFile@@UAAXXZ=stub__Flush_CStdioFile__UAAXXZ @4657
    ?FlushClipboard@COleDataSource@@SAXXZ=stub__FlushClipboard_COleDataSource__SAXXZ @4658
    ?FlushResultSet@CRecordset@@QAAHXZ=stub__FlushResultSet_CRecordset__QAAHXZ @4659
    ?Focus@CMFCPreviewCtrlImpl@@UAAXXZ=stub__Focus_CMFCPreviewCtrlImpl__UAAXXZ @4660
    ?ForceAdjustLayout@CGlobalUtils@@QAAXPAVCDockingManager@@HH@Z=stub__ForceAdjustLayout_CGlobalUtils__QAAXPAVCDockingManager__HH_Z @4661
    ?ForceRecalcLayout@CMFCRibbonBar@@QAAXXZ=stub__ForceRecalcLayout_CMFCRibbonBar__QAAXXZ @4662
    ?Fork@?$CSimpleStringT@_W$00@ATL@@AAAXH@Z=stub__Fork___CSimpleStringT__W_00_ATL__AAAXH_Z @4663
    ?Fork@?$CSimpleStringT@D$00@ATL@@AAAXH@Z=stub__Fork___CSimpleStringT_D_00_ATL__AAAXH_Z @4664
    ?Format@?$CStringT@_WV?$StrTraitMFC_DLL@_WV?$ChTraitsCRT@_W@ATL@@@@@ATL@@QAAXIZZ=stub__Format___CStringT__WV__StrTraitMFC_DLL__WV__ChTraitsCRT__W_ATL_____ATL__QAAXIZZ @4665
    ?Format@?$CStringT@_WV?$StrTraitMFC_DLL@_WV?$ChTraitsCRT@_W@ATL@@@@@ATL@@QAAXPB_WZZ=stub__Format___CStringT__WV__StrTraitMFC_DLL__WV__ChTraitsCRT__W_ATL_____ATL__QAAXPB_WZZ @4666
    ?Format@?$CStringT@DV?$StrTraitMFC_DLL@DV?$ChTraitsCRT@D@ATL@@@@@ATL@@QAAXIZZ=stub__Format___CStringT_DV__StrTraitMFC_DLL_DV__ChTraitsCRT_D_ATL_____ATL__QAAXIZZ @4667
    ?Format@?$CStringT@DV?$StrTraitMFC_DLL@DV?$ChTraitsCRT@D@ATL@@@@@ATL@@QAAXPBDZZ=stub__Format___CStringT_DV__StrTraitMFC_DLL_DV__ChTraitsCRT_D_ATL_____ATL__QAAXPBDZZ @4668
